

Microchip MPLAB XC8 Assembler V2.41 build 20230208172133 
                                                                                               Thu Jul 13 22:35:13 2023

Microchip MPLAB XC8 C Compiler v2.41 (Free license) build 20230208172133 Og1 
     1                           	processor	16F1827
     2                           	pagewidth 120
     3                           	opt	flic
     4                           	psect	stringtext1,global,class=STRCODE,delta=2,noexec
     5                           	psect	nvBANK0,global,class=BANK0,space=1,delta=1,noexec
     6                           	psect	cinit,global,class=CODE,merge=1,delta=2
     7                           	psect	bssCOMMON,global,class=COMMON,space=1,delta=1,noexec
     8                           	psect	bssBANK0,global,class=BANK0,space=1,delta=1,noexec
     9                           	psect	cstackCOMMON,global,class=COMMON,space=1,delta=1,noexec
    10                           	psect	cstackBANK0,global,class=BANK0,space=1,delta=1,noexec
    11                           	psect	maintext,global,class=CODE,merge=1,split=1,delta=2
    12                           	psect	text1,local,class=CODE,merge=1,delta=2
    13                           	psect	text2,local,class=CODE,merge=1,delta=2
    14                           	psect	text3,local,class=CODE,merge=1,delta=2
    15                           	psect	text4,local,class=CODE,merge=1,delta=2
    16                           	psect	text5,local,class=CODE,merge=1,delta=2
    17                           	psect	text6,local,class=CODE,merge=1,delta=2
    18                           	psect	text7,local,class=CODE,merge=1,delta=2
    19                           	psect	text8,local,class=CODE,merge=1,delta=2
    20                           	psect	text9,local,class=CODE,merge=1,delta=2
    21                           	psect	text10,local,class=CODE,merge=1,delta=2
    22                           	psect	text11,local,class=CODE,merge=1,delta=2
    23                           	psect	text12,local,class=CODE,merge=1,delta=2
    24                           	psect	text13,local,class=CODE,merge=1,delta=2
    25                           	psect	text14,local,class=CODE,merge=1,delta=2
    26                           	psect	text15,local,class=CODE,merge=1,delta=2
    27                           	psect	text16,local,class=CODE,merge=1,delta=2
    28                           	psect	text17,local,class=CODE,merge=1,delta=2
    29                           	psect	text18,local,class=CODE,merge=1,delta=2
    30                           	psect	text19,local,class=CODE,merge=1,delta=2
    31                           	psect	text20,local,class=CODE,merge=1,delta=2
    32                           	psect	text21,local,class=CODE,merge=1,delta=2
    33                           	psect	text22,local,class=CODE,merge=1,delta=2
    34                           	psect	text23,local,class=CODE,merge=1,delta=2
    35                           	psect	text24,local,class=CODE,merge=1,delta=2
    36                           	psect	intentry,global,class=CODE,delta=2
    37                           	psect	text26,local,class=CODE,merge=1,delta=2
    38                           	psect	text27,local,class=CODE,merge=1,delta=2
    39                           	psect	text28,local,class=CODE,merge=1,delta=2
    40                           	psect	text29,local,class=CODE,merge=1,delta=2
    41                           	psect	text30,local,class=CODE,merge=1,delta=2
    42                           	psect	text31,local,class=CODE,merge=1,delta=2
    43                           	psect	text32,local,class=CODE,merge=1,delta=2
    44                           	psect	text33,local,class=CODE,merge=1,delta=2
    45                           	psect	text34,local,class=CODE,merge=1,delta=2
    46                           	psect	text35,local,class=CODE,merge=1,delta=2
    47                           	psect	text36,local,class=CODE,merge=1,delta=2
    48                           	psect	text37,local,class=CODE,merge=1,delta=2
    49                           	psect	text38,local,class=CODE,merge=1,delta=2
    50                           	psect	text39,local,class=CODE,merge=1,delta=2
    51                           	psect	idloc,global,abs,ovrld,class=IDLOC,space=5,delta=2,noexec
    52                           	psect	config,global,abs,ovrld,class=CONFIG,space=4,delta=2,noexec
    53                           	dabs	1,0x7E,2
    54     0000                     
    55                           ; Version 2.40
    56                           ; Generated 17/11/2021 GMT
    57                           ; 
    58                           ; Copyright © 2021, Microchip Technology Inc. and its subsidiaries ("Microchip")
    59                           ; All rights reserved.
    60                           ; 
    61                           ; This software is developed by Microchip Technology Inc. and its subsidiaries ("Microch
      +                          ip").
    62                           ; 
    63                           ; Redistribution and use in source and binary forms, with or without modification, are
    64                           ; permitted provided that the following conditions are met:
    65                           ; 
    66                           ;     1. Redistributions of source code must retain the above copyright notice, this lis
      +                          t of
    67                           ;        conditions and the following disclaimer.
    68                           ; 
    69                           ;     2. Redistributions in binary form must reproduce the above copyright notice, this 
      +                          list
    70                           ;        of conditions and the following disclaimer in the documentation and/or other
    71                           ;        materials provided with the distribution. Publication is not required when
    72                           ;        this file is used in an embedded application.
    73                           ; 
    74                           ;     3. Microchip's name may not be used to endorse or promote products derived from th
      +                          is
    75                           ;        software without specific prior written permission.
    76                           ; 
    77                           ; THIS SOFTWARE IS PROVIDED BY MICROCHIP "AS IS" AND ANY EXPRESS OR IMPLIED WARRANTIES,
    78                           ; INCLUDING, BUT NOT LIMITED TO, THE IMPLIED WARRANTIES OF MERCHANTABILITY AND FITNESS F
      +                          OR
    79                           ; PURPOSE ARE DISCLAIMED.  IN NO EVENT SHALL MICROCHIP BE LIABLE FOR ANY DIRECT, INDIREC
      +                          T,
    80                           ; INCIDENTAL, SPECIAL, EXEMPLARY, OR CONSEQUENTIAL DAMAGES (INCLUDING BUT NOT LIMITED TO
    81                           ; PROCUREMENT OF SUBSTITUTE GOODS OR SERVICES; LOSS OF USE, DATA OR PROFITS; OR BUSINESS
    82                           ; INTERRUPTION) HOWSOEVER CAUSED AND ON ANY THEORY OF LIABILITY, WHETHER IN CONTRACT, ST
      +                          RICT
    83                           ; LIABILITY, OR TORT (INCLUDING NEGLIGENCE OR OTHERWISE) ARISING IN ANY WAY OUT OF THE U
      +                          SE OF
    84                           ; THIS SOFTWARE, EVEN IF ADVISED OF THE POSSIBILITY OF SUCH DAMAGE.
    85                           ; 
    86                           ; 
    87                           ; Code-generator required, PIC16F1827 Definitions
    88                           ; 
    89                           ; SFR Addresses
    90     0000                     	;# 
    91     0001                     	;# 
    92     0002                     	;# 
    93     0003                     	;# 
    94     0004                     	;# 
    95     0005                     	;# 
    96     0006                     	;# 
    97     0007                     	;# 
    98     0008                     	;# 
    99     0009                     	;# 
   100     000A                     	;# 
   101     000B                     	;# 
   102     000C                     	;# 
   103     000D                     	;# 
   104     0011                     	;# 
   105     0012                     	;# 
   106     0013                     	;# 
   107     0014                     	;# 
   108     0015                     	;# 
   109     0016                     	;# 
   110     0016                     	;# 
   111     0017                     	;# 
   112     0018                     	;# 
   113     0019                     	;# 
   114     001A                     	;# 
   115     001B                     	;# 
   116     001C                     	;# 
   117     001E                     	;# 
   118     001F                     	;# 
   119     008C                     	;# 
   120     008D                     	;# 
   121     0091                     	;# 
   122     0092                     	;# 
   123     0093                     	;# 
   124     0094                     	;# 
   125     0095                     	;# 
   126     0096                     	;# 
   127     0097                     	;# 
   128     0098                     	;# 
   129     0099                     	;# 
   130     009A                     	;# 
   131     009B                     	;# 
   132     009B                     	;# 
   133     009C                     	;# 
   134     009D                     	;# 
   135     009E                     	;# 
   136     010C                     	;# 
   137     010D                     	;# 
   138     0111                     	;# 
   139     0112                     	;# 
   140     0113                     	;# 
   141     0114                     	;# 
   142     0115                     	;# 
   143     0116                     	;# 
   144     0117                     	;# 
   145     0118                     	;# 
   146     0119                     	;# 
   147     011A                     	;# 
   148     011B                     	;# 
   149     011D                     	;# 
   150     011E                     	;# 
   151     018C                     	;# 
   152     018D                     	;# 
   153     0191                     	;# 
   154     0191                     	;# 
   155     0192                     	;# 
   156     0193                     	;# 
   157     0193                     	;# 
   158     0193                     	;# 
   159     0194                     	;# 
   160     0195                     	;# 
   161     0196                     	;# 
   162     0199                     	;# 
   163     019A                     	;# 
   164     019B                     	;# 
   165     019B                     	;# 
   166     019B                     	;# 
   167     019B                     	;# 
   168     019C                     	;# 
   169     019C                     	;# 
   170     019D                     	;# 
   171     019E                     	;# 
   172     019F                     	;# 
   173     020C                     	;# 
   174     020D                     	;# 
   175     0211                     	;# 
   176     0211                     	;# 
   177     0212                     	;# 
   178     0212                     	;# 
   179     0213                     	;# 
   180     0213                     	;# 
   181     0214                     	;# 
   182     0214                     	;# 
   183     0215                     	;# 
   184     0215                     	;# 
   185     0215                     	;# 
   186     0216                     	;# 
   187     0216                     	;# 
   188     0217                     	;# 
   189     0217                     	;# 
   190     0219                     	;# 
   191     021A                     	;# 
   192     021B                     	;# 
   193     021C                     	;# 
   194     021D                     	;# 
   195     021E                     	;# 
   196     021F                     	;# 
   197     0291                     	;# 
   198     0291                     	;# 
   199     0292                     	;# 
   200     0293                     	;# 
   201     0294                     	;# 
   202     0295                     	;# 
   203     0295                     	;# 
   204     0296                     	;# 
   205     0298                     	;# 
   206     0298                     	;# 
   207     0299                     	;# 
   208     029A                     	;# 
   209     029B                     	;# 
   210     029C                     	;# 
   211     029C                     	;# 
   212     029D                     	;# 
   213     029E                     	;# 
   214     029E                     	;# 
   215     0311                     	;# 
   216     0311                     	;# 
   217     0312                     	;# 
   218     0313                     	;# 
   219     0318                     	;# 
   220     0318                     	;# 
   221     0319                     	;# 
   222     031A                     	;# 
   223     0394                     	;# 
   224     0395                     	;# 
   225     0396                     	;# 
   226     039A                     	;# 
   227     039C                     	;# 
   228     039D                     	;# 
   229     039E                     	;# 
   230     039F                     	;# 
   231     0415                     	;# 
   232     0416                     	;# 
   233     0417                     	;# 
   234     041C                     	;# 
   235     041D                     	;# 
   236     041E                     	;# 
   237     0FE4                     	;# 
   238     0FE5                     	;# 
   239     0FE6                     	;# 
   240     0FE7                     	;# 
   241     0FE8                     	;# 
   242     0FE9                     	;# 
   243     0FEA                     	;# 
   244     0FEB                     	;# 
   245     0FED                     	;# 
   246     0FEE                     	;# 
   247     0FEF                     	;# 
   248     0000                     	;# 
   249     0001                     	;# 
   250     0002                     	;# 
   251     0003                     	;# 
   252     0004                     	;# 
   253     0005                     	;# 
   254     0006                     	;# 
   255     0007                     	;# 
   256     0008                     	;# 
   257     0009                     	;# 
   258     000A                     	;# 
   259     000B                     	;# 
   260     000C                     	;# 
   261     000D                     	;# 
   262     0011                     	;# 
   263     0012                     	;# 
   264     0013                     	;# 
   265     0014                     	;# 
   266     0015                     	;# 
   267     0016                     	;# 
   268     0016                     	;# 
   269     0017                     	;# 
   270     0018                     	;# 
   271     0019                     	;# 
   272     001A                     	;# 
   273     001B                     	;# 
   274     001C                     	;# 
   275     001E                     	;# 
   276     001F                     	;# 
   277     008C                     	;# 
   278     008D                     	;# 
   279     0091                     	;# 
   280     0092                     	;# 
   281     0093                     	;# 
   282     0094                     	;# 
   283     0095                     	;# 
   284     0096                     	;# 
   285     0097                     	;# 
   286     0098                     	;# 
   287     0099                     	;# 
   288     009A                     	;# 
   289     009B                     	;# 
   290     009B                     	;# 
   291     009C                     	;# 
   292     009D                     	;# 
   293     009E                     	;# 
   294     010C                     	;# 
   295     010D                     	;# 
   296     0111                     	;# 
   297     0112                     	;# 
   298     0113                     	;# 
   299     0114                     	;# 
   300     0115                     	;# 
   301     0116                     	;# 
   302     0117                     	;# 
   303     0118                     	;# 
   304     0119                     	;# 
   305     011A                     	;# 
   306     011B                     	;# 
   307     011D                     	;# 
   308     011E                     	;# 
   309     018C                     	;# 
   310     018D                     	;# 
   311     0191                     	;# 
   312     0191                     	;# 
   313     0192                     	;# 
   314     0193                     	;# 
   315     0193                     	;# 
   316     0193                     	;# 
   317     0194                     	;# 
   318     0195                     	;# 
   319     0196                     	;# 
   320     0199                     	;# 
   321     019A                     	;# 
   322     019B                     	;# 
   323     019B                     	;# 
   324     019B                     	;# 
   325     019B                     	;# 
   326     019C                     	;# 
   327     019C                     	;# 
   328     019D                     	;# 
   329     019E                     	;# 
   330     019F                     	;# 
   331     020C                     	;# 
   332     020D                     	;# 
   333     0211                     	;# 
   334     0211                     	;# 
   335     0212                     	;# 
   336     0212                     	;# 
   337     0213                     	;# 
   338     0213                     	;# 
   339     0214                     	;# 
   340     0214                     	;# 
   341     0215                     	;# 
   342     0215                     	;# 
   343     0215                     	;# 
   344     0216                     	;# 
   345     0216                     	;# 
   346     0217                     	;# 
   347     0217                     	;# 
   348     0219                     	;# 
   349     021A                     	;# 
   350     021B                     	;# 
   351     021C                     	;# 
   352     021D                     	;# 
   353     021E                     	;# 
   354     021F                     	;# 
   355     0291                     	;# 
   356     0291                     	;# 
   357     0292                     	;# 
   358     0293                     	;# 
   359     0294                     	;# 
   360     0295                     	;# 
   361     0295                     	;# 
   362     0296                     	;# 
   363     0298                     	;# 
   364     0298                     	;# 
   365     0299                     	;# 
   366     029A                     	;# 
   367     029B                     	;# 
   368     029C                     	;# 
   369     029C                     	;# 
   370     029D                     	;# 
   371     029E                     	;# 
   372     029E                     	;# 
   373     0311                     	;# 
   374     0311                     	;# 
   375     0312                     	;# 
   376     0313                     	;# 
   377     0318                     	;# 
   378     0318                     	;# 
   379     0319                     	;# 
   380     031A                     	;# 
   381     0394                     	;# 
   382     0395                     	;# 
   383     0396                     	;# 
   384     039A                     	;# 
   385     039C                     	;# 
   386     039D                     	;# 
   387     039E                     	;# 
   388     039F                     	;# 
   389     0415                     	;# 
   390     0416                     	;# 
   391     0417                     	;# 
   392     041C                     	;# 
   393     041D                     	;# 
   394     041E                     	;# 
   395     0FE4                     	;# 
   396     0FE5                     	;# 
   397     0FE6                     	;# 
   398     0FE7                     	;# 
   399     0FE8                     	;# 
   400     0FE9                     	;# 
   401     0FEA                     	;# 
   402     0FEB                     	;# 
   403     0FED                     	;# 
   404     0FEE                     	;# 
   405     0FEF                     	;# 
   406     0000                     	;# 
   407     0001                     	;# 
   408     0002                     	;# 
   409     0003                     	;# 
   410     0004                     	;# 
   411     0005                     	;# 
   412     0006                     	;# 
   413     0007                     	;# 
   414     0008                     	;# 
   415     0009                     	;# 
   416     000A                     	;# 
   417     000B                     	;# 
   418     000C                     	;# 
   419     000D                     	;# 
   420     0011                     	;# 
   421     0012                     	;# 
   422     0013                     	;# 
   423     0014                     	;# 
   424     0015                     	;# 
   425     0016                     	;# 
   426     0016                     	;# 
   427     0017                     	;# 
   428     0018                     	;# 
   429     0019                     	;# 
   430     001A                     	;# 
   431     001B                     	;# 
   432     001C                     	;# 
   433     001E                     	;# 
   434     001F                     	;# 
   435     008C                     	;# 
   436     008D                     	;# 
   437     0091                     	;# 
   438     0092                     	;# 
   439     0093                     	;# 
   440     0094                     	;# 
   441     0095                     	;# 
   442     0096                     	;# 
   443     0097                     	;# 
   444     0098                     	;# 
   445     0099                     	;# 
   446     009A                     	;# 
   447     009B                     	;# 
   448     009B                     	;# 
   449     009C                     	;# 
   450     009D                     	;# 
   451     009E                     	;# 
   452     010C                     	;# 
   453     010D                     	;# 
   454     0111                     	;# 
   455     0112                     	;# 
   456     0113                     	;# 
   457     0114                     	;# 
   458     0115                     	;# 
   459     0116                     	;# 
   460     0117                     	;# 
   461     0118                     	;# 
   462     0119                     	;# 
   463     011A                     	;# 
   464     011B                     	;# 
   465     011D                     	;# 
   466     011E                     	;# 
   467     018C                     	;# 
   468     018D                     	;# 
   469     0191                     	;# 
   470     0191                     	;# 
   471     0192                     	;# 
   472     0193                     	;# 
   473     0193                     	;# 
   474     0193                     	;# 
   475     0194                     	;# 
   476     0195                     	;# 
   477     0196                     	;# 
   478     0199                     	;# 
   479     019A                     	;# 
   480     019B                     	;# 
   481     019B                     	;# 
   482     019B                     	;# 
   483     019B                     	;# 
   484     019C                     	;# 
   485     019C                     	;# 
   486     019D                     	;# 
   487     019E                     	;# 
   488     019F                     	;# 
   489     020C                     	;# 
   490     020D                     	;# 
   491     0211                     	;# 
   492     0211                     	;# 
   493     0212                     	;# 
   494     0212                     	;# 
   495     0213                     	;# 
   496     0213                     	;# 
   497     0214                     	;# 
   498     0214                     	;# 
   499     0215                     	;# 
   500     0215                     	;# 
   501     0215                     	;# 
   502     0216                     	;# 
   503     0216                     	;# 
   504     0217                     	;# 
   505     0217                     	;# 
   506     0219                     	;# 
   507     021A                     	;# 
   508     021B                     	;# 
   509     021C                     	;# 
   510     021D                     	;# 
   511     021E                     	;# 
   512     021F                     	;# 
   513     0291                     	;# 
   514     0291                     	;# 
   515     0292                     	;# 
   516     0293                     	;# 
   517     0294                     	;# 
   518     0295                     	;# 
   519     0295                     	;# 
   520     0296                     	;# 
   521     0298                     	;# 
   522     0298                     	;# 
   523     0299                     	;# 
   524     029A                     	;# 
   525     029B                     	;# 
   526     029C                     	;# 
   527     029C                     	;# 
   528     029D                     	;# 
   529     029E                     	;# 
   530     029E                     	;# 
   531     0311                     	;# 
   532     0311                     	;# 
   533     0312                     	;# 
   534     0313                     	;# 
   535     0318                     	;# 
   536     0318                     	;# 
   537     0319                     	;# 
   538     031A                     	;# 
   539     0394                     	;# 
   540     0395                     	;# 
   541     0396                     	;# 
   542     039A                     	;# 
   543     039C                     	;# 
   544     039D                     	;# 
   545     039E                     	;# 
   546     039F                     	;# 
   547     0415                     	;# 
   548     0416                     	;# 
   549     0417                     	;# 
   550     041C                     	;# 
   551     041D                     	;# 
   552     041E                     	;# 
   553     0FE4                     	;# 
   554     0FE5                     	;# 
   555     0FE6                     	;# 
   556     0FE7                     	;# 
   557     0FE8                     	;# 
   558     0FE9                     	;# 
   559     0FEA                     	;# 
   560     0FEB                     	;# 
   561     0FED                     	;# 
   562     0FEE                     	;# 
   563     0FEF                     	;# 
   564     0000                     	;# 
   565     0001                     	;# 
   566     0002                     	;# 
   567     0003                     	;# 
   568     0004                     	;# 
   569     0005                     	;# 
   570     0006                     	;# 
   571     0007                     	;# 
   572     0008                     	;# 
   573     0009                     	;# 
   574     000A                     	;# 
   575     000B                     	;# 
   576     000C                     	;# 
   577     000D                     	;# 
   578     0011                     	;# 
   579     0012                     	;# 
   580     0013                     	;# 
   581     0014                     	;# 
   582     0015                     	;# 
   583     0016                     	;# 
   584     0016                     	;# 
   585     0017                     	;# 
   586     0018                     	;# 
   587     0019                     	;# 
   588     001A                     	;# 
   589     001B                     	;# 
   590     001C                     	;# 
   591     001E                     	;# 
   592     001F                     	;# 
   593     008C                     	;# 
   594     008D                     	;# 
   595     0091                     	;# 
   596     0092                     	;# 
   597     0093                     	;# 
   598     0094                     	;# 
   599     0095                     	;# 
   600     0096                     	;# 
   601     0097                     	;# 
   602     0098                     	;# 
   603     0099                     	;# 
   604     009A                     	;# 
   605     009B                     	;# 
   606     009B                     	;# 
   607     009C                     	;# 
   608     009D                     	;# 
   609     009E                     	;# 
   610     010C                     	;# 
   611     010D                     	;# 
   612     0111                     	;# 
   613     0112                     	;# 
   614     0113                     	;# 
   615     0114                     	;# 
   616     0115                     	;# 
   617     0116                     	;# 
   618     0117                     	;# 
   619     0118                     	;# 
   620     0119                     	;# 
   621     011A                     	;# 
   622     011B                     	;# 
   623     011D                     	;# 
   624     011E                     	;# 
   625     018C                     	;# 
   626     018D                     	;# 
   627     0191                     	;# 
   628     0191                     	;# 
   629     0192                     	;# 
   630     0193                     	;# 
   631     0193                     	;# 
   632     0193                     	;# 
   633     0194                     	;# 
   634     0195                     	;# 
   635     0196                     	;# 
   636     0199                     	;# 
   637     019A                     	;# 
   638     019B                     	;# 
   639     019B                     	;# 
   640     019B                     	;# 
   641     019B                     	;# 
   642     019C                     	;# 
   643     019C                     	;# 
   644     019D                     	;# 
   645     019E                     	;# 
   646     019F                     	;# 
   647     020C                     	;# 
   648     020D                     	;# 
   649     0211                     	;# 
   650     0211                     	;# 
   651     0212                     	;# 
   652     0212                     	;# 
   653     0213                     	;# 
   654     0213                     	;# 
   655     0214                     	;# 
   656     0214                     	;# 
   657     0215                     	;# 
   658     0215                     	;# 
   659     0215                     	;# 
   660     0216                     	;# 
   661     0216                     	;# 
   662     0217                     	;# 
   663     0217                     	;# 
   664     0219                     	;# 
   665     021A                     	;# 
   666     021B                     	;# 
   667     021C                     	;# 
   668     021D                     	;# 
   669     021E                     	;# 
   670     021F                     	;# 
   671     0291                     	;# 
   672     0291                     	;# 
   673     0292                     	;# 
   674     0293                     	;# 
   675     0294                     	;# 
   676     0295                     	;# 
   677     0295                     	;# 
   678     0296                     	;# 
   679     0298                     	;# 
   680     0298                     	;# 
   681     0299                     	;# 
   682     029A                     	;# 
   683     029B                     	;# 
   684     029C                     	;# 
   685     029C                     	;# 
   686     029D                     	;# 
   687     029E                     	;# 
   688     029E                     	;# 
   689     0311                     	;# 
   690     0311                     	;# 
   691     0312                     	;# 
   692     0313                     	;# 
   693     0318                     	;# 
   694     0318                     	;# 
   695     0319                     	;# 
   696     031A                     	;# 
   697     0394                     	;# 
   698     0395                     	;# 
   699     0396                     	;# 
   700     039A                     	;# 
   701     039C                     	;# 
   702     039D                     	;# 
   703     039E                     	;# 
   704     039F                     	;# 
   705     0415                     	;# 
   706     0416                     	;# 
   707     0417                     	;# 
   708     041C                     	;# 
   709     041D                     	;# 
   710     041E                     	;# 
   711     0FE4                     	;# 
   712     0FE5                     	;# 
   713     0FE6                     	;# 
   714     0FE7                     	;# 
   715     0FE8                     	;# 
   716     0FE9                     	;# 
   717     0FEA                     	;# 
   718     0FEB                     	;# 
   719     0FED                     	;# 
   720     0FEE                     	;# 
   721     0FEF                     	;# 
   722     0000                     	;# 
   723     0001                     	;# 
   724     0002                     	;# 
   725     0003                     	;# 
   726     0004                     	;# 
   727     0005                     	;# 
   728     0006                     	;# 
   729     0007                     	;# 
   730     0008                     	;# 
   731     0009                     	;# 
   732     000A                     	;# 
   733     000B                     	;# 
   734     000C                     	;# 
   735     000D                     	;# 
   736     0011                     	;# 
   737     0012                     	;# 
   738     0013                     	;# 
   739     0014                     	;# 
   740     0015                     	;# 
   741     0016                     	;# 
   742     0016                     	;# 
   743     0017                     	;# 
   744     0018                     	;# 
   745     0019                     	;# 
   746     001A                     	;# 
   747     001B                     	;# 
   748     001C                     	;# 
   749     001E                     	;# 
   750     001F                     	;# 
   751     008C                     	;# 
   752     008D                     	;# 
   753     0091                     	;# 
   754     0092                     	;# 
   755     0093                     	;# 
   756     0094                     	;# 
   757     0095                     	;# 
   758     0096                     	;# 
   759     0097                     	;# 
   760     0098                     	;# 
   761     0099                     	;# 
   762     009A                     	;# 
   763     009B                     	;# 
   764     009B                     	;# 
   765     009C                     	;# 
   766     009D                     	;# 
   767     009E                     	;# 
   768     010C                     	;# 
   769     010D                     	;# 
   770     0111                     	;# 
   771     0112                     	;# 
   772     0113                     	;# 
   773     0114                     	;# 
   774     0115                     	;# 
   775     0116                     	;# 
   776     0117                     	;# 
   777     0118                     	;# 
   778     0119                     	;# 
   779     011A                     	;# 
   780     011B                     	;# 
   781     011D                     	;# 
   782     011E                     	;# 
   783     018C                     	;# 
   784     018D                     	;# 
   785     0191                     	;# 
   786     0191                     	;# 
   787     0192                     	;# 
   788     0193                     	;# 
   789     0193                     	;# 
   790     0193                     	;# 
   791     0194                     	;# 
   792     0195                     	;# 
   793     0196                     	;# 
   794     0199                     	;# 
   795     019A                     	;# 
   796     019B                     	;# 
   797     019B                     	;# 
   798     019B                     	;# 
   799     019B                     	;# 
   800     019C                     	;# 
   801     019C                     	;# 
   802     019D                     	;# 
   803     019E                     	;# 
   804     019F                     	;# 
   805     020C                     	;# 
   806     020D                     	;# 
   807     0211                     	;# 
   808     0211                     	;# 
   809     0212                     	;# 
   810     0212                     	;# 
   811     0213                     	;# 
   812     0213                     	;# 
   813     0214                     	;# 
   814     0214                     	;# 
   815     0215                     	;# 
   816     0215                     	;# 
   817     0215                     	;# 
   818     0216                     	;# 
   819     0216                     	;# 
   820     0217                     	;# 
   821     0217                     	;# 
   822     0219                     	;# 
   823     021A                     	;# 
   824     021B                     	;# 
   825     021C                     	;# 
   826     021D                     	;# 
   827     021E                     	;# 
   828     021F                     	;# 
   829     0291                     	;# 
   830     0291                     	;# 
   831     0292                     	;# 
   832     0293                     	;# 
   833     0294                     	;# 
   834     0295                     	;# 
   835     0295                     	;# 
   836     0296                     	;# 
   837     0298                     	;# 
   838     0298                     	;# 
   839     0299                     	;# 
   840     029A                     	;# 
   841     029B                     	;# 
   842     029C                     	;# 
   843     029C                     	;# 
   844     029D                     	;# 
   845     029E                     	;# 
   846     029E                     	;# 
   847     0311                     	;# 
   848     0311                     	;# 
   849     0312                     	;# 
   850     0313                     	;# 
   851     0318                     	;# 
   852     0318                     	;# 
   853     0319                     	;# 
   854     031A                     	;# 
   855     0394                     	;# 
   856     0395                     	;# 
   857     0396                     	;# 
   858     039A                     	;# 
   859     039C                     	;# 
   860     039D                     	;# 
   861     039E                     	;# 
   862     039F                     	;# 
   863     0415                     	;# 
   864     0416                     	;# 
   865     0417                     	;# 
   866     041C                     	;# 
   867     041D                     	;# 
   868     041E                     	;# 
   869     0FE4                     	;# 
   870     0FE5                     	;# 
   871     0FE6                     	;# 
   872     0FE7                     	;# 
   873     0FE8                     	;# 
   874     0FE9                     	;# 
   875     0FEA                     	;# 
   876     0FEB                     	;# 
   877     0FED                     	;# 
   878     0FEE                     	;# 
   879     0FEF                     	;# 
   880     0000                     	;# 
   881     0001                     	;# 
   882     0002                     	;# 
   883     0003                     	;# 
   884     0004                     	;# 
   885     0005                     	;# 
   886     0006                     	;# 
   887     0007                     	;# 
   888     0008                     	;# 
   889     0009                     	;# 
   890     000A                     	;# 
   891     000B                     	;# 
   892     000C                     	;# 
   893     000D                     	;# 
   894     0011                     	;# 
   895     0012                     	;# 
   896     0013                     	;# 
   897     0014                     	;# 
   898     0015                     	;# 
   899     0016                     	;# 
   900     0016                     	;# 
   901     0017                     	;# 
   902     0018                     	;# 
   903     0019                     	;# 
   904     001A                     	;# 
   905     001B                     	;# 
   906     001C                     	;# 
   907     001E                     	;# 
   908     001F                     	;# 
   909     008C                     	;# 
   910     008D                     	;# 
   911     0091                     	;# 
   912     0092                     	;# 
   913     0093                     	;# 
   914     0094                     	;# 
   915     0095                     	;# 
   916     0096                     	;# 
   917     0097                     	;# 
   918     0098                     	;# 
   919     0099                     	;# 
   920     009A                     	;# 
   921     009B                     	;# 
   922     009B                     	;# 
   923     009C                     	;# 
   924     009D                     	;# 
   925     009E                     	;# 
   926     010C                     	;# 
   927     010D                     	;# 
   928     0111                     	;# 
   929     0112                     	;# 
   930     0113                     	;# 
   931     0114                     	;# 
   932     0115                     	;# 
   933     0116                     	;# 
   934     0117                     	;# 
   935     0118                     	;# 
   936     0119                     	;# 
   937     011A                     	;# 
   938     011B                     	;# 
   939     011D                     	;# 
   940     011E                     	;# 
   941     018C                     	;# 
   942     018D                     	;# 
   943     0191                     	;# 
   944     0191                     	;# 
   945     0192                     	;# 
   946     0193                     	;# 
   947     0193                     	;# 
   948     0193                     	;# 
   949     0194                     	;# 
   950     0195                     	;# 
   951     0196                     	;# 
   952     0199                     	;# 
   953     019A                     	;# 
   954     019B                     	;# 
   955     019B                     	;# 
   956     019B                     	;# 
   957     019B                     	;# 
   958     019C                     	;# 
   959     019C                     	;# 
   960     019D                     	;# 
   961     019E                     	;# 
   962     019F                     	;# 
   963     020C                     	;# 
   964     020D                     	;# 
   965     0211                     	;# 
   966     0211                     	;# 
   967     0212                     	;# 
   968     0212                     	;# 
   969     0213                     	;# 
   970     0213                     	;# 
   971     0214                     	;# 
   972     0214                     	;# 
   973     0215                     	;# 
   974     0215                     	;# 
   975     0215                     	;# 
   976     0216                     	;# 
   977     0216                     	;# 
   978     0217                     	;# 
   979     0217                     	;# 
   980     0219                     	;# 
   981     021A                     	;# 
   982     021B                     	;# 
   983     021C                     	;# 
   984     021D                     	;# 
   985     021E                     	;# 
   986     021F                     	;# 
   987     0291                     	;# 
   988     0291                     	;# 
   989     0292                     	;# 
   990     0293                     	;# 
   991     0294                     	;# 
   992     0295                     	;# 
   993     0295                     	;# 
   994     0296                     	;# 
   995     0298                     	;# 
   996     0298                     	;# 
   997     0299                     	;# 
   998     029A                     	;# 
   999     029B                     	;# 
  1000     029C                     	;# 
  1001     029C                     	;# 
  1002     029D                     	;# 
  1003     029E                     	;# 
  1004     029E                     	;# 
  1005     0311                     	;# 
  1006     0311                     	;# 
  1007     0312                     	;# 
  1008     0313                     	;# 
  1009     0318                     	;# 
  1010     0318                     	;# 
  1011     0319                     	;# 
  1012     031A                     	;# 
  1013     0394                     	;# 
  1014     0395                     	;# 
  1015     0396                     	;# 
  1016     039A                     	;# 
  1017     039C                     	;# 
  1018     039D                     	;# 
  1019     039E                     	;# 
  1020     039F                     	;# 
  1021     0415                     	;# 
  1022     0416                     	;# 
  1023     0417                     	;# 
  1024     041C                     	;# 
  1025     041D                     	;# 
  1026     041E                     	;# 
  1027     0FE4                     	;# 
  1028     0FE5                     	;# 
  1029     0FE6                     	;# 
  1030     0FE7                     	;# 
  1031     0FE8                     	;# 
  1032     0FE9                     	;# 
  1033     0FEA                     	;# 
  1034     0FEB                     	;# 
  1035     0FED                     	;# 
  1036     0FEE                     	;# 
  1037     0FEF                     	;# 
  1038     0000                     	;# 
  1039     0001                     	;# 
  1040     0002                     	;# 
  1041     0003                     	;# 
  1042     0004                     	;# 
  1043     0005                     	;# 
  1044     0006                     	;# 
  1045     0007                     	;# 
  1046     0008                     	;# 
  1047     0009                     	;# 
  1048     000A                     	;# 
  1049     000B                     	;# 
  1050     000C                     	;# 
  1051     000D                     	;# 
  1052     0011                     	;# 
  1053     0012                     	;# 
  1054     0013                     	;# 
  1055     0014                     	;# 
  1056     0015                     	;# 
  1057     0016                     	;# 
  1058     0016                     	;# 
  1059     0017                     	;# 
  1060     0018                     	;# 
  1061     0019                     	;# 
  1062     001A                     	;# 
  1063     001B                     	;# 
  1064     001C                     	;# 
  1065     001E                     	;# 
  1066     001F                     	;# 
  1067     008C                     	;# 
  1068     008D                     	;# 
  1069     0091                     	;# 
  1070     0092                     	;# 
  1071     0093                     	;# 
  1072     0094                     	;# 
  1073     0095                     	;# 
  1074     0096                     	;# 
  1075     0097                     	;# 
  1076     0098                     	;# 
  1077     0099                     	;# 
  1078     009A                     	;# 
  1079     009B                     	;# 
  1080     009B                     	;# 
  1081     009C                     	;# 
  1082     009D                     	;# 
  1083     009E                     	;# 
  1084     010C                     	;# 
  1085     010D                     	;# 
  1086     0111                     	;# 
  1087     0112                     	;# 
  1088     0113                     	;# 
  1089     0114                     	;# 
  1090     0115                     	;# 
  1091     0116                     	;# 
  1092     0117                     	;# 
  1093     0118                     	;# 
  1094     0119                     	;# 
  1095     011A                     	;# 
  1096     011B                     	;# 
  1097     011D                     	;# 
  1098     011E                     	;# 
  1099     018C                     	;# 
  1100     018D                     	;# 
  1101     0191                     	;# 
  1102     0191                     	;# 
  1103     0192                     	;# 
  1104     0193                     	;# 
  1105     0193                     	;# 
  1106     0193                     	;# 
  1107     0194                     	;# 
  1108     0195                     	;# 
  1109     0196                     	;# 
  1110     0199                     	;# 
  1111     019A                     	;# 
  1112     019B                     	;# 
  1113     019B                     	;# 
  1114     019B                     	;# 
  1115     019B                     	;# 
  1116     019C                     	;# 
  1117     019C                     	;# 
  1118     019D                     	;# 
  1119     019E                     	;# 
  1120     019F                     	;# 
  1121     020C                     	;# 
  1122     020D                     	;# 
  1123     0211                     	;# 
  1124     0211                     	;# 
  1125     0212                     	;# 
  1126     0212                     	;# 
  1127     0213                     	;# 
  1128     0213                     	;# 
  1129     0214                     	;# 
  1130     0214                     	;# 
  1131     0215                     	;# 
  1132     0215                     	;# 
  1133     0215                     	;# 
  1134     0216                     	;# 
  1135     0216                     	;# 
  1136     0217                     	;# 
  1137     0217                     	;# 
  1138     0219                     	;# 
  1139     021A                     	;# 
  1140     021B                     	;# 
  1141     021C                     	;# 
  1142     021D                     	;# 
  1143     021E                     	;# 
  1144     021F                     	;# 
  1145     0291                     	;# 
  1146     0291                     	;# 
  1147     0292                     	;# 
  1148     0293                     	;# 
  1149     0294                     	;# 
  1150     0295                     	;# 
  1151     0295                     	;# 
  1152     0296                     	;# 
  1153     0298                     	;# 
  1154     0298                     	;# 
  1155     0299                     	;# 
  1156     029A                     	;# 
  1157     029B                     	;# 
  1158     029C                     	;# 
  1159     029C                     	;# 
  1160     029D                     	;# 
  1161     029E                     	;# 
  1162     029E                     	;# 
  1163     0311                     	;# 
  1164     0311                     	;# 
  1165     0312                     	;# 
  1166     0313                     	;# 
  1167     0318                     	;# 
  1168     0318                     	;# 
  1169     0319                     	;# 
  1170     031A                     	;# 
  1171     0394                     	;# 
  1172     0395                     	;# 
  1173     0396                     	;# 
  1174     039A                     	;# 
  1175     039C                     	;# 
  1176     039D                     	;# 
  1177     039E                     	;# 
  1178     039F                     	;# 
  1179     0415                     	;# 
  1180     0416                     	;# 
  1181     0417                     	;# 
  1182     041C                     	;# 
  1183     041D                     	;# 
  1184     041E                     	;# 
  1185     0FE4                     	;# 
  1186     0FE5                     	;# 
  1187     0FE6                     	;# 
  1188     0FE7                     	;# 
  1189     0FE8                     	;# 
  1190     0FE9                     	;# 
  1191     0FEA                     	;# 
  1192     0FEB                     	;# 
  1193     0FED                     	;# 
  1194     0FEE                     	;# 
  1195     0FEF                     	;# 
  1196     0000                     	;# 
  1197     0001                     	;# 
  1198     0002                     	;# 
  1199     0003                     	;# 
  1200     0004                     	;# 
  1201     0005                     	;# 
  1202     0006                     	;# 
  1203     0007                     	;# 
  1204     0008                     	;# 
  1205     0009                     	;# 
  1206     000A                     	;# 
  1207     000B                     	;# 
  1208     000C                     	;# 
  1209     000D                     	;# 
  1210     0011                     	;# 
  1211     0012                     	;# 
  1212     0013                     	;# 
  1213     0014                     	;# 
  1214     0015                     	;# 
  1215     0016                     	;# 
  1216     0016                     	;# 
  1217     0017                     	;# 
  1218     0018                     	;# 
  1219     0019                     	;# 
  1220     001A                     	;# 
  1221     001B                     	;# 
  1222     001C                     	;# 
  1223     001E                     	;# 
  1224     001F                     	;# 
  1225     008C                     	;# 
  1226     008D                     	;# 
  1227     0091                     	;# 
  1228     0092                     	;# 
  1229     0093                     	;# 
  1230     0094                     	;# 
  1231     0095                     	;# 
  1232     0096                     	;# 
  1233     0097                     	;# 
  1234     0098                     	;# 
  1235     0099                     	;# 
  1236     009A                     	;# 
  1237     009B                     	;# 
  1238     009B                     	;# 
  1239     009C                     	;# 
  1240     009D                     	;# 
  1241     009E                     	;# 
  1242     010C                     	;# 
  1243     010D                     	;# 
  1244     0111                     	;# 
  1245     0112                     	;# 
  1246     0113                     	;# 
  1247     0114                     	;# 
  1248     0115                     	;# 
  1249     0116                     	;# 
  1250     0117                     	;# 
  1251     0118                     	;# 
  1252     0119                     	;# 
  1253     011A                     	;# 
  1254     011B                     	;# 
  1255     011D                     	;# 
  1256     011E                     	;# 
  1257     018C                     	;# 
  1258     018D                     	;# 
  1259     0191                     	;# 
  1260     0191                     	;# 
  1261     0192                     	;# 
  1262     0193                     	;# 
  1263     0193                     	;# 
  1264     0193                     	;# 
  1265     0194                     	;# 
  1266     0195                     	;# 
  1267     0196                     	;# 
  1268     0199                     	;# 
  1269     019A                     	;# 
  1270     019B                     	;# 
  1271     019B                     	;# 
  1272     019B                     	;# 
  1273     019B                     	;# 
  1274     019C                     	;# 
  1275     019C                     	;# 
  1276     019D                     	;# 
  1277     019E                     	;# 
  1278     019F                     	;# 
  1279     020C                     	;# 
  1280     020D                     	;# 
  1281     0211                     	;# 
  1282     0211                     	;# 
  1283     0212                     	;# 
  1284     0212                     	;# 
  1285     0213                     	;# 
  1286     0213                     	;# 
  1287     0214                     	;# 
  1288     0214                     	;# 
  1289     0215                     	;# 
  1290     0215                     	;# 
  1291     0215                     	;# 
  1292     0216                     	;# 
  1293     0216                     	;# 
  1294     0217                     	;# 
  1295     0217                     	;# 
  1296     0219                     	;# 
  1297     021A                     	;# 
  1298     021B                     	;# 
  1299     021C                     	;# 
  1300     021D                     	;# 
  1301     021E                     	;# 
  1302     021F                     	;# 
  1303     0291                     	;# 
  1304     0291                     	;# 
  1305     0292                     	;# 
  1306     0293                     	;# 
  1307     0294                     	;# 
  1308     0295                     	;# 
  1309     0295                     	;# 
  1310     0296                     	;# 
  1311     0298                     	;# 
  1312     0298                     	;# 
  1313     0299                     	;# 
  1314     029A                     	;# 
  1315     029B                     	;# 
  1316     029C                     	;# 
  1317     029C                     	;# 
  1318     029D                     	;# 
  1319     029E                     	;# 
  1320     029E                     	;# 
  1321     0311                     	;# 
  1322     0311                     	;# 
  1323     0312                     	;# 
  1324     0313                     	;# 
  1325     0318                     	;# 
  1326     0318                     	;# 
  1327     0319                     	;# 
  1328     031A                     	;# 
  1329     0394                     	;# 
  1330     0395                     	;# 
  1331     0396                     	;# 
  1332     039A                     	;# 
  1333     039C                     	;# 
  1334     039D                     	;# 
  1335     039E                     	;# 
  1336     039F                     	;# 
  1337     0415                     	;# 
  1338     0416                     	;# 
  1339     0417                     	;# 
  1340     041C                     	;# 
  1341     041D                     	;# 
  1342     041E                     	;# 
  1343     0FE4                     	;# 
  1344     0FE5                     	;# 
  1345     0FE6                     	;# 
  1346     0FE7                     	;# 
  1347     0FE8                     	;# 
  1348     0FE9                     	;# 
  1349     0FEA                     	;# 
  1350     0FEB                     	;# 
  1351     0FED                     	;# 
  1352     0FEE                     	;# 
  1353     0FEF                     	;# 
  1354     0000                     	;# 
  1355     0001                     	;# 
  1356     0002                     	;# 
  1357     0003                     	;# 
  1358     0004                     	;# 
  1359     0005                     	;# 
  1360     0006                     	;# 
  1361     0007                     	;# 
  1362     0008                     	;# 
  1363     0009                     	;# 
  1364     000A                     	;# 
  1365     000B                     	;# 
  1366     000C                     	;# 
  1367     000D                     	;# 
  1368     0011                     	;# 
  1369     0012                     	;# 
  1370     0013                     	;# 
  1371     0014                     	;# 
  1372     0015                     	;# 
  1373     0016                     	;# 
  1374     0016                     	;# 
  1375     0017                     	;# 
  1376     0018                     	;# 
  1377     0019                     	;# 
  1378     001A                     	;# 
  1379     001B                     	;# 
  1380     001C                     	;# 
  1381     001E                     	;# 
  1382     001F                     	;# 
  1383     008C                     	;# 
  1384     008D                     	;# 
  1385     0091                     	;# 
  1386     0092                     	;# 
  1387     0093                     	;# 
  1388     0094                     	;# 
  1389     0095                     	;# 
  1390     0096                     	;# 
  1391     0097                     	;# 
  1392     0098                     	;# 
  1393     0099                     	;# 
  1394     009A                     	;# 
  1395     009B                     	;# 
  1396     009B                     	;# 
  1397     009C                     	;# 
  1398     009D                     	;# 
  1399     009E                     	;# 
  1400     010C                     	;# 
  1401     010D                     	;# 
  1402     0111                     	;# 
  1403     0112                     	;# 
  1404     0113                     	;# 
  1405     0114                     	;# 
  1406     0115                     	;# 
  1407     0116                     	;# 
  1408     0117                     	;# 
  1409     0118                     	;# 
  1410     0119                     	;# 
  1411     011A                     	;# 
  1412     011B                     	;# 
  1413     011D                     	;# 
  1414     011E                     	;# 
  1415     018C                     	;# 
  1416     018D                     	;# 
  1417     0191                     	;# 
  1418     0191                     	;# 
  1419     0192                     	;# 
  1420     0193                     	;# 
  1421     0193                     	;# 
  1422     0193                     	;# 
  1423     0194                     	;# 
  1424     0195                     	;# 
  1425     0196                     	;# 
  1426     0199                     	;# 
  1427     019A                     	;# 
  1428     019B                     	;# 
  1429     019B                     	;# 
  1430     019B                     	;# 
  1431     019B                     	;# 
  1432     019C                     	;# 
  1433     019C                     	;# 
  1434     019D                     	;# 
  1435     019E                     	;# 
  1436     019F                     	;# 
  1437     020C                     	;# 
  1438     020D                     	;# 
  1439     0211                     	;# 
  1440     0211                     	;# 
  1441     0212                     	;# 
  1442     0212                     	;# 
  1443     0213                     	;# 
  1444     0213                     	;# 
  1445     0214                     	;# 
  1446     0214                     	;# 
  1447     0215                     	;# 
  1448     0215                     	;# 
  1449     0215                     	;# 
  1450     0216                     	;# 
  1451     0216                     	;# 
  1452     0217                     	;# 
  1453     0217                     	;# 
  1454     0219                     	;# 
  1455     021A                     	;# 
  1456     021B                     	;# 
  1457     021C                     	;# 
  1458     021D                     	;# 
  1459     021E                     	;# 
  1460     021F                     	;# 
  1461     0291                     	;# 
  1462     0291                     	;# 
  1463     0292                     	;# 
  1464     0293                     	;# 
  1465     0294                     	;# 
  1466     0295                     	;# 
  1467     0295                     	;# 
  1468     0296                     	;# 
  1469     0298                     	;# 
  1470     0298                     	;# 
  1471     0299                     	;# 
  1472     029A                     	;# 
  1473     029B                     	;# 
  1474     029C                     	;# 
  1475     029C                     	;# 
  1476     029D                     	;# 
  1477     029E                     	;# 
  1478     029E                     	;# 
  1479     0311                     	;# 
  1480     0311                     	;# 
  1481     0312                     	;# 
  1482     0313                     	;# 
  1483     0318                     	;# 
  1484     0318                     	;# 
  1485     0319                     	;# 
  1486     031A                     	;# 
  1487     0394                     	;# 
  1488     0395                     	;# 
  1489     0396                     	;# 
  1490     039A                     	;# 
  1491     039C                     	;# 
  1492     039D                     	;# 
  1493     039E                     	;# 
  1494     039F                     	;# 
  1495     0415                     	;# 
  1496     0416                     	;# 
  1497     0417                     	;# 
  1498     041C                     	;# 
  1499     041D                     	;# 
  1500     041E                     	;# 
  1501     0FE4                     	;# 
  1502     0FE5                     	;# 
  1503     0FE6                     	;# 
  1504     0FE7                     	;# 
  1505     0FE8                     	;# 
  1506     0FE9                     	;# 
  1507     0FEA                     	;# 
  1508     0FEB                     	;# 
  1509     0FED                     	;# 
  1510     0FEE                     	;# 
  1511     0FEF                     	;# 
  1512     0000                     	;# 
  1513     0001                     	;# 
  1514     0002                     	;# 
  1515     0003                     	;# 
  1516     0004                     	;# 
  1517     0005                     	;# 
  1518     0006                     	;# 
  1519     0007                     	;# 
  1520     0008                     	;# 
  1521     0009                     	;# 
  1522     000A                     	;# 
  1523     000B                     	;# 
  1524     000C                     	;# 
  1525     000D                     	;# 
  1526     0011                     	;# 
  1527     0012                     	;# 
  1528     0013                     	;# 
  1529     0014                     	;# 
  1530     0015                     	;# 
  1531     0016                     	;# 
  1532     0016                     	;# 
  1533     0017                     	;# 
  1534     0018                     	;# 
  1535     0019                     	;# 
  1536     001A                     	;# 
  1537     001B                     	;# 
  1538     001C                     	;# 
  1539     001E                     	;# 
  1540     001F                     	;# 
  1541     008C                     	;# 
  1542     008D                     	;# 
  1543     0091                     	;# 
  1544     0092                     	;# 
  1545     0093                     	;# 
  1546     0094                     	;# 
  1547     0095                     	;# 
  1548     0096                     	;# 
  1549     0097                     	;# 
  1550     0098                     	;# 
  1551     0099                     	;# 
  1552     009A                     	;# 
  1553     009B                     	;# 
  1554     009B                     	;# 
  1555     009C                     	;# 
  1556     009D                     	;# 
  1557     009E                     	;# 
  1558     010C                     	;# 
  1559     010D                     	;# 
  1560     0111                     	;# 
  1561     0112                     	;# 
  1562     0113                     	;# 
  1563     0114                     	;# 
  1564     0115                     	;# 
  1565     0116                     	;# 
  1566     0117                     	;# 
  1567     0118                     	;# 
  1568     0119                     	;# 
  1569     011A                     	;# 
  1570     011B                     	;# 
  1571     011D                     	;# 
  1572     011E                     	;# 
  1573     018C                     	;# 
  1574     018D                     	;# 
  1575     0191                     	;# 
  1576     0191                     	;# 
  1577     0192                     	;# 
  1578     0193                     	;# 
  1579     0193                     	;# 
  1580     0193                     	;# 
  1581     0194                     	;# 
  1582     0195                     	;# 
  1583     0196                     	;# 
  1584     0199                     	;# 
  1585     019A                     	;# 
  1586     019B                     	;# 
  1587     019B                     	;# 
  1588     019B                     	;# 
  1589     019B                     	;# 
  1590     019C                     	;# 
  1591     019C                     	;# 
  1592     019D                     	;# 
  1593     019E                     	;# 
  1594     019F                     	;# 
  1595     020C                     	;# 
  1596     020D                     	;# 
  1597     0211                     	;# 
  1598     0211                     	;# 
  1599     0212                     	;# 
  1600     0212                     	;# 
  1601     0213                     	;# 
  1602     0213                     	;# 
  1603     0214                     	;# 
  1604     0214                     	;# 
  1605     0215                     	;# 
  1606     0215                     	;# 
  1607     0215                     	;# 
  1608     0216                     	;# 
  1609     0216                     	;# 
  1610     0217                     	;# 
  1611     0217                     	;# 
  1612     0219                     	;# 
  1613     021A                     	;# 
  1614     021B                     	;# 
  1615     021C                     	;# 
  1616     021D                     	;# 
  1617     021E                     	;# 
  1618     021F                     	;# 
  1619     0291                     	;# 
  1620     0291                     	;# 
  1621     0292                     	;# 
  1622     0293                     	;# 
  1623     0294                     	;# 
  1624     0295                     	;# 
  1625     0295                     	;# 
  1626     0296                     	;# 
  1627     0298                     	;# 
  1628     0298                     	;# 
  1629     0299                     	;# 
  1630     029A                     	;# 
  1631     029B                     	;# 
  1632     029C                     	;# 
  1633     029C                     	;# 
  1634     029D                     	;# 
  1635     029E                     	;# 
  1636     029E                     	;# 
  1637     0311                     	;# 
  1638     0311                     	;# 
  1639     0312                     	;# 
  1640     0313                     	;# 
  1641     0318                     	;# 
  1642     0318                     	;# 
  1643     0319                     	;# 
  1644     031A                     	;# 
  1645     0394                     	;# 
  1646     0395                     	;# 
  1647     0396                     	;# 
  1648     039A                     	;# 
  1649     039C                     	;# 
  1650     039D                     	;# 
  1651     039E                     	;# 
  1652     039F                     	;# 
  1653     0415                     	;# 
  1654     0416                     	;# 
  1655     0417                     	;# 
  1656     041C                     	;# 
  1657     041D                     	;# 
  1658     041E                     	;# 
  1659     0FE4                     	;# 
  1660     0FE5                     	;# 
  1661     0FE6                     	;# 
  1662     0FE7                     	;# 
  1663     0FE8                     	;# 
  1664     0FE9                     	;# 
  1665     0FEA                     	;# 
  1666     0FEB                     	;# 
  1667     0FED                     	;# 
  1668     0FEE                     	;# 
  1669     0FEF                     	;# 
  1670     0000                     	;# 
  1671     0001                     	;# 
  1672     0002                     	;# 
  1673     0003                     	;# 
  1674     0004                     	;# 
  1675     0005                     	;# 
  1676     0006                     	;# 
  1677     0007                     	;# 
  1678     0008                     	;# 
  1679     0009                     	;# 
  1680     000A                     	;# 
  1681     000B                     	;# 
  1682     000C                     	;# 
  1683     000D                     	;# 
  1684     0011                     	;# 
  1685     0012                     	;# 
  1686     0013                     	;# 
  1687     0014                     	;# 
  1688     0015                     	;# 
  1689     0016                     	;# 
  1690     0016                     	;# 
  1691     0017                     	;# 
  1692     0018                     	;# 
  1693     0019                     	;# 
  1694     001A                     	;# 
  1695     001B                     	;# 
  1696     001C                     	;# 
  1697     001E                     	;# 
  1698     001F                     	;# 
  1699     008C                     	;# 
  1700     008D                     	;# 
  1701     0091                     	;# 
  1702     0092                     	;# 
  1703     0093                     	;# 
  1704     0094                     	;# 
  1705     0095                     	;# 
  1706     0096                     	;# 
  1707     0097                     	;# 
  1708     0098                     	;# 
  1709     0099                     	;# 
  1710     009A                     	;# 
  1711     009B                     	;# 
  1712     009B                     	;# 
  1713     009C                     	;# 
  1714     009D                     	;# 
  1715     009E                     	;# 
  1716     010C                     	;# 
  1717     010D                     	;# 
  1718     0111                     	;# 
  1719     0112                     	;# 
  1720     0113                     	;# 
  1721     0114                     	;# 
  1722     0115                     	;# 
  1723     0116                     	;# 
  1724     0117                     	;# 
  1725     0118                     	;# 
  1726     0119                     	;# 
  1727     011A                     	;# 
  1728     011B                     	;# 
  1729     011D                     	;# 
  1730     011E                     	;# 
  1731     018C                     	;# 
  1732     018D                     	;# 
  1733     0191                     	;# 
  1734     0191                     	;# 
  1735     0192                     	;# 
  1736     0193                     	;# 
  1737     0193                     	;# 
  1738     0193                     	;# 
  1739     0194                     	;# 
  1740     0195                     	;# 
  1741     0196                     	;# 
  1742     0199                     	;# 
  1743     019A                     	;# 
  1744     019B                     	;# 
  1745     019B                     	;# 
  1746     019B                     	;# 
  1747     019B                     	;# 
  1748     019C                     	;# 
  1749     019C                     	;# 
  1750     019D                     	;# 
  1751     019E                     	;# 
  1752     019F                     	;# 
  1753     020C                     	;# 
  1754     020D                     	;# 
  1755     0211                     	;# 
  1756     0211                     	;# 
  1757     0212                     	;# 
  1758     0212                     	;# 
  1759     0213                     	;# 
  1760     0213                     	;# 
  1761     0214                     	;# 
  1762     0214                     	;# 
  1763     0215                     	;# 
  1764     0215                     	;# 
  1765     0215                     	;# 
  1766     0216                     	;# 
  1767     0216                     	;# 
  1768     0217                     	;# 
  1769     0217                     	;# 
  1770     0219                     	;# 
  1771     021A                     	;# 
  1772     021B                     	;# 
  1773     021C                     	;# 
  1774     021D                     	;# 
  1775     021E                     	;# 
  1776     021F                     	;# 
  1777     0291                     	;# 
  1778     0291                     	;# 
  1779     0292                     	;# 
  1780     0293                     	;# 
  1781     0294                     	;# 
  1782     0295                     	;# 
  1783     0295                     	;# 
  1784     0296                     	;# 
  1785     0298                     	;# 
  1786     0298                     	;# 
  1787     0299                     	;# 
  1788     029A                     	;# 
  1789     029B                     	;# 
  1790     029C                     	;# 
  1791     029C                     	;# 
  1792     029D                     	;# 
  1793     029E                     	;# 
  1794     029E                     	;# 
  1795     0311                     	;# 
  1796     0311                     	;# 
  1797     0312                     	;# 
  1798     0313                     	;# 
  1799     0318                     	;# 
  1800     0318                     	;# 
  1801     0319                     	;# 
  1802     031A                     	;# 
  1803     0394                     	;# 
  1804     0395                     	;# 
  1805     0396                     	;# 
  1806     039A                     	;# 
  1807     039C                     	;# 
  1808     039D                     	;# 
  1809     039E                     	;# 
  1810     039F                     	;# 
  1811     0415                     	;# 
  1812     0416                     	;# 
  1813     0417                     	;# 
  1814     041C                     	;# 
  1815     041D                     	;# 
  1816     041E                     	;# 
  1817     0FE4                     	;# 
  1818     0FE5                     	;# 
  1819     0FE6                     	;# 
  1820     0FE7                     	;# 
  1821     0FE8                     	;# 
  1822     0FE9                     	;# 
  1823     0FEA                     	;# 
  1824     0FEB                     	;# 
  1825     0FED                     	;# 
  1826     0FEE                     	;# 
  1827     0FEF                     	;# 
  1828     0000                     	;# 
  1829     0001                     	;# 
  1830     0002                     	;# 
  1831     0003                     	;# 
  1832     0004                     	;# 
  1833     0005                     	;# 
  1834     0006                     	;# 
  1835     0007                     	;# 
  1836     0008                     	;# 
  1837     0009                     	;# 
  1838     000A                     	;# 
  1839     000B                     	;# 
  1840     000C                     	;# 
  1841     000D                     	;# 
  1842     0011                     	;# 
  1843     0012                     	;# 
  1844     0013                     	;# 
  1845     0014                     	;# 
  1846     0015                     	;# 
  1847     0016                     	;# 
  1848     0016                     	;# 
  1849     0017                     	;# 
  1850     0018                     	;# 
  1851     0019                     	;# 
  1852     001A                     	;# 
  1853     001B                     	;# 
  1854     001C                     	;# 
  1855     001E                     	;# 
  1856     001F                     	;# 
  1857     008C                     	;# 
  1858     008D                     	;# 
  1859     0091                     	;# 
  1860     0092                     	;# 
  1861     0093                     	;# 
  1862     0094                     	;# 
  1863     0095                     	;# 
  1864     0096                     	;# 
  1865     0097                     	;# 
  1866     0098                     	;# 
  1867     0099                     	;# 
  1868     009A                     	;# 
  1869     009B                     	;# 
  1870     009B                     	;# 
  1871     009C                     	;# 
  1872     009D                     	;# 
  1873     009E                     	;# 
  1874     010C                     	;# 
  1875     010D                     	;# 
  1876     0111                     	;# 
  1877     0112                     	;# 
  1878     0113                     	;# 
  1879     0114                     	;# 
  1880     0115                     	;# 
  1881     0116                     	;# 
  1882     0117                     	;# 
  1883     0118                     	;# 
  1884     0119                     	;# 
  1885     011A                     	;# 
  1886     011B                     	;# 
  1887     011D                     	;# 
  1888     011E                     	;# 
  1889     018C                     	;# 
  1890     018D                     	;# 
  1891     0191                     	;# 
  1892     0191                     	;# 
  1893     0192                     	;# 
  1894     0193                     	;# 
  1895     0193                     	;# 
  1896     0193                     	;# 
  1897     0194                     	;# 
  1898     0195                     	;# 
  1899     0196                     	;# 
  1900     0199                     	;# 
  1901     019A                     	;# 
  1902     019B                     	;# 
  1903     019B                     	;# 
  1904     019B                     	;# 
  1905     019B                     	;# 
  1906     019C                     	;# 
  1907     019C                     	;# 
  1908     019D                     	;# 
  1909     019E                     	;# 
  1910     019F                     	;# 
  1911     020C                     	;# 
  1912     020D                     	;# 
  1913     0211                     	;# 
  1914     0211                     	;# 
  1915     0212                     	;# 
  1916     0212                     	;# 
  1917     0213                     	;# 
  1918     0213                     	;# 
  1919     0214                     	;# 
  1920     0214                     	;# 
  1921     0215                     	;# 
  1922     0215                     	;# 
  1923     0215                     	;# 
  1924     0216                     	;# 
  1925     0216                     	;# 
  1926     0217                     	;# 
  1927     0217                     	;# 
  1928     0219                     	;# 
  1929     021A                     	;# 
  1930     021B                     	;# 
  1931     021C                     	;# 
  1932     021D                     	;# 
  1933     021E                     	;# 
  1934     021F                     	;# 
  1935     0291                     	;# 
  1936     0291                     	;# 
  1937     0292                     	;# 
  1938     0293                     	;# 
  1939     0294                     	;# 
  1940     0295                     	;# 
  1941     0295                     	;# 
  1942     0296                     	;# 
  1943     0298                     	;# 
  1944     0298                     	;# 
  1945     0299                     	;# 
  1946     029A                     	;# 
  1947     029B                     	;# 
  1948     029C                     	;# 
  1949     029C                     	;# 
  1950     029D                     	;# 
  1951     029E                     	;# 
  1952     029E                     	;# 
  1953     0311                     	;# 
  1954     0311                     	;# 
  1955     0312                     	;# 
  1956     0313                     	;# 
  1957     0318                     	;# 
  1958     0318                     	;# 
  1959     0319                     	;# 
  1960     031A                     	;# 
  1961     0394                     	;# 
  1962     0395                     	;# 
  1963     0396                     	;# 
  1964     039A                     	;# 
  1965     039C                     	;# 
  1966     039D                     	;# 
  1967     039E                     	;# 
  1968     039F                     	;# 
  1969     0415                     	;# 
  1970     0416                     	;# 
  1971     0417                     	;# 
  1972     041C                     	;# 
  1973     041D                     	;# 
  1974     041E                     	;# 
  1975     0FE4                     	;# 
  1976     0FE5                     	;# 
  1977     0FE6                     	;# 
  1978     0FE7                     	;# 
  1979     0FE8                     	;# 
  1980     0FE9                     	;# 
  1981     0FEA                     	;# 
  1982     0FEB                     	;# 
  1983     0FED                     	;# 
  1984     0FEE                     	;# 
  1985     0FEF                     	;# 
  1986     0000                     	;# 
  1987     0001                     	;# 
  1988     0002                     	;# 
  1989     0003                     	;# 
  1990     0004                     	;# 
  1991     0005                     	;# 
  1992     0006                     	;# 
  1993     0007                     	;# 
  1994     0008                     	;# 
  1995     0009                     	;# 
  1996     000A                     	;# 
  1997     000B                     	;# 
  1998     000C                     	;# 
  1999     000D                     	;# 
  2000     0011                     	;# 
  2001     0012                     	;# 
  2002     0013                     	;# 
  2003     0014                     	;# 
  2004     0015                     	;# 
  2005     0016                     	;# 
  2006     0016                     	;# 
  2007     0017                     	;# 
  2008     0018                     	;# 
  2009     0019                     	;# 
  2010     001A                     	;# 
  2011     001B                     	;# 
  2012     001C                     	;# 
  2013     001E                     	;# 
  2014     001F                     	;# 
  2015     008C                     	;# 
  2016     008D                     	;# 
  2017     0091                     	;# 
  2018     0092                     	;# 
  2019     0093                     	;# 
  2020     0094                     	;# 
  2021     0095                     	;# 
  2022     0096                     	;# 
  2023     0097                     	;# 
  2024     0098                     	;# 
  2025     0099                     	;# 
  2026     009A                     	;# 
  2027     009B                     	;# 
  2028     009B                     	;# 
  2029     009C                     	;# 
  2030     009D                     	;# 
  2031     009E                     	;# 
  2032     010C                     	;# 
  2033     010D                     	;# 
  2034     0111                     	;# 
  2035     0112                     	;# 
  2036     0113                     	;# 
  2037     0114                     	;# 
  2038     0115                     	;# 
  2039     0116                     	;# 
  2040     0117                     	;# 
  2041     0118                     	;# 
  2042     0119                     	;# 
  2043     011A                     	;# 
  2044     011B                     	;# 
  2045     011D                     	;# 
  2046     011E                     	;# 
  2047     018C                     	;# 
  2048     018D                     	;# 
  2049     0191                     	;# 
  2050     0191                     	;# 
  2051     0192                     	;# 
  2052     0193                     	;# 
  2053     0193                     	;# 
  2054     0193                     	;# 
  2055     0194                     	;# 
  2056     0195                     	;# 
  2057     0196                     	;# 
  2058     0199                     	;# 
  2059     019A                     	;# 
  2060     019B                     	;# 
  2061     019B                     	;# 
  2062     019B                     	;# 
  2063     019B                     	;# 
  2064     019C                     	;# 
  2065     019C                     	;# 
  2066     019D                     	;# 
  2067     019E                     	;# 
  2068     019F                     	;# 
  2069     020C                     	;# 
  2070     020D                     	;# 
  2071     0211                     	;# 
  2072     0211                     	;# 
  2073     0212                     	;# 
  2074     0212                     	;# 
  2075     0213                     	;# 
  2076     0213                     	;# 
  2077     0214                     	;# 
  2078     0214                     	;# 
  2079     0215                     	;# 
  2080     0215                     	;# 
  2081     0215                     	;# 
  2082     0216                     	;# 
  2083     0216                     	;# 
  2084     0217                     	;# 
  2085     0217                     	;# 
  2086     0219                     	;# 
  2087     021A                     	;# 
  2088     021B                     	;# 
  2089     021C                     	;# 
  2090     021D                     	;# 
  2091     021E                     	;# 
  2092     021F                     	;# 
  2093     0291                     	;# 
  2094     0291                     	;# 
  2095     0292                     	;# 
  2096     0293                     	;# 
  2097     0294                     	;# 
  2098     0295                     	;# 
  2099     0295                     	;# 
  2100     0296                     	;# 
  2101     0298                     	;# 
  2102     0298                     	;# 
  2103     0299                     	;# 
  2104     029A                     	;# 
  2105     029B                     	;# 
  2106     029C                     	;# 
  2107     029C                     	;# 
  2108     029D                     	;# 
  2109     029E                     	;# 
  2110     029E                     	;# 
  2111     0311                     	;# 
  2112     0311                     	;# 
  2113     0312                     	;# 
  2114     0313                     	;# 
  2115     0318                     	;# 
  2116     0318                     	;# 
  2117     0319                     	;# 
  2118     031A                     	;# 
  2119     0394                     	;# 
  2120     0395                     	;# 
  2121     0396                     	;# 
  2122     039A                     	;# 
  2123     039C                     	;# 
  2124     039D                     	;# 
  2125     039E                     	;# 
  2126     039F                     	;# 
  2127     0415                     	;# 
  2128     0416                     	;# 
  2129     0417                     	;# 
  2130     041C                     	;# 
  2131     041D                     	;# 
  2132     041E                     	;# 
  2133     0FE4                     	;# 
  2134     0FE5                     	;# 
  2135     0FE6                     	;# 
  2136     0FE7                     	;# 
  2137     0FE8                     	;# 
  2138     0FE9                     	;# 
  2139     0FEA                     	;# 
  2140     0FEB                     	;# 
  2141     0FED                     	;# 
  2142     0FEE                     	;# 
  2143     0FEF                     	;# 
  2144     0000                     	;# 
  2145     0001                     	;# 
  2146     0002                     	;# 
  2147     0003                     	;# 
  2148     0004                     	;# 
  2149     0005                     	;# 
  2150     0006                     	;# 
  2151     0007                     	;# 
  2152     0008                     	;# 
  2153     0009                     	;# 
  2154     000A                     	;# 
  2155     000B                     	;# 
  2156     000C                     	;# 
  2157     000D                     	;# 
  2158     0011                     	;# 
  2159     0012                     	;# 
  2160     0013                     	;# 
  2161     0014                     	;# 
  2162     0015                     	;# 
  2163     0016                     	;# 
  2164     0016                     	;# 
  2165     0017                     	;# 
  2166     0018                     	;# 
  2167     0019                     	;# 
  2168     001A                     	;# 
  2169     001B                     	;# 
  2170     001C                     	;# 
  2171     001E                     	;# 
  2172     001F                     	;# 
  2173     008C                     	;# 
  2174     008D                     	;# 
  2175     0091                     	;# 
  2176     0092                     	;# 
  2177     0093                     	;# 
  2178     0094                     	;# 
  2179     0095                     	;# 
  2180     0096                     	;# 
  2181     0097                     	;# 
  2182     0098                     	;# 
  2183     0099                     	;# 
  2184     009A                     	;# 
  2185     009B                     	;# 
  2186     009B                     	;# 
  2187     009C                     	;# 
  2188     009D                     	;# 
  2189     009E                     	;# 
  2190     010C                     	;# 
  2191     010D                     	;# 
  2192     0111                     	;# 
  2193     0112                     	;# 
  2194     0113                     	;# 
  2195     0114                     	;# 
  2196     0115                     	;# 
  2197     0116                     	;# 
  2198     0117                     	;# 
  2199     0118                     	;# 
  2200     0119                     	;# 
  2201     011A                     	;# 
  2202     011B                     	;# 
  2203     011D                     	;# 
  2204     011E                     	;# 
  2205     018C                     	;# 
  2206     018D                     	;# 
  2207     0191                     	;# 
  2208     0191                     	;# 
  2209     0192                     	;# 
  2210     0193                     	;# 
  2211     0193                     	;# 
  2212     0193                     	;# 
  2213     0194                     	;# 
  2214     0195                     	;# 
  2215     0196                     	;# 
  2216     0199                     	;# 
  2217     019A                     	;# 
  2218     019B                     	;# 
  2219     019B                     	;# 
  2220     019B                     	;# 
  2221     019B                     	;# 
  2222     019C                     	;# 
  2223     019C                     	;# 
  2224     019D                     	;# 
  2225     019E                     	;# 
  2226     019F                     	;# 
  2227     020C                     	;# 
  2228     020D                     	;# 
  2229     0211                     	;# 
  2230     0211                     	;# 
  2231     0212                     	;# 
  2232     0212                     	;# 
  2233     0213                     	;# 
  2234     0213                     	;# 
  2235     0214                     	;# 
  2236     0214                     	;# 
  2237     0215                     	;# 
  2238     0215                     	;# 
  2239     0215                     	;# 
  2240     0216                     	;# 
  2241     0216                     	;# 
  2242     0217                     	;# 
  2243     0217                     	;# 
  2244     0219                     	;# 
  2245     021A                     	;# 
  2246     021B                     	;# 
  2247     021C                     	;# 
  2248     021D                     	;# 
  2249     021E                     	;# 
  2250     021F                     	;# 
  2251     0291                     	;# 
  2252     0291                     	;# 
  2253     0292                     	;# 
  2254     0293                     	;# 
  2255     0294                     	;# 
  2256     0295                     	;# 
  2257     0295                     	;# 
  2258     0296                     	;# 
  2259     0298                     	;# 
  2260     0298                     	;# 
  2261     0299                     	;# 
  2262     029A                     	;# 
  2263     029B                     	;# 
  2264     029C                     	;# 
  2265     029C                     	;# 
  2266     029D                     	;# 
  2267     029E                     	;# 
  2268     029E                     	;# 
  2269     0311                     	;# 
  2270     0311                     	;# 
  2271     0312                     	;# 
  2272     0313                     	;# 
  2273     0318                     	;# 
  2274     0318                     	;# 
  2275     0319                     	;# 
  2276     031A                     	;# 
  2277     0394                     	;# 
  2278     0395                     	;# 
  2279     0396                     	;# 
  2280     039A                     	;# 
  2281     039C                     	;# 
  2282     039D                     	;# 
  2283     039E                     	;# 
  2284     039F                     	;# 
  2285     0415                     	;# 
  2286     0416                     	;# 
  2287     0417                     	;# 
  2288     041C                     	;# 
  2289     041D                     	;# 
  2290     041E                     	;# 
  2291     0FE4                     	;# 
  2292     0FE5                     	;# 
  2293     0FE6                     	;# 
  2294     0FE7                     	;# 
  2295     0FE8                     	;# 
  2296     0FE9                     	;# 
  2297     0FEA                     	;# 
  2298     0FEB                     	;# 
  2299     0FED                     	;# 
  2300     0FEE                     	;# 
  2301     0FEF                     	;# 
  2302     0000                     	;# 
  2303     0001                     	;# 
  2304     0002                     	;# 
  2305     0003                     	;# 
  2306     0004                     	;# 
  2307     0005                     	;# 
  2308     0006                     	;# 
  2309     0007                     	;# 
  2310     0008                     	;# 
  2311     0009                     	;# 
  2312     000A                     	;# 
  2313     000B                     	;# 
  2314     000C                     	;# 
  2315     000D                     	;# 
  2316     0011                     	;# 
  2317     0012                     	;# 
  2318     0013                     	;# 
  2319     0014                     	;# 
  2320     0015                     	;# 
  2321     0016                     	;# 
  2322     0016                     	;# 
  2323     0017                     	;# 
  2324     0018                     	;# 
  2325     0019                     	;# 
  2326     001A                     	;# 
  2327     001B                     	;# 
  2328     001C                     	;# 
  2329     001E                     	;# 
  2330     001F                     	;# 
  2331     008C                     	;# 
  2332     008D                     	;# 
  2333     0091                     	;# 
  2334     0092                     	;# 
  2335     0093                     	;# 
  2336     0094                     	;# 
  2337     0095                     	;# 
  2338     0096                     	;# 
  2339     0097                     	;# 
  2340     0098                     	;# 
  2341     0099                     	;# 
  2342     009A                     	;# 
  2343     009B                     	;# 
  2344     009B                     	;# 
  2345     009C                     	;# 
  2346     009D                     	;# 
  2347     009E                     	;# 
  2348     010C                     	;# 
  2349     010D                     	;# 
  2350     0111                     	;# 
  2351     0112                     	;# 
  2352     0113                     	;# 
  2353     0114                     	;# 
  2354     0115                     	;# 
  2355     0116                     	;# 
  2356     0117                     	;# 
  2357     0118                     	;# 
  2358     0119                     	;# 
  2359     011A                     	;# 
  2360     011B                     	;# 
  2361     011D                     	;# 
  2362     011E                     	;# 
  2363     018C                     	;# 
  2364     018D                     	;# 
  2365     0191                     	;# 
  2366     0191                     	;# 
  2367     0192                     	;# 
  2368     0193                     	;# 
  2369     0193                     	;# 
  2370     0193                     	;# 
  2371     0194                     	;# 
  2372     0195                     	;# 
  2373     0196                     	;# 
  2374     0199                     	;# 
  2375     019A                     	;# 
  2376     019B                     	;# 
  2377     019B                     	;# 
  2378     019B                     	;# 
  2379     019B                     	;# 
  2380     019C                     	;# 
  2381     019C                     	;# 
  2382     019D                     	;# 
  2383     019E                     	;# 
  2384     019F                     	;# 
  2385     020C                     	;# 
  2386     020D                     	;# 
  2387     0211                     	;# 
  2388     0211                     	;# 
  2389     0212                     	;# 
  2390     0212                     	;# 
  2391     0213                     	;# 
  2392     0213                     	;# 
  2393     0214                     	;# 
  2394     0214                     	;# 
  2395     0215                     	;# 
  2396     0215                     	;# 
  2397     0215                     	;# 
  2398     0216                     	;# 
  2399     0216                     	;# 
  2400     0217                     	;# 
  2401     0217                     	;# 
  2402     0219                     	;# 
  2403     021A                     	;# 
  2404     021B                     	;# 
  2405     021C                     	;# 
  2406     021D                     	;# 
  2407     021E                     	;# 
  2408     021F                     	;# 
  2409     0291                     	;# 
  2410     0291                     	;# 
  2411     0292                     	;# 
  2412     0293                     	;# 
  2413     0294                     	;# 
  2414     0295                     	;# 
  2415     0295                     	;# 
  2416     0296                     	;# 
  2417     0298                     	;# 
  2418     0298                     	;# 
  2419     0299                     	;# 
  2420     029A                     	;# 
  2421     029B                     	;# 
  2422     029C                     	;# 
  2423     029C                     	;# 
  2424     029D                     	;# 
  2425     029E                     	;# 
  2426     029E                     	;# 
  2427     0311                     	;# 
  2428     0311                     	;# 
  2429     0312                     	;# 
  2430     0313                     	;# 
  2431     0318                     	;# 
  2432     0318                     	;# 
  2433     0319                     	;# 
  2434     031A                     	;# 
  2435     0394                     	;# 
  2436     0395                     	;# 
  2437     0396                     	;# 
  2438     039A                     	;# 
  2439     039C                     	;# 
  2440     039D                     	;# 
  2441     039E                     	;# 
  2442     039F                     	;# 
  2443     0415                     	;# 
  2444     0416                     	;# 
  2445     0417                     	;# 
  2446     041C                     	;# 
  2447     041D                     	;# 
  2448     041E                     	;# 
  2449     0FE4                     	;# 
  2450     0FE5                     	;# 
  2451     0FE6                     	;# 
  2452     0FE7                     	;# 
  2453     0FE8                     	;# 
  2454     0FE9                     	;# 
  2455     0FEA                     	;# 
  2456     0FEB                     	;# 
  2457     0FED                     	;# 
  2458     0FEE                     	;# 
  2459     0FEF                     	;# 
  2460                           
  2461 ;; Function _EUSART_DefaultFramingErrorHandler is unused but had its address taken
  2462     0000                     
  2463 ;; Function _EUSART_DefaultOverrunErrorHandler is unused but had its address taken
  2464     0000                     
  2465 ;; Function _EUSART_DefaultErrorHandler is unused but had its address taken
  2466     0000                     
  2467                           	psect	stringtext1
  2468     025E                     __pstringtext1:
  2469     025E                     _spi1_configuration:
  2470     025E  3400               	retlw	0
  2471     025F  3440               	retlw	64
  2472     0260  3401               	retlw	1
  2473     0261  3400               	retlw	0
  2474     0262                     __end_of_spi1_configuration:
  2475                           
  2476                           	psect	nvBANK0
  2477     0020                     __pnvBANK0:
  2478     0020                     _TMR0_InterruptHandler:
  2479     0020                     	ds	2
  2480     0022                     _TMR1_InterruptHandler:
  2481     0022                     	ds	2
  2482     0024                     _EUSART_ErrorHandler:
  2483     0024                     	ds	2
  2484     0026                     _EUSART_OverrunErrorHandler:
  2485     0026                     	ds	2
  2486     0028                     _EUSART_FramingErrorHandler:
  2487     0028                     	ds	2
  2488     002A                     _IOCBF3_InterruptHandler:
  2489     002A                     	ds	2
  2490     002C                     _IOCBF0_InterruptHandler:
  2491     002C                     	ds	2
  2492     0015                     _TMR0	set	21
  2493     001C                     _T2CONbits	set	28
  2494     001C                     _T2CON	set	28
  2495     001A                     _TMR2	set	26
  2496     001B                     _PR2	set	27
  2497     0019                     _T1GCONbits	set	25
  2498     0018                     _T1CONbits	set	24
  2499     0018                     _T1CON	set	24
  2500     0016                     _TMR1L	set	22
  2501     0017                     _TMR1H	set	23
  2502     0019                     _T1GCON	set	25
  2503     0011                     _PIR1bits	set	17
  2504     000B                     _INTCONbits	set	11
  2505     0012                     _PIR2bits	set	18
  2506     0095                     _OPTION_REG	set	149
  2507     0091                     _PIE1bits	set	145
  2508     008D                     _TRISBbits	set	141
  2509     009D                     _ADCON0bits	set	157
  2510     009D                     _ADCON0	set	157
  2511     009C                     _ADRESH	set	156
  2512     009B                     _ADRESL	set	155
  2513     009E                     _ADCON1	set	158
  2514     0097                     _WDTCON	set	151
  2515     0098                     _OSCTUNE	set	152
  2516     0099                     _OSCCON	set	153
  2517     0095                     _OPTION_REGbits	set	149
  2518     008D                     _TRISB	set	141
  2519     008C                     _TRISA	set	140
  2520     0092                     _PIE2bits	set	146
  2521     0117                     _FVRCONbits	set	279
  2522     0117                     _FVRCON	set	279
  2523     0116                     _BORCON	set	278
  2524     011E                     _APFCON1	set	286
  2525     011D                     _APFCON0	set	285
  2526     010D                     _LATB	set	269
  2527     010C                     _LATA	set	268
  2528     0112                     _CM1CON1	set	274
  2529     0111                     _CM1CON0	set	273
  2530     0115                     _CMOUTbits	set	277
  2531     0114                     _CM2CON1	set	276
  2532     0113                     _CM2CON0	set	275
  2533     019A                     _TXREG	set	410
  2534     0199                     _RCREG	set	409
  2535     019D                     _RCSTAbits	set	413
  2536     019E                     _TXSTAbits	set	414
  2537     019C                     _SPBRGH	set	412
  2538     019B                     _SPBRGL	set	411
  2539     019E                     _TXSTA	set	414
  2540     019D                     _RCSTA	set	413
  2541     019F                     _BAUDCON	set	415
  2542     018C                     _ANSELA	set	396
  2543     018D                     _ANSELB	set	397
  2544     0211                     _SSP1BUF	set	529
  2545     0216                     _SSP1CON2	set	534
  2546     0215                     _SSP1CON1bits	set	533
  2547     0212                     _SSP1ADD	set	530
  2548     0215                     _SSP1CON1	set	533
  2549     0214                     _SSP1STAT	set	532
  2550     020C                     _WPUA	set	524
  2551     020D                     _WPUB	set	525
  2552     029E                     _CCPTMRS0bits	set	670
  2553     0312                     _CCPR3H	set	786
  2554     0311                     _CCPR3L	set	785
  2555     0313                     _CCP3CON	set	787
  2556     0394                     _IOCBPbits	set	916
  2557     0395                     _IOCBNbits	set	917
  2558     0396                     _IOCBFbits	set	918
  2559                           
  2560                           	psect	cinit
  2561     004B                     start_initialization:	
  2562                           ; #config settings
  2563                           
  2564     004B                     __initialization:
  2565                           
  2566                           ; Clear objects allocated to COMMON
  2567     004B  01F0               	clrf	__pbssCOMMON& (0+127)
  2568     004C  01F1               	clrf	(__pbssCOMMON+1)& (0+127)
  2569     004D  01F2               	clrf	(__pbssCOMMON+2)& (0+127)
  2570     004E  01F3               	clrf	(__pbssCOMMON+3)& (0+127)
  2571     004F  01F4               	clrf	(__pbssCOMMON+4)& (0+127)
  2572     0050  01F5               	clrf	(__pbssCOMMON+5)& (0+127)
  2573     0051  01F6               	clrf	(__pbssCOMMON+6)& (0+127)
  2574     0052  01F7               	clrf	(__pbssCOMMON+7)& (0+127)
  2575                           
  2576                           ; Clear objects allocated to BANK0
  2577     0053  0020               	movlb	0	; select bank0
  2578     0054  01AE               	clrf	__pbssBANK0& (0+127)
  2579     0055  01AF               	clrf	(__pbssBANK0+1)& (0+127)
  2580     0056  01B0               	clrf	(__pbssBANK0+2)& (0+127)
  2581     0057  01B1               	clrf	(__pbssBANK0+3)& (0+127)
  2582     0058  01B2               	clrf	(__pbssBANK0+4)& (0+127)
  2583     0059                     end_of_initialization:	
  2584                           ;End of C runtime variable initialization code
  2585                           
  2586     0059                     __end_of__initialization:
  2587     0059  107E               	bcf	int$flags,0	;clear compiler interrupt flag (level 1)
  2588     005A  0020               	movlb	0
  2589     005B  3180  285D         	ljmp	_main	;jump to C main() function
  2590                           
  2591                           	psect	bssCOMMON
  2592     0070                     __pbssCOMMON:
  2593     0070                     _timer1ReloadVal:
  2594     0070                     	ds	2
  2595     0072                     _origem:
  2596     0072                     	ds	1
  2597     0073                     _RXaccepted:
  2598     0073                     	ds	1
  2599     0074                     _waitRX:
  2600     0074                     	ds	1
  2601     0075                     _rxValue:
  2602     0075                     	ds	1
  2603     0076                     _timer0ReloadVal:
  2604     0076                     	ds	1
  2605     0077                     _eusartRxLastError:
  2606     0077                     	ds	1
  2607                           
  2608                           	psect	bssBANK0
  2609     002E                     __pbssBANK0:
  2610     002E                     TMR0_ISR@CountCallBack:
  2611     002E                     	ds	2
  2612     0030                     _ADC_InterruptHandler:
  2613     0030                     	ds	2
  2614     0032                     _destino:
  2615     0032                     	ds	1
  2616                           
  2617                           	psect	cstackCOMMON
  2618     0078                     __pcstackCOMMON:
  2619     0078                     ?_IOCBF0_DefaultInterruptHandler:
  2620     0078                     ??_IOCBF0_DefaultInterruptHandler:	
  2621                           ; 1 bytes @ 0x0
  2622                           
  2623     0078                     ?_IOCBF3_DefaultInterruptHandler:	
  2624                           ; 1 bytes @ 0x0
  2625                           
  2626     0078                     ??_IOCBF3_DefaultInterruptHandler:	
  2627                           ; 1 bytes @ 0x0
  2628                           
  2629     0078                     ?_IOCBF0_ISR:	
  2630                           ; 1 bytes @ 0x0
  2631                           
  2632     0078                     ??_IOCBF0_ISR:	
  2633                           ; 1 bytes @ 0x0
  2634                           
  2635     0078                     ?_IOCBF3_ISR:	
  2636                           ; 1 bytes @ 0x0
  2637                           
  2638     0078                     ??_IOCBF3_ISR:	
  2639                           ; 1 bytes @ 0x0
  2640                           
  2641     0078                     ?_SPI1_Initialize:	
  2642                           ; 1 bytes @ 0x0
  2643                           
  2644     0078                     ?_OSCILLATOR_Initialize:	
  2645                           ; 1 bytes @ 0x0
  2646                           
  2647     0078                     ?_WDT_Initialize:	
  2648                           ; 1 bytes @ 0x0
  2649                           
  2650     0078                     ?_FVR_Initialize:	
  2651                           ; 1 bytes @ 0x0
  2652                           
  2653     0078                     ?_TMR2_Initialize:	
  2654                           ; 1 bytes @ 0x0
  2655                           
  2656     0078                     ?_TMR0_Initialize:	
  2657                           ; 1 bytes @ 0x0
  2658                           
  2659     0078                     ?_ADC_Initialize:	
  2660                           ; 1 bytes @ 0x0
  2661                           
  2662     0078                     ?_TMR1_Initialize:	
  2663                           ; 1 bytes @ 0x0
  2664                           
  2665     0078                     ?_EUSART_Initialize:	
  2666                           ; 1 bytes @ 0x0
  2667                           
  2668     0078                     ?_TMR0_ISR:	
  2669                           ; 1 bytes @ 0x0
  2670                           
  2671     0078                     ??_TMR0_ISR:	
  2672                           ; 1 bytes @ 0x0
  2673                           
  2674     0078                     ?_TMR1_ISR:	
  2675                           ; 1 bytes @ 0x0
  2676                           
  2677     0078                     ?_TMR1_DefaultInterruptHandler:	
  2678                           ; 1 bytes @ 0x0
  2679                           
  2680     0078                     ??_TMR1_DefaultInterruptHandler:	
  2681                           ; 1 bytes @ 0x0
  2682                           
  2683     0078                     ?_TMR1_CallBack:	
  2684                           ; 1 bytes @ 0x0
  2685                           
  2686     0078                     ??_TMR1_CallBack:	
  2687                           ; 1 bytes @ 0x0
  2688                           
  2689     0078                     ?_TMR0_DefaultInterruptHandler:	
  2690                           ; 1 bytes @ 0x0
  2691                           
  2692     0078                     ??_TMR0_DefaultInterruptHandler:	
  2693                           ; 1 bytes @ 0x0
  2694                           
  2695     0078                     ?_TMR0_CallBack:	
  2696                           ; 1 bytes @ 0x0
  2697                           
  2698     0078                     ??_TMR0_CallBack:	
  2699                           ; 1 bytes @ 0x0
  2700                           
  2701     0078                     ?_PWM3_Initialize:	
  2702                           ; 1 bytes @ 0x0
  2703                           
  2704     0078                     ?_CMP2_Initialize:	
  2705                           ; 1 bytes @ 0x0
  2706                           
  2707     0078                     ?_CMP2_ISR:	
  2708                           ; 1 bytes @ 0x0
  2709                           
  2710     0078                     ??_CMP2_ISR:	
  2711                           ; 1 bytes @ 0x0
  2712                           
  2713     0078                     ?_CMP1_Initialize:	
  2714                           ; 1 bytes @ 0x0
  2715                           
  2716     0078                     ?_CMP1_ISR:	
  2717                           ; 1 bytes @ 0x0
  2718                           
  2719     0078                     ??_CMP1_ISR:	
  2720                           ; 1 bytes @ 0x0
  2721                           
  2722     0078                     ?_PIN_MANAGER_Initialize:	
  2723                           ; 1 bytes @ 0x0
  2724                           
  2725     0078                     ?_PIN_MANAGER_IOC:	
  2726                           ; 1 bytes @ 0x0
  2727                           
  2728     0078                     ??_PIN_MANAGER_IOC:	
  2729                           ; 1 bytes @ 0x0
  2730                           
  2731     0078                     ?_SYSTEM_Initialize:	
  2732                           ; 1 bytes @ 0x0
  2733                           
  2734     0078                     ?_EUSART_is_rx_ready:	
  2735                           ; 1 bytes @ 0x0
  2736                           
  2737     0078                     ?_EUSART_Read:	
  2738                           ; 1 bytes @ 0x0
  2739                           
  2740     0078                     ?_INTERRUPT_InterruptManager:	
  2741                           ; 1 bytes @ 0x0
  2742                           
  2743     0078                     ?_TMR1_WriteTimer:	
  2744                           ; 1 bytes @ 0x0
  2745                           
  2746     0078                     ?_isValidFloor:	
  2747                           ; 1 bytes @ 0x0
  2748                           
  2749     0078                     ?_main:	
  2750                           ; 1 bytes @ 0x0
  2751                           
  2752     0078                     TMR1_WriteTimer@timerVal:	
  2753                           ; 1 bytes @ 0x0
  2754                           
  2755                           
  2756                           ; 2 bytes @ 0x0
  2757     0078                     	ds	2
  2758     007A                     ?_IOCBF0_SetInterruptHandler:
  2759     007A                     ?_IOCBF3_SetInterruptHandler:	
  2760                           ; 1 bytes @ 0x2
  2761                           
  2762     007A                     ??_SPI1_Initialize:	
  2763                           ; 1 bytes @ 0x2
  2764                           
  2765     007A                     ??_OSCILLATOR_Initialize:	
  2766                           ; 1 bytes @ 0x2
  2767                           
  2768     007A                     ??_WDT_Initialize:	
  2769                           ; 1 bytes @ 0x2
  2770                           
  2771     007A                     ??_FVR_Initialize:	
  2772                           ; 1 bytes @ 0x2
  2773                           
  2774     007A                     ??_TMR2_Initialize:	
  2775                           ; 1 bytes @ 0x2
  2776                           
  2777     007A                     ??_ADC_Initialize:	
  2778                           ; 1 bytes @ 0x2
  2779                           
  2780     007A                     ?_EUSART_SetFramingErrorHandler:	
  2781                           ; 1 bytes @ 0x2
  2782                           
  2783     007A                     ?_EUSART_SetOverrunErrorHandler:	
  2784                           ; 1 bytes @ 0x2
  2785                           
  2786     007A                     ?_EUSART_SetErrorHandler:	
  2787                           ; 1 bytes @ 0x2
  2788                           
  2789     007A                     ??_TMR1_ISR:	
  2790                           ; 1 bytes @ 0x2
  2791                           
  2792     007A                     ?_TMR1_SetInterruptHandler:	
  2793                           ; 1 bytes @ 0x2
  2794                           
  2795     007A                     ?_TMR0_SetInterruptHandler:	
  2796                           ; 1 bytes @ 0x2
  2797                           
  2798     007A                     ??_PWM3_Initialize:	
  2799                           ; 1 bytes @ 0x2
  2800                           
  2801     007A                     ??_CMP2_Initialize:	
  2802                           ; 1 bytes @ 0x2
  2803                           
  2804     007A                     ??_CMP1_Initialize:	
  2805                           ; 1 bytes @ 0x2
  2806                           
  2807     007A                     ??_EUSART_is_rx_ready:	
  2808                           ; 1 bytes @ 0x2
  2809                           
  2810     007A                     ??_EUSART_Read:	
  2811                           ; 1 bytes @ 0x2
  2812                           
  2813     007A                     ??_INTERRUPT_InterruptManager:	
  2814                           ; 1 bytes @ 0x2
  2815                           
  2816     007A                     ??_TMR1_WriteTimer:	
  2817                           ; 1 bytes @ 0x2
  2818                           
  2819     007A                     ??_isValidFloor:	
  2820                           ; 1 bytes @ 0x2
  2821                           
  2822     007A                     _isValidFloor$1228:	
  2823                           ; 1 bytes @ 0x2
  2824                           
  2825     007A                     IOCBF0_SetInterruptHandler@InterruptHandler:	
  2826                           ; 1 bytes @ 0x2
  2827                           
  2828     007A                     IOCBF3_SetInterruptHandler@InterruptHandler:	
  2829                           ; 2 bytes @ 0x2
  2830                           
  2831     007A                     EUSART_SetFramingErrorHandler@interruptHandler:	
  2832                           ; 2 bytes @ 0x2
  2833                           
  2834     007A                     EUSART_SetOverrunErrorHandler@interruptHandler:	
  2835                           ; 2 bytes @ 0x2
  2836                           
  2837     007A                     EUSART_SetErrorHandler@interruptHandler:	
  2838                           ; 2 bytes @ 0x2
  2839                           
  2840     007A                     TMR1_SetInterruptHandler@InterruptHandler:	
  2841                           ; 2 bytes @ 0x2
  2842                           
  2843     007A                     TMR0_SetInterruptHandler@InterruptHandler:	
  2844                           ; 2 bytes @ 0x2
  2845                           
  2846                           
  2847                           ; 2 bytes @ 0x2
  2848     007A                     	ds	1
  2849     007B                     isValidFloor@floor:
  2850                           
  2851                           ; 1 bytes @ 0x3
  2852     007B                     	ds	1
  2853     007C                     ??_IOCBF0_SetInterruptHandler:
  2854     007C                     ??_IOCBF3_SetInterruptHandler:	
  2855                           ; 1 bytes @ 0x4
  2856                           
  2857     007C                     ??_TMR0_Initialize:	
  2858                           ; 1 bytes @ 0x4
  2859                           
  2860     007C                     ??_TMR1_Initialize:	
  2861                           ; 1 bytes @ 0x4
  2862                           
  2863     007C                     ??_EUSART_Initialize:	
  2864                           ; 1 bytes @ 0x4
  2865                           
  2866     007C                     ??_EUSART_SetFramingErrorHandler:	
  2867                           ; 1 bytes @ 0x4
  2868                           
  2869     007C                     ??_EUSART_SetOverrunErrorHandler:	
  2870                           ; 1 bytes @ 0x4
  2871                           
  2872     007C                     ??_EUSART_SetErrorHandler:	
  2873                           ; 1 bytes @ 0x4
  2874                           
  2875     007C                     ??_TMR1_SetInterruptHandler:	
  2876                           ; 1 bytes @ 0x4
  2877                           
  2878     007C                     ??_TMR0_SetInterruptHandler:	
  2879                           ; 1 bytes @ 0x4
  2880                           
  2881     007C                     ??_PIN_MANAGER_Initialize:	
  2882                           ; 1 bytes @ 0x4
  2883                           
  2884     007C                     ??_SYSTEM_Initialize:	
  2885                           ; 1 bytes @ 0x4
  2886                           
  2887                           
  2888                           	psect	cstackBANK0
  2889     0033                     __pcstackBANK0:	
  2890                           ; 1 bytes @ 0x4
  2891                           
  2892     0033                     ??_main:
  2893                           
  2894                           ; 1 bytes @ 0x0
  2895     0033                     	ds	2
  2896                           
  2897                           	psect	maintext
  2898     005D                     __pmaintext:	
  2899 ;;
  2900 ;;Main: autosize = 0, tempsize = 2, incstack = 0, save=0
  2901 ;;
  2902 ;; *************** function _main *****************
  2903 ;; Defined at:
  2904 ;;		line 56 in file "main.c"
  2905 ;; Parameters:    Size  Location     Type
  2906 ;;		None
  2907 ;; Auto vars:     Size  Location     Type
  2908 ;;		None
  2909 ;; Return value:  Size  Location     Type
  2910 ;;                  1    wreg      void 
  2911 ;; Registers used:
  2912 ;;		wreg, fsr0l, fsr0h, status,2, status,0, pclath, cstack
  2913 ;; Tracked objects:
  2914 ;;		On entry : B1F/0
  2915 ;;		On exit  : 0/0
  2916 ;;		Unchanged: 0/0
  2917 ;; Data sizes:     COMMON   BANK0   BANK1   BANK2   BANK3   BANK4
  2918 ;;      Params:         0       0       0       0       0       0
  2919 ;;      Locals:         0       0       0       0       0       0
  2920 ;;      Temps:          0       2       0       0       0       0
  2921 ;;      Totals:         0       2       0       0       0       0
  2922 ;;Total ram usage:        2 bytes
  2923 ;; Hardware stack levels required when called: 7
  2924 ;; This function calls:
  2925 ;;		_EUSART_Read
  2926 ;;		_EUSART_is_rx_ready
  2927 ;;		_SYSTEM_Initialize
  2928 ;;		_isValidFloor
  2929 ;; This function is called by:
  2930 ;;		Startup code after reset
  2931 ;; This function uses a non-reentrant model
  2932 ;;
  2933                           
  2934     005D                     _main:	
  2935                           ;psect for function _main
  2936                           
  2937     005D                     l1885:	
  2938                           ;incstack = 0
  2939                           ; Regs used in _main: [wreg-fsr0h+status,2+status,0+pclath+cstack]
  2940                           
  2941                           
  2942                           ;main.c: 59:     SYSTEM_Initialize();
  2943     005D  3180  20D9  3180   	fcall	_SYSTEM_Initialize
  2944     0060                     l564:	
  2945                           ;main.c: 76:     while (1)
  2946                           
  2947                           
  2948                           ;main.c: 77:     {;main.c: 79:         if(EUSART_is_rx_ready()){
  2949     0060  3182  2259  3180   	fcall	_EUSART_is_rx_ready
  2950     0063  3A00               	xorlw	0
  2951     0064  1903               	skipnz
  2952     0065  2867               	goto	u651
  2953     0066  2868               	goto	u650
  2954     0067                     u651:
  2955     0067  2860               	goto	l564
  2956     0068                     u650:
  2957     0068                     l1887:
  2958                           
  2959                           ;main.c: 80:             rxValue.v = EUSART_Read();
  2960     0068  3181  2198  3180   	fcall	_EUSART_Read
  2961     006B  00F5               	movwf	_rxValue
  2962                           
  2963                           ;main.c: 81:             switch(rxValue.v){
  2964     006C  2897               	goto	l1903
  2965     006D                     l567:	
  2966                           ;main.c: 82:                 case '$':
  2967                           
  2968                           
  2969                           ;main.c: 83:                     waitRX = 1;
  2970     006D  01F4               	clrf	_waitRX
  2971     006E  0AF4               	incf	_waitRX,f
  2972                           
  2973                           ;main.c: 84:                     break;
  2974     006F  2860               	goto	l564
  2975     0070                     l1889:
  2976                           
  2977                           ;main.c: 86:                     if(RXaccepted){
  2978     0070  0873               	movf	_RXaccepted,w
  2979     0071  1903               	btfsc	3,2
  2980     0072  2874               	goto	u661
  2981     0073  2875               	goto	u660
  2982     0074                     u661:
  2983     0074  287D               	goto	l1893
  2984     0075                     u660:
  2985     0075                     l1891:
  2986                           
  2987                           ;main.c: 87:                         origem = rxValue.o - 0x30;
  2988     0075  0875               	movf	_rxValue,w
  2989     0076  390F               	andlw	15
  2990     0077  3ED0               	addlw	208
  2991     0078  00F2               	movwf	_origem
  2992                           
  2993                           ;main.c: 88:                         origem = rxValue.d - 0x30;
  2994     0079  0E75               	swapf	_rxValue,w
  2995     007A  390F               	andlw	15
  2996     007B  3ED0               	addlw	208
  2997     007C  00F2               	movwf	_origem
  2998     007D                     l1893:
  2999                           
  3000                           ;main.c: 90:                     RXaccepted = 0;
  3001     007D  01F3               	clrf	_RXaccepted
  3002                           
  3003                           ;main.c: 91:                     break;
  3004     007E  2860               	goto	l564
  3005     007F                     l1895:
  3006                           
  3007                           ;main.c: 93:                     if(isValidFloor(rxValue.o) && isValidFloor(rxValue.d)){
  3008     007F  0875               	movf	_rxValue,w
  3009     0080  390F               	andlw	15
  3010     0081  3181  2152  3180   	fcall	_isValidFloor
  3011     0084  3A00               	xorlw	0
  3012     0085  1903               	skipnz
  3013     0086  2888               	goto	u671
  3014     0087  2889               	goto	u670
  3015     0088                     u671:
  3016     0088  2895               	goto	l1901
  3017     0089                     u670:
  3018     0089                     l1897:
  3019     0089  0E75               	swapf	_rxValue,w
  3020     008A  390F               	andlw	15
  3021     008B  3181  2152  3180   	fcall	_isValidFloor
  3022     008E  3A00               	xorlw	0
  3023     008F  1903               	skipnz
  3024     0090  2892               	goto	u681
  3025     0091  2893               	goto	u680
  3026     0092                     u681:
  3027     0092  2895               	goto	l1901
  3028     0093                     u680:
  3029     0093                     l1899:
  3030                           
  3031                           ;main.c: 94:                         RXaccepted = 1;
  3032     0093  01F3               	clrf	_RXaccepted
  3033     0094  0AF3               	incf	_RXaccepted,f
  3034     0095                     l1901:
  3035                           
  3036                           ;main.c: 96:                     waitRX = 0;
  3037     0095  01F4               	clrf	_waitRX
  3038                           
  3039                           ;main.c: 97:             }
  3040     0096  2860               	goto	l564
  3041     0097                     l1903:
  3042     0097  0875               	movf	_rxValue,w
  3043     0098  0020               	movlb	0	; select bank0
  3044     0099  00B3               	movwf	??_main
  3045     009A  01B4               	clrf	??_main+1
  3046                           
  3047                           ; Switch on 2 bytes has been partitioned into a top level switch of size 1, and 1 sub-sw
      +                          itches
  3048                           ; Switch size 1, requested type "simple"
  3049                           ; Number of cases is 1, Range of values is 0 to 0
  3050                           ; switch strategies available:
  3051                           ; Name         Instructions Cycles
  3052                           ; simple_byte            4     3 (average)
  3053                           ; direct_byte            8     6 (fixed)
  3054                           ; jumptable            260     6 (fixed)
  3055                           ;	Chosen strategy is simple_byte
  3056     009B  0834               	movf	??_main+1,w
  3057     009C  3A00               	xorlw	0	; case 0
  3058     009D  1903               	skipnz
  3059     009E  28A0               	goto	l1941
  3060     009F  287F               	goto	l1895
  3061     00A0                     l1941:
  3062                           
  3063                           ; Switch size 1, requested type "simple"
  3064                           ; Number of cases is 2, Range of values is 13 to 36
  3065                           ; switch strategies available:
  3066                           ; Name         Instructions Cycles
  3067                           ; simple_byte            7     4 (average)
  3068                           ; direct_byte           57     9 (fixed)
  3069                           ; jumptable            263     9 (fixed)
  3070                           ;	Chosen strategy is simple_byte
  3071     00A0  0833               	movf	??_main,w
  3072     00A1  3A0D               	xorlw	13	; case 13
  3073     00A2  1903               	skipnz
  3074     00A3  2870               	goto	l1889
  3075     00A4  3A29               	xorlw	41	; case 36
  3076     00A5  1903               	skipnz
  3077     00A6  286D               	goto	l567
  3078     00A7  287F               	goto	l1895
  3079     00A8  3180  2849         	ljmp	start
  3080     00AA                     __end_of_main:
  3081                           
  3082                           	psect	text1
  3083     0152                     __ptext1:	
  3084 ;; *************** function _isValidFloor *****************
  3085 ;; Defined at:
  3086 ;;		line 48 in file "main.c"
  3087 ;; Parameters:    Size  Location     Type
  3088 ;;  floor           1    wreg     unsigned char 
  3089 ;; Auto vars:     Size  Location     Type
  3090 ;;  floor           1    3[COMMON] unsigned char 
  3091 ;; Return value:  Size  Location     Type
  3092 ;;                  1    wreg      _Bool 
  3093 ;; Registers used:
  3094 ;;		wreg, status,2
  3095 ;; Tracked objects:
  3096 ;;		On entry : 0/0
  3097 ;;		On exit  : 0/0
  3098 ;;		Unchanged: 0/0
  3099 ;; Data sizes:     COMMON   BANK0   BANK1   BANK2   BANK3   BANK4
  3100 ;;      Params:         0       0       0       0       0       0
  3101 ;;      Locals:         2       0       0       0       0       0
  3102 ;;      Temps:          0       0       0       0       0       0
  3103 ;;      Totals:         2       0       0       0       0       0
  3104 ;;Total ram usage:        2 bytes
  3105 ;; Hardware stack levels used: 1
  3106 ;; Hardware stack levels required when called: 4
  3107 ;; This function calls:
  3108 ;;		Nothing
  3109 ;; This function is called by:
  3110 ;;		_main
  3111 ;; This function uses a non-reentrant model
  3112 ;;
  3113                           
  3114     0152                     _isValidFloor:	
  3115                           ;psect for function _isValidFloor
  3116                           
  3117                           
  3118                           ;incstack = 0
  3119                           ; Regs used in _isValidFloor: [wreg+status,2]
  3120                           ;isValidFloor@floor stored from wreg
  3121     0152  00FB               	movwf	isValidFloor@floor
  3122     0153                     l1795:
  3123                           
  3124                           ;main.c: 49:     return floor >= '0' && floor <= '3';
  3125     0153  01FA               	clrf	_isValidFloor$1228
  3126     0154                     l1797:
  3127     0154  3030               	movlw	48
  3128     0155  027B               	subwf	isValidFloor@floor,w
  3129     0156  1C03               	skipc
  3130     0157  2959               	goto	u481
  3131     0158  295A               	goto	u480
  3132     0159                     u481:
  3133     0159  2962               	goto	l1803
  3134     015A                     u480:
  3135     015A                     l1799:
  3136     015A  3034               	movlw	52
  3137     015B  027B               	subwf	isValidFloor@floor,w
  3138     015C  1803               	skipnc
  3139     015D  295F               	goto	u491
  3140     015E  2960               	goto	u490
  3141     015F                     u491:
  3142     015F  2962               	goto	l1803
  3143     0160                     u490:
  3144     0160                     l1801:
  3145     0160  01FA               	clrf	_isValidFloor$1228
  3146     0161  0AFA               	incf	_isValidFloor$1228,f
  3147     0162                     l1803:
  3148     0162  087A               	movf	_isValidFloor$1228,w
  3149     0163                     l559:
  3150     0163  0008               	return
  3151     0164                     __end_of_isValidFloor:
  3152                           
  3153                           	psect	text2
  3154     00D9                     __ptext2:	
  3155 ;; *************** function _SYSTEM_Initialize *****************
  3156 ;; Defined at:
  3157 ;;		line 50 in file "mcc_generated_files/mcc.c"
  3158 ;; Parameters:    Size  Location     Type
  3159 ;;		None
  3160 ;; Auto vars:     Size  Location     Type
  3161 ;;		None
  3162 ;; Return value:  Size  Location     Type
  3163 ;;                  1    wreg      void 
  3164 ;; Registers used:
  3165 ;;		wreg, status,2, status,0, pclath, cstack
  3166 ;; Tracked objects:
  3167 ;;		On entry : 0/0
  3168 ;;		On exit  : 0/0
  3169 ;;		Unchanged: 0/0
  3170 ;; Data sizes:     COMMON   BANK0   BANK1   BANK2   BANK3   BANK4
  3171 ;;      Params:         0       0       0       0       0       0
  3172 ;;      Locals:         0       0       0       0       0       0
  3173 ;;      Temps:          0       0       0       0       0       0
  3174 ;;      Totals:         0       0       0       0       0       0
  3175 ;;Total ram usage:        0 bytes
  3176 ;; Hardware stack levels used: 1
  3177 ;; Hardware stack levels required when called: 6
  3178 ;; This function calls:
  3179 ;;		_ADC_Initialize
  3180 ;;		_CMP1_Initialize
  3181 ;;		_CMP2_Initialize
  3182 ;;		_EUSART_Initialize
  3183 ;;		_FVR_Initialize
  3184 ;;		_OSCILLATOR_Initialize
  3185 ;;		_PIN_MANAGER_Initialize
  3186 ;;		_PWM3_Initialize
  3187 ;;		_SPI1_Initialize
  3188 ;;		_TMR0_Initialize
  3189 ;;		_TMR1_Initialize
  3190 ;;		_TMR2_Initialize
  3191 ;;		_WDT_Initialize
  3192 ;; This function is called by:
  3193 ;;		_main
  3194 ;; This function uses a non-reentrant model
  3195 ;;
  3196                           
  3197     00D9                     _SYSTEM_Initialize:	
  3198                           ;psect for function _SYSTEM_Initialize
  3199                           
  3200     00D9                     l1781:	
  3201                           ;incstack = 0
  3202                           ; Regs used in _SYSTEM_Initialize: [wreg+status,2+status,0+pclath+cstack]
  3203                           
  3204                           
  3205                           ;mcc_generated_files/mcc.c: 53:     SPI1_Initialize();
  3206     00D9  3182  2204  3180   	fcall	_SPI1_Initialize
  3207                           
  3208                           ;mcc_generated_files/mcc.c: 54:     PIN_MANAGER_Initialize();
  3209     00DC  3180  20AA  3180   	fcall	_PIN_MANAGER_Initialize
  3210                           
  3211                           ;mcc_generated_files/mcc.c: 55:     OSCILLATOR_Initialize();
  3212     00DF  3182  2228  3180   	fcall	_OSCILLATOR_Initialize
  3213                           
  3214                           ;mcc_generated_files/mcc.c: 56:     WDT_Initialize();
  3215     00E2  3182  2262  3180   	fcall	_WDT_Initialize
  3216                           
  3217                           ;mcc_generated_files/mcc.c: 57:     FVR_Initialize();
  3218     00E5  3182  2266  3180   	fcall	_FVR_Initialize
  3219                           
  3220                           ;mcc_generated_files/mcc.c: 58:     CMP2_Initialize();
  3221     00E8  3181  21EC  3180   	fcall	_CMP2_Initialize
  3222                           
  3223                           ;mcc_generated_files/mcc.c: 59:     TMR2_Initialize();
  3224     00EB  3182  2218  3180   	fcall	_TMR2_Initialize
  3225                           
  3226                           ;mcc_generated_files/mcc.c: 60:     TMR0_Initialize();
  3227     00EE  3181  2164  3180   	fcall	_TMR0_Initialize
  3228                           
  3229                           ;mcc_generated_files/mcc.c: 61:     CMP1_Initialize();
  3230     00F1  3181  21F8  3180   	fcall	_CMP1_Initialize
  3231                           
  3232                           ;mcc_generated_files/mcc.c: 62:     ADC_Initialize();
  3233     00F4  3182  2220  3180   	fcall	_ADC_Initialize
  3234                           
  3235                           ;mcc_generated_files/mcc.c: 63:     PWM3_Initialize();
  3236     00F7  3182  220F  3180   	fcall	_PWM3_Initialize
  3237                           
  3238                           ;mcc_generated_files/mcc.c: 64:     TMR1_Initialize();
  3239     00FA  3181  2122  3180   	fcall	_TMR1_Initialize
  3240                           
  3241                           ;mcc_generated_files/mcc.c: 65:     EUSART_Initialize();
  3242     00FD  3181  2101  3180   	fcall	_EUSART_Initialize
  3243     0100                     l163:
  3244     0100  0008               	return
  3245     0101                     __end_of_SYSTEM_Initialize:
  3246                           
  3247                           	psect	text3
  3248     0262                     __ptext3:	
  3249 ;; *************** function _WDT_Initialize *****************
  3250 ;; Defined at:
  3251 ;;		line 78 in file "mcc_generated_files/mcc.c"
  3252 ;; Parameters:    Size  Location     Type
  3253 ;;		None
  3254 ;; Auto vars:     Size  Location     Type
  3255 ;;		None
  3256 ;; Return value:  Size  Location     Type
  3257 ;;                  1    wreg      void 
  3258 ;; Registers used:
  3259 ;;		wreg
  3260 ;; Tracked objects:
  3261 ;;		On entry : 0/0
  3262 ;;		On exit  : 0/0
  3263 ;;		Unchanged: 0/0
  3264 ;; Data sizes:     COMMON   BANK0   BANK1   BANK2   BANK3   BANK4
  3265 ;;      Params:         0       0       0       0       0       0
  3266 ;;      Locals:         0       0       0       0       0       0
  3267 ;;      Temps:          0       0       0       0       0       0
  3268 ;;      Totals:         0       0       0       0       0       0
  3269 ;;Total ram usage:        0 bytes
  3270 ;; Hardware stack levels used: 1
  3271 ;; Hardware stack levels required when called: 4
  3272 ;; This function calls:
  3273 ;;		Nothing
  3274 ;; This function is called by:
  3275 ;;		_SYSTEM_Initialize
  3276 ;; This function uses a non-reentrant model
  3277 ;;
  3278                           
  3279     0262                     _WDT_Initialize:	
  3280                           ;psect for function _WDT_Initialize
  3281                           
  3282     0262                     l1283:	
  3283                           ;incstack = 0
  3284                           ; Regs used in _WDT_Initialize: [wreg]
  3285                           
  3286                           
  3287                           ;mcc_generated_files/mcc.c: 81:     WDTCON = 0x16;
  3288     0262  3016               	movlw	22
  3289     0263  0021               	movlb	1	; select bank1
  3290     0264  0097               	movwf	23	;volatile
  3291     0265                     l169:
  3292     0265  0008               	return
  3293     0266                     __end_of_WDT_Initialize:
  3294                           
  3295                           	psect	text4
  3296     0218                     __ptext4:	
  3297 ;; *************** function _TMR2_Initialize *****************
  3298 ;; Defined at:
  3299 ;;		line 62 in file "mcc_generated_files/tmr2.c"
  3300 ;; Parameters:    Size  Location     Type
  3301 ;;		None
  3302 ;; Auto vars:     Size  Location     Type
  3303 ;;		None
  3304 ;; Return value:  Size  Location     Type
  3305 ;;                  1    wreg      void 
  3306 ;; Registers used:
  3307 ;;		wreg, status,2
  3308 ;; Tracked objects:
  3309 ;;		On entry : 0/0
  3310 ;;		On exit  : 0/0
  3311 ;;		Unchanged: 0/0
  3312 ;; Data sizes:     COMMON   BANK0   BANK1   BANK2   BANK3   BANK4
  3313 ;;      Params:         0       0       0       0       0       0
  3314 ;;      Locals:         0       0       0       0       0       0
  3315 ;;      Temps:          0       0       0       0       0       0
  3316 ;;      Totals:         0       0       0       0       0       0
  3317 ;;Total ram usage:        0 bytes
  3318 ;; Hardware stack levels used: 1
  3319 ;; Hardware stack levels required when called: 4
  3320 ;; This function calls:
  3321 ;;		Nothing
  3322 ;; This function is called by:
  3323 ;;		_SYSTEM_Initialize
  3324 ;; This function uses a non-reentrant model
  3325 ;;
  3326                           
  3327     0218                     _TMR2_Initialize:	
  3328                           ;psect for function _TMR2_Initialize
  3329                           
  3330     0218                     l1287:	
  3331                           ;incstack = 0
  3332                           ; Regs used in _TMR2_Initialize: [wreg+status,2]
  3333                           
  3334                           
  3335                           ;mcc_generated_files/tmr2.c: 67:     PR2 = 0xFF;
  3336     0218  30FF               	movlw	255
  3337     0219  0020               	movlb	0	; select bank0
  3338     021A  009B               	movwf	27	;volatile
  3339     021B                     l1289:
  3340                           
  3341                           ;mcc_generated_files/tmr2.c: 70:     TMR2 = 0x00;
  3342     021B  019A               	clrf	26	;volatile
  3343     021C                     l1291:
  3344                           
  3345                           ;mcc_generated_files/tmr2.c: 73:     PIR1bits.TMR2IF = 0;
  3346     021C  1091               	bcf	17,1	;volatile
  3347     021D                     l1293:
  3348                           
  3349                           ;mcc_generated_files/tmr2.c: 76:     T2CON = 0x04;
  3350     021D  3004               	movlw	4
  3351     021E  009C               	movwf	28	;volatile
  3352     021F                     l475:
  3353     021F  0008               	return
  3354     0220                     __end_of_TMR2_Initialize:
  3355                           
  3356                           	psect	text5
  3357     0122                     __ptext5:	
  3358 ;; *************** function _TMR1_Initialize *****************
  3359 ;; Defined at:
  3360 ;;		line 64 in file "mcc_generated_files/tmr1.c"
  3361 ;; Parameters:    Size  Location     Type
  3362 ;;		None
  3363 ;; Auto vars:     Size  Location     Type
  3364 ;;		None
  3365 ;; Return value:  Size  Location     Type
  3366 ;;                  1    wreg      void 
  3367 ;; Registers used:
  3368 ;;		wreg, status,2, status,0, pclath, cstack
  3369 ;; Tracked objects:
  3370 ;;		On entry : 0/0
  3371 ;;		On exit  : 0/0
  3372 ;;		Unchanged: 0/0
  3373 ;; Data sizes:     COMMON   BANK0   BANK1   BANK2   BANK3   BANK4
  3374 ;;      Params:         0       0       0       0       0       0
  3375 ;;      Locals:         0       0       0       0       0       0
  3376 ;;      Temps:          0       0       0       0       0       0
  3377 ;;      Totals:         0       0       0       0       0       0
  3378 ;;Total ram usage:        0 bytes
  3379 ;; Hardware stack levels used: 1
  3380 ;; Hardware stack levels required when called: 5
  3381 ;; This function calls:
  3382 ;;		_TMR1_SetInterruptHandler
  3383 ;; This function is called by:
  3384 ;;		_SYSTEM_Initialize
  3385 ;; This function uses a non-reentrant model
  3386 ;;
  3387                           
  3388     0122                     _TMR1_Initialize:	
  3389                           ;psect for function _TMR1_Initialize
  3390                           
  3391     0122                     l1723:	
  3392                           ;incstack = 0
  3393                           ; Regs used in _TMR1_Initialize: [wreg+status,2+status,0+pclath+cstack]
  3394                           
  3395                           
  3396                           ;mcc_generated_files/tmr1.c: 69:     T1GCON = 0x00;
  3397     0122  0020               	movlb	0	; select bank0
  3398     0123  0199               	clrf	25	;volatile
  3399     0124                     l1725:
  3400                           
  3401                           ;mcc_generated_files/tmr1.c: 72:     TMR1H = 0x6D;
  3402     0124  306D               	movlw	109
  3403     0125  0097               	movwf	23	;volatile
  3404     0126                     l1727:
  3405                           
  3406                           ;mcc_generated_files/tmr1.c: 75:     TMR1L = 0x84;
  3407     0126  3084               	movlw	132
  3408     0127  0096               	movwf	22	;volatile
  3409     0128                     l1729:
  3410                           
  3411                           ;mcc_generated_files/tmr1.c: 78:     PIR1bits.TMR1IF = 0;
  3412     0128  1011               	bcf	17,0	;volatile
  3413     0129                     l1731:
  3414                           
  3415                           ;mcc_generated_files/tmr1.c: 81:     timer1ReloadVal=(uint16_t)((TMR1H << 8) | TMR1L);
  3416     0129  0817               	movf	23,w	;volatile
  3417     012A  00F1               	movwf	_timer1ReloadVal+1	;volatile
  3418     012B  0816               	movf	22,w	;volatile
  3419     012C  00F0               	movwf	_timer1ReloadVal	;volatile
  3420     012D                     l1733:
  3421                           
  3422                           ;mcc_generated_files/tmr1.c: 84:     PIE1bits.TMR1IE = 1;
  3423     012D  0021               	movlb	1	; select bank1
  3424     012E  1411               	bsf	17,0	;volatile
  3425     012F                     l1735:
  3426                           
  3427                           ;mcc_generated_files/tmr1.c: 87:     TMR1_SetInterruptHandler(TMR1_DefaultInterruptHandl
      +                          er);
  3428     012F  3070               	movlw	low _TMR1_DefaultInterruptHandler
  3429     0130  00FA               	movwf	TMR1_SetInterruptHandler@InterruptHandler
  3430     0131  3002               	movlw	high _TMR1_DefaultInterruptHandler
  3431     0132  00FB               	movwf	TMR1_SetInterruptHandler@InterruptHandler+1
  3432     0133  3182  222F  3181   	fcall	_TMR1_SetInterruptHandler
  3433     0136                     l1737:
  3434                           
  3435                           ;mcc_generated_files/tmr1.c: 90:     T1CON = 0x31;
  3436     0136  3031               	movlw	49
  3437     0137  0020               	movlb	0	; select bank0
  3438     0138  0098               	movwf	24	;volatile
  3439     0139                     l426:
  3440     0139  0008               	return
  3441     013A                     __end_of_TMR1_Initialize:
  3442                           
  3443                           	psect	text6
  3444     022F                     __ptext6:	
  3445 ;; *************** function _TMR1_SetInterruptHandler *****************
  3446 ;; Defined at:
  3447 ;;		line 178 in file "mcc_generated_files/tmr1.c"
  3448 ;; Parameters:    Size  Location     Type
  3449 ;;  InterruptHan    2    2[COMMON] PTR FTN()void 
  3450 ;;		 -> TMR1_DefaultInterruptHandler(1), 
  3451 ;; Auto vars:     Size  Location     Type
  3452 ;;		None
  3453 ;; Return value:  Size  Location     Type
  3454 ;;                  1    wreg      void 
  3455 ;; Registers used:
  3456 ;;		wreg
  3457 ;; Tracked objects:
  3458 ;;		On entry : 0/0
  3459 ;;		On exit  : 0/0
  3460 ;;		Unchanged: 0/0
  3461 ;; Data sizes:     COMMON   BANK0   BANK1   BANK2   BANK3   BANK4
  3462 ;;      Params:         2       0       0       0       0       0
  3463 ;;      Locals:         0       0       0       0       0       0
  3464 ;;      Temps:          0       0       0       0       0       0
  3465 ;;      Totals:         2       0       0       0       0       0
  3466 ;;Total ram usage:        2 bytes
  3467 ;; Hardware stack levels used: 1
  3468 ;; Hardware stack levels required when called: 4
  3469 ;; This function calls:
  3470 ;;		Nothing
  3471 ;; This function is called by:
  3472 ;;		_TMR1_Initialize
  3473 ;; This function uses a non-reentrant model
  3474 ;;
  3475                           
  3476     022F                     _TMR1_SetInterruptHandler:	
  3477                           ;psect for function _TMR1_SetInterruptHandler
  3478                           
  3479     022F                     l1661:	
  3480                           ;incstack = 0
  3481                           ; Regs used in _TMR1_SetInterruptHandler: [wreg]
  3482                           
  3483                           
  3484                           ;mcc_generated_files/tmr1.c: 179:     TMR1_InterruptHandler = InterruptHandler;
  3485     022F  087B               	movf	TMR1_SetInterruptHandler@InterruptHandler+1,w
  3486     0230  0020               	movlb	0	; select bank0
  3487     0231  00A3               	movwf	_TMR1_InterruptHandler+1
  3488     0232  087A               	movf	TMR1_SetInterruptHandler@InterruptHandler,w
  3489     0233  00A2               	movwf	_TMR1_InterruptHandler
  3490     0234                     l459:
  3491     0234  0008               	return
  3492     0235                     __end_of_TMR1_SetInterruptHandler:
  3493                           
  3494                           	psect	text7
  3495     0164                     __ptext7:	
  3496 ;; *************** function _TMR0_Initialize *****************
  3497 ;; Defined at:
  3498 ;;		line 64 in file "mcc_generated_files/tmr0.c"
  3499 ;; Parameters:    Size  Location     Type
  3500 ;;		None
  3501 ;; Auto vars:     Size  Location     Type
  3502 ;;		None
  3503 ;; Return value:  Size  Location     Type
  3504 ;;                  1    wreg      void 
  3505 ;; Registers used:
  3506 ;;		wreg, status,2, status,0, pclath, cstack
  3507 ;; Tracked objects:
  3508 ;;		On entry : 0/0
  3509 ;;		On exit  : 0/0
  3510 ;;		Unchanged: 0/0
  3511 ;; Data sizes:     COMMON   BANK0   BANK1   BANK2   BANK3   BANK4
  3512 ;;      Params:         0       0       0       0       0       0
  3513 ;;      Locals:         0       0       0       0       0       0
  3514 ;;      Temps:          0       0       0       0       0       0
  3515 ;;      Totals:         0       0       0       0       0       0
  3516 ;;Total ram usage:        0 bytes
  3517 ;; Hardware stack levels used: 1
  3518 ;; Hardware stack levels required when called: 5
  3519 ;; This function calls:
  3520 ;;		_TMR0_SetInterruptHandler
  3521 ;; This function is called by:
  3522 ;;		_SYSTEM_Initialize
  3523 ;; This function uses a non-reentrant model
  3524 ;;
  3525                           
  3526     0164                     _TMR0_Initialize:	
  3527                           ;psect for function _TMR0_Initialize
  3528                           
  3529     0164                     l1711:	
  3530                           ;incstack = 0
  3531                           ; Regs used in _TMR0_Initialize: [wreg+status,2+status,0+pclath+cstack]
  3532                           
  3533                           
  3534                           ;mcc_generated_files/tmr0.c: 69:     OPTION_REG = (uint8_t)((OPTION_REG & 0xC0) | (0xD7 
      +                          & 0x3F));
  3535     0164  0021               	movlb	1	; select bank1
  3536     0165  0815               	movf	21,w	;volatile
  3537     0166  39C0               	andlw	192
  3538     0167  3817               	iorlw	23
  3539     0168  0095               	movwf	21	;volatile
  3540     0169                     l1713:
  3541                           
  3542                           ;mcc_generated_files/tmr0.c: 72:     TMR0 = 0x00;
  3543     0169  0020               	movlb	0	; select bank0
  3544     016A  0195               	clrf	21	;volatile
  3545     016B                     l1715:
  3546                           
  3547                           ;mcc_generated_files/tmr0.c: 75:     timer0ReloadVal= 0;
  3548     016B  01F6               	clrf	_timer0ReloadVal	;volatile
  3549     016C                     l1717:
  3550                           
  3551                           ;mcc_generated_files/tmr0.c: 78:     INTCONbits.TMR0IF = 0;
  3552     016C  110B               	bcf	11,2	;volatile
  3553     016D                     l1719:
  3554                           
  3555                           ;mcc_generated_files/tmr0.c: 81:     INTCONbits.TMR0IE = 1;
  3556     016D  168B               	bsf	11,5	;volatile
  3557     016E                     l1721:
  3558                           
  3559                           ;mcc_generated_files/tmr0.c: 84:     TMR0_SetInterruptHandler(TMR0_DefaultInterruptHandl
      +                          er);
  3560     016E  3071               	movlw	low _TMR0_DefaultInterruptHandler
  3561     016F  00FA               	movwf	TMR0_SetInterruptHandler@InterruptHandler
  3562     0170  3002               	movlw	high _TMR0_DefaultInterruptHandler
  3563     0171  00FB               	movwf	TMR0_SetInterruptHandler@InterruptHandler+1
  3564     0172  3182  2235  3181   	fcall	_TMR0_SetInterruptHandler
  3565     0175                     l513:
  3566     0175  0008               	return
  3567     0176                     __end_of_TMR0_Initialize:
  3568                           
  3569                           	psect	text8
  3570     0235                     __ptext8:	
  3571 ;; *************** function _TMR0_SetInterruptHandler *****************
  3572 ;; Defined at:
  3573 ;;		line 140 in file "mcc_generated_files/tmr0.c"
  3574 ;; Parameters:    Size  Location     Type
  3575 ;;  InterruptHan    2    2[COMMON] PTR FTN()void 
  3576 ;;		 -> TMR0_DefaultInterruptHandler(1), 
  3577 ;; Auto vars:     Size  Location     Type
  3578 ;;		None
  3579 ;; Return value:  Size  Location     Type
  3580 ;;                  1    wreg      void 
  3581 ;; Registers used:
  3582 ;;		wreg
  3583 ;; Tracked objects:
  3584 ;;		On entry : 0/0
  3585 ;;		On exit  : 0/0
  3586 ;;		Unchanged: 0/0
  3587 ;; Data sizes:     COMMON   BANK0   BANK1   BANK2   BANK3   BANK4
  3588 ;;      Params:         2       0       0       0       0       0
  3589 ;;      Locals:         0       0       0       0       0       0
  3590 ;;      Temps:          0       0       0       0       0       0
  3591 ;;      Totals:         2       0       0       0       0       0
  3592 ;;Total ram usage:        2 bytes
  3593 ;; Hardware stack levels used: 1
  3594 ;; Hardware stack levels required when called: 4
  3595 ;; This function calls:
  3596 ;;		Nothing
  3597 ;; This function is called by:
  3598 ;;		_TMR0_Initialize
  3599 ;; This function uses a non-reentrant model
  3600 ;;
  3601                           
  3602     0235                     _TMR0_SetInterruptHandler:	
  3603                           ;psect for function _TMR0_SetInterruptHandler
  3604                           
  3605     0235                     l1663:	
  3606                           ;incstack = 0
  3607                           ; Regs used in _TMR0_SetInterruptHandler: [wreg]
  3608                           
  3609                           
  3610                           ;mcc_generated_files/tmr0.c: 141:     TMR0_InterruptHandler = InterruptHandler;
  3611     0235  087B               	movf	TMR0_SetInterruptHandler@InterruptHandler+1,w
  3612     0236  0020               	movlb	0	; select bank0
  3613     0237  00A1               	movwf	_TMR0_InterruptHandler+1
  3614     0238  087A               	movf	TMR0_SetInterruptHandler@InterruptHandler,w
  3615     0239  00A0               	movwf	_TMR0_InterruptHandler
  3616     023A                     l535:
  3617     023A  0008               	return
  3618     023B                     __end_of_TMR0_SetInterruptHandler:
  3619                           
  3620                           	psect	text9
  3621     0204                     __ptext9:	
  3622 ;; *************** function _SPI1_Initialize *****************
  3623 ;; Defined at:
  3624 ;;		line 62 in file "mcc_generated_files/spi1.c"
  3625 ;; Parameters:    Size  Location     Type
  3626 ;;		None
  3627 ;; Auto vars:     Size  Location     Type
  3628 ;;		None
  3629 ;; Return value:  Size  Location     Type
  3630 ;;                  1    wreg      void 
  3631 ;; Registers used:
  3632 ;;		wreg, status,2
  3633 ;; Tracked objects:
  3634 ;;		On entry : 0/0
  3635 ;;		On exit  : 0/0
  3636 ;;		Unchanged: 0/0
  3637 ;; Data sizes:     COMMON   BANK0   BANK1   BANK2   BANK3   BANK4
  3638 ;;      Params:         0       0       0       0       0       0
  3639 ;;      Locals:         0       0       0       0       0       0
  3640 ;;      Temps:          0       0       0       0       0       0
  3641 ;;      Totals:         0       0       0       0       0       0
  3642 ;;Total ram usage:        0 bytes
  3643 ;; Hardware stack levels used: 1
  3644 ;; Hardware stack levels required when called: 4
  3645 ;; This function calls:
  3646 ;;		Nothing
  3647 ;; This function is called by:
  3648 ;;		_SYSTEM_Initialize
  3649 ;; This function uses a non-reentrant model
  3650 ;;
  3651                           
  3652     0204                     _SPI1_Initialize:	
  3653                           ;psect for function _SPI1_Initialize
  3654                           
  3655     0204                     l1267:	
  3656                           ;incstack = 0
  3657                           ; Regs used in _SPI1_Initialize: [wreg+status,2]
  3658                           
  3659                           
  3660                           ;mcc_generated_files/spi1.c: 65:     SSP1STAT = 0x40;
  3661     0204  3040               	movlw	64
  3662     0205  0024               	movlb	4	; select bank4
  3663     0206  0094               	movwf	20	;volatile
  3664     0207                     l1269:
  3665                           
  3666                           ;mcc_generated_files/spi1.c: 66:     SSP1CON1 = 0x00;
  3667     0207  0195               	clrf	21	;volatile
  3668     0208                     l1271:
  3669                           
  3670                           ;mcc_generated_files/spi1.c: 67:     SSP1ADD = 0x01;
  3671     0208  3001               	movlw	1
  3672     0209  0092               	movwf	18	;volatile
  3673     020A                     l1273:
  3674                           
  3675                           ;mcc_generated_files/spi1.c: 68:     TRISBbits.TRISB4 = 0;
  3676     020A  0021               	movlb	1	; select bank1
  3677     020B  120D               	bcf	13,4	;volatile
  3678     020C                     l1275:
  3679                           
  3680                           ;mcc_generated_files/spi1.c: 69:     SSP1CON1bits.SSPEN = 0;
  3681     020C  0024               	movlb	4	; select bank4
  3682     020D  1295               	bcf	21,5	;volatile
  3683     020E                     l326:
  3684     020E  0008               	return
  3685     020F                     __end_of_SPI1_Initialize:
  3686                           
  3687                           	psect	text10
  3688     020F                     __ptext10:	
  3689 ;; *************** function _PWM3_Initialize *****************
  3690 ;; Defined at:
  3691 ;;		line 64 in file "mcc_generated_files/pwm3.c"
  3692 ;; Parameters:    Size  Location     Type
  3693 ;;		None
  3694 ;; Auto vars:     Size  Location     Type
  3695 ;;		None
  3696 ;; Return value:  Size  Location     Type
  3697 ;;                  1    wreg      void 
  3698 ;; Registers used:
  3699 ;;		wreg, status,2, status,0
  3700 ;; Tracked objects:
  3701 ;;		On entry : 0/0
  3702 ;;		On exit  : 0/0
  3703 ;;		Unchanged: 0/0
  3704 ;; Data sizes:     COMMON   BANK0   BANK1   BANK2   BANK3   BANK4
  3705 ;;      Params:         0       0       0       0       0       0
  3706 ;;      Locals:         0       0       0       0       0       0
  3707 ;;      Temps:          0       0       0       0       0       0
  3708 ;;      Totals:         0       0       0       0       0       0
  3709 ;;Total ram usage:        0 bytes
  3710 ;; Hardware stack levels used: 1
  3711 ;; Hardware stack levels required when called: 4
  3712 ;; This function calls:
  3713 ;;		Nothing
  3714 ;; This function is called by:
  3715 ;;		_SYSTEM_Initialize
  3716 ;; This function uses a non-reentrant model
  3717 ;;
  3718                           
  3719     020F                     _PWM3_Initialize:	
  3720                           ;psect for function _PWM3_Initialize
  3721                           
  3722     020F                     l1197:	
  3723                           ;incstack = 0
  3724                           ; Regs used in _PWM3_Initialize: [wreg+status,2+status,0]
  3725                           
  3726                           
  3727                           ;mcc_generated_files/pwm3.c: 69:  CCP3CON = 0x0C;
  3728     020F  300C               	movlw	12
  3729     0210  0026               	movlb	6	; select bank6
  3730     0211  0093               	movwf	19	;volatile
  3731     0212                     l1199:
  3732                           
  3733                           ;mcc_generated_files/pwm3.c: 72:  CCPR3L = 0x00;
  3734     0212  0191               	clrf	17	;volatile
  3735     0213                     l1201:
  3736                           
  3737                           ;mcc_generated_files/pwm3.c: 75:  CCPR3H = 0x00;
  3738     0213  0192               	clrf	18	;volatile
  3739     0214                     l1203:
  3740                           
  3741                           ;mcc_generated_files/pwm3.c: 78:  CCPTMRS0bits.C3TSEL = 0x0;
  3742     0214  30CF               	movlw	-49
  3743     0215  0025               	movlb	5	; select bank5
  3744     0216  059E               	andwf	30,f	;volatile
  3745     0217                     l11:
  3746     0217  0008               	return
  3747     0218                     __end_of_PWM3_Initialize:
  3748                           
  3749                           	psect	text11
  3750     00AA                     __ptext11:	
  3751 ;; *************** function _PIN_MANAGER_Initialize *****************
  3752 ;; Defined at:
  3753 ;;		line 58 in file "mcc_generated_files/pin_manager.c"
  3754 ;; Parameters:    Size  Location     Type
  3755 ;;		None
  3756 ;; Auto vars:     Size  Location     Type
  3757 ;;		None
  3758 ;; Return value:  Size  Location     Type
  3759 ;;                  1    wreg      void 
  3760 ;; Registers used:
  3761 ;;		wreg, status,2, status,0, pclath, cstack
  3762 ;; Tracked objects:
  3763 ;;		On entry : 0/0
  3764 ;;		On exit  : 0/0
  3765 ;;		Unchanged: 0/0
  3766 ;; Data sizes:     COMMON   BANK0   BANK1   BANK2   BANK3   BANK4
  3767 ;;      Params:         0       0       0       0       0       0
  3768 ;;      Locals:         0       0       0       0       0       0
  3769 ;;      Temps:          0       0       0       0       0       0
  3770 ;;      Totals:         0       0       0       0       0       0
  3771 ;;Total ram usage:        0 bytes
  3772 ;; Hardware stack levels used: 1
  3773 ;; Hardware stack levels required when called: 5
  3774 ;; This function calls:
  3775 ;;		_IOCBF0_SetInterruptHandler
  3776 ;;		_IOCBF3_SetInterruptHandler
  3777 ;; This function is called by:
  3778 ;;		_SYSTEM_Initialize
  3779 ;; This function uses a non-reentrant model
  3780 ;;
  3781                           
  3782     00AA                     _PIN_MANAGER_Initialize:	
  3783                           ;psect for function _PIN_MANAGER_Initialize
  3784                           
  3785     00AA                     l1665:	
  3786                           ;incstack = 0
  3787                           ; Regs used in _PIN_MANAGER_Initialize: [wreg+status,2+status,0+pclath+cstack]
  3788                           
  3789                           
  3790                           ;mcc_generated_files/pin_manager.c: 63:     LATA = 0x00;
  3791     00AA  0022               	movlb	2	; select bank2
  3792     00AB  018C               	clrf	12	;volatile
  3793                           
  3794                           ;mcc_generated_files/pin_manager.c: 64:     LATB = 0x00;
  3795     00AC  018D               	clrf	13	;volatile
  3796     00AD                     l1667:
  3797                           
  3798                           ;mcc_generated_files/pin_manager.c: 69:     TRISA = 0x37;
  3799     00AD  3037               	movlw	55
  3800     00AE  0021               	movlb	1	; select bank1
  3801     00AF  008C               	movwf	12	;volatile
  3802     00B0                     l1669:
  3803                           
  3804                           ;mcc_generated_files/pin_manager.c: 70:     TRISB = 0xED;
  3805     00B0  30ED               	movlw	237
  3806     00B1  008D               	movwf	13	;volatile
  3807     00B2                     l1671:
  3808                           
  3809                           ;mcc_generated_files/pin_manager.c: 75:     ANSELB = 0xC0;
  3810     00B2  30C0               	movlw	192
  3811     00B3  0023               	movlb	3	; select bank3
  3812     00B4  008D               	movwf	13	;volatile
  3813     00B5                     l1673:
  3814                           
  3815                           ;mcc_generated_files/pin_manager.c: 76:     ANSELA = 0x0F;
  3816     00B5  300F               	movlw	15
  3817     00B6  008C               	movwf	12	;volatile
  3818     00B7                     l1675:
  3819                           
  3820                           ;mcc_generated_files/pin_manager.c: 81:     WPUB = 0x09;
  3821     00B7  3009               	movlw	9
  3822     00B8  0024               	movlb	4	; select bank4
  3823     00B9  008D               	movwf	13	;volatile
  3824     00BA                     l1677:
  3825                           
  3826                           ;mcc_generated_files/pin_manager.c: 82:     WPUA = 0x00;
  3827     00BA  018C               	clrf	12	;volatile
  3828     00BB                     l1679:
  3829                           
  3830                           ;mcc_generated_files/pin_manager.c: 83:     OPTION_REGbits.nWPUEN = 0;
  3831     00BB  0021               	movlb	1	; select bank1
  3832     00BC  1395               	bcf	21,7	;volatile
  3833                           
  3834                           ;mcc_generated_files/pin_manager.c: 89:     APFCON0 = 0xC0;
  3835     00BD  30C0               	movlw	192
  3836     00BE  0022               	movlb	2	; select bank2
  3837     00BF  009D               	movwf	29	;volatile
  3838                           
  3839                           ;mcc_generated_files/pin_manager.c: 90:     APFCON1 = 0x01;
  3840     00C0  3001               	movlw	1
  3841     00C1  009E               	movwf	30	;volatile
  3842     00C2                     l1681:
  3843                           
  3844                           ;mcc_generated_files/pin_manager.c: 96:     IOCBFbits.IOCBF0 = 0;
  3845     00C2  0027               	movlb	7	; select bank7
  3846     00C3  1016               	bcf	22,0	;volatile
  3847     00C4                     l1683:
  3848                           
  3849                           ;mcc_generated_files/pin_manager.c: 98:     IOCBFbits.IOCBF3 = 0;
  3850     00C4  1196               	bcf	22,3	;volatile
  3851     00C5                     l1685:
  3852                           
  3853                           ;mcc_generated_files/pin_manager.c: 100:     IOCBNbits.IOCBN0 = 1;
  3854     00C5  1415               	bsf	21,0	;volatile
  3855     00C6                     l1687:
  3856                           
  3857                           ;mcc_generated_files/pin_manager.c: 102:     IOCBNbits.IOCBN3 = 1;
  3858     00C6  1595               	bsf	21,3	;volatile
  3859     00C7                     l1689:
  3860                           
  3861                           ;mcc_generated_files/pin_manager.c: 104:     IOCBPbits.IOCBP0 = 0;
  3862     00C7  1014               	bcf	20,0	;volatile
  3863     00C8                     l1691:
  3864                           
  3865                           ;mcc_generated_files/pin_manager.c: 106:     IOCBPbits.IOCBP3 = 0;
  3866     00C8  1194               	bcf	20,3	;volatile
  3867     00C9                     l1693:
  3868                           
  3869                           ;mcc_generated_files/pin_manager.c: 111:     IOCBF0_SetInterruptHandler(IOCBF0_DefaultIn
      +                          terruptHandler);
  3870     00C9  3073               	movlw	low _IOCBF0_DefaultInterruptHandler
  3871     00CA  00FA               	movwf	IOCBF0_SetInterruptHandler@InterruptHandler
  3872     00CB  3002               	movlw	high _IOCBF0_DefaultInterruptHandler
  3873     00CC  00FB               	movwf	IOCBF0_SetInterruptHandler@InterruptHandler+1
  3874     00CD  3182  2241  3180   	fcall	_IOCBF0_SetInterruptHandler
  3875     00D0                     l1695:
  3876                           
  3877                           ;mcc_generated_files/pin_manager.c: 112:     IOCBF3_SetInterruptHandler(IOCBF3_DefaultIn
      +                          terruptHandler);
  3878     00D0  3072               	movlw	low _IOCBF3_DefaultInterruptHandler
  3879     00D1  00FA               	movwf	IOCBF3_SetInterruptHandler@InterruptHandler
  3880     00D2  3002               	movlw	high _IOCBF3_DefaultInterruptHandler
  3881     00D3  00FB               	movwf	IOCBF3_SetInterruptHandler@InterruptHandler+1
  3882     00D4  3182  223B  3180   	fcall	_IOCBF3_SetInterruptHandler
  3883     00D7                     l1697:
  3884                           
  3885                           ;mcc_generated_files/pin_manager.c: 115:     INTCONbits.IOCIE = 1;
  3886     00D7  158B               	bsf	11,3	;volatile
  3887     00D8                     l101:
  3888     00D8  0008               	return
  3889     00D9                     __end_of_PIN_MANAGER_Initialize:
  3890                           
  3891                           	psect	text12
  3892     023B                     __ptext12:	
  3893 ;; *************** function _IOCBF3_SetInterruptHandler *****************
  3894 ;; Defined at:
  3895 ;;		line 181 in file "mcc_generated_files/pin_manager.c"
  3896 ;; Parameters:    Size  Location     Type
  3897 ;;  InterruptHan    2    2[COMMON] PTR FTN()void 
  3898 ;;		 -> IOCBF3_DefaultInterruptHandler(1), 
  3899 ;; Auto vars:     Size  Location     Type
  3900 ;;		None
  3901 ;; Return value:  Size  Location     Type
  3902 ;;                  1    wreg      void 
  3903 ;; Registers used:
  3904 ;;		wreg
  3905 ;; Tracked objects:
  3906 ;;		On entry : 0/0
  3907 ;;		On exit  : 0/0
  3908 ;;		Unchanged: 0/0
  3909 ;; Data sizes:     COMMON   BANK0   BANK1   BANK2   BANK3   BANK4
  3910 ;;      Params:         2       0       0       0       0       0
  3911 ;;      Locals:         0       0       0       0       0       0
  3912 ;;      Temps:          0       0       0       0       0       0
  3913 ;;      Totals:         2       0       0       0       0       0
  3914 ;;Total ram usage:        2 bytes
  3915 ;; Hardware stack levels used: 1
  3916 ;; Hardware stack levels required when called: 4
  3917 ;; This function calls:
  3918 ;;		Nothing
  3919 ;; This function is called by:
  3920 ;;		_PIN_MANAGER_Initialize
  3921 ;; This function uses a non-reentrant model
  3922 ;;
  3923                           
  3924     023B                     _IOCBF3_SetInterruptHandler:	
  3925                           ;psect for function _IOCBF3_SetInterruptHandler
  3926                           
  3927     023B                     l1653:	
  3928                           ;incstack = 0
  3929                           ; Regs used in _IOCBF3_SetInterruptHandler: [wreg]
  3930                           
  3931                           
  3932                           ;mcc_generated_files/pin_manager.c: 182:     IOCBF3_InterruptHandler = InterruptHandler;
  3933     023B  087B               	movf	IOCBF3_SetInterruptHandler@InterruptHandler+1,w
  3934     023C  0020               	movlb	0	; select bank0
  3935     023D  00AB               	movwf	_IOCBF3_InterruptHandler+1
  3936     023E  087A               	movf	IOCBF3_SetInterruptHandler@InterruptHandler,w
  3937     023F  00AA               	movwf	_IOCBF3_InterruptHandler
  3938     0240                     l123:
  3939     0240  0008               	return
  3940     0241                     __end_of_IOCBF3_SetInterruptHandler:
  3941                           
  3942                           	psect	text13
  3943     0241                     __ptext13:	
  3944 ;; *************** function _IOCBF0_SetInterruptHandler *****************
  3945 ;; Defined at:
  3946 ;;		line 151 in file "mcc_generated_files/pin_manager.c"
  3947 ;; Parameters:    Size  Location     Type
  3948 ;;  InterruptHan    2    2[COMMON] PTR FTN()void 
  3949 ;;		 -> IOCBF0_DefaultInterruptHandler(1), 
  3950 ;; Auto vars:     Size  Location     Type
  3951 ;;		None
  3952 ;; Return value:  Size  Location     Type
  3953 ;;                  1    wreg      void 
  3954 ;; Registers used:
  3955 ;;		wreg
  3956 ;; Tracked objects:
  3957 ;;		On entry : 0/0
  3958 ;;		On exit  : 0/0
  3959 ;;		Unchanged: 0/0
  3960 ;; Data sizes:     COMMON   BANK0   BANK1   BANK2   BANK3   BANK4
  3961 ;;      Params:         2       0       0       0       0       0
  3962 ;;      Locals:         0       0       0       0       0       0
  3963 ;;      Temps:          0       0       0       0       0       0
  3964 ;;      Totals:         2       0       0       0       0       0
  3965 ;;Total ram usage:        2 bytes
  3966 ;; Hardware stack levels used: 1
  3967 ;; Hardware stack levels required when called: 4
  3968 ;; This function calls:
  3969 ;;		Nothing
  3970 ;; This function is called by:
  3971 ;;		_PIN_MANAGER_Initialize
  3972 ;; This function uses a non-reentrant model
  3973 ;;
  3974                           
  3975     0241                     _IOCBF0_SetInterruptHandler:	
  3976                           ;psect for function _IOCBF0_SetInterruptHandler
  3977                           
  3978     0241                     l1651:	
  3979                           ;incstack = 0
  3980                           ; Regs used in _IOCBF0_SetInterruptHandler: [wreg]
  3981                           
  3982                           
  3983                           ;mcc_generated_files/pin_manager.c: 152:     IOCBF0_InterruptHandler = InterruptHandler;
  3984     0241  087B               	movf	IOCBF0_SetInterruptHandler@InterruptHandler+1,w
  3985     0242  0020               	movlb	0	; select bank0
  3986     0243  00AD               	movwf	_IOCBF0_InterruptHandler+1
  3987     0244  087A               	movf	IOCBF0_SetInterruptHandler@InterruptHandler,w
  3988     0245  00AC               	movwf	_IOCBF0_InterruptHandler
  3989     0246                     l113:
  3990     0246  0008               	return
  3991     0247                     __end_of_IOCBF0_SetInterruptHandler:
  3992                           
  3993                           	psect	text14
  3994     0228                     __ptext14:	
  3995 ;; *************** function _OSCILLATOR_Initialize *****************
  3996 ;; Defined at:
  3997 ;;		line 68 in file "mcc_generated_files/mcc.c"
  3998 ;; Parameters:    Size  Location     Type
  3999 ;;		None
  4000 ;; Auto vars:     Size  Location     Type
  4001 ;;		None
  4002 ;; Return value:  Size  Location     Type
  4003 ;;                  1    wreg      void 
  4004 ;; Registers used:
  4005 ;;		wreg, status,2
  4006 ;; Tracked objects:
  4007 ;;		On entry : 0/0
  4008 ;;		On exit  : 0/0
  4009 ;;		Unchanged: 0/0
  4010 ;; Data sizes:     COMMON   BANK0   BANK1   BANK2   BANK3   BANK4
  4011 ;;      Params:         0       0       0       0       0       0
  4012 ;;      Locals:         0       0       0       0       0       0
  4013 ;;      Temps:          0       0       0       0       0       0
  4014 ;;      Totals:         0       0       0       0       0       0
  4015 ;;Total ram usage:        0 bytes
  4016 ;; Hardware stack levels used: 1
  4017 ;; Hardware stack levels required when called: 4
  4018 ;; This function calls:
  4019 ;;		Nothing
  4020 ;; This function is called by:
  4021 ;;		_SYSTEM_Initialize
  4022 ;; This function uses a non-reentrant model
  4023 ;;
  4024                           
  4025     0228                     _OSCILLATOR_Initialize:	
  4026                           ;psect for function _OSCILLATOR_Initialize
  4027                           
  4028     0228                     l1277:	
  4029                           ;incstack = 0
  4030                           ; Regs used in _OSCILLATOR_Initialize: [wreg+status,2]
  4031                           
  4032                           
  4033                           ;mcc_generated_files/mcc.c: 71:     OSCCON = 0x68;
  4034     0228  3068               	movlw	104
  4035     0229  0021               	movlb	1	; select bank1
  4036     022A  0099               	movwf	25	;volatile
  4037     022B                     l1279:
  4038                           
  4039                           ;mcc_generated_files/mcc.c: 73:     OSCTUNE = 0x00;
  4040     022B  0198               	clrf	24	;volatile
  4041     022C                     l1281:
  4042                           
  4043                           ;mcc_generated_files/mcc.c: 75:     BORCON = 0x00;
  4044     022C  0022               	movlb	2	; select bank2
  4045     022D  0196               	clrf	22	;volatile
  4046     022E                     l166:
  4047     022E  0008               	return
  4048     022F                     __end_of_OSCILLATOR_Initialize:
  4049                           
  4050                           	psect	text15
  4051     0266                     __ptext15:	
  4052 ;; *************** function _FVR_Initialize *****************
  4053 ;; Defined at:
  4054 ;;		line 58 in file "mcc_generated_files/fvr.c"
  4055 ;; Parameters:    Size  Location     Type
  4056 ;;		None
  4057 ;; Auto vars:     Size  Location     Type
  4058 ;;		None
  4059 ;; Return value:  Size  Location     Type
  4060 ;;                  1    wreg      void 
  4061 ;; Registers used:
  4062 ;;		wreg
  4063 ;; Tracked objects:
  4064 ;;		On entry : 0/0
  4065 ;;		On exit  : 0/0
  4066 ;;		Unchanged: 0/0
  4067 ;; Data sizes:     COMMON   BANK0   BANK1   BANK2   BANK3   BANK4
  4068 ;;      Params:         0       0       0       0       0       0
  4069 ;;      Locals:         0       0       0       0       0       0
  4070 ;;      Temps:          0       0       0       0       0       0
  4071 ;;      Totals:         0       0       0       0       0       0
  4072 ;;Total ram usage:        0 bytes
  4073 ;; Hardware stack levels used: 1
  4074 ;; Hardware stack levels required when called: 4
  4075 ;; This function calls:
  4076 ;;		Nothing
  4077 ;; This function is called by:
  4078 ;;		_SYSTEM_Initialize
  4079 ;; This function uses a non-reentrant model
  4080 ;;
  4081                           
  4082     0266                     _FVR_Initialize:	
  4083                           ;psect for function _FVR_Initialize
  4084                           
  4085     0266                     l1285:	
  4086                           ;incstack = 0
  4087                           ; Regs used in _FVR_Initialize: [wreg]
  4088                           
  4089                           
  4090                           ;mcc_generated_files/fvr.c: 61:     FVRCON = 0x89;
  4091     0266  3089               	movlw	137
  4092     0267  0022               	movlb	2	; select bank2
  4093     0268  0097               	movwf	23	;volatile
  4094     0269                     l214:
  4095     0269  0008               	return
  4096     026A                     __end_of_FVR_Initialize:
  4097                           
  4098                           	psect	text16
  4099     0101                     __ptext16:	
  4100 ;; *************** function _EUSART_Initialize *****************
  4101 ;; Defined at:
  4102 ;;		line 66 in file "mcc_generated_files/eusart.c"
  4103 ;; Parameters:    Size  Location     Type
  4104 ;;		None
  4105 ;; Auto vars:     Size  Location     Type
  4106 ;;		None
  4107 ;; Return value:  Size  Location     Type
  4108 ;;                  1    wreg      void 
  4109 ;; Registers used:
  4110 ;;		wreg, status,2, status,0, pclath, cstack
  4111 ;; Tracked objects:
  4112 ;;		On entry : 0/0
  4113 ;;		On exit  : 0/0
  4114 ;;		Unchanged: 0/0
  4115 ;; Data sizes:     COMMON   BANK0   BANK1   BANK2   BANK3   BANK4
  4116 ;;      Params:         0       0       0       0       0       0
  4117 ;;      Locals:         0       0       0       0       0       0
  4118 ;;      Temps:          0       0       0       0       0       0
  4119 ;;      Totals:         0       0       0       0       0       0
  4120 ;;Total ram usage:        0 bytes
  4121 ;; Hardware stack levels used: 1
  4122 ;; Hardware stack levels required when called: 5
  4123 ;; This function calls:
  4124 ;;		_EUSART_SetErrorHandler
  4125 ;;		_EUSART_SetFramingErrorHandler
  4126 ;;		_EUSART_SetOverrunErrorHandler
  4127 ;; This function is called by:
  4128 ;;		_SYSTEM_Initialize
  4129 ;; This function uses a non-reentrant model
  4130 ;;
  4131                           
  4132     0101                     _EUSART_Initialize:	
  4133                           ;psect for function _EUSART_Initialize
  4134                           
  4135     0101                     l1739:	
  4136                           ;incstack = 0
  4137                           ; Regs used in _EUSART_Initialize: [wreg+status,2+status,0+pclath+cstack]
  4138                           
  4139                           
  4140                           ;mcc_generated_files/eusart.c: 71:     BAUDCON = 0x08;
  4141     0101  3008               	movlw	8
  4142     0102  0023               	movlb	3	; select bank3
  4143     0103  009F               	movwf	31	;volatile
  4144                           
  4145                           ;mcc_generated_files/eusart.c: 74:     RCSTA = 0x90;
  4146     0104  3090               	movlw	144
  4147     0105  009D               	movwf	29	;volatile
  4148                           
  4149                           ;mcc_generated_files/eusart.c: 77:     TXSTA = 0x24;
  4150     0106  3024               	movlw	36
  4151     0107  009E               	movwf	30	;volatile
  4152                           
  4153                           ;mcc_generated_files/eusart.c: 80:     SPBRGL = 0x33;
  4154     0108  3033               	movlw	51
  4155     0109  009B               	movwf	27	;volatile
  4156     010A                     l1741:
  4157                           
  4158                           ;mcc_generated_files/eusart.c: 83:     SPBRGH = 0x00;
  4159     010A  019C               	clrf	28	;volatile
  4160     010B                     l1743:
  4161                           
  4162                           ;mcc_generated_files/eusart.c: 86:     EUSART_SetFramingErrorHandler(EUSART_DefaultFrami
      +                          ngErrorHandler);
  4163     010B  3000               	movlw	0
  4164     010C  00FA               	movwf	EUSART_SetFramingErrorHandler@interruptHandler
  4165     010D  3000               	movlw	0
  4166     010E  00FB               	movwf	EUSART_SetFramingErrorHandler@interruptHandler+1
  4167     010F  3182  224D  3181   	fcall	_EUSART_SetFramingErrorHandler
  4168     0112                     l1745:
  4169                           
  4170                           ;mcc_generated_files/eusart.c: 87:     EUSART_SetOverrunErrorHandler(EUSART_DefaultOverr
      +                          unErrorHandler);
  4171     0112  3000               	movlw	0
  4172     0113  00FA               	movwf	EUSART_SetOverrunErrorHandler@interruptHandler
  4173     0114  3000               	movlw	0
  4174     0115  00FB               	movwf	EUSART_SetOverrunErrorHandler@interruptHandler+1
  4175     0116  3182  2247  3181   	fcall	_EUSART_SetOverrunErrorHandler
  4176     0119                     l1747:
  4177                           
  4178                           ;mcc_generated_files/eusart.c: 88:     EUSART_SetErrorHandler(EUSART_DefaultErrorHandler
      +                          );
  4179     0119  3000               	movlw	0
  4180     011A  00FA               	movwf	EUSART_SetErrorHandler@interruptHandler
  4181     011B  3000               	movlw	0
  4182     011C  00FB               	movwf	EUSART_SetErrorHandler@interruptHandler+1
  4183     011D  3182  2253  3181   	fcall	_EUSART_SetErrorHandler
  4184     0120                     l1749:
  4185                           
  4186                           ;mcc_generated_files/eusart.c: 90:     eusartRxLastError.status = 0;
  4187     0120  01F7               	clrf	_eusartRxLastError	;volatile
  4188     0121                     l260:
  4189     0121  0008               	return
  4190     0122                     __end_of_EUSART_Initialize:
  4191                           
  4192                           	psect	text17
  4193     0247                     __ptext17:	
  4194 ;; *************** function _EUSART_SetOverrunErrorHandler *****************
  4195 ;; Defined at:
  4196 ;;		line 161 in file "mcc_generated_files/eusart.c"
  4197 ;; Parameters:    Size  Location     Type
  4198 ;;  interruptHan    2    2[COMMON] PTR FTN()void 
  4199 ;;		 -> EUSART_DefaultOverrunErrorHandler(1), 
  4200 ;; Auto vars:     Size  Location     Type
  4201 ;;		None
  4202 ;; Return value:  Size  Location     Type
  4203 ;;                  1    wreg      void 
  4204 ;; Registers used:
  4205 ;;		wreg
  4206 ;; Tracked objects:
  4207 ;;		On entry : 0/0
  4208 ;;		On exit  : 0/0
  4209 ;;		Unchanged: 0/0
  4210 ;; Data sizes:     COMMON   BANK0   BANK1   BANK2   BANK3   BANK4
  4211 ;;      Params:         2       0       0       0       0       0
  4212 ;;      Locals:         0       0       0       0       0       0
  4213 ;;      Temps:          0       0       0       0       0       0
  4214 ;;      Totals:         2       0       0       0       0       0
  4215 ;;Total ram usage:        2 bytes
  4216 ;; Hardware stack levels used: 1
  4217 ;; Hardware stack levels required when called: 4
  4218 ;; This function calls:
  4219 ;;		Nothing
  4220 ;; This function is called by:
  4221 ;;		_EUSART_Initialize
  4222 ;; This function uses a non-reentrant model
  4223 ;;
  4224                           
  4225     0247                     _EUSART_SetOverrunErrorHandler:	
  4226                           ;psect for function _EUSART_SetOverrunErrorHandler
  4227                           
  4228     0247                     l1657:	
  4229                           ;incstack = 0
  4230                           ; Regs used in _EUSART_SetOverrunErrorHandler: [wreg]
  4231                           
  4232                           
  4233                           ;mcc_generated_files/eusart.c: 162:     EUSART_OverrunErrorHandler = interruptHandler;
  4234     0247  087B               	movf	EUSART_SetOverrunErrorHandler@interruptHandler+1,w
  4235     0248  0020               	movlb	0	; select bank0
  4236     0249  00A7               	movwf	_EUSART_OverrunErrorHandler+1
  4237     024A  087A               	movf	EUSART_SetOverrunErrorHandler@interruptHandler,w
  4238     024B  00A6               	movwf	_EUSART_OverrunErrorHandler
  4239     024C                     l302:
  4240     024C  0008               	return
  4241     024D                     __end_of_EUSART_SetOverrunErrorHandler:
  4242                           
  4243                           	psect	text18
  4244     024D                     __ptext18:	
  4245 ;; *************** function _EUSART_SetFramingErrorHandler *****************
  4246 ;; Defined at:
  4247 ;;		line 157 in file "mcc_generated_files/eusart.c"
  4248 ;; Parameters:    Size  Location     Type
  4249 ;;  interruptHan    2    2[COMMON] PTR FTN()void 
  4250 ;;		 -> EUSART_DefaultFramingErrorHandler(1), 
  4251 ;; Auto vars:     Size  Location     Type
  4252 ;;		None
  4253 ;; Return value:  Size  Location     Type
  4254 ;;                  1    wreg      void 
  4255 ;; Registers used:
  4256 ;;		wreg
  4257 ;; Tracked objects:
  4258 ;;		On entry : 0/0
  4259 ;;		On exit  : 0/0
  4260 ;;		Unchanged: 0/0
  4261 ;; Data sizes:     COMMON   BANK0   BANK1   BANK2   BANK3   BANK4
  4262 ;;      Params:         2       0       0       0       0       0
  4263 ;;      Locals:         0       0       0       0       0       0
  4264 ;;      Temps:          0       0       0       0       0       0
  4265 ;;      Totals:         2       0       0       0       0       0
  4266 ;;Total ram usage:        2 bytes
  4267 ;; Hardware stack levels used: 1
  4268 ;; Hardware stack levels required when called: 4
  4269 ;; This function calls:
  4270 ;;		Nothing
  4271 ;; This function is called by:
  4272 ;;		_EUSART_Initialize
  4273 ;; This function uses a non-reentrant model
  4274 ;;
  4275                           
  4276     024D                     _EUSART_SetFramingErrorHandler:	
  4277                           ;psect for function _EUSART_SetFramingErrorHandler
  4278                           
  4279     024D                     l1655:	
  4280                           ;incstack = 0
  4281                           ; Regs used in _EUSART_SetFramingErrorHandler: [wreg]
  4282                           
  4283                           
  4284                           ;mcc_generated_files/eusart.c: 158:     EUSART_FramingErrorHandler = interruptHandler;
  4285     024D  087B               	movf	EUSART_SetFramingErrorHandler@interruptHandler+1,w
  4286     024E  0020               	movlb	0	; select bank0
  4287     024F  00A9               	movwf	_EUSART_FramingErrorHandler+1
  4288     0250  087A               	movf	EUSART_SetFramingErrorHandler@interruptHandler,w
  4289     0251  00A8               	movwf	_EUSART_FramingErrorHandler
  4290     0252                     l299:
  4291     0252  0008               	return
  4292     0253                     __end_of_EUSART_SetFramingErrorHandler:
  4293                           
  4294                           	psect	text19
  4295     0253                     __ptext19:	
  4296 ;; *************** function _EUSART_SetErrorHandler *****************
  4297 ;; Defined at:
  4298 ;;		line 165 in file "mcc_generated_files/eusart.c"
  4299 ;; Parameters:    Size  Location     Type
  4300 ;;  interruptHan    2    2[COMMON] PTR FTN()void 
  4301 ;;		 -> EUSART_DefaultErrorHandler(1), 
  4302 ;; Auto vars:     Size  Location     Type
  4303 ;;		None
  4304 ;; Return value:  Size  Location     Type
  4305 ;;                  1    wreg      void 
  4306 ;; Registers used:
  4307 ;;		wreg
  4308 ;; Tracked objects:
  4309 ;;		On entry : 0/0
  4310 ;;		On exit  : 0/0
  4311 ;;		Unchanged: 0/0
  4312 ;; Data sizes:     COMMON   BANK0   BANK1   BANK2   BANK3   BANK4
  4313 ;;      Params:         2       0       0       0       0       0
  4314 ;;      Locals:         0       0       0       0       0       0
  4315 ;;      Temps:          0       0       0       0       0       0
  4316 ;;      Totals:         2       0       0       0       0       0
  4317 ;;Total ram usage:        2 bytes
  4318 ;; Hardware stack levels used: 1
  4319 ;; Hardware stack levels required when called: 4
  4320 ;; This function calls:
  4321 ;;		Nothing
  4322 ;; This function is called by:
  4323 ;;		_EUSART_Initialize
  4324 ;; This function uses a non-reentrant model
  4325 ;;
  4326                           
  4327     0253                     _EUSART_SetErrorHandler:	
  4328                           ;psect for function _EUSART_SetErrorHandler
  4329                           
  4330     0253                     l1659:	
  4331                           ;incstack = 0
  4332                           ; Regs used in _EUSART_SetErrorHandler: [wreg]
  4333                           
  4334                           
  4335                           ;mcc_generated_files/eusart.c: 166:     EUSART_ErrorHandler = interruptHandler;
  4336     0253  087B               	movf	EUSART_SetErrorHandler@interruptHandler+1,w
  4337     0254  0020               	movlb	0	; select bank0
  4338     0255  00A5               	movwf	_EUSART_ErrorHandler+1
  4339     0256  087A               	movf	EUSART_SetErrorHandler@interruptHandler,w
  4340     0257  00A4               	movwf	_EUSART_ErrorHandler
  4341     0258                     l305:
  4342     0258  0008               	return
  4343     0259                     __end_of_EUSART_SetErrorHandler:
  4344                           
  4345                           	psect	text20
  4346     01EC                     __ptext20:	
  4347 ;; *************** function _CMP2_Initialize *****************
  4348 ;; Defined at:
  4349 ;;		line 58 in file "mcc_generated_files/cmp2.c"
  4350 ;; Parameters:    Size  Location     Type
  4351 ;;		None
  4352 ;; Auto vars:     Size  Location     Type
  4353 ;;		None
  4354 ;; Return value:  Size  Location     Type
  4355 ;;                  1    wreg      void 
  4356 ;; Registers used:
  4357 ;;		wreg
  4358 ;; Tracked objects:
  4359 ;;		On entry : 0/0
  4360 ;;		On exit  : 0/0
  4361 ;;		Unchanged: 0/0
  4362 ;; Data sizes:     COMMON   BANK0   BANK1   BANK2   BANK3   BANK4
  4363 ;;      Params:         0       0       0       0       0       0
  4364 ;;      Locals:         0       0       0       0       0       0
  4365 ;;      Temps:          0       0       0       0       0       0
  4366 ;;      Totals:         0       0       0       0       0       0
  4367 ;;Total ram usage:        0 bytes
  4368 ;; Hardware stack levels used: 1
  4369 ;; Hardware stack levels required when called: 4
  4370 ;; This function calls:
  4371 ;;		Nothing
  4372 ;; This function is called by:
  4373 ;;		_SYSTEM_Initialize
  4374 ;; This function uses a non-reentrant model
  4375 ;;
  4376                           
  4377     01EC                     _CMP2_Initialize:	
  4378                           ;psect for function _CMP2_Initialize
  4379                           
  4380     01EC                     l1205:	
  4381                           ;incstack = 0
  4382                           ; Regs used in _CMP2_Initialize: [wreg]
  4383                           
  4384                           
  4385                           ;mcc_generated_files/cmp2.c: 65:     PIE2bits.C2IE = 0;
  4386     01EC  0021               	movlb	1	; select bank1
  4387     01ED  1312               	bcf	18,6	;volatile
  4388     01EE                     l1207:
  4389                           
  4390                           ;mcc_generated_files/cmp2.c: 68:     CM2CON0 = 0x84;
  4391     01EE  3084               	movlw	132
  4392     01EF  0022               	movlb	2	; select bank2
  4393     01F0  0093               	movwf	19	;volatile
  4394                           
  4395                           ;mcc_generated_files/cmp2.c: 71:     CM2CON1 = 0x61;
  4396     01F1  3061               	movlw	97
  4397     01F2  0094               	movwf	20	;volatile
  4398     01F3                     l1209:
  4399                           
  4400                           ;mcc_generated_files/cmp2.c: 74:     PIR2bits.C2IF = 0;
  4401     01F3  0020               	movlb	0	; select bank0
  4402     01F4  1312               	bcf	18,6	;volatile
  4403     01F5                     l1211:
  4404                           
  4405                           ;mcc_generated_files/cmp2.c: 77:     PIE2bits.C2IE = 1;
  4406     01F5  0021               	movlb	1	; select bank1
  4407     01F6  1712               	bsf	18,6	;volatile
  4408     01F7                     l27:
  4409     01F7  0008               	return
  4410     01F8                     __end_of_CMP2_Initialize:
  4411                           
  4412                           	psect	text21
  4413     01F8                     __ptext21:	
  4414 ;; *************** function _CMP1_Initialize *****************
  4415 ;; Defined at:
  4416 ;;		line 58 in file "mcc_generated_files/cmp1.c"
  4417 ;; Parameters:    Size  Location     Type
  4418 ;;		None
  4419 ;; Auto vars:     Size  Location     Type
  4420 ;;		None
  4421 ;; Return value:  Size  Location     Type
  4422 ;;                  1    wreg      void 
  4423 ;; Registers used:
  4424 ;;		wreg
  4425 ;; Tracked objects:
  4426 ;;		On entry : 0/0
  4427 ;;		On exit  : 0/0
  4428 ;;		Unchanged: 0/0
  4429 ;; Data sizes:     COMMON   BANK0   BANK1   BANK2   BANK3   BANK4
  4430 ;;      Params:         0       0       0       0       0       0
  4431 ;;      Locals:         0       0       0       0       0       0
  4432 ;;      Temps:          0       0       0       0       0       0
  4433 ;;      Totals:         0       0       0       0       0       0
  4434 ;;Total ram usage:        0 bytes
  4435 ;; Hardware stack levels used: 1
  4436 ;; Hardware stack levels required when called: 4
  4437 ;; This function calls:
  4438 ;;		Nothing
  4439 ;; This function is called by:
  4440 ;;		_SYSTEM_Initialize
  4441 ;; This function uses a non-reentrant model
  4442 ;;
  4443                           
  4444     01F8                     _CMP1_Initialize:	
  4445                           ;psect for function _CMP1_Initialize
  4446                           
  4447     01F8                     l1213:	
  4448                           ;incstack = 0
  4449                           ; Regs used in _CMP1_Initialize: [wreg]
  4450                           
  4451                           
  4452                           ;mcc_generated_files/cmp1.c: 65:     PIE2bits.C1IE = 0;
  4453     01F8  0021               	movlb	1	; select bank1
  4454     01F9  1292               	bcf	18,5	;volatile
  4455     01FA                     l1215:
  4456                           
  4457                           ;mcc_generated_files/cmp1.c: 68:     CM1CON0 = 0x84;
  4458     01FA  3084               	movlw	132
  4459     01FB  0022               	movlb	2	; select bank2
  4460     01FC  0091               	movwf	17	;volatile
  4461                           
  4462                           ;mcc_generated_files/cmp1.c: 71:     CM1CON1 = 0x60;
  4463     01FD  3060               	movlw	96
  4464     01FE  0092               	movwf	18	;volatile
  4465     01FF                     l1217:
  4466                           
  4467                           ;mcc_generated_files/cmp1.c: 74:     PIR2bits.C1IF = 0;
  4468     01FF  0020               	movlb	0	; select bank0
  4469     0200  1292               	bcf	18,5	;volatile
  4470     0201                     l1219:
  4471                           
  4472                           ;mcc_generated_files/cmp1.c: 77:     PIE2bits.C1IE = 1;
  4473     0201  0021               	movlb	1	; select bank1
  4474     0202  1692               	bsf	18,5	;volatile
  4475     0203                     l46:
  4476     0203  0008               	return
  4477     0204                     __end_of_CMP1_Initialize:
  4478                           
  4479                           	psect	text22
  4480     0220                     __ptext22:	
  4481 ;; *************** function _ADC_Initialize *****************
  4482 ;; Defined at:
  4483 ;;		line 67 in file "mcc_generated_files/adc.c"
  4484 ;; Parameters:    Size  Location     Type
  4485 ;;		None
  4486 ;; Auto vars:     Size  Location     Type
  4487 ;;		None
  4488 ;; Return value:  Size  Location     Type
  4489 ;;                  1    wreg      void 
  4490 ;; Registers used:
  4491 ;;		wreg, status,2
  4492 ;; Tracked objects:
  4493 ;;		On entry : 0/0
  4494 ;;		On exit  : 0/0
  4495 ;;		Unchanged: 0/0
  4496 ;; Data sizes:     COMMON   BANK0   BANK1   BANK2   BANK3   BANK4
  4497 ;;      Params:         0       0       0       0       0       0
  4498 ;;      Locals:         0       0       0       0       0       0
  4499 ;;      Temps:          0       0       0       0       0       0
  4500 ;;      Totals:         0       0       0       0       0       0
  4501 ;;Total ram usage:        0 bytes
  4502 ;; Hardware stack levels used: 1
  4503 ;; Hardware stack levels required when called: 4
  4504 ;; This function calls:
  4505 ;;		Nothing
  4506 ;; This function is called by:
  4507 ;;		_SYSTEM_Initialize
  4508 ;; This function uses a non-reentrant model
  4509 ;;
  4510                           
  4511     0220                     _ADC_Initialize:	
  4512                           ;psect for function _ADC_Initialize
  4513                           
  4514     0220                     l1307:	
  4515                           ;incstack = 0
  4516                           ; Regs used in _ADC_Initialize: [wreg+status,2]
  4517                           
  4518                           
  4519                           ;mcc_generated_files/adc.c: 72:     ADCON1 = 0xC3;
  4520     0220  30C3               	movlw	195
  4521     0221  0021               	movlb	1	; select bank1
  4522     0222  009E               	movwf	30	;volatile
  4523     0223                     l1309:
  4524                           
  4525                           ;mcc_generated_files/adc.c: 75:     ADRESL = 0x00;
  4526     0223  019B               	clrf	27	;volatile
  4527     0224                     l1311:
  4528                           
  4529                           ;mcc_generated_files/adc.c: 78:     ADRESH = 0x00;
  4530     0224  019C               	clrf	28	;volatile
  4531                           
  4532                           ;mcc_generated_files/adc.c: 81:     ADCON0 = 0x01;
  4533     0225  3001               	movlw	1
  4534     0226  009D               	movwf	29	;volatile
  4535     0227                     l186:
  4536     0227  0008               	return
  4537     0228                     __end_of_ADC_Initialize:
  4538                           
  4539                           	psect	text23
  4540     0259                     __ptext23:	
  4541 ;; *************** function _EUSART_is_rx_ready *****************
  4542 ;; Defined at:
  4543 ;;		line 99 in file "mcc_generated_files/eusart.c"
  4544 ;; Parameters:    Size  Location     Type
  4545 ;;		None
  4546 ;; Auto vars:     Size  Location     Type
  4547 ;;		None
  4548 ;; Return value:  Size  Location     Type
  4549 ;;                  1    wreg      _Bool 
  4550 ;; Registers used:
  4551 ;;		wreg, status,2, status,0
  4552 ;; Tracked objects:
  4553 ;;		On entry : 0/0
  4554 ;;		On exit  : 0/0
  4555 ;;		Unchanged: 0/0
  4556 ;; Data sizes:     COMMON   BANK0   BANK1   BANK2   BANK3   BANK4
  4557 ;;      Params:         0       0       0       0       0       0
  4558 ;;      Locals:         0       0       0       0       0       0
  4559 ;;      Temps:          0       0       0       0       0       0
  4560 ;;      Totals:         0       0       0       0       0       0
  4561 ;;Total ram usage:        0 bytes
  4562 ;; Hardware stack levels used: 1
  4563 ;; Hardware stack levels required when called: 4
  4564 ;; This function calls:
  4565 ;;		Nothing
  4566 ;; This function is called by:
  4567 ;;		_main
  4568 ;; This function uses a non-reentrant model
  4569 ;;
  4570                           
  4571     0259                     _EUSART_is_rx_ready:	
  4572                           ;psect for function _EUSART_is_rx_ready
  4573                           
  4574     0259                     l1377:	
  4575                           ;incstack = 0
  4576                           ; Regs used in _EUSART_is_rx_ready: [wreg+status,2+status,0]
  4577                           
  4578                           
  4579                           ;mcc_generated_files/eusart.c: 101:     return (_Bool)(PIR1bits.RCIF);
  4580     0259  0020               	movlb	0	; select bank0
  4581     025A  0E11               	swapf	17,w	;volatile
  4582     025B  0C89               	rrf	9,f
  4583     025C  3901               	andlw	1
  4584     025D                     l268:
  4585     025D  0008               	return
  4586     025E                     __end_of_EUSART_is_rx_ready:
  4587                           
  4588                           	psect	text24
  4589     0198                     __ptext24:	
  4590 ;; *************** function _EUSART_Read *****************
  4591 ;; Defined at:
  4592 ;;		line 113 in file "mcc_generated_files/eusart.c"
  4593 ;; Parameters:    Size  Location     Type
  4594 ;;		None
  4595 ;; Auto vars:     Size  Location     Type
  4596 ;;		None
  4597 ;; Return value:  Size  Location     Type
  4598 ;;                  1    wreg      unsigned char 
  4599 ;; Registers used:
  4600 ;;		wreg, status,2
  4601 ;; Tracked objects:
  4602 ;;		On entry : 0/0
  4603 ;;		On exit  : 0/0
  4604 ;;		Unchanged: 0/0
  4605 ;; Data sizes:     COMMON   BANK0   BANK1   BANK2   BANK3   BANK4
  4606 ;;      Params:         0       0       0       0       0       0
  4607 ;;      Locals:         0       0       0       0       0       0
  4608 ;;      Temps:          0       0       0       0       0       0
  4609 ;;      Totals:         0       0       0       0       0       0
  4610 ;;Total ram usage:        0 bytes
  4611 ;; Hardware stack levels used: 1
  4612 ;; Hardware stack levels required when called: 4
  4613 ;; This function calls:
  4614 ;;		Nothing
  4615 ;; This function is called by:
  4616 ;;		_main
  4617 ;; This function uses a non-reentrant model
  4618 ;;
  4619                           
  4620     0198                     _EUSART_Read:	
  4621                           ;psect for function _EUSART_Read
  4622                           
  4623     0198                     l1381:	
  4624                           ;incstack = 0
  4625                           ; Regs used in _EUSART_Read: [wreg+status,2]
  4626                           
  4627     0198                     l277:	
  4628                           ;mcc_generated_files/eusart.c: 116:     {;mcc_generated_files/eusart.c: 117:     }
  4629                           
  4630                           
  4631                           ;mcc_generated_files/eusart.c: 115:     while(!PIR1bits.RCIF)
  4632     0198  0020               	movlb	0	; select bank0
  4633     0199  1E91               	btfss	17,5	;volatile
  4634     019A  299C               	goto	u81
  4635     019B  299D               	goto	u80
  4636     019C                     u81:
  4637     019C  2998               	goto	l277
  4638     019D                     u80:
  4639     019D                     l1383:
  4640                           
  4641                           ;mcc_generated_files/eusart.c: 119:     eusartRxLastError.status = 0;
  4642     019D  01F7               	clrf	_eusartRxLastError	;volatile
  4643     019E                     l1385:
  4644                           
  4645                           ;mcc_generated_files/eusart.c: 121:     if(1 == RCSTAbits.OERR)
  4646     019E  0023               	movlb	3	; select bank3
  4647     019F  1C9D               	btfss	29,1	;volatile
  4648     01A0  29A2               	goto	u91
  4649     01A1  29A3               	goto	u90
  4650     01A2                     u91:
  4651     01A2  29A5               	goto	l1389
  4652     01A3                     u90:
  4653     01A3                     l1387:
  4654                           
  4655                           ;mcc_generated_files/eusart.c: 122:     {;mcc_generated_files/eusart.c: 125:         RCS
      +                          TAbits.CREN = 0;
  4656     01A3  121D               	bcf	29,4	;volatile
  4657                           
  4658                           ;mcc_generated_files/eusart.c: 126:         RCSTAbits.CREN = 1;
  4659     01A4  161D               	bsf	29,4	;volatile
  4660     01A5                     l1389:
  4661                           
  4662                           ;mcc_generated_files/eusart.c: 129:     return RCREG;
  4663     01A5  0819               	movf	25,w	;volatile
  4664     01A6                     l281:
  4665     01A6  0008               	return
  4666     01A7                     __end_of_EUSART_Read:
  4667                           
  4668                           	psect	intentry
  4669     0004                     __pintentry:	
  4670 ;; *************** function _INTERRUPT_InterruptManager *****************
  4671 ;; Defined at:
  4672 ;;		line 52 in file "mcc_generated_files/interrupt_manager.c"
  4673 ;; Parameters:    Size  Location     Type
  4674 ;;		None
  4675 ;; Auto vars:     Size  Location     Type
  4676 ;;		None
  4677 ;; Return value:  Size  Location     Type
  4678 ;;                  1    wreg      void 
  4679 ;; Registers used:
  4680 ;;		wreg, status,2, status,0, pclath, cstack
  4681 ;; Tracked objects:
  4682 ;;		On entry : 0/0
  4683 ;;		On exit  : 0/0
  4684 ;;		Unchanged: 0/0
  4685 ;; Data sizes:     COMMON   BANK0   BANK1   BANK2   BANK3   BANK4
  4686 ;;      Params:         0       0       0       0       0       0
  4687 ;;      Locals:         0       0       0       0       0       0
  4688 ;;      Temps:          0       0       0       0       0       0
  4689 ;;      Totals:         0       0       0       0       0       0
  4690 ;;Total ram usage:        0 bytes
  4691 ;; Hardware stack levels used: 1
  4692 ;; Hardware stack levels required when called: 3
  4693 ;; This function calls:
  4694 ;;		_CMP1_ISR
  4695 ;;		_CMP2_ISR
  4696 ;;		_PIN_MANAGER_IOC
  4697 ;;		_TMR0_ISR
  4698 ;;		_TMR1_ISR
  4699 ;; This function is called by:
  4700 ;;		Interrupt level 1
  4701 ;; This function uses a non-reentrant model
  4702 ;;
  4703                           
  4704     0004                     _INTERRUPT_InterruptManager:
  4705                           
  4706                           ;incstack = 0
  4707     0004  147E               	bsf	int$flags,0	;set compiler interrupt flag (level 1)
  4708                           
  4709                           ; Regs used in _INTERRUPT_InterruptManager: [wreg+status,2+status,0+pclath+cstack]
  4710     0005  3180               	pagesel	$
  4711     0006                     i1l1807:
  4712                           
  4713                           ;mcc_generated_files/interrupt_manager.c: 55:     if(INTCONbits.TMR0IE == 1 && INTCONbit
      +                          s.TMR0IF == 1)
  4714     0006  1E8B               	btfss	11,5	;volatile
  4715     0007  2809               	goto	u50_21
  4716     0008  280A               	goto	u50_20
  4717     0009                     u50_21:
  4718     0009  2811               	goto	i1l1813
  4719     000A                     u50_20:
  4720     000A                     i1l1809:
  4721     000A  1D0B               	btfss	11,2	;volatile
  4722     000B  280D               	goto	u51_21
  4723     000C  280E               	goto	u51_20
  4724     000D                     u51_21:
  4725     000D  2811               	goto	i1l1813
  4726     000E                     u51_20:
  4727     000E                     i1l1811:
  4728                           
  4729                           ;mcc_generated_files/interrupt_manager.c: 56:     {;mcc_generated_files/interrupt_manage
      +                          r.c: 57:         TMR0_ISR();
  4730     000E  3181  213A  3180   	fcall	_TMR0_ISR
  4731     0011                     i1l1813:
  4732                           
  4733                           ;mcc_generated_files/interrupt_manager.c: 59:     if(INTCONbits.IOCIE == 1 && INTCONbits
      +                          .IOCIF == 1)
  4734     0011  1D8B               	btfss	11,3	;volatile
  4735     0012  2814               	goto	u52_21
  4736     0013  2815               	goto	u52_20
  4737     0014                     u52_21:
  4738     0014  281C               	goto	i1l1819
  4739     0015                     u52_20:
  4740     0015                     i1l1815:
  4741     0015  1C0B               	btfss	11,0	;volatile
  4742     0016  2818               	goto	u53_21
  4743     0017  2819               	goto	u53_20
  4744     0018                     u53_21:
  4745     0018  281C               	goto	i1l1819
  4746     0019                     u53_20:
  4747     0019                     i1l1817:
  4748                           
  4749                           ;mcc_generated_files/interrupt_manager.c: 60:     {;mcc_generated_files/interrupt_manage
      +                          r.c: 61:         PIN_MANAGER_IOC();
  4750     0019  3181  2187  3180   	fcall	_PIN_MANAGER_IOC
  4751     001C                     i1l1819:
  4752                           
  4753                           ;mcc_generated_files/interrupt_manager.c: 63:     if(INTCONbits.PEIE == 1)
  4754     001C  1F0B               	btfss	11,6	;volatile
  4755     001D  281F               	goto	u54_21
  4756     001E  2820               	goto	u54_20
  4757     001F                     u54_21:
  4758     001F  2847               	goto	i1l397
  4759     0020                     u54_20:
  4760     0020                     i1l1821:
  4761                           
  4762                           ;mcc_generated_files/interrupt_manager.c: 64:     {;mcc_generated_files/interrupt_manage
      +                          r.c: 65:         if(PIE2bits.C1IE == 1 && PIR2bits.C1IF == 1)
  4763     0020  0021               	movlb	1	; select bank1
  4764     0021  1E92               	btfss	18,5	;volatile
  4765     0022  2824               	goto	u55_21
  4766     0023  2825               	goto	u55_20
  4767     0024                     u55_21:
  4768     0024  282D               	goto	i1l1827
  4769     0025                     u55_20:
  4770     0025                     i1l1823:
  4771     0025  0020               	movlb	0	; select bank0
  4772     0026  1E92               	btfss	18,5	;volatile
  4773     0027  2829               	goto	u56_21
  4774     0028  282A               	goto	u56_20
  4775     0029                     u56_21:
  4776     0029  282D               	goto	i1l1827
  4777     002A                     u56_20:
  4778     002A                     i1l1825:
  4779                           
  4780                           ;mcc_generated_files/interrupt_manager.c: 66:         {;mcc_generated_files/interrupt_ma
      +                          nager.c: 67:             CMP1_ISR();
  4781     002A  3182  226D  3180   	fcall	_CMP1_ISR
  4782     002D                     i1l1827:
  4783                           
  4784                           ;mcc_generated_files/interrupt_manager.c: 69:         if(PIE2bits.C2IE == 1 && PIR2bits.
      +                          C2IF == 1)
  4785     002D  0021               	movlb	1	; select bank1
  4786     002E  1F12               	btfss	18,6	;volatile
  4787     002F  2831               	goto	u57_21
  4788     0030  2832               	goto	u57_20
  4789     0031                     u57_21:
  4790     0031  283A               	goto	i1l1833
  4791     0032                     u57_20:
  4792     0032                     i1l1829:
  4793     0032  0020               	movlb	0	; select bank0
  4794     0033  1F12               	btfss	18,6	;volatile
  4795     0034  2836               	goto	u58_21
  4796     0035  2837               	goto	u58_20
  4797     0036                     u58_21:
  4798     0036  283A               	goto	i1l1833
  4799     0037                     u58_20:
  4800     0037                     i1l1831:
  4801                           
  4802                           ;mcc_generated_files/interrupt_manager.c: 70:         {;mcc_generated_files/interrupt_ma
      +                          nager.c: 71:             CMP2_ISR();
  4803     0037  3182  226A  3180   	fcall	_CMP2_ISR
  4804     003A                     i1l1833:
  4805                           
  4806                           ;mcc_generated_files/interrupt_manager.c: 73:         if(PIE1bits.TMR1IE == 1 && PIR1bit
      +                          s.TMR1IF == 1)
  4807     003A  0021               	movlb	1	; select bank1
  4808     003B  1C11               	btfss	17,0	;volatile
  4809     003C  283E               	goto	u59_21
  4810     003D  283F               	goto	u59_20
  4811     003E                     u59_21:
  4812     003E  2847               	goto	i1l397
  4813     003F                     u59_20:
  4814     003F                     i1l1835:
  4815     003F  0020               	movlb	0	; select bank0
  4816     0040  1C11               	btfss	17,0	;volatile
  4817     0041  2843               	goto	u60_21
  4818     0042  2844               	goto	u60_20
  4819     0043                     u60_21:
  4820     0043  2847               	goto	i1l397
  4821     0044                     u60_20:
  4822     0044                     i1l1837:
  4823                           
  4824                           ;mcc_generated_files/interrupt_manager.c: 74:         {;mcc_generated_files/interrupt_ma
      +                          nager.c: 75:             TMR1_ISR();
  4825     0044  3181  21C5  3180   	fcall	_TMR1_ISR
  4826     0047                     i1l397:
  4827     0047  107E               	bcf	int$flags,0	;clear compiler interrupt flag (level 1)
  4828     0048  0009               	retfie
  4829     0049                     __end_of_INTERRUPT_InterruptManager:
  4830                           
  4831                           	psect	text26
  4832     01C5                     __ptext26:	
  4833 ;; *************** function _TMR1_ISR *****************
  4834 ;; Defined at:
  4835 ;;		line 157 in file "mcc_generated_files/tmr1.c"
  4836 ;; Parameters:    Size  Location     Type
  4837 ;;		None
  4838 ;; Auto vars:     Size  Location     Type
  4839 ;;		None
  4840 ;; Return value:  Size  Location     Type
  4841 ;;                  1    wreg      void 
  4842 ;; Registers used:
  4843 ;;		wreg, status,2, status,0, pclath, cstack
  4844 ;; Tracked objects:
  4845 ;;		On entry : 0/0
  4846 ;;		On exit  : 0/0
  4847 ;;		Unchanged: 0/0
  4848 ;; Data sizes:     COMMON   BANK0   BANK1   BANK2   BANK3   BANK4
  4849 ;;      Params:         0       0       0       0       0       0
  4850 ;;      Locals:         0       0       0       0       0       0
  4851 ;;      Temps:          0       0       0       0       0       0
  4852 ;;      Totals:         0       0       0       0       0       0
  4853 ;;Total ram usage:        0 bytes
  4854 ;; Hardware stack levels used: 1
  4855 ;; Hardware stack levels required when called: 2
  4856 ;; This function calls:
  4857 ;;		_TMR1_CallBack
  4858 ;;		_TMR1_WriteTimer
  4859 ;; This function is called by:
  4860 ;;		_INTERRUPT_InterruptManager
  4861 ;; This function uses a non-reentrant model
  4862 ;;
  4863                           
  4864     01C5                     _TMR1_ISR:	
  4865                           ;psect for function _TMR1_ISR
  4866                           
  4867     01C5                     i1l1791:	
  4868                           ;incstack = 0
  4869                           ; Regs used in _TMR1_ISR: [wreg+status,2+status,0+pclath+cstack]
  4870                           
  4871                           
  4872                           ;mcc_generated_files/tmr1.c: 161:     PIR1bits.TMR1IF = 0;
  4873     01C5  0020               	movlb	0	; select bank0
  4874     01C6  1011               	bcf	17,0	;volatile
  4875     01C7                     i1l1793:
  4876                           
  4877                           ;mcc_generated_files/tmr1.c: 162:     TMR1_WriteTimer(timer1ReloadVal);
  4878     01C7  0871               	movf	_timer1ReloadVal+1,w	;volatile
  4879     01C8  00F9               	movwf	TMR1_WriteTimer@timerVal+1
  4880     01C9  0870               	movf	_timer1ReloadVal,w	;volatile
  4881     01CA  00F8               	movwf	TMR1_WriteTimer@timerVal
  4882     01CB  3181  2176  3181   	fcall	_TMR1_WriteTimer
  4883                           
  4884                           ;mcc_generated_files/tmr1.c: 166:     TMR1_CallBack();
  4885     01CE  3181  21D2  3181   	fcall	_TMR1_CallBack
  4886     01D1                     i1l452:
  4887     01D1  0008               	return
  4888     01D2                     __end_of_TMR1_ISR:
  4889                           
  4890                           	psect	text27
  4891     0176                     __ptext27:	
  4892 ;; *************** function _TMR1_WriteTimer *****************
  4893 ;; Defined at:
  4894 ;;		line 120 in file "mcc_generated_files/tmr1.c"
  4895 ;; Parameters:    Size  Location     Type
  4896 ;;  timerVal        2    0[COMMON] unsigned short 
  4897 ;; Auto vars:     Size  Location     Type
  4898 ;;		None
  4899 ;; Return value:  Size  Location     Type
  4900 ;;                  1    wreg      void 
  4901 ;; Registers used:
  4902 ;;		wreg, status,2
  4903 ;; Tracked objects:
  4904 ;;		On entry : 0/0
  4905 ;;		On exit  : 0/0
  4906 ;;		Unchanged: 0/0
  4907 ;; Data sizes:     COMMON   BANK0   BANK1   BANK2   BANK3   BANK4
  4908 ;;      Params:         2       0       0       0       0       0
  4909 ;;      Locals:         0       0       0       0       0       0
  4910 ;;      Temps:          0       0       0       0       0       0
  4911 ;;      Totals:         2       0       0       0       0       0
  4912 ;;Total ram usage:        2 bytes
  4913 ;; Hardware stack levels used: 1
  4914 ;; This function calls:
  4915 ;;		Nothing
  4916 ;; This function is called by:
  4917 ;;		_TMR1_ISR
  4918 ;;		_TMR1_Reload
  4919 ;; This function uses a non-reentrant model
  4920 ;;
  4921                           
  4922     0176                     _TMR1_WriteTimer:	
  4923                           ;psect for function _TMR1_WriteTimer
  4924                           
  4925     0176                     i1l1751:	
  4926                           ;incstack = 0
  4927                           ; Regs used in _TMR1_WriteTimer: [wreg+status,2]
  4928                           
  4929                           
  4930                           ;mcc_generated_files/tmr1.c: 120: void TMR1_WriteTimer(uint16_t timerVal);mcc_generated_
      +                          files/tmr1.c: 121: {;mcc_generated_files/tmr1.c: 122:     if (T1CONbits.nT1SYNC == 1)
  4931     0176  0020               	movlb	0	; select bank0
  4932     0177  1D18               	btfss	24,2	;volatile
  4933     0178  297A               	goto	u42_21
  4934     0179  297B               	goto	u42_20
  4935     017A                     u42_21:
  4936     017A  2982               	goto	i1l1761
  4937     017B                     u42_20:
  4938     017B                     i1l1753:
  4939                           
  4940                           ;mcc_generated_files/tmr1.c: 123:     {;mcc_generated_files/tmr1.c: 125:         T1CONbi
      +                          ts.TMR1ON = 0;
  4941     017B  1018               	bcf	24,0	;volatile
  4942     017C                     i1l1755:
  4943                           
  4944                           ;mcc_generated_files/tmr1.c: 128:         TMR1H = (uint8_t)(timerVal >> 8);
  4945     017C  0879               	movf	TMR1_WriteTimer@timerVal+1,w
  4946     017D  0097               	movwf	23	;volatile
  4947     017E                     i1l1757:
  4948                           
  4949                           ;mcc_generated_files/tmr1.c: 129:         TMR1L = (uint8_t)timerVal;
  4950     017E  0878               	movf	TMR1_WriteTimer@timerVal,w
  4951     017F  0096               	movwf	22	;volatile
  4952     0180                     i1l1759:
  4953                           
  4954                           ;mcc_generated_files/tmr1.c: 132:         T1CONbits.TMR1ON =1;
  4955     0180  1418               	bsf	24,0	;volatile
  4956                           
  4957                           ;mcc_generated_files/tmr1.c: 133:     }
  4958     0181  2986               	goto	i1l440
  4959     0182                     i1l1761:
  4960                           
  4961                           ;mcc_generated_files/tmr1.c: 135:     {;mcc_generated_files/tmr1.c: 137:         TMR1H =
      +                           (uint8_t)(timerVal >> 8);
  4962     0182  0879               	movf	TMR1_WriteTimer@timerVal+1,w
  4963     0183  0097               	movwf	23	;volatile
  4964     0184                     i1l1763:
  4965                           
  4966                           ;mcc_generated_files/tmr1.c: 138:         TMR1L = (uint8_t)timerVal;
  4967     0184  0878               	movf	TMR1_WriteTimer@timerVal,w
  4968     0185  0096               	movwf	22	;volatile
  4969     0186                     i1l440:
  4970     0186  0008               	return
  4971     0187                     __end_of_TMR1_WriteTimer:
  4972                           
  4973                           	psect	text28
  4974     01D2                     __ptext28:	
  4975 ;; *************** function _TMR1_CallBack *****************
  4976 ;; Defined at:
  4977 ;;		line 169 in file "mcc_generated_files/tmr1.c"
  4978 ;; Parameters:    Size  Location     Type
  4979 ;;		None
  4980 ;; Auto vars:     Size  Location     Type
  4981 ;;		None
  4982 ;; Return value:  Size  Location     Type
  4983 ;;                  1    wreg      void 
  4984 ;; Registers used:
  4985 ;;		wreg, status,2, status,0, pclath, cstack
  4986 ;; Tracked objects:
  4987 ;;		On entry : 0/0
  4988 ;;		On exit  : 0/0
  4989 ;;		Unchanged: 0/0
  4990 ;; Data sizes:     COMMON   BANK0   BANK1   BANK2   BANK3   BANK4
  4991 ;;      Params:         0       0       0       0       0       0
  4992 ;;      Locals:         0       0       0       0       0       0
  4993 ;;      Temps:          0       0       0       0       0       0
  4994 ;;      Totals:         0       0       0       0       0       0
  4995 ;;Total ram usage:        0 bytes
  4996 ;; Hardware stack levels used: 1
  4997 ;; Hardware stack levels required when called: 1
  4998 ;; This function calls:
  4999 ;;		NULL
  5000 ;;		_TMR1_DefaultInterruptHandler
  5001 ;; This function is called by:
  5002 ;;		_TMR1_ISR
  5003 ;; This function uses a non-reentrant model
  5004 ;;
  5005                           
  5006     01D2                     _TMR1_CallBack:	
  5007                           ;psect for function _TMR1_CallBack
  5008                           
  5009     01D2                     i1l1765:	
  5010                           ;incstack = 0
  5011                           ; Regs used in _TMR1_CallBack: [wreg+status,2+status,0+pclath+cstack]
  5012                           
  5013                           
  5014                           ;mcc_generated_files/tmr1.c: 172:     if(TMR1_InterruptHandler)
  5015     01D2  0020               	movlb	0	; select bank0
  5016     01D3  0822               	movf	_TMR1_InterruptHandler,w
  5017     01D4  0423               	iorwf	_TMR1_InterruptHandler+1,w
  5018     01D5  1903               	btfsc	3,2
  5019     01D6  29D8               	goto	u43_21
  5020     01D7  29D9               	goto	u43_20
  5021     01D8                     u43_21:
  5022     01D8  29DE               	goto	i1l456
  5023     01D9                     u43_20:
  5024     01D9                     i1l1767:
  5025                           
  5026                           ;mcc_generated_files/tmr1.c: 173:     {;mcc_generated_files/tmr1.c: 174:         TMR1_In
      +                          terruptHandler();
  5027     01D9  0823               	movf	_TMR1_InterruptHandler+1,w
  5028     01DA  008A               	movwf	10
  5029     01DB  0822               	movf	_TMR1_InterruptHandler,w
  5030     01DC  000A               	callw
  5031     01DD  3181               	pagesel	$
  5032     01DE                     i1l456:
  5033     01DE  0008               	return
  5034     01DF                     __end_of_TMR1_CallBack:
  5035                           
  5036                           	psect	text29
  5037     0270                     __ptext29:	
  5038 ;; *************** function _TMR1_DefaultInterruptHandler *****************
  5039 ;; Defined at:
  5040 ;;		line 182 in file "mcc_generated_files/tmr1.c"
  5041 ;; Parameters:    Size  Location     Type
  5042 ;;		None
  5043 ;; Auto vars:     Size  Location     Type
  5044 ;;		None
  5045 ;; Return value:  Size  Location     Type
  5046 ;;                  1    wreg      void 
  5047 ;; Registers used:
  5048 ;;		None
  5049 ;; Tracked objects:
  5050 ;;		On entry : 0/0
  5051 ;;		On exit  : 0/0
  5052 ;;		Unchanged: 0/0
  5053 ;; Data sizes:     COMMON   BANK0   BANK1   BANK2   BANK3   BANK4
  5054 ;;      Params:         0       0       0       0       0       0
  5055 ;;      Locals:         0       0       0       0       0       0
  5056 ;;      Temps:          0       0       0       0       0       0
  5057 ;;      Totals:         0       0       0       0       0       0
  5058 ;;Total ram usage:        0 bytes
  5059 ;; Hardware stack levels used: 1
  5060 ;; This function calls:
  5061 ;;		Nothing
  5062 ;; This function is called by:
  5063 ;;		_TMR1_Initialize
  5064 ;;		_TMR1_CallBack
  5065 ;; This function uses a non-reentrant model
  5066 ;;
  5067                           
  5068     0270                     _TMR1_DefaultInterruptHandler:	
  5069                           ;psect for function _TMR1_DefaultInterruptHandler
  5070                           
  5071     0270                     i1l462:	
  5072                           ;incstack = 0
  5073                           ; Regs used in _TMR1_DefaultInterruptHandler: []
  5074                           
  5075     0270  0008               	return
  5076     0271                     __end_of_TMR1_DefaultInterruptHandler:
  5077                           
  5078                           	psect	text30
  5079     013A                     __ptext30:	
  5080 ;; *************** function _TMR0_ISR *****************
  5081 ;; Defined at:
  5082 ;;		line 108 in file "mcc_generated_files/tmr0.c"
  5083 ;; Parameters:    Size  Location     Type
  5084 ;;		None
  5085 ;; Auto vars:     Size  Location     Type
  5086 ;;		None
  5087 ;; Return value:  Size  Location     Type
  5088 ;;                  1    wreg      void 
  5089 ;; Registers used:
  5090 ;;		wreg, status,2, status,0, pclath, cstack
  5091 ;; Tracked objects:
  5092 ;;		On entry : 0/0
  5093 ;;		On exit  : 0/0
  5094 ;;		Unchanged: 0/0
  5095 ;; Data sizes:     COMMON   BANK0   BANK1   BANK2   BANK3   BANK4
  5096 ;;      Params:         0       0       0       0       0       0
  5097 ;;      Locals:         0       0       0       0       0       0
  5098 ;;      Temps:          0       0       0       0       0       0
  5099 ;;      Totals:         0       0       0       0       0       0
  5100 ;;Total ram usage:        0 bytes
  5101 ;; Hardware stack levels used: 1
  5102 ;; Hardware stack levels required when called: 2
  5103 ;; This function calls:
  5104 ;;		_TMR0_CallBack
  5105 ;; This function is called by:
  5106 ;;		_INTERRUPT_InterruptManager
  5107 ;; This function uses a non-reentrant model
  5108 ;;
  5109                           
  5110     013A                     _TMR0_ISR:	
  5111                           ;psect for function _TMR0_ISR
  5112                           
  5113     013A                     i1l1783:	
  5114                           ;incstack = 0
  5115                           ; Regs used in _TMR0_ISR: [wreg+status,2+status,0+pclath+cstack]
  5116                           
  5117                           
  5118                           ;mcc_generated_files/tmr0.c: 110:     static volatile uint16_t CountCallBack = 0;;mcc_ge
      +                          nerated_files/tmr0.c: 113:     INTCONbits.TMR0IF = 0;
  5119     013A  110B               	bcf	11,2	;volatile
  5120     013B                     i1l1785:
  5121                           
  5122                           ;mcc_generated_files/tmr0.c: 115:     TMR0 = timer0ReloadVal;
  5123     013B  0876               	movf	_timer0ReloadVal,w	;volatile
  5124     013C  0020               	movlb	0	; select bank0
  5125     013D  0095               	movwf	21	;volatile
  5126                           
  5127                           ;mcc_generated_files/tmr0.c: 118:     if (++CountCallBack >= 32)
  5128     013E  3001               	movlw	1
  5129     013F  07AE               	addwf	TMR0_ISR@CountCallBack,f	;volatile
  5130     0140  3000               	movlw	0
  5131     0141  3DAF               	addwfc	TMR0_ISR@CountCallBack+1,f	;volatile
  5132     0142  3000               	movlw	0
  5133     0143  022F               	subwf	TMR0_ISR@CountCallBack+1,w	;volatile
  5134     0144  3020               	movlw	32
  5135     0145  1903               	skipnz
  5136     0146  022E               	subwf	TMR0_ISR@CountCallBack,w	;volatile
  5137     0147  1C03               	skipc
  5138     0148  294A               	goto	u47_21
  5139     0149  294B               	goto	u47_20
  5140     014A                     u47_21:
  5141     014A  2951               	goto	i1l528
  5142     014B                     u47_20:
  5143     014B                     i1l1787:
  5144                           
  5145                           ;mcc_generated_files/tmr0.c: 119:     {;mcc_generated_files/tmr0.c: 121:         TMR0_Ca
      +                          llBack();
  5146     014B  3181  21DF  3181   	fcall	_TMR0_CallBack
  5147     014E                     i1l1789:
  5148                           
  5149                           ;mcc_generated_files/tmr0.c: 124:         CountCallBack = 0;
  5150     014E  0020               	movlb	0	; select bank0
  5151     014F  01AE               	clrf	TMR0_ISR@CountCallBack	;volatile
  5152     0150  01AF               	clrf	TMR0_ISR@CountCallBack+1	;volatile
  5153     0151                     i1l528:
  5154     0151  0008               	return
  5155     0152                     __end_of_TMR0_ISR:
  5156                           
  5157                           	psect	text31
  5158     01DF                     __ptext31:	
  5159 ;; *************** function _TMR0_CallBack *****************
  5160 ;; Defined at:
  5161 ;;		line 130 in file "mcc_generated_files/tmr0.c"
  5162 ;; Parameters:    Size  Location     Type
  5163 ;;		None
  5164 ;; Auto vars:     Size  Location     Type
  5165 ;;		None
  5166 ;; Return value:  Size  Location     Type
  5167 ;;                  1    wreg      void 
  5168 ;; Registers used:
  5169 ;;		wreg, status,2, status,0, pclath, cstack
  5170 ;; Tracked objects:
  5171 ;;		On entry : 0/0
  5172 ;;		On exit  : 0/0
  5173 ;;		Unchanged: 0/0
  5174 ;; Data sizes:     COMMON   BANK0   BANK1   BANK2   BANK3   BANK4
  5175 ;;      Params:         0       0       0       0       0       0
  5176 ;;      Locals:         0       0       0       0       0       0
  5177 ;;      Temps:          0       0       0       0       0       0
  5178 ;;      Totals:         0       0       0       0       0       0
  5179 ;;Total ram usage:        0 bytes
  5180 ;; Hardware stack levels used: 1
  5181 ;; Hardware stack levels required when called: 1
  5182 ;; This function calls:
  5183 ;;		NULL
  5184 ;;		_TMR0_DefaultInterruptHandler
  5185 ;; This function is called by:
  5186 ;;		_TMR0_ISR
  5187 ;; This function uses a non-reentrant model
  5188 ;;
  5189                           
  5190     01DF                     _TMR0_CallBack:	
  5191                           ;psect for function _TMR0_CallBack
  5192                           
  5193     01DF                     i1l1769:	
  5194                           ;incstack = 0
  5195                           ; Regs used in _TMR0_CallBack: [wreg+status,2+status,0+pclath+cstack]
  5196                           
  5197                           
  5198                           ;mcc_generated_files/tmr0.c: 134:     if(TMR0_InterruptHandler)
  5199     01DF  0020               	movlb	0	; select bank0
  5200     01E0  0820               	movf	_TMR0_InterruptHandler,w
  5201     01E1  0421               	iorwf	_TMR0_InterruptHandler+1,w
  5202     01E2  1903               	btfsc	3,2
  5203     01E3  29E5               	goto	u44_21
  5204     01E4  29E6               	goto	u44_20
  5205     01E5                     u44_21:
  5206     01E5  29EB               	goto	i1l532
  5207     01E6                     u44_20:
  5208     01E6                     i1l1771:
  5209                           
  5210                           ;mcc_generated_files/tmr0.c: 135:     {;mcc_generated_files/tmr0.c: 136:         TMR0_In
      +                          terruptHandler();
  5211     01E6  0821               	movf	_TMR0_InterruptHandler+1,w
  5212     01E7  008A               	movwf	10
  5213     01E8  0820               	movf	_TMR0_InterruptHandler,w
  5214     01E9  000A               	callw
  5215     01EA  3181               	pagesel	$
  5216     01EB                     i1l532:
  5217     01EB  0008               	return
  5218     01EC                     __end_of_TMR0_CallBack:
  5219                           
  5220                           	psect	text32
  5221     0271                     __ptext32:	
  5222 ;; *************** function _TMR0_DefaultInterruptHandler *****************
  5223 ;; Defined at:
  5224 ;;		line 144 in file "mcc_generated_files/tmr0.c"
  5225 ;; Parameters:    Size  Location     Type
  5226 ;;		None
  5227 ;; Auto vars:     Size  Location     Type
  5228 ;;		None
  5229 ;; Return value:  Size  Location     Type
  5230 ;;                  1    wreg      void 
  5231 ;; Registers used:
  5232 ;;		None
  5233 ;; Tracked objects:
  5234 ;;		On entry : 0/0
  5235 ;;		On exit  : 0/0
  5236 ;;		Unchanged: 0/0
  5237 ;; Data sizes:     COMMON   BANK0   BANK1   BANK2   BANK3   BANK4
  5238 ;;      Params:         0       0       0       0       0       0
  5239 ;;      Locals:         0       0       0       0       0       0
  5240 ;;      Temps:          0       0       0       0       0       0
  5241 ;;      Totals:         0       0       0       0       0       0
  5242 ;;Total ram usage:        0 bytes
  5243 ;; Hardware stack levels used: 1
  5244 ;; This function calls:
  5245 ;;		Nothing
  5246 ;; This function is called by:
  5247 ;;		_TMR0_Initialize
  5248 ;;		_TMR0_CallBack
  5249 ;; This function uses a non-reentrant model
  5250 ;;
  5251                           
  5252     0271                     _TMR0_DefaultInterruptHandler:	
  5253                           ;psect for function _TMR0_DefaultInterruptHandler
  5254                           
  5255     0271                     i1l538:	
  5256                           ;incstack = 0
  5257                           ; Regs used in _TMR0_DefaultInterruptHandler: []
  5258                           
  5259     0271  0008               	return
  5260     0272                     __end_of_TMR0_DefaultInterruptHandler:
  5261                           
  5262                           	psect	text33
  5263     0187                     __ptext33:	
  5264 ;; *************** function _PIN_MANAGER_IOC *****************
  5265 ;; Defined at:
  5266 ;;		line 119 in file "mcc_generated_files/pin_manager.c"
  5267 ;; Parameters:    Size  Location     Type
  5268 ;;		None
  5269 ;; Auto vars:     Size  Location     Type
  5270 ;;		None
  5271 ;; Return value:  Size  Location     Type
  5272 ;;                  1    wreg      void 
  5273 ;; Registers used:
  5274 ;;		wreg, status,2, status,0, pclath, cstack
  5275 ;; Tracked objects:
  5276 ;;		On entry : 0/0
  5277 ;;		On exit  : 0/0
  5278 ;;		Unchanged: 0/0
  5279 ;; Data sizes:     COMMON   BANK0   BANK1   BANK2   BANK3   BANK4
  5280 ;;      Params:         0       0       0       0       0       0
  5281 ;;      Locals:         0       0       0       0       0       0
  5282 ;;      Temps:          0       0       0       0       0       0
  5283 ;;      Totals:         0       0       0       0       0       0
  5284 ;;Total ram usage:        0 bytes
  5285 ;; Hardware stack levels used: 1
  5286 ;; Hardware stack levels required when called: 2
  5287 ;; This function calls:
  5288 ;;		_IOCBF0_ISR
  5289 ;;		_IOCBF3_ISR
  5290 ;; This function is called by:
  5291 ;;		_INTERRUPT_InterruptManager
  5292 ;; This function uses a non-reentrant model
  5293 ;;
  5294                           
  5295     0187                     _PIN_MANAGER_IOC:	
  5296                           ;psect for function _PIN_MANAGER_IOC
  5297                           
  5298     0187                     i1l1773:	
  5299                           ;incstack = 0
  5300                           ; Regs used in _PIN_MANAGER_IOC: [wreg+status,2+status,0+pclath+cstack]
  5301                           
  5302                           
  5303                           ;mcc_generated_files/pin_manager.c: 122:     if(IOCBFbits.IOCBF0 == 1)
  5304     0187  0027               	movlb	7	; select bank7
  5305     0188  1C16               	btfss	22,0	;volatile
  5306     0189  298B               	goto	u45_21
  5307     018A  298C               	goto	u45_20
  5308     018B                     u45_21:
  5309     018B  298F               	goto	i1l1777
  5310     018C                     u45_20:
  5311     018C                     i1l1775:
  5312                           
  5313                           ;mcc_generated_files/pin_manager.c: 123:     {;mcc_generated_files/pin_manager.c: 124:  
      +                                 IOCBF0_ISR();
  5314     018C  3181  21B6  3181   	fcall	_IOCBF0_ISR
  5315     018F                     i1l1777:
  5316                           
  5317                           ;mcc_generated_files/pin_manager.c: 127:     if(IOCBFbits.IOCBF3 == 1)
  5318     018F  0027               	movlb	7	; select bank7
  5319     0190  1D96               	btfss	22,3	;volatile
  5320     0191  2993               	goto	u46_21
  5321     0192  2994               	goto	u46_20
  5322     0193                     u46_21:
  5323     0193  2997               	goto	i1l106
  5324     0194                     u46_20:
  5325     0194                     i1l1779:
  5326                           
  5327                           ;mcc_generated_files/pin_manager.c: 128:     {;mcc_generated_files/pin_manager.c: 129:  
      +                                 IOCBF3_ISR();
  5328     0194  3181  21A7  3181   	fcall	_IOCBF3_ISR
  5329     0197                     i1l106:
  5330     0197  0008               	return
  5331     0198                     __end_of_PIN_MANAGER_IOC:
  5332                           
  5333                           	psect	text34
  5334     01A7                     __ptext34:	
  5335 ;; *************** function _IOCBF3_ISR *****************
  5336 ;; Defined at:
  5337 ;;		line 166 in file "mcc_generated_files/pin_manager.c"
  5338 ;; Parameters:    Size  Location     Type
  5339 ;;		None
  5340 ;; Auto vars:     Size  Location     Type
  5341 ;;		None
  5342 ;; Return value:  Size  Location     Type
  5343 ;;                  1    wreg      void 
  5344 ;; Registers used:
  5345 ;;		wreg, status,2, status,0, pclath, cstack
  5346 ;; Tracked objects:
  5347 ;;		On entry : 0/0
  5348 ;;		On exit  : 0/0
  5349 ;;		Unchanged: 0/0
  5350 ;; Data sizes:     COMMON   BANK0   BANK1   BANK2   BANK3   BANK4
  5351 ;;      Params:         0       0       0       0       0       0
  5352 ;;      Locals:         0       0       0       0       0       0
  5353 ;;      Temps:          0       0       0       0       0       0
  5354 ;;      Totals:         0       0       0       0       0       0
  5355 ;;Total ram usage:        0 bytes
  5356 ;; Hardware stack levels used: 1
  5357 ;; Hardware stack levels required when called: 1
  5358 ;; This function calls:
  5359 ;;		NULL
  5360 ;;		_IOCBF3_DefaultInterruptHandler
  5361 ;; This function is called by:
  5362 ;;		_PIN_MANAGER_IOC
  5363 ;; This function uses a non-reentrant model
  5364 ;;
  5365                           
  5366     01A7                     _IOCBF3_ISR:	
  5367                           ;psect for function _IOCBF3_ISR
  5368                           
  5369     01A7                     i1l1705:	
  5370                           ;incstack = 0
  5371                           ; Regs used in _IOCBF3_ISR: [wreg+status,2+status,0+pclath+cstack]
  5372                           
  5373                           
  5374                           ;mcc_generated_files/pin_manager.c: 171:     if(IOCBF3_InterruptHandler)
  5375     01A7  0020               	movlb	0	; select bank0
  5376     01A8  082A               	movf	_IOCBF3_InterruptHandler,w
  5377     01A9  042B               	iorwf	_IOCBF3_InterruptHandler+1,w
  5378     01AA  1903               	btfsc	3,2
  5379     01AB  29AD               	goto	u41_21
  5380     01AC  29AE               	goto	u41_20
  5381     01AD                     u41_21:
  5382     01AD  29B3               	goto	i1l1709
  5383     01AE                     u41_20:
  5384     01AE                     i1l1707:
  5385                           
  5386                           ;mcc_generated_files/pin_manager.c: 172:     {;mcc_generated_files/pin_manager.c: 173:  
      +                                 IOCBF3_InterruptHandler();
  5387     01AE  082B               	movf	_IOCBF3_InterruptHandler+1,w
  5388     01AF  008A               	movwf	10
  5389     01B0  082A               	movf	_IOCBF3_InterruptHandler,w
  5390     01B1  000A               	callw
  5391     01B2  3181               	pagesel	$
  5392     01B3                     i1l1709:
  5393                           
  5394                           ;mcc_generated_files/pin_manager.c: 175:     IOCBFbits.IOCBF3 = 0;
  5395     01B3  0027               	movlb	7	; select bank7
  5396     01B4  1196               	bcf	22,3	;volatile
  5397     01B5                     i1l120:
  5398     01B5  0008               	return
  5399     01B6                     __end_of_IOCBF3_ISR:
  5400                           
  5401                           	psect	text35
  5402     0272                     __ptext35:	
  5403 ;; *************** function _IOCBF3_DefaultInterruptHandler *****************
  5404 ;; Defined at:
  5405 ;;		line 188 in file "mcc_generated_files/pin_manager.c"
  5406 ;; Parameters:    Size  Location     Type
  5407 ;;		None
  5408 ;; Auto vars:     Size  Location     Type
  5409 ;;		None
  5410 ;; Return value:  Size  Location     Type
  5411 ;;                  1    wreg      void 
  5412 ;; Registers used:
  5413 ;;		None
  5414 ;; Tracked objects:
  5415 ;;		On entry : 0/0
  5416 ;;		On exit  : 0/0
  5417 ;;		Unchanged: 0/0
  5418 ;; Data sizes:     COMMON   BANK0   BANK1   BANK2   BANK3   BANK4
  5419 ;;      Params:         0       0       0       0       0       0
  5420 ;;      Locals:         0       0       0       0       0       0
  5421 ;;      Temps:          0       0       0       0       0       0
  5422 ;;      Totals:         0       0       0       0       0       0
  5423 ;;Total ram usage:        0 bytes
  5424 ;; Hardware stack levels used: 1
  5425 ;; This function calls:
  5426 ;;		Nothing
  5427 ;; This function is called by:
  5428 ;;		_PIN_MANAGER_Initialize
  5429 ;;		_IOCBF3_ISR
  5430 ;; This function uses a non-reentrant model
  5431 ;;
  5432                           
  5433     0272                     _IOCBF3_DefaultInterruptHandler:	
  5434                           ;psect for function _IOCBF3_DefaultInterruptHandler
  5435                           
  5436     0272                     i1l126:	
  5437                           ;incstack = 0
  5438                           ; Regs used in _IOCBF3_DefaultInterruptHandler: []
  5439                           
  5440     0272  0008               	return
  5441     0273                     __end_of_IOCBF3_DefaultInterruptHandler:
  5442                           
  5443                           	psect	text36
  5444     01B6                     __ptext36:	
  5445 ;; *************** function _IOCBF0_ISR *****************
  5446 ;; Defined at:
  5447 ;;		line 136 in file "mcc_generated_files/pin_manager.c"
  5448 ;; Parameters:    Size  Location     Type
  5449 ;;		None
  5450 ;; Auto vars:     Size  Location     Type
  5451 ;;		None
  5452 ;; Return value:  Size  Location     Type
  5453 ;;                  1    wreg      void 
  5454 ;; Registers used:
  5455 ;;		wreg, status,2, status,0, pclath, cstack
  5456 ;; Tracked objects:
  5457 ;;		On entry : 0/0
  5458 ;;		On exit  : 0/0
  5459 ;;		Unchanged: 0/0
  5460 ;; Data sizes:     COMMON   BANK0   BANK1   BANK2   BANK3   BANK4
  5461 ;;      Params:         0       0       0       0       0       0
  5462 ;;      Locals:         0       0       0       0       0       0
  5463 ;;      Temps:          0       0       0       0       0       0
  5464 ;;      Totals:         0       0       0       0       0       0
  5465 ;;Total ram usage:        0 bytes
  5466 ;; Hardware stack levels used: 1
  5467 ;; Hardware stack levels required when called: 1
  5468 ;; This function calls:
  5469 ;;		NULL
  5470 ;;		_IOCBF0_DefaultInterruptHandler
  5471 ;; This function is called by:
  5472 ;;		_PIN_MANAGER_IOC
  5473 ;; This function uses a non-reentrant model
  5474 ;;
  5475                           
  5476     01B6                     _IOCBF0_ISR:	
  5477                           ;psect for function _IOCBF0_ISR
  5478                           
  5479     01B6                     i1l1699:	
  5480                           ;incstack = 0
  5481                           ; Regs used in _IOCBF0_ISR: [wreg+status,2+status,0+pclath+cstack]
  5482                           
  5483                           
  5484                           ;mcc_generated_files/pin_manager.c: 141:     if(IOCBF0_InterruptHandler)
  5485     01B6  0020               	movlb	0	; select bank0
  5486     01B7  082C               	movf	_IOCBF0_InterruptHandler,w
  5487     01B8  042D               	iorwf	_IOCBF0_InterruptHandler+1,w
  5488     01B9  1903               	btfsc	3,2
  5489     01BA  29BC               	goto	u40_21
  5490     01BB  29BD               	goto	u40_20
  5491     01BC                     u40_21:
  5492     01BC  29C2               	goto	i1l1703
  5493     01BD                     u40_20:
  5494     01BD                     i1l1701:
  5495                           
  5496                           ;mcc_generated_files/pin_manager.c: 142:     {;mcc_generated_files/pin_manager.c: 143:  
      +                                 IOCBF0_InterruptHandler();
  5497     01BD  082D               	movf	_IOCBF0_InterruptHandler+1,w
  5498     01BE  008A               	movwf	10
  5499     01BF  082C               	movf	_IOCBF0_InterruptHandler,w
  5500     01C0  000A               	callw
  5501     01C1  3181               	pagesel	$
  5502     01C2                     i1l1703:
  5503                           
  5504                           ;mcc_generated_files/pin_manager.c: 145:     IOCBFbits.IOCBF0 = 0;
  5505     01C2  0027               	movlb	7	; select bank7
  5506     01C3  1016               	bcf	22,0	;volatile
  5507     01C4                     i1l110:
  5508     01C4  0008               	return
  5509     01C5                     __end_of_IOCBF0_ISR:
  5510                           
  5511                           	psect	text37
  5512     0273                     __ptext37:	
  5513 ;; *************** function _IOCBF0_DefaultInterruptHandler *****************
  5514 ;; Defined at:
  5515 ;;		line 158 in file "mcc_generated_files/pin_manager.c"
  5516 ;; Parameters:    Size  Location     Type
  5517 ;;		None
  5518 ;; Auto vars:     Size  Location     Type
  5519 ;;		None
  5520 ;; Return value:  Size  Location     Type
  5521 ;;                  1    wreg      void 
  5522 ;; Registers used:
  5523 ;;		None
  5524 ;; Tracked objects:
  5525 ;;		On entry : 0/0
  5526 ;;		On exit  : 0/0
  5527 ;;		Unchanged: 0/0
  5528 ;; Data sizes:     COMMON   BANK0   BANK1   BANK2   BANK3   BANK4
  5529 ;;      Params:         0       0       0       0       0       0
  5530 ;;      Locals:         0       0       0       0       0       0
  5531 ;;      Temps:          0       0       0       0       0       0
  5532 ;;      Totals:         0       0       0       0       0       0
  5533 ;;Total ram usage:        0 bytes
  5534 ;; Hardware stack levels used: 1
  5535 ;; This function calls:
  5536 ;;		Nothing
  5537 ;; This function is called by:
  5538 ;;		_PIN_MANAGER_Initialize
  5539 ;;		_IOCBF0_ISR
  5540 ;; This function uses a non-reentrant model
  5541 ;;
  5542                           
  5543     0273                     _IOCBF0_DefaultInterruptHandler:	
  5544                           ;psect for function _IOCBF0_DefaultInterruptHandler
  5545                           
  5546     0273                     i1l116:	
  5547                           ;incstack = 0
  5548                           ; Regs used in _IOCBF0_DefaultInterruptHandler: []
  5549                           
  5550     0273  0008               	return
  5551     0274                     __end_of_IOCBF0_DefaultInterruptHandler:
  5552                           
  5553                           	psect	text38
  5554     026A                     __ptext38:	
  5555 ;; *************** function _CMP2_ISR *****************
  5556 ;; Defined at:
  5557 ;;		line 85 in file "mcc_generated_files/cmp2.c"
  5558 ;; Parameters:    Size  Location     Type
  5559 ;;		None
  5560 ;; Auto vars:     Size  Location     Type
  5561 ;;		None
  5562 ;; Return value:  Size  Location     Type
  5563 ;;                  1    wreg      void 
  5564 ;; Registers used:
  5565 ;;		None
  5566 ;; Tracked objects:
  5567 ;;		On entry : 0/0
  5568 ;;		On exit  : 0/0
  5569 ;;		Unchanged: 0/0
  5570 ;; Data sizes:     COMMON   BANK0   BANK1   BANK2   BANK3   BANK4
  5571 ;;      Params:         0       0       0       0       0       0
  5572 ;;      Locals:         0       0       0       0       0       0
  5573 ;;      Temps:          0       0       0       0       0       0
  5574 ;;      Totals:         0       0       0       0       0       0
  5575 ;;Total ram usage:        0 bytes
  5576 ;; Hardware stack levels used: 1
  5577 ;; This function calls:
  5578 ;;		Nothing
  5579 ;; This function is called by:
  5580 ;;		_INTERRUPT_InterruptManager
  5581 ;; This function uses a non-reentrant model
  5582 ;;
  5583                           
  5584     026A                     _CMP2_ISR:	
  5585                           ;psect for function _CMP2_ISR
  5586                           
  5587     026A                     i1l1363:	
  5588                           ;incstack = 0
  5589                           ; Regs used in _CMP2_ISR: []
  5590                           
  5591                           
  5592                           ;mcc_generated_files/cmp2.c: 88:     PIR2bits.C2IF = 0;
  5593     026A  0020               	movlb	0	; select bank0
  5594     026B  1312               	bcf	18,6	;volatile
  5595     026C                     i1l33:
  5596     026C  0008               	return
  5597     026D                     __end_of_CMP2_ISR:
  5598                           
  5599                           	psect	text39
  5600     026D                     __ptext39:	
  5601 ;; *************** function _CMP1_ISR *****************
  5602 ;; Defined at:
  5603 ;;		line 85 in file "mcc_generated_files/cmp1.c"
  5604 ;; Parameters:    Size  Location     Type
  5605 ;;		None
  5606 ;; Auto vars:     Size  Location     Type
  5607 ;;		None
  5608 ;; Return value:  Size  Location     Type
  5609 ;;                  1    wreg      void 
  5610 ;; Registers used:
  5611 ;;		None
  5612 ;; Tracked objects:
  5613 ;;		On entry : 0/0
  5614 ;;		On exit  : 0/0
  5615 ;;		Unchanged: 0/0
  5616 ;; Data sizes:     COMMON   BANK0   BANK1   BANK2   BANK3   BANK4
  5617 ;;      Params:         0       0       0       0       0       0
  5618 ;;      Locals:         0       0       0       0       0       0
  5619 ;;      Temps:          0       0       0       0       0       0
  5620 ;;      Totals:         0       0       0       0       0       0
  5621 ;;Total ram usage:        0 bytes
  5622 ;; Hardware stack levels used: 1
  5623 ;; This function calls:
  5624 ;;		Nothing
  5625 ;; This function is called by:
  5626 ;;		_INTERRUPT_InterruptManager
  5627 ;; This function uses a non-reentrant model
  5628 ;;
  5629                           
  5630     026D                     _CMP1_ISR:	
  5631                           ;psect for function _CMP1_ISR
  5632                           
  5633     026D                     i1l1365:	
  5634                           ;incstack = 0
  5635                           ; Regs used in _CMP1_ISR: []
  5636                           
  5637                           
  5638                           ;mcc_generated_files/cmp1.c: 88:     PIR2bits.C1IF = 0;
  5639     026D  0020               	movlb	0	; select bank0
  5640     026E  1292               	bcf	18,5	;volatile
  5641     026F                     i1l52:
  5642     026F  0008               	return
  5643     0270                     __end_of_CMP1_ISR:
  5644     007E                     btemp	set	126	;btemp
  5645     007E                     int$flags	set	126
  5646     007E                     wtemp0	set	126
  5647                           
  5648                           	psect	idloc
  5649                           
  5650                           ;Config register IDLOC0 @ 0x8000
  5651                           ;	unspecified, using default values
  5652     8000                     	org	32768
  5653     8000  3FFF               	dw	16383
  5654                           
  5655                           ;Config register IDLOC1 @ 0x8001
  5656                           ;	unspecified, using default values
  5657     8001                     	org	32769
  5658     8001  3FFF               	dw	16383
  5659                           
  5660                           ;Config register IDLOC2 @ 0x8002
  5661                           ;	unspecified, using default values
  5662     8002                     	org	32770
  5663     8002  3FFF               	dw	16383
  5664                           
  5665                           ;Config register IDLOC3 @ 0x8003
  5666                           ;	unspecified, using default values
  5667     8003                     	org	32771
  5668     8003  3FFF               	dw	16383
  5669                           
  5670                           	psect	config
  5671                           
  5672                           ;Config register CONFIG1 @ 0x8007
  5673                           ;	Oscillator Selection
  5674                           ;	FOSC = INTOSC, INTOSC oscillator: I/O function on CLKIN pin
  5675                           ;	Watchdog Timer Enable
  5676                           ;	WDTE = OFF, WDT disabled
  5677                           ;	Power-up Timer Enable
  5678                           ;	PWRTE = OFF, PWRT disabled
  5679                           ;	MCLR Pin Function Select
  5680                           ;	MCLRE = ON, MCLR/VPP pin function is MCLR
  5681                           ;	Flash Program Memory Code Protection
  5682                           ;	CP = OFF, Program memory code protection is disabled
  5683                           ;	Data Memory Code Protection
  5684                           ;	CPD = OFF, Data memory code protection is disabled
  5685                           ;	Brown-out Reset Enable
  5686                           ;	BOREN = ON, Brown-out Reset enabled
  5687                           ;	Clock Out Enable
  5688                           ;	CLKOUTEN = OFF, CLKOUT function is disabled. I/O or oscillator function on the CLKOUT 
      +                          pin
  5689                           ;	Internal/External Switchover
  5690                           ;	IESO = ON, Internal/External Switchover mode is enabled
  5691                           ;	Fail-Safe Clock Monitor Enable
  5692                           ;	FCMEN = ON, Fail-Safe Clock Monitor is enabled
  5693     8007                     	org	32775
  5694     8007  3FE4               	dw	16356
  5695                           
  5696                           ;Config register CONFIG2 @ 0x8008
  5697                           ;	Flash Memory Self-Write Protection
  5698                           ;	WRT = OFF, Write protection off
  5699                           ;	PLL Enable
  5700                           ;	PLLEN = OFF, 4x PLL disabled
  5701                           ;	Stack Overflow/Underflow Reset Enable
  5702                           ;	STVREN = ON, Stack Overflow or Underflow will cause a Reset
  5703                           ;	Brown-out Reset Voltage Selection
  5704                           ;	BORV = LO, Brown-out Reset Voltage (Vbor), low trip point selected.
  5705                           ;	Low-Voltage Programming Enable
  5706                           ;	LVP = ON, Low-voltage programming enabled
  5707     8008                     	org	32776
  5708     8008  3EFF               	dw	16127

Data Sizes:
    Strings     0
    Constant    4
    Data        0
    BSS         13
    Persistent  46
    Stack       0

Auto Spaces:
    Space          Size  Autos    Used
    COMMON           14      4      12
    BANK0            80      2      21
    BANK1            80      0       0
    BANK2            80      0       0
    BANK3            80      0       0
    BANK4            48      0       0

Pointer List with Targets:

    ADC_InterruptHandler	PTR FTN()void  size(2) Largest target is 1
		 -> NULL(), 

    TMR0_SetInterruptHandler@InterruptHandler	PTR FTN()void  size(2) Largest target is 1
		 -> TMR0_DefaultInterruptHandler(), 

    TMR0_InterruptHandler	PTR FTN()void  size(2) Largest target is 1
		 -> TMR0_DefaultInterruptHandler(), NULL(), 

    TMR1_SetInterruptHandler@InterruptHandler	PTR FTN()void  size(2) Largest target is 1
		 -> TMR1_DefaultInterruptHandler(), 

    TMR1_InterruptHandler	PTR FTN()void  size(2) Largest target is 1
		 -> TMR1_DefaultInterruptHandler(), NULL(), 

    EUSART_SetErrorHandler@interruptHandler	PTR FTN()void  size(2) Largest target is 1
		 -> EUSART_DefaultErrorHandler(), 

    EUSART_ErrorHandler	PTR FTN()void  size(2) Largest target is 1
		 -> EUSART_DefaultErrorHandler(), NULL(), 

    EUSART_SetOverrunErrorHandler@interruptHandler	PTR FTN()void  size(2) Largest target is 1
		 -> EUSART_DefaultOverrunErrorHandler(), 

    EUSART_OverrunErrorHandler	PTR FTN()void  size(2) Largest target is 1
		 -> EUSART_DefaultOverrunErrorHandler(), NULL(), 

    EUSART_SetFramingErrorHandler@interruptHandler	PTR FTN()void  size(2) Largest target is 1
		 -> EUSART_DefaultFramingErrorHandler(), 

    EUSART_FramingErrorHandler	PTR FTN()void  size(2) Largest target is 1
		 -> EUSART_DefaultFramingErrorHandler(), NULL(), 

    IOCBF3_SetInterruptHandler@InterruptHandler	PTR FTN()void  size(2) Largest target is 1
		 -> IOCBF3_DefaultInterruptHandler(), 

    IOCBF3_InterruptHandler	PTR FTN()void  size(2) Largest target is 1
		 -> NULL(), IOCBF3_DefaultInterruptHandler(), 

    IOCBF0_SetInterruptHandler@InterruptHandler	PTR FTN()void  size(2) Largest target is 1
		 -> IOCBF0_DefaultInterruptHandler(), 

    IOCBF0_InterruptHandler	PTR FTN()void  size(2) Largest target is 1
		 -> NULL(), IOCBF0_DefaultInterruptHandler(), 


Critical Paths under _main in COMMON

    _main->_isValidFloor
    _TMR1_Initialize->_TMR1_SetInterruptHandler
    _TMR0_Initialize->_TMR0_SetInterruptHandler
    _PIN_MANAGER_Initialize->_IOCBF0_SetInterruptHandler
    _PIN_MANAGER_Initialize->_IOCBF3_SetInterruptHandler
    _EUSART_Initialize->_EUSART_SetErrorHandler
    _EUSART_Initialize->_EUSART_SetFramingErrorHandler
    _EUSART_Initialize->_EUSART_SetOverrunErrorHandler

Critical Paths under _INTERRUPT_InterruptManager in COMMON

    _TMR1_ISR->_TMR1_WriteTimer

Critical Paths under _main in BANK0

    None.

Critical Paths under _INTERRUPT_InterruptManager in BANK0

    None.

Critical Paths under _main in BANK1

    None.

Critical Paths under _INTERRUPT_InterruptManager in BANK1

    None.

Critical Paths under _main in BANK2

    None.

Critical Paths under _INTERRUPT_InterruptManager in BANK2

    None.

Critical Paths under _main in BANK3

    None.

Critical Paths under _INTERRUPT_InterruptManager in BANK3

    None.

Critical Paths under _main in BANK4

    None.

Critical Paths under _INTERRUPT_InterruptManager in BANK4

    None.

Call Graph Tables:

 ---------------------------------------------------------------------------------
 (Depth) Function   	        Calls       Base Space   Used Autos Params    Refs
 ---------------------------------------------------------------------------------
 (0) _main                                                 2     2      0     754
                                              0 BANK0      2     2      0
                        _EUSART_Read
                 _EUSART_is_rx_ready
                  _SYSTEM_Initialize
                       _isValidFloor
 ---------------------------------------------------------------------------------
 (1) _isValidFloor                                         2     2      0      68
                                              2 COMMON     2     2      0
 ---------------------------------------------------------------------------------
 (1) _SYSTEM_Initialize                                    0     0      0     686
                     _ADC_Initialize
                    _CMP1_Initialize
                    _CMP2_Initialize
                  _EUSART_Initialize
                     _FVR_Initialize
              _OSCILLATOR_Initialize
             _PIN_MANAGER_Initialize
                    _PWM3_Initialize
                    _SPI1_Initialize
                    _TMR0_Initialize
                    _TMR1_Initialize
                    _TMR2_Initialize
                     _WDT_Initialize
 ---------------------------------------------------------------------------------
 (2) _WDT_Initialize                                       0     0      0       0
 ---------------------------------------------------------------------------------
 (2) _TMR2_Initialize                                      0     0      0       0
 ---------------------------------------------------------------------------------
 (2) _TMR1_Initialize                                      0     0      0      98
           _TMR1_SetInterruptHandler
 ---------------------------------------------------------------------------------
 (3) _TMR1_SetInterruptHandler                             2     0      2      98
                                              2 COMMON     2     0      2
 ---------------------------------------------------------------------------------
 (2) _TMR0_Initialize                                      0     0      0      98
           _TMR0_SetInterruptHandler
 ---------------------------------------------------------------------------------
 (3) _TMR0_SetInterruptHandler                             2     0      2      98
                                              2 COMMON     2     0      2
 ---------------------------------------------------------------------------------
 (2) _SPI1_Initialize                                      0     0      0       0
 ---------------------------------------------------------------------------------
 (2) _PWM3_Initialize                                      0     0      0       0
 ---------------------------------------------------------------------------------
 (2) _PIN_MANAGER_Initialize                               0     0      0     196
         _IOCBF0_SetInterruptHandler
         _IOCBF3_SetInterruptHandler
 ---------------------------------------------------------------------------------
 (3) _IOCBF3_SetInterruptHandler                           2     0      2      98
                                              2 COMMON     2     0      2
 ---------------------------------------------------------------------------------
 (3) _IOCBF0_SetInterruptHandler                           2     0      2      98
                                              2 COMMON     2     0      2
 ---------------------------------------------------------------------------------
 (2) _OSCILLATOR_Initialize                                0     0      0       0
 ---------------------------------------------------------------------------------
 (2) _FVR_Initialize                                       0     0      0       0
 ---------------------------------------------------------------------------------
 (2) _EUSART_Initialize                                    0     0      0     294
             _EUSART_SetErrorHandler
      _EUSART_SetFramingErrorHandler
      _EUSART_SetOverrunErrorHandler
 ---------------------------------------------------------------------------------
 (3) _EUSART_SetOverrunErrorHandler                        2     0      2      98
                                              2 COMMON     2     0      2
 ---------------------------------------------------------------------------------
 (3) _EUSART_SetFramingErrorHandler                        2     0      2      98
                                              2 COMMON     2     0      2
 ---------------------------------------------------------------------------------
 (3) _EUSART_SetErrorHandler                               2     0      2      98
                                              2 COMMON     2     0      2
 ---------------------------------------------------------------------------------
 (2) _CMP2_Initialize                                      0     0      0       0
 ---------------------------------------------------------------------------------
 (2) _CMP1_Initialize                                      0     0      0       0
 ---------------------------------------------------------------------------------
 (2) _ADC_Initialize                                       0     0      0       0
 ---------------------------------------------------------------------------------
 (1) _EUSART_is_rx_ready                                   0     0      0       0
 ---------------------------------------------------------------------------------
 (1) _EUSART_Read                                          0     0      0       0
 ---------------------------------------------------------------------------------
 Estimated maximum stack depth 3
 ---------------------------------------------------------------------------------
 (Depth) Function   	        Calls       Base Space   Used Autos Params    Refs
 ---------------------------------------------------------------------------------
 (4) _INTERRUPT_InterruptManager                           0     0      0     240
                           _CMP1_ISR
                           _CMP2_ISR
                    _PIN_MANAGER_IOC
                           _TMR0_ISR
                           _TMR1_ISR
 ---------------------------------------------------------------------------------
 (5) _TMR1_ISR                                             0     0      0     240
                      _TMR1_CallBack
                    _TMR1_WriteTimer
 ---------------------------------------------------------------------------------
 (6) _TMR1_WriteTimer                                      2     0      2     240
                                              0 COMMON     2     0      2
 ---------------------------------------------------------------------------------
 (6) _TMR1_CallBack                                        0     0      0       0
                                NULL *
       _TMR1_DefaultInterruptHandler *
 ---------------------------------------------------------------------------------
 (7) _TMR1_DefaultInterruptHandler                         0     0      0       0
 ---------------------------------------------------------------------------------
 (5) _TMR0_ISR                                             0     0      0       0
                      _TMR0_CallBack
 ---------------------------------------------------------------------------------
 (6) _TMR0_CallBack                                        0     0      0       0
                                NULL *
       _TMR0_DefaultInterruptHandler *
 ---------------------------------------------------------------------------------
 (7) _TMR0_DefaultInterruptHandler                         0     0      0       0
 ---------------------------------------------------------------------------------
 (5) _PIN_MANAGER_IOC                                      0     0      0       0
                         _IOCBF0_ISR
                         _IOCBF3_ISR
 ---------------------------------------------------------------------------------
 (6) _IOCBF3_ISR                                           0     0      0       0
                                NULL *
     _IOCBF3_DefaultInterruptHandler *
 ---------------------------------------------------------------------------------
 (7) _IOCBF3_DefaultInterruptHandler                       0     0      0       0
 ---------------------------------------------------------------------------------
 (6) _IOCBF0_ISR                                           0     0      0       0
                                NULL *
     _IOCBF0_DefaultInterruptHandler *
 ---------------------------------------------------------------------------------
 (7) _IOCBF0_DefaultInterruptHandler                       0     0      0       0
 ---------------------------------------------------------------------------------
 (7) NULL(Fake)                                            0     0      0       0
 ---------------------------------------------------------------------------------
 (5) _CMP2_ISR                                             0     0      0       0
 ---------------------------------------------------------------------------------
 (5) _CMP1_ISR                                             0     0      0       0
 ---------------------------------------------------------------------------------
 Estimated maximum stack depth 7
 ---------------------------------------------------------------------------------

 Call Graph Graphs:

 _main (ROOT)
   _EUSART_Read
   _EUSART_is_rx_ready
   _SYSTEM_Initialize
     _ADC_Initialize
     _CMP1_Initialize
     _CMP2_Initialize
     _EUSART_Initialize
       _EUSART_SetErrorHandler
       _EUSART_SetFramingErrorHandler
       _EUSART_SetOverrunErrorHandler
     _FVR_Initialize
     _OSCILLATOR_Initialize
     _PIN_MANAGER_Initialize
       _IOCBF0_SetInterruptHandler
       _IOCBF3_SetInterruptHandler
     _PWM3_Initialize
     _SPI1_Initialize
     _TMR0_Initialize
       _TMR0_SetInterruptHandler
     _TMR1_Initialize
       _TMR1_SetInterruptHandler
     _TMR2_Initialize
     _WDT_Initialize
   _isValidFloor

 _INTERRUPT_InterruptManager (ROOT)
   _CMP1_ISR
   _CMP2_ISR
   _PIN_MANAGER_IOC
     _IOCBF0_ISR
       NULL(Fake) *
       _IOCBF0_DefaultInterruptHandler *
     _IOCBF3_ISR
       NULL(Fake) *
       _IOCBF3_DefaultInterruptHandler *
   _TMR0_ISR
     _TMR0_CallBack
       NULL(Fake) *
       _TMR0_DefaultInterruptHandler *
   _TMR1_ISR
     _TMR1_CallBack
       NULL(Fake) *
       _TMR1_DefaultInterruptHandler *
     _TMR1_WriteTimer

 Address spaces:
Name               Size   Autos  Total    Cost      Usage
BIGRAM             170      0       0       0        0.0%
EEDATA             100      0       0       0        0.0%
NULL                 0      0       0       0        0.0%
CODE                 0      0       0       0        0.0%
BITCOMMON            E      0       0       1        0.0%
BITSFR0              0      0       0       1        0.0%
SFR0                 0      0       0       1        0.0%
COMMON               E      4       C       2       85.7%
BITSFR1              0      0       0       2        0.0%
SFR1                 0      0       0       2        0.0%
BITSFR2              0      0       0       3        0.0%
SFR2                 0      0       0       3        0.0%
STACK                0      0       0       3        0.0%
BITSFR3              0      0       0       4        0.0%
SFR3                 0      0       0       4        0.0%
ABS                  0      0      21       4        0.0%
BITBANK0            50      0       0       5        0.0%
BITSFR4              0      0       0       5        0.0%
SFR4                 0      0       0       5        0.0%
BANK0               50      2      15       6       26.2%
BITSFR5              0      0       0       6        0.0%
SFR5                 0      0       0       6        0.0%
BITBANK1            50      0       0       7        0.0%
BITSFR6              0      0       0       7        0.0%
SFR6                 0      0       0       7        0.0%
BANK1               50      0       0       8        0.0%
BITSFR7              0      0       0       8        0.0%
SFR7                 0      0       0       8        0.0%
BITBANK2            50      0       0       9        0.0%
BITSFR8              0      0       0       9        0.0%
SFR8                 0      0       0       9        0.0%
BANK2               50      0       0      10        0.0%
BITSFR9              0      0       0      10        0.0%
SFR9                 0      0       0      10        0.0%
BITBANK3            50      0       0      11        0.0%
BITSFR10             0      0       0      11        0.0%
SFR10                0      0       0      11        0.0%
BANK3               50      0       0      12        0.0%
BITSFR11             0      0       0      12        0.0%
SFR11                0      0       0      12        0.0%
BITBANK4            30      0       0      13        0.0%
BITSFR12             0      0       0      13        0.0%
SFR12                0      0       0      13        0.0%
BANK4               30      0       0      14        0.0%
BITSFR13             0      0       0      14        0.0%
SFR13                0      0       0      14        0.0%
BITSFR14             0      0       0      15        0.0%
SFR14                0      0       0      15        0.0%
DATA                 0      0      21      15        0.0%
BITSFR15             0      0       0      16        0.0%
SFR15                0      0       0      16        0.0%
BITSFR16             0      0       0      17        0.0%
SFR16                0      0       0      17        0.0%
BITSFR17             0      0       0      18        0.0%
SFR17                0      0       0      18        0.0%
BITSFR18             0      0       0      19        0.0%
SFR18                0      0       0      19        0.0%
BITSFR19             0      0       0      20        0.0%
SFR19                0      0       0      20        0.0%
BITSFR20             0      0       0      21        0.0%
SFR20                0      0       0      21        0.0%
BITSFR21             0      0       0      22        0.0%
SFR21                0      0       0      22        0.0%
BITSFR22             0      0       0      23        0.0%
SFR22                0      0       0      23        0.0%
BITSFR23             0      0       0      24        0.0%
SFR23                0      0       0      24        0.0%
BITSFR24             0      0       0      25        0.0%
SFR24                0      0       0      25        0.0%
BITSFR25             0      0       0      26        0.0%
SFR25                0      0       0      26        0.0%
BITSFR26             0      0       0      27        0.0%
SFR26                0      0       0      27        0.0%
BITSFR27             0      0       0      28        0.0%
SFR27                0      0       0      28        0.0%
BITSFR28             0      0       0      29        0.0%
SFR28                0      0       0      29        0.0%
BITSFR29             0      0       0      30        0.0%
SFR29                0      0       0      30        0.0%
BITSFR30             0      0       0      31        0.0%
SFR30                0      0       0      31        0.0%
BITSFR31             0      0       0      32        0.0%
SFR31                0      0       0      32        0.0%


Microchip Technology PIC Macro Assembler V2.41 build 20230208172133 
Symbol Table                                                                                   Thu Jul 13 22:35:13 2023

             ??_IOCBF3_DefaultInterruptHandler 0078                ?_IOCBF3_DefaultInterruptHandler 0078  
                                           l11 0217                                             l27 01F7  
                                           l46 0203                              ??_CMP1_Initialize 007A  
                                           u80 019D                                             u81 019C  
                                           u90 01A3                                             u91 01A2  
                       __end_of_FVR_Initialize 026A                                _timer0ReloadVal 0076  
                                          l101 00D8                                            l113 0246  
                                          l123 0240                                            l302 024C  
                                          l214 0269                                            l305 0258  
                                          l163 0100                                            l260 0121  
                                          l166 022E                                            l326 020E  
                                          l281 01A6                                            l513 0175  
                                          l169 0265                                            l186 0227  
                                          l426 0139                                            l268 025D  
                                          l277 0198                                            l535 023A  
                                          l299 0252                                            l459 0234  
                                          l475 021F                                            l564 0060  
                                          l559 0163                                            l567 006D  
                                          _PR2 001B                                            u480 015A  
                                          u481 0159                                            u490 0160  
                                          u650 0068                                            u491 015F  
                                          u651 0067                                            u660 0075  
                                          u661 0074                                            u670 0089  
                                          u671 0088                                            u680 0093  
                                          u681 0092                                _timer1ReloadVal 0070  
               ?_EUSART_SetFramingErrorHandler 007A                                _TMR2_Initialize 0218  
                                          wreg 0009                                   ?_EUSART_Read 0078  
                                         l1201 0213                                           l1211 01F5  
                                         l1203 0214                                           l1213 01F8  
                                         l1205 01EC                                           l1311 0224  
                                         l1215 01FA                                           l1207 01EE  
                                         l1217 01FF                                           l1209 01F3  
                                         l1307 0220                                           l1219 0201  
                                         l1309 0223                                           l1271 0208  
                                         l1281 022C                                           l1273 020A  
                                         l1275 020C                                           l1267 0204  
                                         l1291 021C                                           l1283 0262  
                                         l1381 0198                                           l1285 0266  
                                         l1277 0228                                           l1197 020F  
                                         l1269 0207                                           l1293 021D  
                                         l1383 019D                                           l1279 022B  
                                         l1199 0212                                           l1711 0164  
                                         l1287 0218                                           l1385 019E  
                                         l1377 0259                                           l1721 016E  
                                         l1713 0169                                           l1289 021B  
                                         l1801 0160                                           l1387 01A3  
                                         l1651 0241                                           l1715 016B  
                                         l1731 0129                                           l1723 0122  
                                         l1803 0162                                           l1389 01A5  
                                         l1741 010A                                           l1653 023B  
                                         l1717 016C                                           l1661 022F  
                                         l1733 012D                                           l1725 0124  
                                         l1901 0095                                           l1655 024D  
                                         l1743 010B                                           l1671 00B2  
                                         l1663 0235                                           l1719 016D  
                                         l1735 012F                                           l1727 0126  
                                         l1903 0097                                           l1657 0247  
                                         l1745 0112                                           l1681 00C2  
                                         l1673 00B5                                           l1665 00AA  
                                         l1737 0136                                           l1729 0128  
                                         l1659 0253                                           l1747 0119  
                                         l1739 0101                                           l1691 00C8  
                                         l1683 00C4                                           l1675 00B7  
                                         l1667 00AD                                           l1749 0120  
                                         l1693 00C9                                           l1685 00C5  
                                         l1677 00BA                                           l1669 00B0  
                                         l1781 00D9                                           l1941 00A0  
                                         l1695 00D0                                           l1687 00C6  
                                         l1679 00BB                                           l1697 00D7  
                                         l1689 00C7                                           l1795 0153  
                                         l1891 0075                                           l1797 0154  
                                         l1893 007D                                           l1885 005D  
                                         l1799 015A                                           l1895 007F  
                                         l1887 0068                                           l1897 0089  
                                         l1889 0070                                           l1899 0093  
                                ?_isValidFloor 0078                                           _LATA 010C  
                                         _LATB 010D                              ??_CMP2_Initialize 007A  
                                         i1l33 026C                                           i1l52 026F  
                                         _TMR0 0015                                           _TMR2 001A  
                                         _WPUA 020C                                           _WPUB 020D  
                                         _main 005D                                           btemp 007E  
                                         start 0049                               __end_of_CMP1_ISR 0270  
                             __end_of_CMP2_ISR 026D                     ??_TMR1_SetInterruptHandler 007C  
                      __end_of_TMR0_Initialize 0176                 ??_TMR0_DefaultInterruptHandler 0078  
                              ?_FVR_Initialize 0078                  __end_of_OSCILLATOR_Initialize 022F  
                            isValidFloor@floor 007B                                          ?_main 0078  
                                        _T1CON 0018                                          _T2CON 001C  
                                        i1l110 01C4                                          i1l120 01B5  
                                        i1l106 0197                                          i1l116 0273  
                                        i1l126 0272                                          i1l440 0186  
                                        i1l532 01EB                                          i1l452 01D1  
                                        i1l462 0270                                          i1l528 0151  
                                        i1l456 01DE                                          i1l538 0271  
                                        i1l397 0047                                          _RCREG 0199  
                                        _RCSTA 019D                                          u40_20 01BD  
                                        u40_21 01BC                                          u41_20 01AE  
                                        u41_21 01AD                                          _TMR1H 0017  
                                        _TMR1L 0016                                          u42_20 017B  
                                        u50_20 000A                                          u42_21 017A  
                                        u50_21 0009                                     _RXaccepted 0073  
                                        u43_20 01D9                                          u51_20 000E  
                                        u43_21 01D8                                          u51_21 000D  
                                        u44_20 01E6                                          u60_20 0044  
                                        u52_20 0015                                          u44_21 01E5  
                                        u60_21 0043                                          u52_21 0014  
                                        u45_20 018C                                          u53_20 0019  
                                        u45_21 018B                                          u53_21 0018  
                                        u46_20 0194                                          u54_20 0020  
                                        u46_21 0193                                          u54_21 001F  
                                        u47_20 014B                                          u55_20 0025  
                                        u47_21 014A                                          u55_21 0024  
                                        u56_20 002A                                          u56_21 0029  
                                        u57_20 0032                                          u57_21 0031  
                                        _TRISA 008C                                          _TRISB 008D  
                                        u58_20 0037                                          u58_21 0036  
                                        u59_20 003F                                          u59_21 003E  
                                        _TXREG 019A                                          _TXSTA 019E  
                    ?_TMR0_SetInterruptHandler 007A                               __end_of_TMR0_ISR 0152  
                             __end_of_TMR1_ISR 01D2                        __end_of_PIN_MANAGER_IOC 0198  
                               _WDT_Initialize 0262                                 ??_isValidFloor 007A  
                      __end_of_PWM3_Initialize 0218                        __end_of_TMR1_Initialize 013A  
                                        pclath 000A                                          status 0003  
                                        wtemp0 007E                                _TMR1_WriteTimer 0176  
                              __initialization 004B                                   __end_of_main 00AA  
                      __end_of_TMR2_Initialize 0220                    ?_INTERRUPT_InterruptManager 0078  
                                       ??_main 0033                        _IOCBF0_InterruptHandler 002C  
                       __end_of_WDT_Initialize 0266              _EUSART_DefaultFramingErrorHandler 0000  
                                       _ADCON0 009D                                         _ADCON1 009E  
                   _EUSART_OverrunErrorHandler 0026                                         _ADRESH 009C  
                                       _ADRESL 009B                                         _CCPR3H 0312  
                                       _CCPR3L 0311                                         _ANSELA 018C  
                                       _ANSELB 018D                     __end_of_EUSART_is_rx_ready 025E  
                                       _BORCON 0116                                         _T1GCON 0019  
                      TMR1_WriteTimer@timerVal 0078                                         i1l1363 026A  
                                       i1l1365 026D                                         i1l1701 01BD  
                                       i1l1703 01C2                                         i1l1705 01A7  
                                       i1l1707 01AE                                         i1l1811 000E  
                                       i1l1709 01B3                                         i1l1821 0020  
                                       i1l1813 0011                                         i1l1751 0176  
                                       i1l1831 0037                                         i1l1823 0025  
                                       i1l1815 0015                                         i1l1807 0006  
                                       i1l1753 017B                                         i1l1761 0182  
                                       i1l1833 003A                                         i1l1825 002A  
                                       i1l1817 0019                                         i1l1809 000A  
                                       i1l1771 01E6                                         i1l1763 0184  
                                       i1l1755 017C                                         i1l1835 003F  
                                       i1l1827 002D                                         i1l1819 001C  
                                       i1l1773 0187                                         i1l1765 01D2  
                                       i1l1757 017E                                         i1l1837 0044  
                                       i1l1829 0032                                         i1l1775 018C  
                                       i1l1783 013A                                         i1l1767 01D9  
                                       i1l1759 0180                                         i1l1791 01C5  
                                       i1l1777 018F                                         i1l1769 01DF  
                                       i1l1785 013B                                         i1l1793 01C7  
                                       i1l1699 01B6                                         i1l1779 0194  
                                       i1l1787 014B                                         i1l1789 014E  
                                       _FVRCON 0117                                         _OSCCON 0099  
                                       _SPBRGH 019C                                         _SPBRGL 019B  
                                       _WDTCON 0097           __end_of_TMR1_DefaultInterruptHandler 0271  
                 _TMR1_DefaultInterruptHandler 0270                                   _CCPTMRS0bits 029E  
                             ?_TMR0_Initialize 0078                                         _waitRX 0074  
                                       _origem 0072                                ?_WDT_Initialize 0078  
                                    ?_CMP1_ISR 0078                          __end_of_TMR0_CallBack 01EC  
                                    ?_CMP2_ISR 0078       TMR0_SetInterruptHandler@InterruptHandler 007A  
     TMR1_SetInterruptHandler@InterruptHandler 007A     IOCBF3_SetInterruptHandler@InterruptHandler 007A  
   IOCBF0_SetInterruptHandler@InterruptHandler 007A                               ?_PIN_MANAGER_IOC 0078  
                      __end_of_TMR1_WriteTimer 0187                                   ??_IOCBF0_ISR 0078  
                                 ??_IOCBF3_ISR 0078                          __end_of_TMR1_CallBack 01DF  
                             ?_PWM3_Initialize 0078                               ?_TMR1_Initialize 0078  
                            _SYSTEM_Initialize 00D9                        __end_of__initialization 0059  
                              _CMP1_Initialize 01F8                             ?_SYSTEM_Initialize 0078  
                               __pcstackCOMMON 0078                            ??_SYSTEM_Initialize 007C  
                                    ?_TMR0_ISR 0078                                      ?_TMR1_ISR 0078  
                ?_TMR1_DefaultInterruptHandler 0078                           __end_of_isValidFloor 0164  
                            ??_SPI1_Initialize 007A         __end_of_IOCBF0_DefaultInterruptHandler 0274  
               _IOCBF0_DefaultInterruptHandler 0273                               ?_TMR2_Initialize 0078  
                           __end_of_IOCBF0_ISR 01C5                             __end_of_IOCBF3_ISR 01B6  
                              _CMP2_Initialize 01EC                             _spi1_configuration 025E  
                               _OPTION_REGbits 0095                          TMR0_ISR@CountCallBack 002E  
              ??_EUSART_SetOverrunErrorHandler 007C         __end_of_IOCBF3_DefaultInterruptHandler 0273  
               _IOCBF3_DefaultInterruptHandler 0272                                     ??_CMP1_ISR 0078  
                                   ??_CMP2_ISR 0078                      __end_of_SYSTEM_Initialize 0101  
                                   __pbssBANK0 002E                               ??_FVR_Initialize 007A  
                                   __pmaintext 005D               __end_of_TMR0_SetInterruptHandler 023B  
                                   ??_TMR0_ISR 0078                                     ??_TMR1_ISR 007A  
                                   __pintentry 0004                                        _CM1CON0 0111  
                                      _CM1CON1 0112                                        _CM2CON0 0113  
                                      _CM2CON1 0114                                        _CCP3CON 0313  
                                      _BAUDCON 019F                                        _APFCON0 011D  
                                      _APFCON1 011E                              _isValidFloor$1228 007A  
                                      _OSCTUNE 0098                                        _SSP1ADD 0212  
                                      _SSP1BUF 0211                        __end_of_CMP1_Initialize 0204  
                     ??_EUSART_SetErrorHandler 007C                               ?_TMR1_WriteTimer 0078  
                         _ADC_InterruptHandler 0030                        __end_of_CMP2_Initialize 01F8  
                                      __ptext1 0152                                        __ptext2 00D9  
                                      __ptext3 0262                                        __ptext4 0218  
                                      __ptext5 0122                                        __ptext6 022F  
                                      __ptext7 0164                                        __ptext8 0235  
                                      __ptext9 0204                                        _destino 0032  
               ??_TMR1_DefaultInterruptHandler 0078                                      _T1CONbits 0018  
                        _OSCILLATOR_Initialize 0228                                      _T2CONbits 001C  
                                    _CMOUTbits 0115                       ??_PIN_MANAGER_Initialize 007C  
                    ?_TMR1_SetInterruptHandler 007A                                      _IOCBFbits 0396  
                                    _IOCBNbits 0395                                      _IOCBPbits 0394  
                                      _rxValue 0075                           end_of_initialization 0059  
        __end_of_EUSART_SetOverrunErrorHandler 024D                  _EUSART_SetOverrunErrorHandler 0247  
                            _EUSART_Initialize 0101                             ?_EUSART_Initialize 0078  
                                    _RCSTAbits 019D                             _EUSART_is_rx_ready 0259  
                          ??_EUSART_Initialize 007C                               ??_WDT_Initialize 007A  
                     _TMR0_SetInterruptHandler 0235                            ?_EUSART_is_rx_ready 0078  
                                    _TRISBbits 008D                   ??_IOCBF0_SetInterruptHandler 007C  
                 ??_IOCBF3_SetInterruptHandler 007C                               ?_CMP1_Initialize 0078  
                                 _isValidFloor 0152                      __end_of_EUSART_Initialize 0122  
                         ??_EUSART_is_rx_ready 007A                                _SPI1_Initialize 0204  
                                    _TXSTAbits 019E                               ?_CMP2_Initialize 0078  
                   _EUSART_DefaultErrorHandler 0000                                 _ADC_Initialize 0220  
                       ?_OSCILLATOR_Initialize 0078                            start_initialization 004B  
                                ??_EUSART_Read 007A                 ?_EUSART_SetOverrunErrorHandler 007A  
                   _EUSART_FramingErrorHandler 0028                         _EUSART_SetErrorHandler 0253  
                       __end_of_ADC_Initialize 0228                                    __pbssCOMMON 0070  
                                    ___latbits 0001                                  __pcstackBANK0 0033  
                      __end_of_SPI1_Initialize 020F                            __end_of_EUSART_Read 01A7  
                        _TMR0_InterruptHandler 0020                                      __pnvBANK0 0020  
                      _IOCBF3_InterruptHandler 002A                         _PIN_MANAGER_Initialize 00AA  
             __end_of_TMR1_SetInterruptHandler 0235                                ?_ADC_Initialize 0078  
                 ??_INTERRUPT_InterruptManager 007A             __end_of_IOCBF0_SetInterruptHandler 0247  
                   _IOCBF0_SetInterruptHandler 0241             __end_of_IOCBF3_SetInterruptHandler 0241  
                   _IOCBF3_SetInterruptHandler 023B                                       _CMP1_ISR 026D  
                                     _CMP2_ISR 026A                                  _TMR0_CallBack 01DF  
                                _TMR1_CallBack 01D2                              ??_TMR0_Initialize 007C  
       EUSART_SetErrorHandler@interruptHandler 007A                                       _PIE1bits 0091  
                                     _PIE2bits 0092                              _eusartRxLastError 0077  
                   ??_TMR0_SetInterruptHandler 007C                                       _PIR1bits 0011  
              ??_EUSART_SetFramingErrorHandler 007C                                       _PIR2bits 0012  
                                     _SSP1CON1 0215                                       _SSP1CON2 0216  
                                     _TMR0_ISR 013A              _EUSART_DefaultOverrunErrorHandler 0000  
                                     _TMR1_ISR 01C5                                       _SSP1STAT 0214  
                            ??_PIN_MANAGER_IOC 0078                              ??_TMR1_Initialize 007C  
                            ??_PWM3_Initialize 007A                                     _ADCON0bits 009D  
                               ?_TMR0_CallBack 0078                                    _EUSART_Read 0198  
                             ?_SPI1_Initialize 0078                                 ?_TMR1_CallBack 0078  
                            ??_TMR2_Initialize 007A                        ??_OSCILLATOR_Initialize 007A  
                          _EUSART_ErrorHandler 0024                       _TMR1_SetInterruptHandler 022F  
                        _TMR1_InterruptHandler 0022                                       __ptext10 020F  
                                     __ptext11 00AA                                       __ptext20 01EC  
                                     __ptext12 023B                                       __ptext21 01F8  
                                     __ptext13 0241                                     _T1GCONbits 0019  
                                     __ptext30 013A                                       __ptext22 0220  
                                     __ptext14 0228                                       __ptext31 01DF  
                                     __ptext23 0259                                       __ptext15 0266  
                                     __ptext32 0271                                       __ptext24 0198  
                                     __ptext16 0101                                       __ptext33 0187  
                                     __ptext17 0247                                       __ptext34 01A7  
                                     __ptext26 01C5                                       __ptext18 024D  
                                     __ptext35 0272                                       __ptext27 0176  
                                     __ptext19 0253                                       __ptext36 01B6  
                                     __ptext28 01D2                                       __ptext37 0273  
                                     __ptext29 0270                                       __ptext38 026A  
                                     __ptext39 026D                                   _SSP1CON1bits 0215  
                                   _IOCBF0_ISR 01B6                                     _IOCBF3_ISR 01A7  
         __end_of_TMR0_DefaultInterruptHandler 0272                   _TMR0_DefaultInterruptHandler 0271  
                      ?_EUSART_SetErrorHandler 007A  EUSART_SetOverrunErrorHandler@interruptHandler 007A  
                                     int$flags 007E             __end_of_INTERRUPT_InterruptManager 0049  
                   _INTERRUPT_InterruptManager 0004          __end_of_EUSART_SetFramingErrorHandler 0253  
                _EUSART_SetFramingErrorHandler 024D                              ??_TMR1_WriteTimer 007A  
                                   _INTCONbits 000B                                ??_TMR0_CallBack 0078  
                                   _FVRCONbits 0117                                ??_TMR1_CallBack 0078  
                                     intlevel1 0000                        ?_PIN_MANAGER_Initialize 0078  
               __end_of_EUSART_SetErrorHandler 0259                               ??_ADC_Initialize 007A  
                ?_TMR0_DefaultInterruptHandler 0078  EUSART_SetFramingErrorHandler@interruptHandler 007A  
                                __pstringtext1 025E                                 _FVR_Initialize 0266  
                                   _OPTION_REG 0095                                _TMR0_Initialize 0164  
                  ?_IOCBF0_SetInterruptHandler 007A                    ?_IOCBF3_SetInterruptHandler 007A  
                                  ?_IOCBF0_ISR 0078                                    ?_IOCBF3_ISR 0078  
               __end_of_PIN_MANAGER_Initialize 00D9               ??_IOCBF0_DefaultInterruptHandler 0078  
              ?_IOCBF0_DefaultInterruptHandler 0078                                _PIN_MANAGER_IOC 0187  
                              _TMR1_Initialize 0122                                _PWM3_Initialize 020F  
                   __end_of_spi1_configuration 0262  
