

Microchip MPLAB XC8 Assembler V2.41 build 20230208172133 
                                                                                               Tue Jul 18 14:39:00 2023

Microchip MPLAB XC8 C Compiler v2.41 (Free license) build 20230208172133 Og1 
     1                           	processor	16F1827
     2                           	pagewidth 120
     3                           	opt	flic
     4                           	psect	idataCOMMON,global,class=CODE,delta=2,noexec
     5                           	psect	idataBANK0,global,class=CODE,delta=2,noexec
     6                           	psect	stringtext1,global,class=STRCODE,delta=2,noexec
     7                           	psect	stringtext2,global,class=STRCODE,delta=2,noexec
     8                           	psect	nvBANK0,global,class=BANK0,space=1,delta=1,noexec
     9                           	psect	cinit,global,class=CODE,merge=1,delta=2
    10                           	psect	bssCOMMON,global,class=COMMON,space=1,delta=1,noexec
    11                           	psect	dataCOMMON,global,class=COMMON,space=1,delta=1,noexec
    12                           	psect	bssBANK0,global,class=BANK0,space=1,delta=1,noexec
    13                           	psect	dataBANK0,global,class=BANK0,space=1,delta=1,noexec
    14                           	psect	clrtext,global,class=CODE,delta=2
    15                           	psect	cstackCOMMON,global,class=COMMON,space=1,delta=1,noexec
    16                           	psect	cstackBANK0,global,class=BANK0,space=1,delta=1,noexec
    17                           	psect	maintext,global,class=CODE,merge=1,split=1,delta=2
    18                           	psect	text1,local,class=CODE,merge=1,delta=2
    19                           	psect	text2,local,class=CODE,merge=1,delta=2
    20                           	psect	text3,local,class=CODE,merge=1,delta=2
    21                           	psect	text4,local,class=CODE,merge=1,delta=2
    22                           	psect	text5,local,class=CODE,merge=1,delta=2
    23                           	psect	text6,local,class=CODE,merge=1,delta=2
    24                           	psect	text7,local,class=CODE,merge=1,delta=2
    25                           	psect	text8,local,class=CODE,merge=1,delta=2
    26                           	psect	text9,local,class=CODE,merge=1,delta=2
    27                           	psect	text10,local,class=CODE,merge=1,delta=2
    28                           	psect	text11,local,class=CODE,merge=1,delta=2
    29                           	psect	text12,local,class=CODE,merge=1,delta=2
    30                           	psect	text13,local,class=CODE,merge=1,delta=2
    31                           	psect	text14,local,class=CODE,merge=1,delta=2
    32                           	psect	text15,local,class=CODE,merge=1,delta=2
    33                           	psect	text16,local,class=CODE,merge=1,delta=2
    34                           	psect	text17,local,class=CODE,merge=1,delta=2
    35                           	psect	text18,local,class=CODE,merge=1,delta=2
    36                           	psect	text19,local,class=CODE,merge=1,delta=2
    37                           	psect	text20,local,class=CODE,merge=1,delta=2
    38                           	psect	text21,local,class=CODE,merge=1,delta=2
    39                           	psect	text22,local,class=CODE,merge=1,delta=2
    40                           	psect	text23,local,class=CODE,merge=1,delta=2
    41                           	psect	text24,local,class=CODE,merge=1,delta=2
    42                           	psect	text25,local,class=CODE,merge=1,delta=2
    43                           	psect	text26,local,class=CODE,merge=1,delta=2
    44                           	psect	text27,local,class=CODE,merge=1,delta=2
    45                           	psect	text28,local,class=CODE,merge=1,delta=2
    46                           	psect	text29,local,class=CODE,merge=1,delta=2
    47                           	psect	text30,local,class=CODE,merge=1,delta=2
    48                           	psect	intentry,global,class=CODE,delta=2
    49                           	psect	text32,local,class=CODE,merge=1,delta=2
    50                           	psect	text33,local,class=CODE,merge=1,delta=2
    51                           	psect	text34,local,class=CODE,merge=1,delta=2
    52                           	psect	text35,local,class=CODE,merge=1,delta=2
    53                           	psect	text36,local,class=CODE,merge=1,delta=2
    54                           	psect	text37,local,class=CODE,merge=1,delta=2
    55                           	psect	text38,local,class=CODE,merge=1,delta=2
    56                           	psect	text39,local,class=CODE,merge=1,delta=2
    57                           	psect	text40,local,class=CODE,merge=1,delta=2
    58                           	psect	text41,local,class=CODE,merge=1,delta=2
    59                           	psect	text42,local,class=CODE,merge=1,delta=2
    60                           	psect	text43,local,class=CODE,merge=1,delta=2
    61                           	psect	text44,local,class=CODE,merge=1,delta=2
    62                           	psect	text45,local,class=CODE,merge=1,delta=2
    63                           	psect	text46,local,class=CODE,merge=1,delta=2
    64                           	psect	text47,local,class=CODE,merge=1,delta=2
    65                           	psect	text48,local,class=CODE,merge=1,delta=2
    66                           	psect	text49,local,class=CODE,merge=1,delta=2
    67                           	psect	text50,local,class=CODE,merge=1,delta=2
    68                           	psect	text51,local,class=CODE,merge=1,delta=2
    69                           	psect	text52,local,class=CODE,merge=1,delta=2
    70                           	psect	text53,local,class=CODE,merge=1,delta=2
    71                           	psect	text54,local,class=CODE,merge=1,delta=2
    72                           	psect	text55,local,class=CODE,merge=1,delta=2
    73                           	psect	text56,local,class=CODE,merge=1,delta=2
    74                           	psect	text57,local,class=CODE,merge=1,delta=2
    75                           	psect	text58,local,class=CODE,merge=1,delta=2
    76                           	psect	idloc,global,abs,ovrld,class=IDLOC,space=5,delta=2,noexec
    77                           	psect	config,global,abs,ovrld,class=CONFIG,space=4,delta=2,noexec
    78                           	dabs	1,0x7E,2
    79     0000                     
    80                           ; Version 2.40
    81                           ; Generated 17/11/2021 GMT
    82                           ; 
    83                           ; Copyright © 2021, Microchip Technology Inc. and its subsidiaries ("Microchip")
    84                           ; All rights reserved.
    85                           ; 
    86                           ; This software is developed by Microchip Technology Inc. and its subsidiaries ("Microch
      +                          ip").
    87                           ; 
    88                           ; Redistribution and use in source and binary forms, with or without modification, are
    89                           ; permitted provided that the following conditions are met:
    90                           ; 
    91                           ;     1. Redistributions of source code must retain the above copyright notice, this lis
      +                          t of
    92                           ;        conditions and the following disclaimer.
    93                           ; 
    94                           ;     2. Redistributions in binary form must reproduce the above copyright notice, this 
      +                          list
    95                           ;        of conditions and the following disclaimer in the documentation and/or other
    96                           ;        materials provided with the distribution. Publication is not required when
    97                           ;        this file is used in an embedded application.
    98                           ; 
    99                           ;     3. Microchip's name may not be used to endorse or promote products derived from th
      +                          is
   100                           ;        software without specific prior written permission.
   101                           ; 
   102                           ; THIS SOFTWARE IS PROVIDED BY MICROCHIP "AS IS" AND ANY EXPRESS OR IMPLIED WARRANTIES,
   103                           ; INCLUDING, BUT NOT LIMITED TO, THE IMPLIED WARRANTIES OF MERCHANTABILITY AND FITNESS F
      +                          OR
   104                           ; PURPOSE ARE DISCLAIMED.  IN NO EVENT SHALL MICROCHIP BE LIABLE FOR ANY DIRECT, INDIREC
      +                          T,
   105                           ; INCIDENTAL, SPECIAL, EXEMPLARY, OR CONSEQUENTIAL DAMAGES (INCLUDING BUT NOT LIMITED TO
   106                           ; PROCUREMENT OF SUBSTITUTE GOODS OR SERVICES; LOSS OF USE, DATA OR PROFITS; OR BUSINESS
   107                           ; INTERRUPTION) HOWSOEVER CAUSED AND ON ANY THEORY OF LIABILITY, WHETHER IN CONTRACT, ST
      +                          RICT
   108                           ; LIABILITY, OR TORT (INCLUDING NEGLIGENCE OR OTHERWISE) ARISING IN ANY WAY OUT OF THE U
      +                          SE OF
   109                           ; THIS SOFTWARE, EVEN IF ADVISED OF THE POSSIBILITY OF SUCH DAMAGE.
   110                           ; 
   111                           ; 
   112                           ; Code-generator required, PIC16F1827 Definitions
   113                           ; 
   114                           ; SFR Addresses
   115     0000                     	;# 
   116     0001                     	;# 
   117     0002                     	;# 
   118     0003                     	;# 
   119     0004                     	;# 
   120     0005                     	;# 
   121     0006                     	;# 
   122     0007                     	;# 
   123     0008                     	;# 
   124     0009                     	;# 
   125     000A                     	;# 
   126     000B                     	;# 
   127     000C                     	;# 
   128     000D                     	;# 
   129     0011                     	;# 
   130     0012                     	;# 
   131     0013                     	;# 
   132     0014                     	;# 
   133     0015                     	;# 
   134     0016                     	;# 
   135     0016                     	;# 
   136     0017                     	;# 
   137     0018                     	;# 
   138     0019                     	;# 
   139     001A                     	;# 
   140     001B                     	;# 
   141     001C                     	;# 
   142     001E                     	;# 
   143     001F                     	;# 
   144     008C                     	;# 
   145     008D                     	;# 
   146     0091                     	;# 
   147     0092                     	;# 
   148     0093                     	;# 
   149     0094                     	;# 
   150     0095                     	;# 
   151     0096                     	;# 
   152     0097                     	;# 
   153     0098                     	;# 
   154     0099                     	;# 
   155     009A                     	;# 
   156     009B                     	;# 
   157     009B                     	;# 
   158     009C                     	;# 
   159     009D                     	;# 
   160     009E                     	;# 
   161     010C                     	;# 
   162     010D                     	;# 
   163     0111                     	;# 
   164     0112                     	;# 
   165     0113                     	;# 
   166     0114                     	;# 
   167     0115                     	;# 
   168     0116                     	;# 
   169     0117                     	;# 
   170     0118                     	;# 
   171     0119                     	;# 
   172     011A                     	;# 
   173     011B                     	;# 
   174     011D                     	;# 
   175     011E                     	;# 
   176     018C                     	;# 
   177     018D                     	;# 
   178     0191                     	;# 
   179     0191                     	;# 
   180     0192                     	;# 
   181     0193                     	;# 
   182     0193                     	;# 
   183     0193                     	;# 
   184     0194                     	;# 
   185     0195                     	;# 
   186     0196                     	;# 
   187     0199                     	;# 
   188     019A                     	;# 
   189     019B                     	;# 
   190     019B                     	;# 
   191     019B                     	;# 
   192     019B                     	;# 
   193     019C                     	;# 
   194     019C                     	;# 
   195     019D                     	;# 
   196     019E                     	;# 
   197     019F                     	;# 
   198     020C                     	;# 
   199     020D                     	;# 
   200     0211                     	;# 
   201     0211                     	;# 
   202     0212                     	;# 
   203     0212                     	;# 
   204     0213                     	;# 
   205     0213                     	;# 
   206     0214                     	;# 
   207     0214                     	;# 
   208     0215                     	;# 
   209     0215                     	;# 
   210     0215                     	;# 
   211     0216                     	;# 
   212     0216                     	;# 
   213     0217                     	;# 
   214     0217                     	;# 
   215     0219                     	;# 
   216     021A                     	;# 
   217     021B                     	;# 
   218     021C                     	;# 
   219     021D                     	;# 
   220     021E                     	;# 
   221     021F                     	;# 
   222     0291                     	;# 
   223     0291                     	;# 
   224     0292                     	;# 
   225     0293                     	;# 
   226     0294                     	;# 
   227     0295                     	;# 
   228     0295                     	;# 
   229     0296                     	;# 
   230     0298                     	;# 
   231     0298                     	;# 
   232     0299                     	;# 
   233     029A                     	;# 
   234     029B                     	;# 
   235     029C                     	;# 
   236     029C                     	;# 
   237     029D                     	;# 
   238     029E                     	;# 
   239     029E                     	;# 
   240     0311                     	;# 
   241     0311                     	;# 
   242     0312                     	;# 
   243     0313                     	;# 
   244     0318                     	;# 
   245     0318                     	;# 
   246     0319                     	;# 
   247     031A                     	;# 
   248     0394                     	;# 
   249     0395                     	;# 
   250     0396                     	;# 
   251     039A                     	;# 
   252     039C                     	;# 
   253     039D                     	;# 
   254     039E                     	;# 
   255     039F                     	;# 
   256     0415                     	;# 
   257     0416                     	;# 
   258     0417                     	;# 
   259     041C                     	;# 
   260     041D                     	;# 
   261     041E                     	;# 
   262     0FE4                     	;# 
   263     0FE5                     	;# 
   264     0FE6                     	;# 
   265     0FE7                     	;# 
   266     0FE8                     	;# 
   267     0FE9                     	;# 
   268     0FEA                     	;# 
   269     0FEB                     	;# 
   270     0FED                     	;# 
   271     0FEE                     	;# 
   272     0FEF                     	;# 
   273     0000                     	;# 
   274     0001                     	;# 
   275     0002                     	;# 
   276     0003                     	;# 
   277     0004                     	;# 
   278     0005                     	;# 
   279     0006                     	;# 
   280     0007                     	;# 
   281     0008                     	;# 
   282     0009                     	;# 
   283     000A                     	;# 
   284     000B                     	;# 
   285     000C                     	;# 
   286     000D                     	;# 
   287     0011                     	;# 
   288     0012                     	;# 
   289     0013                     	;# 
   290     0014                     	;# 
   291     0015                     	;# 
   292     0016                     	;# 
   293     0016                     	;# 
   294     0017                     	;# 
   295     0018                     	;# 
   296     0019                     	;# 
   297     001A                     	;# 
   298     001B                     	;# 
   299     001C                     	;# 
   300     001E                     	;# 
   301     001F                     	;# 
   302     008C                     	;# 
   303     008D                     	;# 
   304     0091                     	;# 
   305     0092                     	;# 
   306     0093                     	;# 
   307     0094                     	;# 
   308     0095                     	;# 
   309     0096                     	;# 
   310     0097                     	;# 
   311     0098                     	;# 
   312     0099                     	;# 
   313     009A                     	;# 
   314     009B                     	;# 
   315     009B                     	;# 
   316     009C                     	;# 
   317     009D                     	;# 
   318     009E                     	;# 
   319     010C                     	;# 
   320     010D                     	;# 
   321     0111                     	;# 
   322     0112                     	;# 
   323     0113                     	;# 
   324     0114                     	;# 
   325     0115                     	;# 
   326     0116                     	;# 
   327     0117                     	;# 
   328     0118                     	;# 
   329     0119                     	;# 
   330     011A                     	;# 
   331     011B                     	;# 
   332     011D                     	;# 
   333     011E                     	;# 
   334     018C                     	;# 
   335     018D                     	;# 
   336     0191                     	;# 
   337     0191                     	;# 
   338     0192                     	;# 
   339     0193                     	;# 
   340     0193                     	;# 
   341     0193                     	;# 
   342     0194                     	;# 
   343     0195                     	;# 
   344     0196                     	;# 
   345     0199                     	;# 
   346     019A                     	;# 
   347     019B                     	;# 
   348     019B                     	;# 
   349     019B                     	;# 
   350     019B                     	;# 
   351     019C                     	;# 
   352     019C                     	;# 
   353     019D                     	;# 
   354     019E                     	;# 
   355     019F                     	;# 
   356     020C                     	;# 
   357     020D                     	;# 
   358     0211                     	;# 
   359     0211                     	;# 
   360     0212                     	;# 
   361     0212                     	;# 
   362     0213                     	;# 
   363     0213                     	;# 
   364     0214                     	;# 
   365     0214                     	;# 
   366     0215                     	;# 
   367     0215                     	;# 
   368     0215                     	;# 
   369     0216                     	;# 
   370     0216                     	;# 
   371     0217                     	;# 
   372     0217                     	;# 
   373     0219                     	;# 
   374     021A                     	;# 
   375     021B                     	;# 
   376     021C                     	;# 
   377     021D                     	;# 
   378     021E                     	;# 
   379     021F                     	;# 
   380     0291                     	;# 
   381     0291                     	;# 
   382     0292                     	;# 
   383     0293                     	;# 
   384     0294                     	;# 
   385     0295                     	;# 
   386     0295                     	;# 
   387     0296                     	;# 
   388     0298                     	;# 
   389     0298                     	;# 
   390     0299                     	;# 
   391     029A                     	;# 
   392     029B                     	;# 
   393     029C                     	;# 
   394     029C                     	;# 
   395     029D                     	;# 
   396     029E                     	;# 
   397     029E                     	;# 
   398     0311                     	;# 
   399     0311                     	;# 
   400     0312                     	;# 
   401     0313                     	;# 
   402     0318                     	;# 
   403     0318                     	;# 
   404     0319                     	;# 
   405     031A                     	;# 
   406     0394                     	;# 
   407     0395                     	;# 
   408     0396                     	;# 
   409     039A                     	;# 
   410     039C                     	;# 
   411     039D                     	;# 
   412     039E                     	;# 
   413     039F                     	;# 
   414     0415                     	;# 
   415     0416                     	;# 
   416     0417                     	;# 
   417     041C                     	;# 
   418     041D                     	;# 
   419     041E                     	;# 
   420     0FE4                     	;# 
   421     0FE5                     	;# 
   422     0FE6                     	;# 
   423     0FE7                     	;# 
   424     0FE8                     	;# 
   425     0FE9                     	;# 
   426     0FEA                     	;# 
   427     0FEB                     	;# 
   428     0FED                     	;# 
   429     0FEE                     	;# 
   430     0FEF                     	;# 
   431     0000                     	;# 
   432     0001                     	;# 
   433     0002                     	;# 
   434     0003                     	;# 
   435     0004                     	;# 
   436     0005                     	;# 
   437     0006                     	;# 
   438     0007                     	;# 
   439     0008                     	;# 
   440     0009                     	;# 
   441     000A                     	;# 
   442     000B                     	;# 
   443     000C                     	;# 
   444     000D                     	;# 
   445     0011                     	;# 
   446     0012                     	;# 
   447     0013                     	;# 
   448     0014                     	;# 
   449     0015                     	;# 
   450     0016                     	;# 
   451     0016                     	;# 
   452     0017                     	;# 
   453     0018                     	;# 
   454     0019                     	;# 
   455     001A                     	;# 
   456     001B                     	;# 
   457     001C                     	;# 
   458     001E                     	;# 
   459     001F                     	;# 
   460     008C                     	;# 
   461     008D                     	;# 
   462     0091                     	;# 
   463     0092                     	;# 
   464     0093                     	;# 
   465     0094                     	;# 
   466     0095                     	;# 
   467     0096                     	;# 
   468     0097                     	;# 
   469     0098                     	;# 
   470     0099                     	;# 
   471     009A                     	;# 
   472     009B                     	;# 
   473     009B                     	;# 
   474     009C                     	;# 
   475     009D                     	;# 
   476     009E                     	;# 
   477     010C                     	;# 
   478     010D                     	;# 
   479     0111                     	;# 
   480     0112                     	;# 
   481     0113                     	;# 
   482     0114                     	;# 
   483     0115                     	;# 
   484     0116                     	;# 
   485     0117                     	;# 
   486     0118                     	;# 
   487     0119                     	;# 
   488     011A                     	;# 
   489     011B                     	;# 
   490     011D                     	;# 
   491     011E                     	;# 
   492     018C                     	;# 
   493     018D                     	;# 
   494     0191                     	;# 
   495     0191                     	;# 
   496     0192                     	;# 
   497     0193                     	;# 
   498     0193                     	;# 
   499     0193                     	;# 
   500     0194                     	;# 
   501     0195                     	;# 
   502     0196                     	;# 
   503     0199                     	;# 
   504     019A                     	;# 
   505     019B                     	;# 
   506     019B                     	;# 
   507     019B                     	;# 
   508     019B                     	;# 
   509     019C                     	;# 
   510     019C                     	;# 
   511     019D                     	;# 
   512     019E                     	;# 
   513     019F                     	;# 
   514     020C                     	;# 
   515     020D                     	;# 
   516     0211                     	;# 
   517     0211                     	;# 
   518     0212                     	;# 
   519     0212                     	;# 
   520     0213                     	;# 
   521     0213                     	;# 
   522     0214                     	;# 
   523     0214                     	;# 
   524     0215                     	;# 
   525     0215                     	;# 
   526     0215                     	;# 
   527     0216                     	;# 
   528     0216                     	;# 
   529     0217                     	;# 
   530     0217                     	;# 
   531     0219                     	;# 
   532     021A                     	;# 
   533     021B                     	;# 
   534     021C                     	;# 
   535     021D                     	;# 
   536     021E                     	;# 
   537     021F                     	;# 
   538     0291                     	;# 
   539     0291                     	;# 
   540     0292                     	;# 
   541     0293                     	;# 
   542     0294                     	;# 
   543     0295                     	;# 
   544     0295                     	;# 
   545     0296                     	;# 
   546     0298                     	;# 
   547     0298                     	;# 
   548     0299                     	;# 
   549     029A                     	;# 
   550     029B                     	;# 
   551     029C                     	;# 
   552     029C                     	;# 
   553     029D                     	;# 
   554     029E                     	;# 
   555     029E                     	;# 
   556     0311                     	;# 
   557     0311                     	;# 
   558     0312                     	;# 
   559     0313                     	;# 
   560     0318                     	;# 
   561     0318                     	;# 
   562     0319                     	;# 
   563     031A                     	;# 
   564     0394                     	;# 
   565     0395                     	;# 
   566     0396                     	;# 
   567     039A                     	;# 
   568     039C                     	;# 
   569     039D                     	;# 
   570     039E                     	;# 
   571     039F                     	;# 
   572     0415                     	;# 
   573     0416                     	;# 
   574     0417                     	;# 
   575     041C                     	;# 
   576     041D                     	;# 
   577     041E                     	;# 
   578     0FE4                     	;# 
   579     0FE5                     	;# 
   580     0FE6                     	;# 
   581     0FE7                     	;# 
   582     0FE8                     	;# 
   583     0FE9                     	;# 
   584     0FEA                     	;# 
   585     0FEB                     	;# 
   586     0FED                     	;# 
   587     0FEE                     	;# 
   588     0FEF                     	;# 
   589     0000                     	;# 
   590     0001                     	;# 
   591     0002                     	;# 
   592     0003                     	;# 
   593     0004                     	;# 
   594     0005                     	;# 
   595     0006                     	;# 
   596     0007                     	;# 
   597     0008                     	;# 
   598     0009                     	;# 
   599     000A                     	;# 
   600     000B                     	;# 
   601     000C                     	;# 
   602     000D                     	;# 
   603     0011                     	;# 
   604     0012                     	;# 
   605     0013                     	;# 
   606     0014                     	;# 
   607     0015                     	;# 
   608     0016                     	;# 
   609     0016                     	;# 
   610     0017                     	;# 
   611     0018                     	;# 
   612     0019                     	;# 
   613     001A                     	;# 
   614     001B                     	;# 
   615     001C                     	;# 
   616     001E                     	;# 
   617     001F                     	;# 
   618     008C                     	;# 
   619     008D                     	;# 
   620     0091                     	;# 
   621     0092                     	;# 
   622     0093                     	;# 
   623     0094                     	;# 
   624     0095                     	;# 
   625     0096                     	;# 
   626     0097                     	;# 
   627     0098                     	;# 
   628     0099                     	;# 
   629     009A                     	;# 
   630     009B                     	;# 
   631     009B                     	;# 
   632     009C                     	;# 
   633     009D                     	;# 
   634     009E                     	;# 
   635     010C                     	;# 
   636     010D                     	;# 
   637     0111                     	;# 
   638     0112                     	;# 
   639     0113                     	;# 
   640     0114                     	;# 
   641     0115                     	;# 
   642     0116                     	;# 
   643     0117                     	;# 
   644     0118                     	;# 
   645     0119                     	;# 
   646     011A                     	;# 
   647     011B                     	;# 
   648     011D                     	;# 
   649     011E                     	;# 
   650     018C                     	;# 
   651     018D                     	;# 
   652     0191                     	;# 
   653     0191                     	;# 
   654     0192                     	;# 
   655     0193                     	;# 
   656     0193                     	;# 
   657     0193                     	;# 
   658     0194                     	;# 
   659     0195                     	;# 
   660     0196                     	;# 
   661     0199                     	;# 
   662     019A                     	;# 
   663     019B                     	;# 
   664     019B                     	;# 
   665     019B                     	;# 
   666     019B                     	;# 
   667     019C                     	;# 
   668     019C                     	;# 
   669     019D                     	;# 
   670     019E                     	;# 
   671     019F                     	;# 
   672     020C                     	;# 
   673     020D                     	;# 
   674     0211                     	;# 
   675     0211                     	;# 
   676     0212                     	;# 
   677     0212                     	;# 
   678     0213                     	;# 
   679     0213                     	;# 
   680     0214                     	;# 
   681     0214                     	;# 
   682     0215                     	;# 
   683     0215                     	;# 
   684     0215                     	;# 
   685     0216                     	;# 
   686     0216                     	;# 
   687     0217                     	;# 
   688     0217                     	;# 
   689     0219                     	;# 
   690     021A                     	;# 
   691     021B                     	;# 
   692     021C                     	;# 
   693     021D                     	;# 
   694     021E                     	;# 
   695     021F                     	;# 
   696     0291                     	;# 
   697     0291                     	;# 
   698     0292                     	;# 
   699     0293                     	;# 
   700     0294                     	;# 
   701     0295                     	;# 
   702     0295                     	;# 
   703     0296                     	;# 
   704     0298                     	;# 
   705     0298                     	;# 
   706     0299                     	;# 
   707     029A                     	;# 
   708     029B                     	;# 
   709     029C                     	;# 
   710     029C                     	;# 
   711     029D                     	;# 
   712     029E                     	;# 
   713     029E                     	;# 
   714     0311                     	;# 
   715     0311                     	;# 
   716     0312                     	;# 
   717     0313                     	;# 
   718     0318                     	;# 
   719     0318                     	;# 
   720     0319                     	;# 
   721     031A                     	;# 
   722     0394                     	;# 
   723     0395                     	;# 
   724     0396                     	;# 
   725     039A                     	;# 
   726     039C                     	;# 
   727     039D                     	;# 
   728     039E                     	;# 
   729     039F                     	;# 
   730     0415                     	;# 
   731     0416                     	;# 
   732     0417                     	;# 
   733     041C                     	;# 
   734     041D                     	;# 
   735     041E                     	;# 
   736     0FE4                     	;# 
   737     0FE5                     	;# 
   738     0FE6                     	;# 
   739     0FE7                     	;# 
   740     0FE8                     	;# 
   741     0FE9                     	;# 
   742     0FEA                     	;# 
   743     0FEB                     	;# 
   744     0FED                     	;# 
   745     0FEE                     	;# 
   746     0FEF                     	;# 
   747     0000                     	;# 
   748     0001                     	;# 
   749     0002                     	;# 
   750     0003                     	;# 
   751     0004                     	;# 
   752     0005                     	;# 
   753     0006                     	;# 
   754     0007                     	;# 
   755     0008                     	;# 
   756     0009                     	;# 
   757     000A                     	;# 
   758     000B                     	;# 
   759     000C                     	;# 
   760     000D                     	;# 
   761     0011                     	;# 
   762     0012                     	;# 
   763     0013                     	;# 
   764     0014                     	;# 
   765     0015                     	;# 
   766     0016                     	;# 
   767     0016                     	;# 
   768     0017                     	;# 
   769     0018                     	;# 
   770     0019                     	;# 
   771     001A                     	;# 
   772     001B                     	;# 
   773     001C                     	;# 
   774     001E                     	;# 
   775     001F                     	;# 
   776     008C                     	;# 
   777     008D                     	;# 
   778     0091                     	;# 
   779     0092                     	;# 
   780     0093                     	;# 
   781     0094                     	;# 
   782     0095                     	;# 
   783     0096                     	;# 
   784     0097                     	;# 
   785     0098                     	;# 
   786     0099                     	;# 
   787     009A                     	;# 
   788     009B                     	;# 
   789     009B                     	;# 
   790     009C                     	;# 
   791     009D                     	;# 
   792     009E                     	;# 
   793     010C                     	;# 
   794     010D                     	;# 
   795     0111                     	;# 
   796     0112                     	;# 
   797     0113                     	;# 
   798     0114                     	;# 
   799     0115                     	;# 
   800     0116                     	;# 
   801     0117                     	;# 
   802     0118                     	;# 
   803     0119                     	;# 
   804     011A                     	;# 
   805     011B                     	;# 
   806     011D                     	;# 
   807     011E                     	;# 
   808     018C                     	;# 
   809     018D                     	;# 
   810     0191                     	;# 
   811     0191                     	;# 
   812     0192                     	;# 
   813     0193                     	;# 
   814     0193                     	;# 
   815     0193                     	;# 
   816     0194                     	;# 
   817     0195                     	;# 
   818     0196                     	;# 
   819     0199                     	;# 
   820     019A                     	;# 
   821     019B                     	;# 
   822     019B                     	;# 
   823     019B                     	;# 
   824     019B                     	;# 
   825     019C                     	;# 
   826     019C                     	;# 
   827     019D                     	;# 
   828     019E                     	;# 
   829     019F                     	;# 
   830     020C                     	;# 
   831     020D                     	;# 
   832     0211                     	;# 
   833     0211                     	;# 
   834     0212                     	;# 
   835     0212                     	;# 
   836     0213                     	;# 
   837     0213                     	;# 
   838     0214                     	;# 
   839     0214                     	;# 
   840     0215                     	;# 
   841     0215                     	;# 
   842     0215                     	;# 
   843     0216                     	;# 
   844     0216                     	;# 
   845     0217                     	;# 
   846     0217                     	;# 
   847     0219                     	;# 
   848     021A                     	;# 
   849     021B                     	;# 
   850     021C                     	;# 
   851     021D                     	;# 
   852     021E                     	;# 
   853     021F                     	;# 
   854     0291                     	;# 
   855     0291                     	;# 
   856     0292                     	;# 
   857     0293                     	;# 
   858     0294                     	;# 
   859     0295                     	;# 
   860     0295                     	;# 
   861     0296                     	;# 
   862     0298                     	;# 
   863     0298                     	;# 
   864     0299                     	;# 
   865     029A                     	;# 
   866     029B                     	;# 
   867     029C                     	;# 
   868     029C                     	;# 
   869     029D                     	;# 
   870     029E                     	;# 
   871     029E                     	;# 
   872     0311                     	;# 
   873     0311                     	;# 
   874     0312                     	;# 
   875     0313                     	;# 
   876     0318                     	;# 
   877     0318                     	;# 
   878     0319                     	;# 
   879     031A                     	;# 
   880     0394                     	;# 
   881     0395                     	;# 
   882     0396                     	;# 
   883     039A                     	;# 
   884     039C                     	;# 
   885     039D                     	;# 
   886     039E                     	;# 
   887     039F                     	;# 
   888     0415                     	;# 
   889     0416                     	;# 
   890     0417                     	;# 
   891     041C                     	;# 
   892     041D                     	;# 
   893     041E                     	;# 
   894     0FE4                     	;# 
   895     0FE5                     	;# 
   896     0FE6                     	;# 
   897     0FE7                     	;# 
   898     0FE8                     	;# 
   899     0FE9                     	;# 
   900     0FEA                     	;# 
   901     0FEB                     	;# 
   902     0FED                     	;# 
   903     0FEE                     	;# 
   904     0FEF                     	;# 
   905     0000                     	;# 
   906     0001                     	;# 
   907     0002                     	;# 
   908     0003                     	;# 
   909     0004                     	;# 
   910     0005                     	;# 
   911     0006                     	;# 
   912     0007                     	;# 
   913     0008                     	;# 
   914     0009                     	;# 
   915     000A                     	;# 
   916     000B                     	;# 
   917     000C                     	;# 
   918     000D                     	;# 
   919     0011                     	;# 
   920     0012                     	;# 
   921     0013                     	;# 
   922     0014                     	;# 
   923     0015                     	;# 
   924     0016                     	;# 
   925     0016                     	;# 
   926     0017                     	;# 
   927     0018                     	;# 
   928     0019                     	;# 
   929     001A                     	;# 
   930     001B                     	;# 
   931     001C                     	;# 
   932     001E                     	;# 
   933     001F                     	;# 
   934     008C                     	;# 
   935     008D                     	;# 
   936     0091                     	;# 
   937     0092                     	;# 
   938     0093                     	;# 
   939     0094                     	;# 
   940     0095                     	;# 
   941     0096                     	;# 
   942     0097                     	;# 
   943     0098                     	;# 
   944     0099                     	;# 
   945     009A                     	;# 
   946     009B                     	;# 
   947     009B                     	;# 
   948     009C                     	;# 
   949     009D                     	;# 
   950     009E                     	;# 
   951     010C                     	;# 
   952     010D                     	;# 
   953     0111                     	;# 
   954     0112                     	;# 
   955     0113                     	;# 
   956     0114                     	;# 
   957     0115                     	;# 
   958     0116                     	;# 
   959     0117                     	;# 
   960     0118                     	;# 
   961     0119                     	;# 
   962     011A                     	;# 
   963     011B                     	;# 
   964     011D                     	;# 
   965     011E                     	;# 
   966     018C                     	;# 
   967     018D                     	;# 
   968     0191                     	;# 
   969     0191                     	;# 
   970     0192                     	;# 
   971     0193                     	;# 
   972     0193                     	;# 
   973     0193                     	;# 
   974     0194                     	;# 
   975     0195                     	;# 
   976     0196                     	;# 
   977     0199                     	;# 
   978     019A                     	;# 
   979     019B                     	;# 
   980     019B                     	;# 
   981     019B                     	;# 
   982     019B                     	;# 
   983     019C                     	;# 
   984     019C                     	;# 
   985     019D                     	;# 
   986     019E                     	;# 
   987     019F                     	;# 
   988     020C                     	;# 
   989     020D                     	;# 
   990     0211                     	;# 
   991     0211                     	;# 
   992     0212                     	;# 
   993     0212                     	;# 
   994     0213                     	;# 
   995     0213                     	;# 
   996     0214                     	;# 
   997     0214                     	;# 
   998     0215                     	;# 
   999     0215                     	;# 
  1000     0215                     	;# 
  1001     0216                     	;# 
  1002     0216                     	;# 
  1003     0217                     	;# 
  1004     0217                     	;# 
  1005     0219                     	;# 
  1006     021A                     	;# 
  1007     021B                     	;# 
  1008     021C                     	;# 
  1009     021D                     	;# 
  1010     021E                     	;# 
  1011     021F                     	;# 
  1012     0291                     	;# 
  1013     0291                     	;# 
  1014     0292                     	;# 
  1015     0293                     	;# 
  1016     0294                     	;# 
  1017     0295                     	;# 
  1018     0295                     	;# 
  1019     0296                     	;# 
  1020     0298                     	;# 
  1021     0298                     	;# 
  1022     0299                     	;# 
  1023     029A                     	;# 
  1024     029B                     	;# 
  1025     029C                     	;# 
  1026     029C                     	;# 
  1027     029D                     	;# 
  1028     029E                     	;# 
  1029     029E                     	;# 
  1030     0311                     	;# 
  1031     0311                     	;# 
  1032     0312                     	;# 
  1033     0313                     	;# 
  1034     0318                     	;# 
  1035     0318                     	;# 
  1036     0319                     	;# 
  1037     031A                     	;# 
  1038     0394                     	;# 
  1039     0395                     	;# 
  1040     0396                     	;# 
  1041     039A                     	;# 
  1042     039C                     	;# 
  1043     039D                     	;# 
  1044     039E                     	;# 
  1045     039F                     	;# 
  1046     0415                     	;# 
  1047     0416                     	;# 
  1048     0417                     	;# 
  1049     041C                     	;# 
  1050     041D                     	;# 
  1051     041E                     	;# 
  1052     0FE4                     	;# 
  1053     0FE5                     	;# 
  1054     0FE6                     	;# 
  1055     0FE7                     	;# 
  1056     0FE8                     	;# 
  1057     0FE9                     	;# 
  1058     0FEA                     	;# 
  1059     0FEB                     	;# 
  1060     0FED                     	;# 
  1061     0FEE                     	;# 
  1062     0FEF                     	;# 
  1063     0000                     	;# 
  1064     0001                     	;# 
  1065     0002                     	;# 
  1066     0003                     	;# 
  1067     0004                     	;# 
  1068     0005                     	;# 
  1069     0006                     	;# 
  1070     0007                     	;# 
  1071     0008                     	;# 
  1072     0009                     	;# 
  1073     000A                     	;# 
  1074     000B                     	;# 
  1075     000C                     	;# 
  1076     000D                     	;# 
  1077     0011                     	;# 
  1078     0012                     	;# 
  1079     0013                     	;# 
  1080     0014                     	;# 
  1081     0015                     	;# 
  1082     0016                     	;# 
  1083     0016                     	;# 
  1084     0017                     	;# 
  1085     0018                     	;# 
  1086     0019                     	;# 
  1087     001A                     	;# 
  1088     001B                     	;# 
  1089     001C                     	;# 
  1090     001E                     	;# 
  1091     001F                     	;# 
  1092     008C                     	;# 
  1093     008D                     	;# 
  1094     0091                     	;# 
  1095     0092                     	;# 
  1096     0093                     	;# 
  1097     0094                     	;# 
  1098     0095                     	;# 
  1099     0096                     	;# 
  1100     0097                     	;# 
  1101     0098                     	;# 
  1102     0099                     	;# 
  1103     009A                     	;# 
  1104     009B                     	;# 
  1105     009B                     	;# 
  1106     009C                     	;# 
  1107     009D                     	;# 
  1108     009E                     	;# 
  1109     010C                     	;# 
  1110     010D                     	;# 
  1111     0111                     	;# 
  1112     0112                     	;# 
  1113     0113                     	;# 
  1114     0114                     	;# 
  1115     0115                     	;# 
  1116     0116                     	;# 
  1117     0117                     	;# 
  1118     0118                     	;# 
  1119     0119                     	;# 
  1120     011A                     	;# 
  1121     011B                     	;# 
  1122     011D                     	;# 
  1123     011E                     	;# 
  1124     018C                     	;# 
  1125     018D                     	;# 
  1126     0191                     	;# 
  1127     0191                     	;# 
  1128     0192                     	;# 
  1129     0193                     	;# 
  1130     0193                     	;# 
  1131     0193                     	;# 
  1132     0194                     	;# 
  1133     0195                     	;# 
  1134     0196                     	;# 
  1135     0199                     	;# 
  1136     019A                     	;# 
  1137     019B                     	;# 
  1138     019B                     	;# 
  1139     019B                     	;# 
  1140     019B                     	;# 
  1141     019C                     	;# 
  1142     019C                     	;# 
  1143     019D                     	;# 
  1144     019E                     	;# 
  1145     019F                     	;# 
  1146     020C                     	;# 
  1147     020D                     	;# 
  1148     0211                     	;# 
  1149     0211                     	;# 
  1150     0212                     	;# 
  1151     0212                     	;# 
  1152     0213                     	;# 
  1153     0213                     	;# 
  1154     0214                     	;# 
  1155     0214                     	;# 
  1156     0215                     	;# 
  1157     0215                     	;# 
  1158     0215                     	;# 
  1159     0216                     	;# 
  1160     0216                     	;# 
  1161     0217                     	;# 
  1162     0217                     	;# 
  1163     0219                     	;# 
  1164     021A                     	;# 
  1165     021B                     	;# 
  1166     021C                     	;# 
  1167     021D                     	;# 
  1168     021E                     	;# 
  1169     021F                     	;# 
  1170     0291                     	;# 
  1171     0291                     	;# 
  1172     0292                     	;# 
  1173     0293                     	;# 
  1174     0294                     	;# 
  1175     0295                     	;# 
  1176     0295                     	;# 
  1177     0296                     	;# 
  1178     0298                     	;# 
  1179     0298                     	;# 
  1180     0299                     	;# 
  1181     029A                     	;# 
  1182     029B                     	;# 
  1183     029C                     	;# 
  1184     029C                     	;# 
  1185     029D                     	;# 
  1186     029E                     	;# 
  1187     029E                     	;# 
  1188     0311                     	;# 
  1189     0311                     	;# 
  1190     0312                     	;# 
  1191     0313                     	;# 
  1192     0318                     	;# 
  1193     0318                     	;# 
  1194     0319                     	;# 
  1195     031A                     	;# 
  1196     0394                     	;# 
  1197     0395                     	;# 
  1198     0396                     	;# 
  1199     039A                     	;# 
  1200     039C                     	;# 
  1201     039D                     	;# 
  1202     039E                     	;# 
  1203     039F                     	;# 
  1204     0415                     	;# 
  1205     0416                     	;# 
  1206     0417                     	;# 
  1207     041C                     	;# 
  1208     041D                     	;# 
  1209     041E                     	;# 
  1210     0FE4                     	;# 
  1211     0FE5                     	;# 
  1212     0FE6                     	;# 
  1213     0FE7                     	;# 
  1214     0FE8                     	;# 
  1215     0FE9                     	;# 
  1216     0FEA                     	;# 
  1217     0FEB                     	;# 
  1218     0FED                     	;# 
  1219     0FEE                     	;# 
  1220     0FEF                     	;# 
  1221     0000                     	;# 
  1222     0001                     	;# 
  1223     0002                     	;# 
  1224     0003                     	;# 
  1225     0004                     	;# 
  1226     0005                     	;# 
  1227     0006                     	;# 
  1228     0007                     	;# 
  1229     0008                     	;# 
  1230     0009                     	;# 
  1231     000A                     	;# 
  1232     000B                     	;# 
  1233     000C                     	;# 
  1234     000D                     	;# 
  1235     0011                     	;# 
  1236     0012                     	;# 
  1237     0013                     	;# 
  1238     0014                     	;# 
  1239     0015                     	;# 
  1240     0016                     	;# 
  1241     0016                     	;# 
  1242     0017                     	;# 
  1243     0018                     	;# 
  1244     0019                     	;# 
  1245     001A                     	;# 
  1246     001B                     	;# 
  1247     001C                     	;# 
  1248     001E                     	;# 
  1249     001F                     	;# 
  1250     008C                     	;# 
  1251     008D                     	;# 
  1252     0091                     	;# 
  1253     0092                     	;# 
  1254     0093                     	;# 
  1255     0094                     	;# 
  1256     0095                     	;# 
  1257     0096                     	;# 
  1258     0097                     	;# 
  1259     0098                     	;# 
  1260     0099                     	;# 
  1261     009A                     	;# 
  1262     009B                     	;# 
  1263     009B                     	;# 
  1264     009C                     	;# 
  1265     009D                     	;# 
  1266     009E                     	;# 
  1267     010C                     	;# 
  1268     010D                     	;# 
  1269     0111                     	;# 
  1270     0112                     	;# 
  1271     0113                     	;# 
  1272     0114                     	;# 
  1273     0115                     	;# 
  1274     0116                     	;# 
  1275     0117                     	;# 
  1276     0118                     	;# 
  1277     0119                     	;# 
  1278     011A                     	;# 
  1279     011B                     	;# 
  1280     011D                     	;# 
  1281     011E                     	;# 
  1282     018C                     	;# 
  1283     018D                     	;# 
  1284     0191                     	;# 
  1285     0191                     	;# 
  1286     0192                     	;# 
  1287     0193                     	;# 
  1288     0193                     	;# 
  1289     0193                     	;# 
  1290     0194                     	;# 
  1291     0195                     	;# 
  1292     0196                     	;# 
  1293     0199                     	;# 
  1294     019A                     	;# 
  1295     019B                     	;# 
  1296     019B                     	;# 
  1297     019B                     	;# 
  1298     019B                     	;# 
  1299     019C                     	;# 
  1300     019C                     	;# 
  1301     019D                     	;# 
  1302     019E                     	;# 
  1303     019F                     	;# 
  1304     020C                     	;# 
  1305     020D                     	;# 
  1306     0211                     	;# 
  1307     0211                     	;# 
  1308     0212                     	;# 
  1309     0212                     	;# 
  1310     0213                     	;# 
  1311     0213                     	;# 
  1312     0214                     	;# 
  1313     0214                     	;# 
  1314     0215                     	;# 
  1315     0215                     	;# 
  1316     0215                     	;# 
  1317     0216                     	;# 
  1318     0216                     	;# 
  1319     0217                     	;# 
  1320     0217                     	;# 
  1321     0219                     	;# 
  1322     021A                     	;# 
  1323     021B                     	;# 
  1324     021C                     	;# 
  1325     021D                     	;# 
  1326     021E                     	;# 
  1327     021F                     	;# 
  1328     0291                     	;# 
  1329     0291                     	;# 
  1330     0292                     	;# 
  1331     0293                     	;# 
  1332     0294                     	;# 
  1333     0295                     	;# 
  1334     0295                     	;# 
  1335     0296                     	;# 
  1336     0298                     	;# 
  1337     0298                     	;# 
  1338     0299                     	;# 
  1339     029A                     	;# 
  1340     029B                     	;# 
  1341     029C                     	;# 
  1342     029C                     	;# 
  1343     029D                     	;# 
  1344     029E                     	;# 
  1345     029E                     	;# 
  1346     0311                     	;# 
  1347     0311                     	;# 
  1348     0312                     	;# 
  1349     0313                     	;# 
  1350     0318                     	;# 
  1351     0318                     	;# 
  1352     0319                     	;# 
  1353     031A                     	;# 
  1354     0394                     	;# 
  1355     0395                     	;# 
  1356     0396                     	;# 
  1357     039A                     	;# 
  1358     039C                     	;# 
  1359     039D                     	;# 
  1360     039E                     	;# 
  1361     039F                     	;# 
  1362     0415                     	;# 
  1363     0416                     	;# 
  1364     0417                     	;# 
  1365     041C                     	;# 
  1366     041D                     	;# 
  1367     041E                     	;# 
  1368     0FE4                     	;# 
  1369     0FE5                     	;# 
  1370     0FE6                     	;# 
  1371     0FE7                     	;# 
  1372     0FE8                     	;# 
  1373     0FE9                     	;# 
  1374     0FEA                     	;# 
  1375     0FEB                     	;# 
  1376     0FED                     	;# 
  1377     0FEE                     	;# 
  1378     0FEF                     	;# 
  1379     0000                     	;# 
  1380     0001                     	;# 
  1381     0002                     	;# 
  1382     0003                     	;# 
  1383     0004                     	;# 
  1384     0005                     	;# 
  1385     0006                     	;# 
  1386     0007                     	;# 
  1387     0008                     	;# 
  1388     0009                     	;# 
  1389     000A                     	;# 
  1390     000B                     	;# 
  1391     000C                     	;# 
  1392     000D                     	;# 
  1393     0011                     	;# 
  1394     0012                     	;# 
  1395     0013                     	;# 
  1396     0014                     	;# 
  1397     0015                     	;# 
  1398     0016                     	;# 
  1399     0016                     	;# 
  1400     0017                     	;# 
  1401     0018                     	;# 
  1402     0019                     	;# 
  1403     001A                     	;# 
  1404     001B                     	;# 
  1405     001C                     	;# 
  1406     001E                     	;# 
  1407     001F                     	;# 
  1408     008C                     	;# 
  1409     008D                     	;# 
  1410     0091                     	;# 
  1411     0092                     	;# 
  1412     0093                     	;# 
  1413     0094                     	;# 
  1414     0095                     	;# 
  1415     0096                     	;# 
  1416     0097                     	;# 
  1417     0098                     	;# 
  1418     0099                     	;# 
  1419     009A                     	;# 
  1420     009B                     	;# 
  1421     009B                     	;# 
  1422     009C                     	;# 
  1423     009D                     	;# 
  1424     009E                     	;# 
  1425     010C                     	;# 
  1426     010D                     	;# 
  1427     0111                     	;# 
  1428     0112                     	;# 
  1429     0113                     	;# 
  1430     0114                     	;# 
  1431     0115                     	;# 
  1432     0116                     	;# 
  1433     0117                     	;# 
  1434     0118                     	;# 
  1435     0119                     	;# 
  1436     011A                     	;# 
  1437     011B                     	;# 
  1438     011D                     	;# 
  1439     011E                     	;# 
  1440     018C                     	;# 
  1441     018D                     	;# 
  1442     0191                     	;# 
  1443     0191                     	;# 
  1444     0192                     	;# 
  1445     0193                     	;# 
  1446     0193                     	;# 
  1447     0193                     	;# 
  1448     0194                     	;# 
  1449     0195                     	;# 
  1450     0196                     	;# 
  1451     0199                     	;# 
  1452     019A                     	;# 
  1453     019B                     	;# 
  1454     019B                     	;# 
  1455     019B                     	;# 
  1456     019B                     	;# 
  1457     019C                     	;# 
  1458     019C                     	;# 
  1459     019D                     	;# 
  1460     019E                     	;# 
  1461     019F                     	;# 
  1462     020C                     	;# 
  1463     020D                     	;# 
  1464     0211                     	;# 
  1465     0211                     	;# 
  1466     0212                     	;# 
  1467     0212                     	;# 
  1468     0213                     	;# 
  1469     0213                     	;# 
  1470     0214                     	;# 
  1471     0214                     	;# 
  1472     0215                     	;# 
  1473     0215                     	;# 
  1474     0215                     	;# 
  1475     0216                     	;# 
  1476     0216                     	;# 
  1477     0217                     	;# 
  1478     0217                     	;# 
  1479     0219                     	;# 
  1480     021A                     	;# 
  1481     021B                     	;# 
  1482     021C                     	;# 
  1483     021D                     	;# 
  1484     021E                     	;# 
  1485     021F                     	;# 
  1486     0291                     	;# 
  1487     0291                     	;# 
  1488     0292                     	;# 
  1489     0293                     	;# 
  1490     0294                     	;# 
  1491     0295                     	;# 
  1492     0295                     	;# 
  1493     0296                     	;# 
  1494     0298                     	;# 
  1495     0298                     	;# 
  1496     0299                     	;# 
  1497     029A                     	;# 
  1498     029B                     	;# 
  1499     029C                     	;# 
  1500     029C                     	;# 
  1501     029D                     	;# 
  1502     029E                     	;# 
  1503     029E                     	;# 
  1504     0311                     	;# 
  1505     0311                     	;# 
  1506     0312                     	;# 
  1507     0313                     	;# 
  1508     0318                     	;# 
  1509     0318                     	;# 
  1510     0319                     	;# 
  1511     031A                     	;# 
  1512     0394                     	;# 
  1513     0395                     	;# 
  1514     0396                     	;# 
  1515     039A                     	;# 
  1516     039C                     	;# 
  1517     039D                     	;# 
  1518     039E                     	;# 
  1519     039F                     	;# 
  1520     0415                     	;# 
  1521     0416                     	;# 
  1522     0417                     	;# 
  1523     041C                     	;# 
  1524     041D                     	;# 
  1525     041E                     	;# 
  1526     0FE4                     	;# 
  1527     0FE5                     	;# 
  1528     0FE6                     	;# 
  1529     0FE7                     	;# 
  1530     0FE8                     	;# 
  1531     0FE9                     	;# 
  1532     0FEA                     	;# 
  1533     0FEB                     	;# 
  1534     0FED                     	;# 
  1535     0FEE                     	;# 
  1536     0FEF                     	;# 
  1537     0000                     	;# 
  1538     0001                     	;# 
  1539     0002                     	;# 
  1540     0003                     	;# 
  1541     0004                     	;# 
  1542     0005                     	;# 
  1543     0006                     	;# 
  1544     0007                     	;# 
  1545     0008                     	;# 
  1546     0009                     	;# 
  1547     000A                     	;# 
  1548     000B                     	;# 
  1549     000C                     	;# 
  1550     000D                     	;# 
  1551     0011                     	;# 
  1552     0012                     	;# 
  1553     0013                     	;# 
  1554     0014                     	;# 
  1555     0015                     	;# 
  1556     0016                     	;# 
  1557     0016                     	;# 
  1558     0017                     	;# 
  1559     0018                     	;# 
  1560     0019                     	;# 
  1561     001A                     	;# 
  1562     001B                     	;# 
  1563     001C                     	;# 
  1564     001E                     	;# 
  1565     001F                     	;# 
  1566     008C                     	;# 
  1567     008D                     	;# 
  1568     0091                     	;# 
  1569     0092                     	;# 
  1570     0093                     	;# 
  1571     0094                     	;# 
  1572     0095                     	;# 
  1573     0096                     	;# 
  1574     0097                     	;# 
  1575     0098                     	;# 
  1576     0099                     	;# 
  1577     009A                     	;# 
  1578     009B                     	;# 
  1579     009B                     	;# 
  1580     009C                     	;# 
  1581     009D                     	;# 
  1582     009E                     	;# 
  1583     010C                     	;# 
  1584     010D                     	;# 
  1585     0111                     	;# 
  1586     0112                     	;# 
  1587     0113                     	;# 
  1588     0114                     	;# 
  1589     0115                     	;# 
  1590     0116                     	;# 
  1591     0117                     	;# 
  1592     0118                     	;# 
  1593     0119                     	;# 
  1594     011A                     	;# 
  1595     011B                     	;# 
  1596     011D                     	;# 
  1597     011E                     	;# 
  1598     018C                     	;# 
  1599     018D                     	;# 
  1600     0191                     	;# 
  1601     0191                     	;# 
  1602     0192                     	;# 
  1603     0193                     	;# 
  1604     0193                     	;# 
  1605     0193                     	;# 
  1606     0194                     	;# 
  1607     0195                     	;# 
  1608     0196                     	;# 
  1609     0199                     	;# 
  1610     019A                     	;# 
  1611     019B                     	;# 
  1612     019B                     	;# 
  1613     019B                     	;# 
  1614     019B                     	;# 
  1615     019C                     	;# 
  1616     019C                     	;# 
  1617     019D                     	;# 
  1618     019E                     	;# 
  1619     019F                     	;# 
  1620     020C                     	;# 
  1621     020D                     	;# 
  1622     0211                     	;# 
  1623     0211                     	;# 
  1624     0212                     	;# 
  1625     0212                     	;# 
  1626     0213                     	;# 
  1627     0213                     	;# 
  1628     0214                     	;# 
  1629     0214                     	;# 
  1630     0215                     	;# 
  1631     0215                     	;# 
  1632     0215                     	;# 
  1633     0216                     	;# 
  1634     0216                     	;# 
  1635     0217                     	;# 
  1636     0217                     	;# 
  1637     0219                     	;# 
  1638     021A                     	;# 
  1639     021B                     	;# 
  1640     021C                     	;# 
  1641     021D                     	;# 
  1642     021E                     	;# 
  1643     021F                     	;# 
  1644     0291                     	;# 
  1645     0291                     	;# 
  1646     0292                     	;# 
  1647     0293                     	;# 
  1648     0294                     	;# 
  1649     0295                     	;# 
  1650     0295                     	;# 
  1651     0296                     	;# 
  1652     0298                     	;# 
  1653     0298                     	;# 
  1654     0299                     	;# 
  1655     029A                     	;# 
  1656     029B                     	;# 
  1657     029C                     	;# 
  1658     029C                     	;# 
  1659     029D                     	;# 
  1660     029E                     	;# 
  1661     029E                     	;# 
  1662     0311                     	;# 
  1663     0311                     	;# 
  1664     0312                     	;# 
  1665     0313                     	;# 
  1666     0318                     	;# 
  1667     0318                     	;# 
  1668     0319                     	;# 
  1669     031A                     	;# 
  1670     0394                     	;# 
  1671     0395                     	;# 
  1672     0396                     	;# 
  1673     039A                     	;# 
  1674     039C                     	;# 
  1675     039D                     	;# 
  1676     039E                     	;# 
  1677     039F                     	;# 
  1678     0415                     	;# 
  1679     0416                     	;# 
  1680     0417                     	;# 
  1681     041C                     	;# 
  1682     041D                     	;# 
  1683     041E                     	;# 
  1684     0FE4                     	;# 
  1685     0FE5                     	;# 
  1686     0FE6                     	;# 
  1687     0FE7                     	;# 
  1688     0FE8                     	;# 
  1689     0FE9                     	;# 
  1690     0FEA                     	;# 
  1691     0FEB                     	;# 
  1692     0FED                     	;# 
  1693     0FEE                     	;# 
  1694     0FEF                     	;# 
  1695     0000                     	;# 
  1696     0001                     	;# 
  1697     0002                     	;# 
  1698     0003                     	;# 
  1699     0004                     	;# 
  1700     0005                     	;# 
  1701     0006                     	;# 
  1702     0007                     	;# 
  1703     0008                     	;# 
  1704     0009                     	;# 
  1705     000A                     	;# 
  1706     000B                     	;# 
  1707     000C                     	;# 
  1708     000D                     	;# 
  1709     0011                     	;# 
  1710     0012                     	;# 
  1711     0013                     	;# 
  1712     0014                     	;# 
  1713     0015                     	;# 
  1714     0016                     	;# 
  1715     0016                     	;# 
  1716     0017                     	;# 
  1717     0018                     	;# 
  1718     0019                     	;# 
  1719     001A                     	;# 
  1720     001B                     	;# 
  1721     001C                     	;# 
  1722     001E                     	;# 
  1723     001F                     	;# 
  1724     008C                     	;# 
  1725     008D                     	;# 
  1726     0091                     	;# 
  1727     0092                     	;# 
  1728     0093                     	;# 
  1729     0094                     	;# 
  1730     0095                     	;# 
  1731     0096                     	;# 
  1732     0097                     	;# 
  1733     0098                     	;# 
  1734     0099                     	;# 
  1735     009A                     	;# 
  1736     009B                     	;# 
  1737     009B                     	;# 
  1738     009C                     	;# 
  1739     009D                     	;# 
  1740     009E                     	;# 
  1741     010C                     	;# 
  1742     010D                     	;# 
  1743     0111                     	;# 
  1744     0112                     	;# 
  1745     0113                     	;# 
  1746     0114                     	;# 
  1747     0115                     	;# 
  1748     0116                     	;# 
  1749     0117                     	;# 
  1750     0118                     	;# 
  1751     0119                     	;# 
  1752     011A                     	;# 
  1753     011B                     	;# 
  1754     011D                     	;# 
  1755     011E                     	;# 
  1756     018C                     	;# 
  1757     018D                     	;# 
  1758     0191                     	;# 
  1759     0191                     	;# 
  1760     0192                     	;# 
  1761     0193                     	;# 
  1762     0193                     	;# 
  1763     0193                     	;# 
  1764     0194                     	;# 
  1765     0195                     	;# 
  1766     0196                     	;# 
  1767     0199                     	;# 
  1768     019A                     	;# 
  1769     019B                     	;# 
  1770     019B                     	;# 
  1771     019B                     	;# 
  1772     019B                     	;# 
  1773     019C                     	;# 
  1774     019C                     	;# 
  1775     019D                     	;# 
  1776     019E                     	;# 
  1777     019F                     	;# 
  1778     020C                     	;# 
  1779     020D                     	;# 
  1780     0211                     	;# 
  1781     0211                     	;# 
  1782     0212                     	;# 
  1783     0212                     	;# 
  1784     0213                     	;# 
  1785     0213                     	;# 
  1786     0214                     	;# 
  1787     0214                     	;# 
  1788     0215                     	;# 
  1789     0215                     	;# 
  1790     0215                     	;# 
  1791     0216                     	;# 
  1792     0216                     	;# 
  1793     0217                     	;# 
  1794     0217                     	;# 
  1795     0219                     	;# 
  1796     021A                     	;# 
  1797     021B                     	;# 
  1798     021C                     	;# 
  1799     021D                     	;# 
  1800     021E                     	;# 
  1801     021F                     	;# 
  1802     0291                     	;# 
  1803     0291                     	;# 
  1804     0292                     	;# 
  1805     0293                     	;# 
  1806     0294                     	;# 
  1807     0295                     	;# 
  1808     0295                     	;# 
  1809     0296                     	;# 
  1810     0298                     	;# 
  1811     0298                     	;# 
  1812     0299                     	;# 
  1813     029A                     	;# 
  1814     029B                     	;# 
  1815     029C                     	;# 
  1816     029C                     	;# 
  1817     029D                     	;# 
  1818     029E                     	;# 
  1819     029E                     	;# 
  1820     0311                     	;# 
  1821     0311                     	;# 
  1822     0312                     	;# 
  1823     0313                     	;# 
  1824     0318                     	;# 
  1825     0318                     	;# 
  1826     0319                     	;# 
  1827     031A                     	;# 
  1828     0394                     	;# 
  1829     0395                     	;# 
  1830     0396                     	;# 
  1831     039A                     	;# 
  1832     039C                     	;# 
  1833     039D                     	;# 
  1834     039E                     	;# 
  1835     039F                     	;# 
  1836     0415                     	;# 
  1837     0416                     	;# 
  1838     0417                     	;# 
  1839     041C                     	;# 
  1840     041D                     	;# 
  1841     041E                     	;# 
  1842     0FE4                     	;# 
  1843     0FE5                     	;# 
  1844     0FE6                     	;# 
  1845     0FE7                     	;# 
  1846     0FE8                     	;# 
  1847     0FE9                     	;# 
  1848     0FEA                     	;# 
  1849     0FEB                     	;# 
  1850     0FED                     	;# 
  1851     0FEE                     	;# 
  1852     0FEF                     	;# 
  1853     0000                     	;# 
  1854     0001                     	;# 
  1855     0002                     	;# 
  1856     0003                     	;# 
  1857     0004                     	;# 
  1858     0005                     	;# 
  1859     0006                     	;# 
  1860     0007                     	;# 
  1861     0008                     	;# 
  1862     0009                     	;# 
  1863     000A                     	;# 
  1864     000B                     	;# 
  1865     000C                     	;# 
  1866     000D                     	;# 
  1867     0011                     	;# 
  1868     0012                     	;# 
  1869     0013                     	;# 
  1870     0014                     	;# 
  1871     0015                     	;# 
  1872     0016                     	;# 
  1873     0016                     	;# 
  1874     0017                     	;# 
  1875     0018                     	;# 
  1876     0019                     	;# 
  1877     001A                     	;# 
  1878     001B                     	;# 
  1879     001C                     	;# 
  1880     001E                     	;# 
  1881     001F                     	;# 
  1882     008C                     	;# 
  1883     008D                     	;# 
  1884     0091                     	;# 
  1885     0092                     	;# 
  1886     0093                     	;# 
  1887     0094                     	;# 
  1888     0095                     	;# 
  1889     0096                     	;# 
  1890     0097                     	;# 
  1891     0098                     	;# 
  1892     0099                     	;# 
  1893     009A                     	;# 
  1894     009B                     	;# 
  1895     009B                     	;# 
  1896     009C                     	;# 
  1897     009D                     	;# 
  1898     009E                     	;# 
  1899     010C                     	;# 
  1900     010D                     	;# 
  1901     0111                     	;# 
  1902     0112                     	;# 
  1903     0113                     	;# 
  1904     0114                     	;# 
  1905     0115                     	;# 
  1906     0116                     	;# 
  1907     0117                     	;# 
  1908     0118                     	;# 
  1909     0119                     	;# 
  1910     011A                     	;# 
  1911     011B                     	;# 
  1912     011D                     	;# 
  1913     011E                     	;# 
  1914     018C                     	;# 
  1915     018D                     	;# 
  1916     0191                     	;# 
  1917     0191                     	;# 
  1918     0192                     	;# 
  1919     0193                     	;# 
  1920     0193                     	;# 
  1921     0193                     	;# 
  1922     0194                     	;# 
  1923     0195                     	;# 
  1924     0196                     	;# 
  1925     0199                     	;# 
  1926     019A                     	;# 
  1927     019B                     	;# 
  1928     019B                     	;# 
  1929     019B                     	;# 
  1930     019B                     	;# 
  1931     019C                     	;# 
  1932     019C                     	;# 
  1933     019D                     	;# 
  1934     019E                     	;# 
  1935     019F                     	;# 
  1936     020C                     	;# 
  1937     020D                     	;# 
  1938     0211                     	;# 
  1939     0211                     	;# 
  1940     0212                     	;# 
  1941     0212                     	;# 
  1942     0213                     	;# 
  1943     0213                     	;# 
  1944     0214                     	;# 
  1945     0214                     	;# 
  1946     0215                     	;# 
  1947     0215                     	;# 
  1948     0215                     	;# 
  1949     0216                     	;# 
  1950     0216                     	;# 
  1951     0217                     	;# 
  1952     0217                     	;# 
  1953     0219                     	;# 
  1954     021A                     	;# 
  1955     021B                     	;# 
  1956     021C                     	;# 
  1957     021D                     	;# 
  1958     021E                     	;# 
  1959     021F                     	;# 
  1960     0291                     	;# 
  1961     0291                     	;# 
  1962     0292                     	;# 
  1963     0293                     	;# 
  1964     0294                     	;# 
  1965     0295                     	;# 
  1966     0295                     	;# 
  1967     0296                     	;# 
  1968     0298                     	;# 
  1969     0298                     	;# 
  1970     0299                     	;# 
  1971     029A                     	;# 
  1972     029B                     	;# 
  1973     029C                     	;# 
  1974     029C                     	;# 
  1975     029D                     	;# 
  1976     029E                     	;# 
  1977     029E                     	;# 
  1978     0311                     	;# 
  1979     0311                     	;# 
  1980     0312                     	;# 
  1981     0313                     	;# 
  1982     0318                     	;# 
  1983     0318                     	;# 
  1984     0319                     	;# 
  1985     031A                     	;# 
  1986     0394                     	;# 
  1987     0395                     	;# 
  1988     0396                     	;# 
  1989     039A                     	;# 
  1990     039C                     	;# 
  1991     039D                     	;# 
  1992     039E                     	;# 
  1993     039F                     	;# 
  1994     0415                     	;# 
  1995     0416                     	;# 
  1996     0417                     	;# 
  1997     041C                     	;# 
  1998     041D                     	;# 
  1999     041E                     	;# 
  2000     0FE4                     	;# 
  2001     0FE5                     	;# 
  2002     0FE6                     	;# 
  2003     0FE7                     	;# 
  2004     0FE8                     	;# 
  2005     0FE9                     	;# 
  2006     0FEA                     	;# 
  2007     0FEB                     	;# 
  2008     0FED                     	;# 
  2009     0FEE                     	;# 
  2010     0FEF                     	;# 
  2011     0000                     	;# 
  2012     0001                     	;# 
  2013     0002                     	;# 
  2014     0003                     	;# 
  2015     0004                     	;# 
  2016     0005                     	;# 
  2017     0006                     	;# 
  2018     0007                     	;# 
  2019     0008                     	;# 
  2020     0009                     	;# 
  2021     000A                     	;# 
  2022     000B                     	;# 
  2023     000C                     	;# 
  2024     000D                     	;# 
  2025     0011                     	;# 
  2026     0012                     	;# 
  2027     0013                     	;# 
  2028     0014                     	;# 
  2029     0015                     	;# 
  2030     0016                     	;# 
  2031     0016                     	;# 
  2032     0017                     	;# 
  2033     0018                     	;# 
  2034     0019                     	;# 
  2035     001A                     	;# 
  2036     001B                     	;# 
  2037     001C                     	;# 
  2038     001E                     	;# 
  2039     001F                     	;# 
  2040     008C                     	;# 
  2041     008D                     	;# 
  2042     0091                     	;# 
  2043     0092                     	;# 
  2044     0093                     	;# 
  2045     0094                     	;# 
  2046     0095                     	;# 
  2047     0096                     	;# 
  2048     0097                     	;# 
  2049     0098                     	;# 
  2050     0099                     	;# 
  2051     009A                     	;# 
  2052     009B                     	;# 
  2053     009B                     	;# 
  2054     009C                     	;# 
  2055     009D                     	;# 
  2056     009E                     	;# 
  2057     010C                     	;# 
  2058     010D                     	;# 
  2059     0111                     	;# 
  2060     0112                     	;# 
  2061     0113                     	;# 
  2062     0114                     	;# 
  2063     0115                     	;# 
  2064     0116                     	;# 
  2065     0117                     	;# 
  2066     0118                     	;# 
  2067     0119                     	;# 
  2068     011A                     	;# 
  2069     011B                     	;# 
  2070     011D                     	;# 
  2071     011E                     	;# 
  2072     018C                     	;# 
  2073     018D                     	;# 
  2074     0191                     	;# 
  2075     0191                     	;# 
  2076     0192                     	;# 
  2077     0193                     	;# 
  2078     0193                     	;# 
  2079     0193                     	;# 
  2080     0194                     	;# 
  2081     0195                     	;# 
  2082     0196                     	;# 
  2083     0199                     	;# 
  2084     019A                     	;# 
  2085     019B                     	;# 
  2086     019B                     	;# 
  2087     019B                     	;# 
  2088     019B                     	;# 
  2089     019C                     	;# 
  2090     019C                     	;# 
  2091     019D                     	;# 
  2092     019E                     	;# 
  2093     019F                     	;# 
  2094     020C                     	;# 
  2095     020D                     	;# 
  2096     0211                     	;# 
  2097     0211                     	;# 
  2098     0212                     	;# 
  2099     0212                     	;# 
  2100     0213                     	;# 
  2101     0213                     	;# 
  2102     0214                     	;# 
  2103     0214                     	;# 
  2104     0215                     	;# 
  2105     0215                     	;# 
  2106     0215                     	;# 
  2107     0216                     	;# 
  2108     0216                     	;# 
  2109     0217                     	;# 
  2110     0217                     	;# 
  2111     0219                     	;# 
  2112     021A                     	;# 
  2113     021B                     	;# 
  2114     021C                     	;# 
  2115     021D                     	;# 
  2116     021E                     	;# 
  2117     021F                     	;# 
  2118     0291                     	;# 
  2119     0291                     	;# 
  2120     0292                     	;# 
  2121     0293                     	;# 
  2122     0294                     	;# 
  2123     0295                     	;# 
  2124     0295                     	;# 
  2125     0296                     	;# 
  2126     0298                     	;# 
  2127     0298                     	;# 
  2128     0299                     	;# 
  2129     029A                     	;# 
  2130     029B                     	;# 
  2131     029C                     	;# 
  2132     029C                     	;# 
  2133     029D                     	;# 
  2134     029E                     	;# 
  2135     029E                     	;# 
  2136     0311                     	;# 
  2137     0311                     	;# 
  2138     0312                     	;# 
  2139     0313                     	;# 
  2140     0318                     	;# 
  2141     0318                     	;# 
  2142     0319                     	;# 
  2143     031A                     	;# 
  2144     0394                     	;# 
  2145     0395                     	;# 
  2146     0396                     	;# 
  2147     039A                     	;# 
  2148     039C                     	;# 
  2149     039D                     	;# 
  2150     039E                     	;# 
  2151     039F                     	;# 
  2152     0415                     	;# 
  2153     0416                     	;# 
  2154     0417                     	;# 
  2155     041C                     	;# 
  2156     041D                     	;# 
  2157     041E                     	;# 
  2158     0FE4                     	;# 
  2159     0FE5                     	;# 
  2160     0FE6                     	;# 
  2161     0FE7                     	;# 
  2162     0FE8                     	;# 
  2163     0FE9                     	;# 
  2164     0FEA                     	;# 
  2165     0FEB                     	;# 
  2166     0FED                     	;# 
  2167     0FEE                     	;# 
  2168     0FEF                     	;# 
  2169     0000                     	;# 
  2170     0001                     	;# 
  2171     0002                     	;# 
  2172     0003                     	;# 
  2173     0004                     	;# 
  2174     0005                     	;# 
  2175     0006                     	;# 
  2176     0007                     	;# 
  2177     0008                     	;# 
  2178     0009                     	;# 
  2179     000A                     	;# 
  2180     000B                     	;# 
  2181     000C                     	;# 
  2182     000D                     	;# 
  2183     0011                     	;# 
  2184     0012                     	;# 
  2185     0013                     	;# 
  2186     0014                     	;# 
  2187     0015                     	;# 
  2188     0016                     	;# 
  2189     0016                     	;# 
  2190     0017                     	;# 
  2191     0018                     	;# 
  2192     0019                     	;# 
  2193     001A                     	;# 
  2194     001B                     	;# 
  2195     001C                     	;# 
  2196     001E                     	;# 
  2197     001F                     	;# 
  2198     008C                     	;# 
  2199     008D                     	;# 
  2200     0091                     	;# 
  2201     0092                     	;# 
  2202     0093                     	;# 
  2203     0094                     	;# 
  2204     0095                     	;# 
  2205     0096                     	;# 
  2206     0097                     	;# 
  2207     0098                     	;# 
  2208     0099                     	;# 
  2209     009A                     	;# 
  2210     009B                     	;# 
  2211     009B                     	;# 
  2212     009C                     	;# 
  2213     009D                     	;# 
  2214     009E                     	;# 
  2215     010C                     	;# 
  2216     010D                     	;# 
  2217     0111                     	;# 
  2218     0112                     	;# 
  2219     0113                     	;# 
  2220     0114                     	;# 
  2221     0115                     	;# 
  2222     0116                     	;# 
  2223     0117                     	;# 
  2224     0118                     	;# 
  2225     0119                     	;# 
  2226     011A                     	;# 
  2227     011B                     	;# 
  2228     011D                     	;# 
  2229     011E                     	;# 
  2230     018C                     	;# 
  2231     018D                     	;# 
  2232     0191                     	;# 
  2233     0191                     	;# 
  2234     0192                     	;# 
  2235     0193                     	;# 
  2236     0193                     	;# 
  2237     0193                     	;# 
  2238     0194                     	;# 
  2239     0195                     	;# 
  2240     0196                     	;# 
  2241     0199                     	;# 
  2242     019A                     	;# 
  2243     019B                     	;# 
  2244     019B                     	;# 
  2245     019B                     	;# 
  2246     019B                     	;# 
  2247     019C                     	;# 
  2248     019C                     	;# 
  2249     019D                     	;# 
  2250     019E                     	;# 
  2251     019F                     	;# 
  2252     020C                     	;# 
  2253     020D                     	;# 
  2254     0211                     	;# 
  2255     0211                     	;# 
  2256     0212                     	;# 
  2257     0212                     	;# 
  2258     0213                     	;# 
  2259     0213                     	;# 
  2260     0214                     	;# 
  2261     0214                     	;# 
  2262     0215                     	;# 
  2263     0215                     	;# 
  2264     0215                     	;# 
  2265     0216                     	;# 
  2266     0216                     	;# 
  2267     0217                     	;# 
  2268     0217                     	;# 
  2269     0219                     	;# 
  2270     021A                     	;# 
  2271     021B                     	;# 
  2272     021C                     	;# 
  2273     021D                     	;# 
  2274     021E                     	;# 
  2275     021F                     	;# 
  2276     0291                     	;# 
  2277     0291                     	;# 
  2278     0292                     	;# 
  2279     0293                     	;# 
  2280     0294                     	;# 
  2281     0295                     	;# 
  2282     0295                     	;# 
  2283     0296                     	;# 
  2284     0298                     	;# 
  2285     0298                     	;# 
  2286     0299                     	;# 
  2287     029A                     	;# 
  2288     029B                     	;# 
  2289     029C                     	;# 
  2290     029C                     	;# 
  2291     029D                     	;# 
  2292     029E                     	;# 
  2293     029E                     	;# 
  2294     0311                     	;# 
  2295     0311                     	;# 
  2296     0312                     	;# 
  2297     0313                     	;# 
  2298     0318                     	;# 
  2299     0318                     	;# 
  2300     0319                     	;# 
  2301     031A                     	;# 
  2302     0394                     	;# 
  2303     0395                     	;# 
  2304     0396                     	;# 
  2305     039A                     	;# 
  2306     039C                     	;# 
  2307     039D                     	;# 
  2308     039E                     	;# 
  2309     039F                     	;# 
  2310     0415                     	;# 
  2311     0416                     	;# 
  2312     0417                     	;# 
  2313     041C                     	;# 
  2314     041D                     	;# 
  2315     041E                     	;# 
  2316     0FE4                     	;# 
  2317     0FE5                     	;# 
  2318     0FE6                     	;# 
  2319     0FE7                     	;# 
  2320     0FE8                     	;# 
  2321     0FE9                     	;# 
  2322     0FEA                     	;# 
  2323     0FEB                     	;# 
  2324     0FED                     	;# 
  2325     0FEE                     	;# 
  2326     0FEF                     	;# 
  2327     0000                     	;# 
  2328     0001                     	;# 
  2329     0002                     	;# 
  2330     0003                     	;# 
  2331     0004                     	;# 
  2332     0005                     	;# 
  2333     0006                     	;# 
  2334     0007                     	;# 
  2335     0008                     	;# 
  2336     0009                     	;# 
  2337     000A                     	;# 
  2338     000B                     	;# 
  2339     000C                     	;# 
  2340     000D                     	;# 
  2341     0011                     	;# 
  2342     0012                     	;# 
  2343     0013                     	;# 
  2344     0014                     	;# 
  2345     0015                     	;# 
  2346     0016                     	;# 
  2347     0016                     	;# 
  2348     0017                     	;# 
  2349     0018                     	;# 
  2350     0019                     	;# 
  2351     001A                     	;# 
  2352     001B                     	;# 
  2353     001C                     	;# 
  2354     001E                     	;# 
  2355     001F                     	;# 
  2356     008C                     	;# 
  2357     008D                     	;# 
  2358     0091                     	;# 
  2359     0092                     	;# 
  2360     0093                     	;# 
  2361     0094                     	;# 
  2362     0095                     	;# 
  2363     0096                     	;# 
  2364     0097                     	;# 
  2365     0098                     	;# 
  2366     0099                     	;# 
  2367     009A                     	;# 
  2368     009B                     	;# 
  2369     009B                     	;# 
  2370     009C                     	;# 
  2371     009D                     	;# 
  2372     009E                     	;# 
  2373     010C                     	;# 
  2374     010D                     	;# 
  2375     0111                     	;# 
  2376     0112                     	;# 
  2377     0113                     	;# 
  2378     0114                     	;# 
  2379     0115                     	;# 
  2380     0116                     	;# 
  2381     0117                     	;# 
  2382     0118                     	;# 
  2383     0119                     	;# 
  2384     011A                     	;# 
  2385     011B                     	;# 
  2386     011D                     	;# 
  2387     011E                     	;# 
  2388     018C                     	;# 
  2389     018D                     	;# 
  2390     0191                     	;# 
  2391     0191                     	;# 
  2392     0192                     	;# 
  2393     0193                     	;# 
  2394     0193                     	;# 
  2395     0193                     	;# 
  2396     0194                     	;# 
  2397     0195                     	;# 
  2398     0196                     	;# 
  2399     0199                     	;# 
  2400     019A                     	;# 
  2401     019B                     	;# 
  2402     019B                     	;# 
  2403     019B                     	;# 
  2404     019B                     	;# 
  2405     019C                     	;# 
  2406     019C                     	;# 
  2407     019D                     	;# 
  2408     019E                     	;# 
  2409     019F                     	;# 
  2410     020C                     	;# 
  2411     020D                     	;# 
  2412     0211                     	;# 
  2413     0211                     	;# 
  2414     0212                     	;# 
  2415     0212                     	;# 
  2416     0213                     	;# 
  2417     0213                     	;# 
  2418     0214                     	;# 
  2419     0214                     	;# 
  2420     0215                     	;# 
  2421     0215                     	;# 
  2422     0215                     	;# 
  2423     0216                     	;# 
  2424     0216                     	;# 
  2425     0217                     	;# 
  2426     0217                     	;# 
  2427     0219                     	;# 
  2428     021A                     	;# 
  2429     021B                     	;# 
  2430     021C                     	;# 
  2431     021D                     	;# 
  2432     021E                     	;# 
  2433     021F                     	;# 
  2434     0291                     	;# 
  2435     0291                     	;# 
  2436     0292                     	;# 
  2437     0293                     	;# 
  2438     0294                     	;# 
  2439     0295                     	;# 
  2440     0295                     	;# 
  2441     0296                     	;# 
  2442     0298                     	;# 
  2443     0298                     	;# 
  2444     0299                     	;# 
  2445     029A                     	;# 
  2446     029B                     	;# 
  2447     029C                     	;# 
  2448     029C                     	;# 
  2449     029D                     	;# 
  2450     029E                     	;# 
  2451     029E                     	;# 
  2452     0311                     	;# 
  2453     0311                     	;# 
  2454     0312                     	;# 
  2455     0313                     	;# 
  2456     0318                     	;# 
  2457     0318                     	;# 
  2458     0319                     	;# 
  2459     031A                     	;# 
  2460     0394                     	;# 
  2461     0395                     	;# 
  2462     0396                     	;# 
  2463     039A                     	;# 
  2464     039C                     	;# 
  2465     039D                     	;# 
  2466     039E                     	;# 
  2467     039F                     	;# 
  2468     0415                     	;# 
  2469     0416                     	;# 
  2470     0417                     	;# 
  2471     041C                     	;# 
  2472     041D                     	;# 
  2473     041E                     	;# 
  2474     0FE4                     	;# 
  2475     0FE5                     	;# 
  2476     0FE6                     	;# 
  2477     0FE7                     	;# 
  2478     0FE8                     	;# 
  2479     0FE9                     	;# 
  2480     0FEA                     	;# 
  2481     0FEB                     	;# 
  2482     0FED                     	;# 
  2483     0FEE                     	;# 
  2484     0FEF                     	;# 
  2485     0000                     	;# 
  2486     0001                     	;# 
  2487     0002                     	;# 
  2488     0003                     	;# 
  2489     0004                     	;# 
  2490     0005                     	;# 
  2491     0006                     	;# 
  2492     0007                     	;# 
  2493     0008                     	;# 
  2494     0009                     	;# 
  2495     000A                     	;# 
  2496     000B                     	;# 
  2497     000C                     	;# 
  2498     000D                     	;# 
  2499     0011                     	;# 
  2500     0012                     	;# 
  2501     0013                     	;# 
  2502     0014                     	;# 
  2503     0015                     	;# 
  2504     0016                     	;# 
  2505     0016                     	;# 
  2506     0017                     	;# 
  2507     0018                     	;# 
  2508     0019                     	;# 
  2509     001A                     	;# 
  2510     001B                     	;# 
  2511     001C                     	;# 
  2512     001E                     	;# 
  2513     001F                     	;# 
  2514     008C                     	;# 
  2515     008D                     	;# 
  2516     0091                     	;# 
  2517     0092                     	;# 
  2518     0093                     	;# 
  2519     0094                     	;# 
  2520     0095                     	;# 
  2521     0096                     	;# 
  2522     0097                     	;# 
  2523     0098                     	;# 
  2524     0099                     	;# 
  2525     009A                     	;# 
  2526     009B                     	;# 
  2527     009B                     	;# 
  2528     009C                     	;# 
  2529     009D                     	;# 
  2530     009E                     	;# 
  2531     010C                     	;# 
  2532     010D                     	;# 
  2533     0111                     	;# 
  2534     0112                     	;# 
  2535     0113                     	;# 
  2536     0114                     	;# 
  2537     0115                     	;# 
  2538     0116                     	;# 
  2539     0117                     	;# 
  2540     0118                     	;# 
  2541     0119                     	;# 
  2542     011A                     	;# 
  2543     011B                     	;# 
  2544     011D                     	;# 
  2545     011E                     	;# 
  2546     018C                     	;# 
  2547     018D                     	;# 
  2548     0191                     	;# 
  2549     0191                     	;# 
  2550     0192                     	;# 
  2551     0193                     	;# 
  2552     0193                     	;# 
  2553     0193                     	;# 
  2554     0194                     	;# 
  2555     0195                     	;# 
  2556     0196                     	;# 
  2557     0199                     	;# 
  2558     019A                     	;# 
  2559     019B                     	;# 
  2560     019B                     	;# 
  2561     019B                     	;# 
  2562     019B                     	;# 
  2563     019C                     	;# 
  2564     019C                     	;# 
  2565     019D                     	;# 
  2566     019E                     	;# 
  2567     019F                     	;# 
  2568     020C                     	;# 
  2569     020D                     	;# 
  2570     0211                     	;# 
  2571     0211                     	;# 
  2572     0212                     	;# 
  2573     0212                     	;# 
  2574     0213                     	;# 
  2575     0213                     	;# 
  2576     0214                     	;# 
  2577     0214                     	;# 
  2578     0215                     	;# 
  2579     0215                     	;# 
  2580     0215                     	;# 
  2581     0216                     	;# 
  2582     0216                     	;# 
  2583     0217                     	;# 
  2584     0217                     	;# 
  2585     0219                     	;# 
  2586     021A                     	;# 
  2587     021B                     	;# 
  2588     021C                     	;# 
  2589     021D                     	;# 
  2590     021E                     	;# 
  2591     021F                     	;# 
  2592     0291                     	;# 
  2593     0291                     	;# 
  2594     0292                     	;# 
  2595     0293                     	;# 
  2596     0294                     	;# 
  2597     0295                     	;# 
  2598     0295                     	;# 
  2599     0296                     	;# 
  2600     0298                     	;# 
  2601     0298                     	;# 
  2602     0299                     	;# 
  2603     029A                     	;# 
  2604     029B                     	;# 
  2605     029C                     	;# 
  2606     029C                     	;# 
  2607     029D                     	;# 
  2608     029E                     	;# 
  2609     029E                     	;# 
  2610     0311                     	;# 
  2611     0311                     	;# 
  2612     0312                     	;# 
  2613     0313                     	;# 
  2614     0318                     	;# 
  2615     0318                     	;# 
  2616     0319                     	;# 
  2617     031A                     	;# 
  2618     0394                     	;# 
  2619     0395                     	;# 
  2620     0396                     	;# 
  2621     039A                     	;# 
  2622     039C                     	;# 
  2623     039D                     	;# 
  2624     039E                     	;# 
  2625     039F                     	;# 
  2626     0415                     	;# 
  2627     0416                     	;# 
  2628     0417                     	;# 
  2629     041C                     	;# 
  2630     041D                     	;# 
  2631     041E                     	;# 
  2632     0FE4                     	;# 
  2633     0FE5                     	;# 
  2634     0FE6                     	;# 
  2635     0FE7                     	;# 
  2636     0FE8                     	;# 
  2637     0FE9                     	;# 
  2638     0FEA                     	;# 
  2639     0FEB                     	;# 
  2640     0FED                     	;# 
  2641     0FEE                     	;# 
  2642     0FEF                     	;# 
  2643     0000                     	;# 
  2644     0001                     	;# 
  2645     0002                     	;# 
  2646     0003                     	;# 
  2647     0004                     	;# 
  2648     0005                     	;# 
  2649     0006                     	;# 
  2650     0007                     	;# 
  2651     0008                     	;# 
  2652     0009                     	;# 
  2653     000A                     	;# 
  2654     000B                     	;# 
  2655     000C                     	;# 
  2656     000D                     	;# 
  2657     0011                     	;# 
  2658     0012                     	;# 
  2659     0013                     	;# 
  2660     0014                     	;# 
  2661     0015                     	;# 
  2662     0016                     	;# 
  2663     0016                     	;# 
  2664     0017                     	;# 
  2665     0018                     	;# 
  2666     0019                     	;# 
  2667     001A                     	;# 
  2668     001B                     	;# 
  2669     001C                     	;# 
  2670     001E                     	;# 
  2671     001F                     	;# 
  2672     008C                     	;# 
  2673     008D                     	;# 
  2674     0091                     	;# 
  2675     0092                     	;# 
  2676     0093                     	;# 
  2677     0094                     	;# 
  2678     0095                     	;# 
  2679     0096                     	;# 
  2680     0097                     	;# 
  2681     0098                     	;# 
  2682     0099                     	;# 
  2683     009A                     	;# 
  2684     009B                     	;# 
  2685     009B                     	;# 
  2686     009C                     	;# 
  2687     009D                     	;# 
  2688     009E                     	;# 
  2689     010C                     	;# 
  2690     010D                     	;# 
  2691     0111                     	;# 
  2692     0112                     	;# 
  2693     0113                     	;# 
  2694     0114                     	;# 
  2695     0115                     	;# 
  2696     0116                     	;# 
  2697     0117                     	;# 
  2698     0118                     	;# 
  2699     0119                     	;# 
  2700     011A                     	;# 
  2701     011B                     	;# 
  2702     011D                     	;# 
  2703     011E                     	;# 
  2704     018C                     	;# 
  2705     018D                     	;# 
  2706     0191                     	;# 
  2707     0191                     	;# 
  2708     0192                     	;# 
  2709     0193                     	;# 
  2710     0193                     	;# 
  2711     0193                     	;# 
  2712     0194                     	;# 
  2713     0195                     	;# 
  2714     0196                     	;# 
  2715     0199                     	;# 
  2716     019A                     	;# 
  2717     019B                     	;# 
  2718     019B                     	;# 
  2719     019B                     	;# 
  2720     019B                     	;# 
  2721     019C                     	;# 
  2722     019C                     	;# 
  2723     019D                     	;# 
  2724     019E                     	;# 
  2725     019F                     	;# 
  2726     020C                     	;# 
  2727     020D                     	;# 
  2728     0211                     	;# 
  2729     0211                     	;# 
  2730     0212                     	;# 
  2731     0212                     	;# 
  2732     0213                     	;# 
  2733     0213                     	;# 
  2734     0214                     	;# 
  2735     0214                     	;# 
  2736     0215                     	;# 
  2737     0215                     	;# 
  2738     0215                     	;# 
  2739     0216                     	;# 
  2740     0216                     	;# 
  2741     0217                     	;# 
  2742     0217                     	;# 
  2743     0219                     	;# 
  2744     021A                     	;# 
  2745     021B                     	;# 
  2746     021C                     	;# 
  2747     021D                     	;# 
  2748     021E                     	;# 
  2749     021F                     	;# 
  2750     0291                     	;# 
  2751     0291                     	;# 
  2752     0292                     	;# 
  2753     0293                     	;# 
  2754     0294                     	;# 
  2755     0295                     	;# 
  2756     0295                     	;# 
  2757     0296                     	;# 
  2758     0298                     	;# 
  2759     0298                     	;# 
  2760     0299                     	;# 
  2761     029A                     	;# 
  2762     029B                     	;# 
  2763     029C                     	;# 
  2764     029C                     	;# 
  2765     029D                     	;# 
  2766     029E                     	;# 
  2767     029E                     	;# 
  2768     0311                     	;# 
  2769     0311                     	;# 
  2770     0312                     	;# 
  2771     0313                     	;# 
  2772     0318                     	;# 
  2773     0318                     	;# 
  2774     0319                     	;# 
  2775     031A                     	;# 
  2776     0394                     	;# 
  2777     0395                     	;# 
  2778     0396                     	;# 
  2779     039A                     	;# 
  2780     039C                     	;# 
  2781     039D                     	;# 
  2782     039E                     	;# 
  2783     039F                     	;# 
  2784     0415                     	;# 
  2785     0416                     	;# 
  2786     0417                     	;# 
  2787     041C                     	;# 
  2788     041D                     	;# 
  2789     041E                     	;# 
  2790     0FE4                     	;# 
  2791     0FE5                     	;# 
  2792     0FE6                     	;# 
  2793     0FE7                     	;# 
  2794     0FE8                     	;# 
  2795     0FE9                     	;# 
  2796     0FEA                     	;# 
  2797     0FEB                     	;# 
  2798     0FED                     	;# 
  2799     0FEE                     	;# 
  2800     0FEF                     	;# 
  2801                           
  2802 ;; Function _EUSART_DefaultFramingErrorHandler is unused but had its address taken
  2803     0000                     
  2804 ;; Function _EUSART_DefaultOverrunErrorHandler is unused but had its address taken
  2805     0000                     
  2806 ;; Function _EUSART_DefaultErrorHandler is unused but had its address taken
  2807     0000                     
  2808                           	psect	idataCOMMON
  2809     05B5                     __pidataCOMMON:
  2810                           
  2811                           ;initializer for _mov
  2812     05B5  3401               	retlw	1
  2813                           
  2814                           ;initializer for _destinoSub
  2815     05B6  3404               	retlw	4
  2816                           
  2817                           	psect	idataBANK0
  2818     05B7                     __pidataBANK0:
  2819                           
  2820                           ;initializer for _destinoDesc
  2821     05B7  3402               	retlw	2
  2822                           
  2823                           ;initializer for _subindo
  2824     05B8  3401               	retlw	1
  2825                           
  2826                           	psect	stringtext1
  2827     050C                     __pstringtext1:
  2828     050C                     _matrix_conf:
  2829     050C  3409               	retlw	9
  2830     050D  3400               	retlw	0
  2831     050E  340A               	retlw	10
  2832     050F  3400               	retlw	0
  2833     0510  340B               	retlw	11
  2834     0511  3407               	retlw	7
  2835     0512  340C               	retlw	12
  2836     0513  3401               	retlw	1
  2837     0514  340F               	retlw	15
  2838     0515  3401               	retlw	1
  2839     0516  340F               	retlw	15
  2840     0517  3400               	retlw	0
  2841     0518                     __end_of_matrix_conf:
  2842                           
  2843                           	psect	stringtext2
  2844     05A3                     __pstringtext2:
  2845     05A3                     _spi1_configuration:
  2846     05A3  3400               	retlw	0
  2847     05A4  3440               	retlw	64
  2848     05A5  3401               	retlw	1
  2849     05A6  3400               	retlw	0
  2850     05A7                     __end_of_spi1_configuration:
  2851                           
  2852                           	psect	nvBANK0
  2853     0043                     __pnvBANK0:
  2854     0043                     _TMR4_InterruptHandler:
  2855     0043                     	ds	2
  2856     0045                     _CCP4_CallBack:
  2857     0045                     	ds	2
  2858     0047                     _TMR0_InterruptHandler:
  2859     0047                     	ds	2
  2860     0049                     _EUSART_ErrorHandler:
  2861     0049                     	ds	2
  2862     004B                     _EUSART_OverrunErrorHandler:
  2863     004B                     	ds	2
  2864     004D                     _EUSART_FramingErrorHandler:
  2865     004D                     	ds	2
  2866     004F                     _IOCBF3_InterruptHandler:
  2867     004F                     	ds	2
  2868     0051                     _IOCBF0_InterruptHandler:
  2869     0051                     	ds	2
  2870     0015                     _TMR0	set	21
  2871     001C                     _T2CONbits	set	28
  2872     001C                     _T2CON	set	28
  2873     001A                     _TMR2	set	26
  2874     001B                     _PR2	set	27
  2875     0019                     _T1GCONbits	set	25
  2876     0018                     _T1CONbits	set	24
  2877     0018                     _T1CON	set	24
  2878     0016                     _TMR1L	set	22
  2879     0017                     _TMR1H	set	23
  2880     0019                     _T1GCON	set	25
  2881     0013                     _PIR3bits	set	19
  2882     0011                     _PIR1bits	set	17
  2883     000B                     _INTCONbits	set	11
  2884     0012                     _PIR2bits	set	18
  2885     0095                     _OPTION_REG	set	149
  2886     0093                     _PIE3bits	set	147
  2887     008D                     _TRISBbits	set	141
  2888     009D                     _ADCON0bits	set	157
  2889     009D                     _ADCON0	set	157
  2890     009C                     _ADRESH	set	156
  2891     009B                     _ADRESL	set	155
  2892     009E                     _ADCON1	set	158
  2893     0097                     _WDTCON	set	151
  2894     0098                     _OSCTUNE	set	152
  2895     0099                     _OSCCON	set	153
  2896     0095                     _OPTION_REGbits	set	149
  2897     008D                     _TRISB	set	141
  2898     008C                     _TRISA	set	140
  2899     0092                     _PIE2bits	set	146
  2900     010C                     _LATAbits	set	268
  2901     010D                     _LATBbits	set	269
  2902     0117                     _FVRCONbits	set	279
  2903     0117                     _FVRCON	set	279
  2904     0116                     _BORCON	set	278
  2905     011E                     _APFCON1	set	286
  2906     011D                     _APFCON0	set	285
  2907     010D                     _LATB	set	269
  2908     010C                     _LATA	set	268
  2909     0112                     _CM1CON1	set	274
  2910     0111                     _CM1CON0	set	273
  2911     0115                     _CMOUTbits	set	277
  2912     0114                     _CM2CON1	set	276
  2913     0113                     _CM2CON0	set	275
  2914     019A                     _TXREG	set	410
  2915     0199                     _RCREG	set	409
  2916     019D                     _RCSTAbits	set	413
  2917     019E                     _TXSTAbits	set	414
  2918     019C                     _SPBRGH	set	412
  2919     019B                     _SPBRGL	set	411
  2920     019E                     _TXSTA	set	414
  2921     019D                     _RCSTA	set	413
  2922     019F                     _BAUDCON	set	415
  2923     018C                     _ANSELA	set	396
  2924     018D                     _ANSELB	set	397
  2925     0211                     _SSP1BUF	set	529
  2926     0216                     _SSP1CON2	set	534
  2927     0215                     _SSP1CON1bits	set	533
  2928     0212                     _SSP1ADD	set	530
  2929     0215                     _SSP1CON1	set	533
  2930     0214                     _SSP1STAT	set	532
  2931     020C                     _WPUA	set	524
  2932     020D                     _WPUB	set	525
  2933     029E                     _CCPTMRS0bits	set	670
  2934     0319                     _CCPR4H	set	793
  2935     0318                     _CCPR4L	set	792
  2936     031A                     _CCP4CON	set	794
  2937     0312                     _CCPR3H	set	786
  2938     0311                     _CCPR3L	set	785
  2939     0313                     _CCP3CON	set	787
  2940     0394                     _IOCBPbits	set	916
  2941     0395                     _IOCBNbits	set	917
  2942     0396                     _IOCBFbits	set	918
  2943     0417                     _T4CONbits	set	1047
  2944     0417                     _T4CON	set	1047
  2945     0415                     _TMR4	set	1045
  2946     0416                     _PR4	set	1046
  2947                           
  2948                           	psect	cinit
  2949     0058                     start_initialization:	
  2950                           ; #config settings
  2951                           
  2952     0058                     __initialization:
  2953                           
  2954                           ; Initialize objects allocated to COMMON
  2955     0058  3185  25B5  3180   	fcall	__pidataCOMMON	;fetch initializer
  2956     005B  00FB               	movwf	__pdataCOMMON& (0+127)
  2957     005C  3185  25B6  3180   	fcall	__pidataCOMMON+1	;fetch initializer
  2958     005F  00FC               	movwf	(__pdataCOMMON+1)& (0+127)
  2959                           
  2960                           ; Initialize objects allocated to BANK0
  2961     0060  3185  25B7  3180   	fcall	__pidataBANK0	;fetch initializer
  2962     0063  00D3               	movwf	__pdataBANK0& (0+127)
  2963     0064  3185  25B8  3180   	fcall	__pidataBANK0+1	;fetch initializer
  2964     0067  00D4               	movwf	(__pdataBANK0+1)& (0+127)
  2965                           
  2966                           ; Clear objects allocated to COMMON
  2967     0068  01FD               	clrf	__pbssCOMMON& (0+127)
  2968                           
  2969                           ; Clear objects allocated to BANK0
  2970     0069  3020               	movlw	low __pbssBANK0
  2971     006A  0084               	movwf	4
  2972     006B  3000               	movlw	high __pbssBANK0
  2973     006C  0085               	movwf	5
  2974     006D  3012               	movlw	18
  2975     006E  3185  255C  3180   	fcall	clear_ram0
  2976     0071                     end_of_initialization:	
  2977                           ;End of C runtime variable initialization code
  2978                           
  2979     0071                     __end_of__initialization:
  2980     0071  107E               	bcf	int$flags,0	;clear compiler interrupt flag (level 1)
  2981     0072  0020               	movlb	0
  2982     0073  3183  2B2D         	ljmp	_main	;jump to C main() function
  2983                           
  2984                           	psect	bssCOMMON
  2985     007D                     __pbssCOMMON:
  2986     007D                     controleMovimento@cont:
  2987     007D                     	ds	1
  2988                           
  2989                           	psect	dataCOMMON
  2990     007B                     __pdataCOMMON:
  2991     007B                     _mov:
  2992     007B                     	ds	1
  2993     007C                     _destinoSub:
  2994     007C                     	ds	1
  2995                           
  2996                           	psect	bssBANK0
  2997     0020                     __pbssBANK0:
  2998     0020                     _MatrixLed:
  2999     0020                     	ds	8
  3000     0028                     TMR4_ISR@CountCallBack:
  3001     0028                     	ds	2
  3002     002A                     TMR0_ISR@CountCallBack:
  3003     002A                     	ds	2
  3004     002C                     _timer1ReloadVal:
  3005     002C                     	ds	2
  3006     002E                     _ADC_InterruptHandler:
  3007     002E                     	ds	2
  3008     0030                     _timer0ReloadVal:
  3009     0030                     	ds	1
  3010     0031                     _eusartRxLastError:
  3011     0031                     	ds	1
  3012                           
  3013                           	psect	dataBANK0
  3014     0053                     __pdataBANK0:
  3015     0053                     _destinoDesc:
  3016     0053                     	ds	1
  3017     0054                     _subindo:
  3018     0054                     	ds	1
  3019                           
  3020                           	psect	clrtext
  3021     055C                     clear_ram0:	
  3022                           ;	Called with FSR0 containing the base address, and
  3023                           ;	WREG with the size to clear
  3024                           
  3025     055C  0064               	clrwdt	;clear the watchdog before getting into this loop
  3026     055D                     clrloop0:
  3027     055D  0180               	clrf	0	;clear RAM location pointed to by FSR
  3028     055E  3101               	addfsr 0,1
  3029     055F  0B89               	decfsz	9,f	;Have we reached the end of clearing yet?
  3030     0560  2D5D               	goto	clrloop0	;have we reached the end yet?
  3031     0561  3400               	retlw	0	;all done for this memory range, return
  3032                           
  3033                           	psect	cstackCOMMON
  3034     0070                     __pcstackCOMMON:
  3035     0070                     ?_chegadaS4:
  3036     0070                     ?_chegadaS3:	
  3037                           ; 1 bytes @ 0x0
  3038                           
  3039     0070                     ?_IOCBF0_DefaultInterruptHandler:	
  3040                           ; 1 bytes @ 0x0
  3041                           
  3042     0070                     ??_IOCBF0_DefaultInterruptHandler:	
  3043                           ; 1 bytes @ 0x0
  3044                           
  3045     0070                     ?_IOCBF3_DefaultInterruptHandler:	
  3046                           ; 1 bytes @ 0x0
  3047                           
  3048     0070                     ??_IOCBF3_DefaultInterruptHandler:	
  3049                           ; 1 bytes @ 0x0
  3050                           
  3051     0070                     ?_IOCBF0_ISR:	
  3052                           ; 1 bytes @ 0x0
  3053                           
  3054     0070                     ?_IOCBF3_ISR:	
  3055                           ; 1 bytes @ 0x0
  3056                           
  3057     0070                     ?_SPI1_Initialize:	
  3058                           ; 1 bytes @ 0x0
  3059                           
  3060     0070                     ?_OSCILLATOR_Initialize:	
  3061                           ; 1 bytes @ 0x0
  3062                           
  3063     0070                     ?_WDT_Initialize:	
  3064                           ; 1 bytes @ 0x0
  3065                           
  3066     0070                     ?_FVR_Initialize:	
  3067                           ; 1 bytes @ 0x0
  3068                           
  3069     0070                     ?_TMR4_Initialize:	
  3070                           ; 1 bytes @ 0x0
  3071                           
  3072     0070                     ?_TMR2_Initialize:	
  3073                           ; 1 bytes @ 0x0
  3074                           
  3075     0070                     ?_TMR0_Initialize:	
  3076                           ; 1 bytes @ 0x0
  3077                           
  3078     0070                     ?_CCP4_Initialize:	
  3079                           ; 1 bytes @ 0x0
  3080                           
  3081     0070                     ?_ADC_Initialize:	
  3082                           ; 1 bytes @ 0x0
  3083                           
  3084     0070                     ?_TMR1_Initialize:	
  3085                           ; 1 bytes @ 0x0
  3086                           
  3087     0070                     ?_EUSART_Initialize:	
  3088                           ; 1 bytes @ 0x0
  3089                           
  3090     0070                     ?_TMR0_ISR:	
  3091                           ; 1 bytes @ 0x0
  3092                           
  3093     0070                     ??_TMR0_ISR:	
  3094                           ; 1 bytes @ 0x0
  3095                           
  3096     0070                     ?_CCP4_CaptureISR:	
  3097                           ; 1 bytes @ 0x0
  3098                           
  3099     0070                     ?_TMR4_ISR:	
  3100                           ; 1 bytes @ 0x0
  3101                           
  3102     0070                     ?_TMR0_DefaultInterruptHandler:	
  3103                           ; 1 bytes @ 0x0
  3104                           
  3105     0070                     ??_TMR0_DefaultInterruptHandler:	
  3106                           ; 1 bytes @ 0x0
  3107                           
  3108     0070                     ?_TMR0_CallBack:	
  3109                           ; 1 bytes @ 0x0
  3110                           
  3111     0070                     ??_TMR0_CallBack:	
  3112                           ; 1 bytes @ 0x0
  3113                           
  3114     0070                     ?_TMR4_DefaultInterruptHandler:	
  3115                           ; 1 bytes @ 0x0
  3116                           
  3117     0070                     ??_TMR4_DefaultInterruptHandler:	
  3118                           ; 1 bytes @ 0x0
  3119                           
  3120     0070                     ?_TMR4_CallBack:	
  3121                           ; 1 bytes @ 0x0
  3122                           
  3123     0070                     ?_PWM3_Initialize:	
  3124                           ; 1 bytes @ 0x0
  3125                           
  3126     0070                     ?_PWM3_LoadDutyValue:	
  3127                           ; 1 bytes @ 0x0
  3128                           
  3129     0070                     ?_CMP2_Initialize:	
  3130                           ; 1 bytes @ 0x0
  3131                           
  3132     0070                     ?_CMP2_ISR:	
  3133                           ; 1 bytes @ 0x0
  3134                           
  3135     0070                     ?_CMP1_Initialize:	
  3136                           ; 1 bytes @ 0x0
  3137                           
  3138     0070                     ?_CMP1_ISR:	
  3139                           ; 1 bytes @ 0x0
  3140                           
  3141     0070                     ?_PIN_MANAGER_Initialize:	
  3142                           ; 1 bytes @ 0x0
  3143                           
  3144     0070                     ?_PIN_MANAGER_IOC:	
  3145                           ; 1 bytes @ 0x0
  3146                           
  3147     0070                     ?_SYSTEM_Initialize:	
  3148                           ; 1 bytes @ 0x0
  3149                           
  3150     0070                     ?_SPI1_Open:	
  3151                           ; 1 bytes @ 0x0
  3152                           
  3153     0070                     ?_INTERRUPT_InterruptManager:	
  3154                           ; 1 bytes @ 0x0
  3155                           
  3156     0070                     ?_CCP4_DefaultCallBack:	
  3157                           ; 1 bytes @ 0x0
  3158                           
  3159     0070                     ?_TMR4_StartTimer:	
  3160                           ; 1 bytes @ 0x0
  3161                           
  3162     0070                     ??_TMR4_StartTimer:	
  3163                           ; 1 bytes @ 0x0
  3164                           
  3165     0070                     ?_TMR4_StopTimer:	
  3166                           ; 1 bytes @ 0x0
  3167                           
  3168     0070                     ??_TMR4_StopTimer:	
  3169                           ; 1 bytes @ 0x0
  3170                           
  3171     0070                     ?_TMR4_WriteTimer:	
  3172                           ; 1 bytes @ 0x0
  3173                           
  3174     0070                     ??_TMR4_WriteTimer:	
  3175                           ; 1 bytes @ 0x0
  3176                           
  3177     0070                     ?_matrixUpdate:	
  3178                           ; 1 bytes @ 0x0
  3179                           
  3180     0070                     ?_initMatrix:	
  3181                           ; 1 bytes @ 0x0
  3182                           
  3183     0070                     ?_controleMovimento:	
  3184                           ; 1 bytes @ 0x0
  3185                           
  3186     0070                     ?_chegadaS1:	
  3187                           ; 1 bytes @ 0x0
  3188                           
  3189     0070                     ?_chegadaS2:	
  3190                           ; 1 bytes @ 0x0
  3191                           
  3192     0070                     ?_main:	
  3193                           ; 1 bytes @ 0x0
  3194                           
  3195     0070                     ?i1_SPI1_ExchangeBlock:	
  3196                           ; 1 bytes @ 0x0
  3197                           
  3198     0070                     ?i1_matrixUpdate:	
  3199                           ; 1 bytes @ 0x0
  3200                           
  3201     0070                     ?i1_chegadaS1:	
  3202                           ; 1 bytes @ 0x0
  3203                           
  3204     0070                     TMR4_WriteTimer@timerVal:	
  3205                           ; 1 bytes @ 0x0
  3206                           
  3207     0070                     PWM3_LoadDutyValue@dutyValue:	
  3208                           ; 1 bytes @ 0x0
  3209                           
  3210     0070                     CCP4_DefaultCallBack@capturedValue:	
  3211                           ; 2 bytes @ 0x0
  3212                           
  3213     0070                     i1SPI1_ExchangeBlock@blockSize:	
  3214                           ; 2 bytes @ 0x0
  3215                           
  3216                           
  3217                           ; 2 bytes @ 0x0
  3218     0070                     	ds	2
  3219     0072                     ??_CCP4_CaptureISR:
  3220     0072                     ??_PWM3_LoadDutyValue:	
  3221                           ; 1 bytes @ 0x2
  3222                           
  3223     0072                     ??_CCP4_DefaultCallBack:	
  3224                           ; 1 bytes @ 0x2
  3225                           
  3226     0072                     ??i1_SPI1_ExchangeBlock:	
  3227                           ; 1 bytes @ 0x2
  3228                           
  3229     0072                     CCP4_CaptureISR@module:	
  3230                           ; 1 bytes @ 0x2
  3231                           
  3232                           
  3233                           ; 2 bytes @ 0x2
  3234     0072                     	ds	1
  3235     0073                     i1SPI1_ExchangeBlock@block:
  3236                           
  3237                           ; 1 bytes @ 0x3
  3238     0073                     	ds	1
  3239     0074                     ??_controleMovimento:
  3240     0074                     i1SPI1_ExchangeBlock@data:	
  3241                           ; 1 bytes @ 0x4
  3242                           
  3243                           
  3244                           ; 1 bytes @ 0x4
  3245     0074                     	ds	1
  3246     0075                     ?i1_txSpi:
  3247     0075                     i1txSpi@dataSize:	
  3248                           ; 1 bytes @ 0x5
  3249                           
  3250                           
  3251                           ; 2 bytes @ 0x5
  3252     0075                     	ds	1
  3253     0076                     ??_TMR4_ISR:
  3254     0076                     ??_TMR4_CallBack:	
  3255                           ; 1 bytes @ 0x6
  3256                           
  3257                           
  3258                           ; 1 bytes @ 0x6
  3259     0076                     	ds	1
  3260     0077                     ??i1_txSpi:
  3261     0077                     i1txSpi@data:	
  3262                           ; 1 bytes @ 0x7
  3263                           
  3264                           
  3265                           ; 1 bytes @ 0x7
  3266     0077                     	ds	1
  3267     0078                     ??i1_matrixUpdate:
  3268     0078                     i1matrixUpdate@data:	
  3269                           ; 1 bytes @ 0x8
  3270                           
  3271                           
  3272                           ; 2 bytes @ 0x8
  3273     0078                     	ds	2
  3274     007A                     i1matrixUpdate@i:
  3275                           
  3276                           ; 1 bytes @ 0xA
  3277     007A                     	ds	1
  3278     007B                     ??_chegadaS4:
  3279     007B                     ??_chegadaS3:	
  3280                           ; 1 bytes @ 0xB
  3281                           
  3282     007B                     ??_IOCBF0_ISR:	
  3283                           ; 1 bytes @ 0xB
  3284                           
  3285     007B                     ??_IOCBF3_ISR:	
  3286                           ; 1 bytes @ 0xB
  3287                           
  3288     007B                     ??_CMP2_ISR:	
  3289                           ; 1 bytes @ 0xB
  3290                           
  3291     007B                     ??_CMP1_ISR:	
  3292                           ; 1 bytes @ 0xB
  3293                           
  3294     007B                     ??_PIN_MANAGER_IOC:	
  3295                           ; 1 bytes @ 0xB
  3296                           
  3297     007B                     ??_INTERRUPT_InterruptManager:	
  3298                           ; 1 bytes @ 0xB
  3299                           
  3300     007B                     ??_chegadaS2:	
  3301                           ; 1 bytes @ 0xB
  3302                           
  3303     007B                     ??i1_chegadaS1:	
  3304                           ; 1 bytes @ 0xB
  3305                           
  3306                           
  3307                           	psect	cstackBANK0
  3308     0032                     __pcstackBANK0:	
  3309                           ; 1 bytes @ 0xB
  3310                           
  3311     0032                     ?_IOCBF0_SetInterruptHandler:
  3312     0032                     ?_IOCBF3_SetInterruptHandler:	
  3313                           ; 1 bytes @ 0x0
  3314                           
  3315     0032                     ??_SPI1_Initialize:	
  3316                           ; 1 bytes @ 0x0
  3317                           
  3318     0032                     ??_OSCILLATOR_Initialize:	
  3319                           ; 1 bytes @ 0x0
  3320                           
  3321     0032                     ??_WDT_Initialize:	
  3322                           ; 1 bytes @ 0x0
  3323                           
  3324     0032                     ??_FVR_Initialize:	
  3325                           ; 1 bytes @ 0x0
  3326                           
  3327     0032                     ??_TMR2_Initialize:	
  3328                           ; 1 bytes @ 0x0
  3329                           
  3330     0032                     ??_ADC_Initialize:	
  3331                           ; 1 bytes @ 0x0
  3332                           
  3333     0032                     ??_TMR1_Initialize:	
  3334                           ; 1 bytes @ 0x0
  3335                           
  3336     0032                     ?_EUSART_SetFramingErrorHandler:	
  3337                           ; 1 bytes @ 0x0
  3338                           
  3339     0032                     ?_EUSART_SetOverrunErrorHandler:	
  3340                           ; 1 bytes @ 0x0
  3341                           
  3342     0032                     ?_EUSART_SetErrorHandler:	
  3343                           ; 1 bytes @ 0x0
  3344                           
  3345     0032                     ?_TMR0_SetInterruptHandler:	
  3346                           ; 1 bytes @ 0x0
  3347                           
  3348     0032                     ?_CCP4_SetCallBack:	
  3349                           ; 1 bytes @ 0x0
  3350                           
  3351     0032                     ?_TMR4_SetInterruptHandler:	
  3352                           ; 1 bytes @ 0x0
  3353                           
  3354     0032                     ??_PWM3_Initialize:	
  3355                           ; 1 bytes @ 0x0
  3356                           
  3357     0032                     ??_CMP2_Initialize:	
  3358                           ; 1 bytes @ 0x0
  3359                           
  3360     0032                     ??_CMP1_Initialize:	
  3361                           ; 1 bytes @ 0x0
  3362                           
  3363     0032                     ??_SPI1_Open:	
  3364                           ; 1 bytes @ 0x0
  3365                           
  3366     0032                     ?_SPI1_ExchangeBlock:	
  3367                           ; 1 bytes @ 0x0
  3368                           
  3369     0032                     IOCBF0_SetInterruptHandler@InterruptHandler:	
  3370                           ; 1 bytes @ 0x0
  3371                           
  3372     0032                     IOCBF3_SetInterruptHandler@InterruptHandler:	
  3373                           ; 2 bytes @ 0x0
  3374                           
  3375     0032                     EUSART_SetFramingErrorHandler@interruptHandler:	
  3376                           ; 2 bytes @ 0x0
  3377                           
  3378     0032                     EUSART_SetOverrunErrorHandler@interruptHandler:	
  3379                           ; 2 bytes @ 0x0
  3380                           
  3381     0032                     EUSART_SetErrorHandler@interruptHandler:	
  3382                           ; 2 bytes @ 0x0
  3383                           
  3384     0032                     SPI1_ExchangeBlock@blockSize:	
  3385                           ; 2 bytes @ 0x0
  3386                           
  3387     0032                     TMR0_SetInterruptHandler@InterruptHandler:	
  3388                           ; 2 bytes @ 0x0
  3389                           
  3390     0032                     CCP4_SetCallBack@customCallBack:	
  3391                           ; 2 bytes @ 0x0
  3392                           
  3393     0032                     TMR4_SetInterruptHandler@InterruptHandler:	
  3394                           ; 2 bytes @ 0x0
  3395                           
  3396                           
  3397                           ; 2 bytes @ 0x0
  3398     0032                     	ds	2
  3399     0034                     ??_IOCBF0_SetInterruptHandler:
  3400     0034                     ??_IOCBF3_SetInterruptHandler:	
  3401                           ; 1 bytes @ 0x2
  3402                           
  3403     0034                     ??_TMR4_Initialize:	
  3404                           ; 1 bytes @ 0x2
  3405                           
  3406     0034                     ??_TMR0_Initialize:	
  3407                           ; 1 bytes @ 0x2
  3408                           
  3409     0034                     ??_CCP4_Initialize:	
  3410                           ; 1 bytes @ 0x2
  3411                           
  3412     0034                     ??_EUSART_Initialize:	
  3413                           ; 1 bytes @ 0x2
  3414                           
  3415     0034                     ??_EUSART_SetFramingErrorHandler:	
  3416                           ; 1 bytes @ 0x2
  3417                           
  3418     0034                     ??_EUSART_SetOverrunErrorHandler:	
  3419                           ; 1 bytes @ 0x2
  3420                           
  3421     0034                     ??_EUSART_SetErrorHandler:	
  3422                           ; 1 bytes @ 0x2
  3423                           
  3424     0034                     ??_TMR0_SetInterruptHandler:	
  3425                           ; 1 bytes @ 0x2
  3426                           
  3427     0034                     ??_CCP4_SetCallBack:	
  3428                           ; 1 bytes @ 0x2
  3429                           
  3430     0034                     ??_TMR4_SetInterruptHandler:	
  3431                           ; 1 bytes @ 0x2
  3432                           
  3433     0034                     ??_PIN_MANAGER_Initialize:	
  3434                           ; 1 bytes @ 0x2
  3435                           
  3436     0034                     ??_SYSTEM_Initialize:	
  3437                           ; 1 bytes @ 0x2
  3438                           
  3439     0034                     ??_SPI1_ExchangeBlock:	
  3440                           ; 1 bytes @ 0x2
  3441                           
  3442                           
  3443                           ; 1 bytes @ 0x2
  3444     0034                     	ds	1
  3445     0035                     SPI1_Open@spi1UniqueConfiguration:
  3446     0035                     SPI1_ExchangeBlock@block:	
  3447                           ; 1 bytes @ 0x3
  3448                           
  3449                           
  3450                           ; 1 bytes @ 0x3
  3451     0035                     	ds	1
  3452     0036                     SPI1_ExchangeBlock@data:
  3453                           
  3454                           ; 1 bytes @ 0x4
  3455     0036                     	ds	1
  3456     0037                     ?_txSpi:
  3457     0037                     txSpi@dataSize:	
  3458                           ; 1 bytes @ 0x5
  3459                           
  3460                           
  3461                           ; 2 bytes @ 0x5
  3462     0037                     	ds	2
  3463     0039                     ??_txSpi:
  3464     0039                     txSpi@data:	
  3465                           ; 1 bytes @ 0x7
  3466                           
  3467                           
  3468                           ; 1 bytes @ 0x7
  3469     0039                     	ds	1
  3470     003A                     ??_matrixUpdate:
  3471     003A                     ??_initMatrix:	
  3472                           ; 1 bytes @ 0x8
  3473                           
  3474     003A                     matrixUpdate@data:	
  3475                           ; 1 bytes @ 0x8
  3476                           
  3477                           
  3478                           ; 2 bytes @ 0x8
  3479     003A                     	ds	1
  3480     003B                     initMatrix@data:
  3481                           
  3482                           ; 4 bytes @ 0x9
  3483     003B                     	ds	1
  3484     003C                     matrixUpdate@i:
  3485                           
  3486                           ; 1 bytes @ 0xA
  3487     003C                     	ds	1
  3488     003D                     ??_chegadaS1:
  3489                           
  3490                           ; 1 bytes @ 0xB
  3491     003D                     	ds	2
  3492     003F                     initMatrix@i_1489:
  3493                           
  3494                           ; 1 bytes @ 0xD
  3495     003F                     	ds	1
  3496     0040                     initMatrix@k:
  3497                           
  3498                           ; 1 bytes @ 0xE
  3499     0040                     	ds	1
  3500     0041                     initMatrix@i:
  3501                           
  3502                           ; 1 bytes @ 0xF
  3503     0041                     	ds	1
  3504     0042                     initMatrix@j:
  3505                           
  3506                           ; 1 bytes @ 0x10
  3507     0042                     	ds	1
  3508     0043                     ??_main:
  3509                           
  3510                           	psect	maintext
  3511     032D                     __pmaintext:	
  3512                           ; 1 bytes @ 0x11
  3513 ;;
  3514 ;;Main: autosize = 0, tempsize = 0, incstack = 0, save=0
  3515 ;;
  3516 ;; *************** function _main *****************
  3517 ;; Defined at:
  3518 ;;		line 242 in file "main.c"
  3519 ;; Parameters:    Size  Location     Type
  3520 ;;		None
  3521 ;; Auto vars:     Size  Location     Type
  3522 ;;		None
  3523 ;; Return value:  Size  Location     Type
  3524 ;;                  1    wreg      void 
  3525 ;; Registers used:
  3526 ;;		wreg, fsr0l, fsr0h, fsr1l, fsr1h, status,2, status,0, pclath, cstack
  3527 ;; Tracked objects:
  3528 ;;		On entry : B1F/0
  3529 ;;		On exit  : 0/0
  3530 ;;		Unchanged: 0/0
  3531 ;; Data sizes:     COMMON   BANK0   BANK1   BANK2   BANK3   BANK4
  3532 ;;      Params:         0       0       0       0       0       0
  3533 ;;      Locals:         0       0       0       0       0       0
  3534 ;;      Temps:          0       0       0       0       0       0
  3535 ;;      Totals:         0       0       0       0       0       0
  3536 ;;Total ram usage:        0 bytes
  3537 ;; Hardware stack levels required when called: 11
  3538 ;; This function calls:
  3539 ;;		_IOCBF0_SetInterruptHandler
  3540 ;;		_IOCBF3_SetInterruptHandler
  3541 ;;		_SPI1_Open
  3542 ;;		_SYSTEM_Initialize
  3543 ;;		_TMR4_SetInterruptHandler
  3544 ;;		_chegadaS1
  3545 ;;		_initMatrix
  3546 ;; This function is called by:
  3547 ;;		Startup code after reset
  3548 ;; This function uses a non-reentrant model
  3549 ;;
  3550                           
  3551     032D                     _main:	
  3552                           ;psect for function _main
  3553                           
  3554     032D                     l2842:	
  3555                           ;incstack = 0
  3556                           ; Regs used in _main: [wreg-fsr1h+status,2+status,0+pclath+cstack]
  3557                           
  3558                           
  3559                           ;main.c: 245:     SYSTEM_Initialize();
  3560     032D  3182  22D2  3183   	fcall	_SYSTEM_Initialize
  3561                           
  3562                           ;main.c: 253:     IOCBF0_SetInterruptHandler(chegadaS1);
  3563     0330  3070               	movlw	low _chegadaS1
  3564     0331  0020               	movlb	0	; select bank0
  3565     0332  00B2               	movwf	IOCBF0_SetInterruptHandler@InterruptHandler
  3566     0333  3002               	movlw	high _chegadaS1
  3567     0334  00B3               	movwf	IOCBF0_SetInterruptHandler@InterruptHandler+1
  3568     0335  3185  2574  3183   	fcall	_IOCBF0_SetInterruptHandler
  3569                           
  3570                           ;main.c: 254:     IOCBF3_SetInterruptHandler(chegadaS2);
  3571     0338  302A               	movlw	low _chegadaS2
  3572     0339  0020               	movlb	0	; select bank0
  3573     033A  00B2               	movwf	IOCBF3_SetInterruptHandler@InterruptHandler
  3574     033B  3001               	movlw	high _chegadaS2
  3575     033C  00B3               	movwf	IOCBF3_SetInterruptHandler@InterruptHandler+1
  3576     033D  3185  256E  3183   	fcall	_IOCBF3_SetInterruptHandler
  3577                           
  3578                           ;main.c: 255:     TMR4_SetInterruptHandler(controleMovimento);
  3579     0340  307F               	movlw	low _controleMovimento
  3580     0341  0020               	movlb	0	; select bank0
  3581     0342  00B2               	movwf	TMR4_SetInterruptHandler@InterruptHandler
  3582     0343  3001               	movlw	high _controleMovimento
  3583     0344  00B3               	movwf	TMR4_SetInterruptHandler@InterruptHandler+1
  3584     0345  3185  2562  3183   	fcall	_TMR4_SetInterruptHandler
  3585     0348                     l2844:
  3586     0348  0022               	movlb	2	; select bank2
  3587     0349  148D               	bsf	13,1	;volatile
  3588     034A                     l2846:
  3589                           
  3590                           ;main.c: 260:     SPI1_Open(SPI1_DEFAULT);
  3591     034A  3000               	movlw	0
  3592     034B  3180  2075  3183   	fcall	_SPI1_Open
  3593     034E                     l2848:
  3594                           
  3595                           ;main.c: 261:     initMatrix();
  3596     034E  3181  21D2  3183   	fcall	_initMatrix
  3597     0351                     l2850:
  3598                           
  3599                           ;main.c: 264:     (INTCONbits.GIE = 1);
  3600     0351  178B               	bsf	11,7	;volatile
  3601     0352                     l2852:
  3602                           
  3603                           ;main.c: 267:     (INTCONbits.PEIE = 1);
  3604     0352  170B               	bsf	11,6	;volatile
  3605                           
  3606                           ;main.c: 274:     chegadaS1();
  3607     0353  3182  2270  3183   	fcall	_chegadaS1
  3608     0356                     l761:	
  3609                           ;main.c: 275:     while (1)
  3610                           
  3611     0356                     l762:	
  3612                           ;main.c: 276:     {;main.c: 277:     }
  3613                           
  3614     0356  2B56               	goto	l761
  3615     0357  3180  2856         	ljmp	start
  3616     0359                     __end_of_main:
  3617                           
  3618                           	psect	text1
  3619     01D2                     __ptext1:	
  3620 ;; *************** function _initMatrix *****************
  3621 ;; Defined at:
  3622 ;;		line 40 in file "main.c"
  3623 ;; Parameters:    Size  Location     Type
  3624 ;;		None
  3625 ;; Auto vars:     Size  Location     Type
  3626 ;;  j               1   16[BANK0 ] unsigned char 
  3627 ;;  i               1   13[BANK0 ] unsigned char 
  3628 ;;  i               1   15[BANK0 ] unsigned char 
  3629 ;;  data            4    9[BANK0 ] unsigned char [4]
  3630 ;;  k               1   14[BANK0 ] unsigned char 
  3631 ;; Return value:  Size  Location     Type
  3632 ;;                  1    wreg      void 
  3633 ;; Registers used:
  3634 ;;		wreg, fsr0l, fsr0h, fsr1l, fsr1h, status,2, status,0, pclath, cstack
  3635 ;; Tracked objects:
  3636 ;;		On entry : 0/0
  3637 ;;		On exit  : 0/0
  3638 ;;		Unchanged: 0/0
  3639 ;; Data sizes:     COMMON   BANK0   BANK1   BANK2   BANK3   BANK4
  3640 ;;      Params:         0       0       0       0       0       0
  3641 ;;      Locals:         0       8       0       0       0       0
  3642 ;;      Temps:          0       1       0       0       0       0
  3643 ;;      Totals:         0       9       0       0       0       0
  3644 ;;Total ram usage:        9 bytes
  3645 ;; Hardware stack levels used: 1
  3646 ;; Hardware stack levels required when called: 9
  3647 ;; This function calls:
  3648 ;;		_txSpi
  3649 ;; This function is called by:
  3650 ;;		_main
  3651 ;; This function uses a non-reentrant model
  3652 ;;
  3653                           
  3654     01D2                     _initMatrix:	
  3655                           ;psect for function _initMatrix
  3656                           
  3657     01D2                     l2730:	
  3658                           ;incstack = 0
  3659                           ; Regs used in _initMatrix: [wreg-fsr1h+status,2+status,0+pclath+cstack]
  3660                           
  3661                           
  3662                           ;main.c: 41:     uint8_t data[4];;main.c: 42:     uint8_t k=0;
  3663     01D2  0020               	movlb	0	; select bank0
  3664     01D3  01C0               	clrf	initMatrix@k
  3665                           
  3666                           ;main.c: 43:    for(uint8_t i =0; i<8; i++){
  3667     01D4  01C1               	clrf	initMatrix@i
  3668     01D5                     l2736:
  3669                           
  3670                           ;main.c: 44:             MatrixLed[i] = 0;
  3671     01D5  0841               	movf	initMatrix@i,w
  3672     01D6  3E20               	addlw	(low (_MatrixLed| 0))& (0+255)
  3673     01D7  0086               	movwf	6
  3674     01D8  0187               	clrf	7
  3675     01D9  0181               	clrf	1
  3676     01DA                     l2738:
  3677                           
  3678                           ;main.c: 45:         }
  3679     01DA  3001               	movlw	1
  3680     01DB  00BA               	movwf	??_initMatrix
  3681     01DC  083A               	movf	??_initMatrix,w
  3682     01DD  07C1               	addwf	initMatrix@i,f
  3683     01DE                     l2740:
  3684     01DE  3008               	movlw	8
  3685     01DF  0241               	subwf	initMatrix@i,w
  3686     01E0  1C03               	skipc
  3687     01E1  29E3               	goto	u1061
  3688     01E2  29E4               	goto	u1060
  3689     01E3                     u1061:
  3690     01E3  29D5               	goto	l2736
  3691     01E4                     u1060:
  3692     01E4                     l2742:
  3693                           
  3694                           ;main.c: 46:     for(uint8_t i=0;i<6;i++){
  3695     01E4  01BF               	clrf	initMatrix@i_1489
  3696     01E5                     l2748:
  3697                           
  3698                           ;main.c: 47:         for(uint8_t j=0;j<4;j=j+2){
  3699     01E5  01C2               	clrf	initMatrix@j
  3700     01E6                     l2754:
  3701                           
  3702                           ;main.c: 48:             data[j]= matrix_conf[k];
  3703     01E6  0842               	movf	initMatrix@j,w
  3704     01E7  3E3B               	addlw	(low (initMatrix@data| 0))& (0+255)
  3705     01E8  0086               	movwf	6
  3706     01E9  0187               	clrf	7
  3707     01EA  0840               	movf	initMatrix@k,w
  3708     01EB  3E0C               	addlw	low (_matrix_conf| (0+32768))
  3709     01EC  0084               	movwf	4
  3710     01ED  3085               	movlw	high (_matrix_conf| (0+32768))
  3711     01EE  1803               	skipnc
  3712     01EF  3E01               	addlw	1
  3713     01F0  0085               	movwf	5
  3714     01F1  0800               	movf	0,w	;code access
  3715     01F2  0081               	movwf	1
  3716                           
  3717                           ;main.c: 49:             data[j+1]= matrix_conf[k+1];
  3718     01F3  0842               	movf	initMatrix@j,w
  3719     01F4  3E01               	addlw	1
  3720     01F5  3E3B               	addlw	(low (initMatrix@data| 0))& (0+255)
  3721     01F6  0086               	movwf	6
  3722     01F7  0187               	clrf	7
  3723     01F8  0840               	movf	initMatrix@k,w
  3724     01F9  3E0D               	addlw	low ((_matrix_conf+1)| (0+32768))
  3725     01FA  0084               	movwf	4
  3726     01FB  3085               	movlw	high ((_matrix_conf+1)| (0+32768))
  3727     01FC  1803               	skipnc
  3728     01FD  3E01               	addlw	1
  3729     01FE  0085               	movwf	5
  3730     01FF  0800               	movf	0,w	;code access
  3731     0200  0081               	movwf	1
  3732     0201                     l2756:
  3733                           
  3734                           ;main.c: 50:         }
  3735     0201  0842               	movf	initMatrix@j,w
  3736     0202  3E02               	addlw	2
  3737     0203  00C2               	movwf	initMatrix@j
  3738     0204                     l2758:
  3739     0204  3004               	movlw	4
  3740     0205  0242               	subwf	initMatrix@j,w
  3741     0206  1C03               	skipc
  3742     0207  2A09               	goto	u1071
  3743     0208  2A0A               	goto	u1070
  3744     0209                     u1071:
  3745     0209  29E6               	goto	l2754
  3746     020A                     u1070:
  3747     020A                     l2760:
  3748                           
  3749                           ;main.c: 51:         k=k+2;
  3750     020A  0840               	movf	initMatrix@k,w
  3751     020B  3E02               	addlw	2
  3752     020C  00C0               	movwf	initMatrix@k
  3753     020D                     l2762:
  3754                           
  3755                           ;main.c: 52:         txSpi( data, 4);
  3756     020D  3004               	movlw	4
  3757     020E  00B7               	movwf	txSpi@dataSize
  3758     020F  3000               	movlw	0
  3759     0210  00B8               	movwf	txSpi@dataSize+1
  3760     0211  303B               	movlw	(low (initMatrix@data| 0))& (0+255)
  3761     0212  3184  2495  3181   	fcall	_txSpi
  3762     0215                     l2764:
  3763                           
  3764                           ;main.c: 54:     }
  3765     0215  3001               	movlw	1
  3766     0216  0020               	movlb	0	; select bank0
  3767     0217  00BA               	movwf	??_initMatrix
  3768     0218  083A               	movf	??_initMatrix,w
  3769     0219  07BF               	addwf	initMatrix@i_1489,f
  3770     021A                     l2766:
  3771     021A  3006               	movlw	6
  3772     021B  023F               	subwf	initMatrix@i_1489,w
  3773     021C  1C03               	skipc
  3774     021D  2A1F               	goto	u1081
  3775     021E  2A20               	goto	u1080
  3776     021F                     u1081:
  3777     021F  29E5               	goto	l2748
  3778     0220                     u1080:
  3779     0220                     l698:
  3780     0220  0008               	return
  3781     0221                     __end_of_initMatrix:
  3782                           
  3783                           	psect	text2
  3784     0270                     __ptext2:	
  3785 ;; *************** function _chegadaS1 *****************
  3786 ;; Defined at:
  3787 ;;		line 97 in file "main.c"
  3788 ;; Parameters:    Size  Location     Type
  3789 ;;		None
  3790 ;; Auto vars:     Size  Location     Type
  3791 ;;		None
  3792 ;; Return value:  Size  Location     Type
  3793 ;;                  1    wreg      void 
  3794 ;; Registers used:
  3795 ;;		wreg, fsr1l, fsr1h, status,2, status,0, pclath, cstack
  3796 ;; Tracked objects:
  3797 ;;		On entry : 0/0
  3798 ;;		On exit  : 0/0
  3799 ;;		Unchanged: 0/0
  3800 ;; Data sizes:     COMMON   BANK0   BANK1   BANK2   BANK3   BANK4
  3801 ;;      Params:         0       0       0       0       0       0
  3802 ;;      Locals:         0       0       0       0       0       0
  3803 ;;      Temps:          0       0       0       0       0       0
  3804 ;;      Totals:         0       0       0       0       0       0
  3805 ;;Total ram usage:        0 bytes
  3806 ;; Hardware stack levels used: 1
  3807 ;; Hardware stack levels required when called: 10
  3808 ;; This function calls:
  3809 ;;		_matrixUpdate
  3810 ;; This function is called by:
  3811 ;;		_main
  3812 ;;		_IOCBF0_ISR
  3813 ;; This function uses a non-reentrant model
  3814 ;;
  3815                           
  3816     0270                     _chegadaS1:	
  3817                           ;psect for function _chegadaS1
  3818                           
  3819                           
  3820                           ;Skip over the trampoline to the duplicate function for level 1
  3821     0270  1C7E               	btfss	int$flags,0
  3822     0271  2A74               	goto	_chegadaS1$intlevel0
  3823     0272  3183  2B00         	ljmp	i1_chegadaS1
  3824     0274                     _chegadaS1$intlevel0:
  3825     0274                     l2768:	
  3826                           ;incstack = 0
  3827                           ; Regs used in _chegadaS1: [wreg+fsr1l+fsr1h+status,2+status,0+pclath+cstack]
  3828                           
  3829                           
  3830                           ;main.c: 101:     MatrixLed[0] = 0b01111110;
  3831     0274  307E               	movlw	126
  3832     0275  0020               	movlb	0	; select bank0
  3833     0276  00A0               	movwf	_MatrixLed
  3834                           
  3835                           ;main.c: 102:     MatrixLed[1] = 0b10000001;
  3836     0277  3081               	movlw	129
  3837     0278  00A1               	movwf	_MatrixLed+1
  3838                           
  3839                           ;main.c: 103:     MatrixLed[2] = 0b10000001;
  3840     0279  3081               	movlw	129
  3841     027A  00A2               	movwf	_MatrixLed+2
  3842                           
  3843                           ;main.c: 104:     MatrixLed[3] = 0b01111110;
  3844     027B  307E               	movlw	126
  3845     027C  00A3               	movwf	_MatrixLed+3
  3846     027D                     l2770:
  3847                           
  3848                           ;main.c: 105:     MatrixLed[4] = 0;
  3849     027D  01A4               	clrf	_MatrixLed+4
  3850     027E                     l2772:
  3851                           
  3852                           ;main.c: 106:     if(subindo){
  3853     027E  0854               	movf	_subindo,w
  3854     027F  1903               	btfsc	3,2
  3855     0280  2A82               	goto	u1091
  3856     0281  2A83               	goto	u1090
  3857     0282                     u1091:
  3858     0282  2A8D               	goto	l2778
  3859     0283                     u1090:
  3860     0283                     l2774:
  3861                           
  3862                           ;main.c: 107:         MatrixLed[5] = 0b01100000;
  3863     0283  3060               	movlw	96
  3864     0284  00A5               	movwf	_MatrixLed+5
  3865                           
  3866                           ;main.c: 108:         MatrixLed[6] = 0b11000000;
  3867     0285  30C0               	movlw	192
  3868     0286  00A6               	movwf	_MatrixLed+6
  3869                           
  3870                           ;main.c: 109:         MatrixLed[7] = 0b01100000;
  3871     0287  3060               	movlw	96
  3872     0288  00A7               	movwf	_MatrixLed+7
  3873     0289                     l2776:
  3874                           
  3875                           ;main.c: 110:         destinoSub = destinoSub & 0b11111110;
  3876     0289  087C               	movf	_destinoSub,w
  3877     028A  39FE               	andlw	254
  3878     028B  00FC               	movwf	_destinoSub
  3879                           
  3880                           ;main.c: 111:     }else{
  3881     028C  2A96               	goto	l2782
  3882     028D                     l2778:
  3883                           
  3884                           ;main.c: 112:         MatrixLed[5] = 0b11000000;
  3885     028D  30C0               	movlw	192
  3886     028E  00A5               	movwf	_MatrixLed+5
  3887                           
  3888                           ;main.c: 113:         MatrixLed[6] = 0b01100000;
  3889     028F  3060               	movlw	96
  3890     0290  00A6               	movwf	_MatrixLed+6
  3891                           
  3892                           ;main.c: 114:         MatrixLed[7] = 0b11000000;
  3893     0291  30C0               	movlw	192
  3894     0292  00A7               	movwf	_MatrixLed+7
  3895     0293                     l2780:
  3896                           
  3897                           ;main.c: 115:         destinoDesc = destinoDesc & 0b11111110;
  3898     0293  0853               	movf	_destinoDesc,w
  3899     0294  39FE               	andlw	254
  3900     0295  00D3               	movwf	_destinoDesc
  3901     0296                     l2782:
  3902                           
  3903                           ;main.c: 117:     matrixUpdate();
  3904     0296  3183  23CE  3182   	fcall	_matrixUpdate
  3905     0299                     l2784:
  3906                           
  3907                           ;main.c: 119:     MatrixLed[7] = MatrixLed[7] | destinoSub;
  3908     0299  0020               	movlb	0	; select bank0
  3909     029A  0827               	movf	_MatrixLed+7,w
  3910     029B  047C               	iorwf	_destinoSub,w
  3911     029C  00A7               	movwf	_MatrixLed+7
  3912     029D                     l2786:
  3913                           
  3914                           ;main.c: 120:     MatrixLed[6] = MatrixLed[6] | destinoDesc;
  3915     029D  0826               	movf	_MatrixLed+6,w
  3916     029E  0453               	iorwf	_destinoDesc,w
  3917     029F  00A6               	movwf	_MatrixLed+6
  3918     02A0                     l722:
  3919     02A0  0008               	return
  3920     02A1                     __end_of_chegadaS1:
  3921                           
  3922                           	psect	text3
  3923     03CE                     __ptext3:	
  3924 ;; *************** function _matrixUpdate *****************
  3925 ;; Defined at:
  3926 ;;		line 20 in file "main.c"
  3927 ;; Parameters:    Size  Location     Type
  3928 ;;		None
  3929 ;; Auto vars:     Size  Location     Type
  3930 ;;  i               1    0        unsigned char 
  3931 ;;  i               1   10[BANK0 ] unsigned char 
  3932 ;;  index           1    0        unsigned char 
  3933 ;;  data            2    8[BANK0 ] unsigned char [2]
  3934 ;; Return value:  Size  Location     Type
  3935 ;;                  1    wreg      void 
  3936 ;; Registers used:
  3937 ;;		wreg, fsr1l, fsr1h, status,2, status,0, pclath, cstack
  3938 ;; Tracked objects:
  3939 ;;		On entry : 0/0
  3940 ;;		On exit  : 0/0
  3941 ;;		Unchanged: 0/0
  3942 ;; Data sizes:     COMMON   BANK0   BANK1   BANK2   BANK3   BANK4
  3943 ;;      Params:         0       0       0       0       0       0
  3944 ;;      Locals:         0       3       0       0       0       0
  3945 ;;      Temps:          0       0       0       0       0       0
  3946 ;;      Totals:         0       3       0       0       0       0
  3947 ;;Total ram usage:        3 bytes
  3948 ;; Hardware stack levels used: 1
  3949 ;; Hardware stack levels required when called: 9
  3950 ;; This function calls:
  3951 ;;		_txSpi
  3952 ;; This function is called by:
  3953 ;;		_chegadaS1
  3954 ;; This function uses a non-reentrant model
  3955 ;;
  3956                           
  3957     03CE                     _matrixUpdate:	
  3958                           ;psect for function _matrixUpdate
  3959                           
  3960     03CE                     l2628:	
  3961                           ;incstack = 0
  3962                           ; Regs used in _matrixUpdate: [wreg+fsr1l+fsr1h+status,2+status,0+pclath+cstack]
  3963                           
  3964                           
  3965                           ;main.c: 23:         for(uint8_t i=8;i>0;i--){
  3966     03CE  3008               	movlw	8
  3967     03CF  0020               	movlb	0	; select bank0
  3968     03D0  00BC               	movwf	matrixUpdate@i
  3969     03D1                     l2634:
  3970                           
  3971                           ;main.c: 24:             data[0] = i;
  3972     03D1  083C               	movf	matrixUpdate@i,w
  3973     03D2  00BA               	movwf	matrixUpdate@data
  3974     03D3                     l2636:
  3975                           
  3976                           ;main.c: 25:             data[1] = MatrixLed[i-1];
  3977     03D3  083C               	movf	matrixUpdate@i,w
  3978     03D4  3E1F               	addlw	(low ((_MatrixLed| 0+255)))& (0+255)
  3979     03D5  0086               	movwf	6
  3980     03D6  0187               	clrf	7
  3981     03D7  0801               	movf	1,w
  3982     03D8  00BB               	movwf	matrixUpdate@data+1
  3983     03D9                     l2638:
  3984                           
  3985                           ;main.c: 26:             txSpi(data, 2);
  3986     03D9  3002               	movlw	2
  3987     03DA  00B7               	movwf	txSpi@dataSize
  3988     03DB  3000               	movlw	0
  3989     03DC  00B8               	movwf	txSpi@dataSize+1
  3990     03DD  303A               	movlw	(low (matrixUpdate@data| 0))& (0+255)
  3991     03DE  3184  2495  3183   	fcall	_txSpi
  3992     03E1                     l2640:
  3993                           
  3994                           ;main.c: 27:         }
  3995     03E1  3001               	movlw	1
  3996     03E2  0020               	movlb	0	; select bank0
  3997     03E3  02BC               	subwf	matrixUpdate@i,f
  3998     03E4                     l2642:
  3999     03E4  083C               	movf	matrixUpdate@i,w
  4000     03E5  1D03               	btfss	3,2
  4001     03E6  2BE8               	goto	u991
  4002     03E7  2BE9               	goto	u990
  4003     03E8                     u991:
  4004     03E8  2BD1               	goto	l2634
  4005     03E9                     u990:
  4006     03E9                     l689:
  4007     03E9  0008               	return
  4008     03EA                     __end_of_matrixUpdate:
  4009                           
  4010                           	psect	text4
  4011     0495                     __ptext4:	
  4012 ;; *************** function _txSpi *****************
  4013 ;; Defined at:
  4014 ;;		line 12 in file "main.c"
  4015 ;; Parameters:    Size  Location     Type
  4016 ;;  data            1    wreg     PTR unsigned char 
  4017 ;;		 -> initMatrix@data(4), matrixUpdate@data(2), 
  4018 ;;  dataSize        2    5[BANK0 ] unsigned int 
  4019 ;; Auto vars:     Size  Location     Type
  4020 ;;  data            1    7[BANK0 ] PTR unsigned char 
  4021 ;;		 -> initMatrix@data(4), matrixUpdate@data(2), 
  4022 ;; Return value:  Size  Location     Type
  4023 ;;                  1    wreg      void 
  4024 ;; Registers used:
  4025 ;;		wreg, fsr1l, fsr1h, status,2, status,0, pclath, cstack
  4026 ;; Tracked objects:
  4027 ;;		On entry : 0/0
  4028 ;;		On exit  : 0/0
  4029 ;;		Unchanged: 0/0
  4030 ;; Data sizes:     COMMON   BANK0   BANK1   BANK2   BANK3   BANK4
  4031 ;;      Params:         0       2       0       0       0       0
  4032 ;;      Locals:         0       1       0       0       0       0
  4033 ;;      Temps:          0       0       0       0       0       0
  4034 ;;      Totals:         0       3       0       0       0       0
  4035 ;;Total ram usage:        3 bytes
  4036 ;; Hardware stack levels used: 1
  4037 ;; Hardware stack levels required when called: 8
  4038 ;; This function calls:
  4039 ;;		_SPI1_ExchangeBlock
  4040 ;; This function is called by:
  4041 ;;		_matrixUpdate
  4042 ;;		_initMatrix
  4043 ;; This function uses a non-reentrant model
  4044 ;;
  4045                           
  4046     0495                     _txSpi:	
  4047                           ;psect for function _txSpi
  4048                           
  4049                           
  4050                           ;incstack = 0
  4051                           ; Regs used in _txSpi: [wreg+fsr1l+fsr1h+status,2+status,0+pclath+cstack]
  4052                           ;txSpi@data stored from wreg
  4053     0495  0020               	movlb	0	; select bank0
  4054     0496  00B9               	movwf	txSpi@data
  4055     0497                     l676:	
  4056                           ;main.c: 13:     do { LATBbits.LATB1 = 0; } while(0);
  4057                           
  4058     0497  0022               	movlb	2	; select bank2
  4059     0498  108D               	bcf	13,1	;volatile
  4060     0499                     l2278:
  4061                           
  4062                           ;main.c: 14:     SPI1_ExchangeBlock(data,dataSize);
  4063     0499  0020               	movlb	0	; select bank0
  4064     049A  0838               	movf	txSpi@dataSize+1,w
  4065     049B  00B3               	movwf	SPI1_ExchangeBlock@blockSize+1
  4066     049C  0837               	movf	txSpi@dataSize,w
  4067     049D  00B2               	movwf	SPI1_ExchangeBlock@blockSize
  4068     049E  0839               	movf	txSpi@data,w
  4069     049F  3183  2359  3184   	fcall	_SPI1_ExchangeBlock
  4070     04A2                     l2280:
  4071     04A2  0022               	movlb	2	; select bank2
  4072     04A3  148D               	bsf	13,1	;volatile
  4073     04A4                     l2282:
  4074                           
  4075                           ;main.c: 17:     _delay((unsigned long)((1)*(4000000/4000000.0)));
  4076     04A4  0000               	nop
  4077     04A5                     l680:
  4078     04A5  0008               	return
  4079     04A6                     __end_of_txSpi:
  4080                           
  4081                           	psect	text5
  4082     0359                     __ptext5:	
  4083 ;; *************** function _SPI1_ExchangeBlock *****************
  4084 ;; Defined at:
  4085 ;;		line 100 in file "mcc_generated_files/spi1.c"
  4086 ;; Parameters:    Size  Location     Type
  4087 ;;  block           1    wreg     PTR void 
  4088 ;;		 -> initMatrix@data(4), matrixUpdate@data(2), 
  4089 ;;  blockSize       2    0[BANK0 ] unsigned int 
  4090 ;; Auto vars:     Size  Location     Type
  4091 ;;  block           1    3[BANK0 ] PTR void 
  4092 ;;		 -> initMatrix@data(4), matrixUpdate@data(2), 
  4093 ;;  data            1    4[BANK0 ] PTR unsigned char 
  4094 ;;		 -> initMatrix@data(4), matrixUpdate@data(2), 
  4095 ;; Return value:  Size  Location     Type
  4096 ;;                  1    wreg      void 
  4097 ;; Registers used:
  4098 ;;		wreg, fsr1l, fsr1h, status,2, status,0
  4099 ;; Tracked objects:
  4100 ;;		On entry : 0/0
  4101 ;;		On exit  : 0/0
  4102 ;;		Unchanged: 0/0
  4103 ;; Data sizes:     COMMON   BANK0   BANK1   BANK2   BANK3   BANK4
  4104 ;;      Params:         0       2       0       0       0       0
  4105 ;;      Locals:         0       2       0       0       0       0
  4106 ;;      Temps:          0       1       0       0       0       0
  4107 ;;      Totals:         0       5       0       0       0       0
  4108 ;;Total ram usage:        5 bytes
  4109 ;; Hardware stack levels used: 1
  4110 ;; Hardware stack levels required when called: 7
  4111 ;; This function calls:
  4112 ;;		Nothing
  4113 ;; This function is called by:
  4114 ;;		_txSpi
  4115 ;; This function uses a non-reentrant model
  4116 ;;
  4117                           
  4118     0359                     _SPI1_ExchangeBlock:	
  4119                           ;psect for function _SPI1_ExchangeBlock
  4120                           
  4121                           
  4122                           ;incstack = 0
  4123                           ; Regs used in _SPI1_ExchangeBlock: [wreg+fsr1l+fsr1h+status,2+status,0]
  4124                           ;SPI1_ExchangeBlock@block stored from wreg
  4125     0359  0020               	movlb	0	; select bank0
  4126     035A  00B5               	movwf	SPI1_ExchangeBlock@block
  4127     035B                     l2212:
  4128                           
  4129                           ;mcc_generated_files/spi1.c: 100: void SPI1_ExchangeBlock(void *block, size_t blockSize)
      +                          ;mcc_generated_files/spi1.c: 101: {;mcc_generated_files/spi1.c: 102:     uint8_t *data =
      +                           block;
  4130     035B  0835               	movf	SPI1_ExchangeBlock@block,w
  4131     035C  00B6               	movwf	SPI1_ExchangeBlock@data
  4132                           
  4133                           ;mcc_generated_files/spi1.c: 103:     while(blockSize--)
  4134     035D  2B75               	goto	l2220
  4135     035E                     l2214:
  4136                           
  4137                           ;mcc_generated_files/spi1.c: 104:     {;mcc_generated_files/spi1.c: 105:         SSP1BUF
      +                           = *data;
  4138     035E  0836               	movf	SPI1_ExchangeBlock@data,w
  4139     035F  0086               	movwf	6
  4140     0360  0187               	clrf	7
  4141     0361  0801               	movf	1,w
  4142     0362  0024               	movlb	4	; select bank4
  4143     0363  0091               	movwf	17	;volatile
  4144     0364                     l376:	
  4145                           ;mcc_generated_files/spi1.c: 106:         while(!PIR1bits.SSP1IF);
  4146                           
  4147     0364  0020               	movlb	0	; select bank0
  4148     0365  1D91               	btfss	17,3	;volatile
  4149     0366  2B68               	goto	u701
  4150     0367  2B69               	goto	u700
  4151     0368                     u701:
  4152     0368  2B64               	goto	l376
  4153     0369                     u700:
  4154     0369                     l378:
  4155                           
  4156                           ;mcc_generated_files/spi1.c: 107:         PIR1bits.SSP1IF = 0;
  4157     0369  1191               	bcf	17,3	;volatile
  4158     036A                     l2216:
  4159                           
  4160                           ;mcc_generated_files/spi1.c: 108:         *data++ = SSP1BUF;
  4161     036A  0836               	movf	SPI1_ExchangeBlock@data,w
  4162     036B  0086               	movwf	6
  4163     036C  0187               	clrf	7
  4164     036D  0024               	movlb	4	; select bank4
  4165     036E  0811               	movf	17,w	;volatile
  4166     036F  0081               	movwf	1
  4167     0370                     l2218:
  4168     0370  3001               	movlw	1
  4169     0371  0020               	movlb	0	; select bank0
  4170     0372  00B4               	movwf	??_SPI1_ExchangeBlock
  4171     0373  0834               	movf	??_SPI1_ExchangeBlock,w
  4172     0374  07B6               	addwf	SPI1_ExchangeBlock@data,f
  4173     0375                     l2220:
  4174                           
  4175                           ;mcc_generated_files/spi1.c: 103:     while(blockSize--)
  4176     0375  3001               	movlw	1
  4177     0376  02B2               	subwf	SPI1_ExchangeBlock@blockSize,f
  4178     0377  3000               	movlw	0
  4179     0378  3BB3               	subwfb	SPI1_ExchangeBlock@blockSize+1,f
  4180     0379  0A32               	incf	SPI1_ExchangeBlock@blockSize,w
  4181     037A  1D03               	skipz
  4182     037B  2B80               	goto	u711
  4183     037C  0A33               	incf	SPI1_ExchangeBlock@blockSize+1,w
  4184     037D  1D03               	btfss	3,2
  4185     037E  2B80               	goto	u711
  4186     037F  2B81               	goto	u710
  4187     0380                     u711:
  4188     0380  2B5E               	goto	l2214
  4189     0381                     u710:
  4190     0381                     l380:
  4191     0381  0008               	return
  4192     0382                     __end_of_SPI1_ExchangeBlock:
  4193                           
  4194                           	psect	text6
  4195     02D2                     __ptext6:	
  4196 ;; *************** function _SYSTEM_Initialize *****************
  4197 ;; Defined at:
  4198 ;;		line 50 in file "mcc_generated_files/mcc.c"
  4199 ;; Parameters:    Size  Location     Type
  4200 ;;		None
  4201 ;; Auto vars:     Size  Location     Type
  4202 ;;		None
  4203 ;; Return value:  Size  Location     Type
  4204 ;;                  1    wreg      void 
  4205 ;; Registers used:
  4206 ;;		wreg, status,2, status,0, pclath, cstack
  4207 ;; Tracked objects:
  4208 ;;		On entry : 0/0
  4209 ;;		On exit  : 0/0
  4210 ;;		Unchanged: 0/0
  4211 ;; Data sizes:     COMMON   BANK0   BANK1   BANK2   BANK3   BANK4
  4212 ;;      Params:         0       0       0       0       0       0
  4213 ;;      Locals:         0       0       0       0       0       0
  4214 ;;      Temps:          0       0       0       0       0       0
  4215 ;;      Totals:         0       0       0       0       0       0
  4216 ;;Total ram usage:        0 bytes
  4217 ;; Hardware stack levels used: 1
  4218 ;; Hardware stack levels required when called: 9
  4219 ;; This function calls:
  4220 ;;		_ADC_Initialize
  4221 ;;		_CCP4_Initialize
  4222 ;;		_CMP1_Initialize
  4223 ;;		_CMP2_Initialize
  4224 ;;		_EUSART_Initialize
  4225 ;;		_FVR_Initialize
  4226 ;;		_OSCILLATOR_Initialize
  4227 ;;		_PIN_MANAGER_Initialize
  4228 ;;		_PWM3_Initialize
  4229 ;;		_SPI1_Initialize
  4230 ;;		_TMR0_Initialize
  4231 ;;		_TMR1_Initialize
  4232 ;;		_TMR2_Initialize
  4233 ;;		_TMR4_Initialize
  4234 ;;		_WDT_Initialize
  4235 ;; This function is called by:
  4236 ;;		_main
  4237 ;; This function uses a non-reentrant model
  4238 ;;
  4239                           
  4240     02D2                     _SYSTEM_Initialize:	
  4241                           ;psect for function _SYSTEM_Initialize
  4242                           
  4243     02D2                     l2678:	
  4244                           ;incstack = 0
  4245                           ; Regs used in _SYSTEM_Initialize: [wreg+status,2+status,0+pclath+cstack]
  4246                           
  4247                           
  4248                           ;mcc_generated_files/mcc.c: 53:     SPI1_Initialize();
  4249     02D2  3185  2530  3182   	fcall	_SPI1_Initialize
  4250                           
  4251                           ;mcc_generated_files/mcc.c: 54:     PIN_MANAGER_Initialize();
  4252     02D5  3182  22A1  3182   	fcall	_PIN_MANAGER_Initialize
  4253                           
  4254                           ;mcc_generated_files/mcc.c: 55:     OSCILLATOR_Initialize();
  4255     02D8  3185  2555  3182   	fcall	_OSCILLATOR_Initialize
  4256                           
  4257                           ;mcc_generated_files/mcc.c: 56:     WDT_Initialize();
  4258     02DB  3185  25A7  3182   	fcall	_WDT_Initialize
  4259                           
  4260                           ;mcc_generated_files/mcc.c: 57:     CMP2_Initialize();
  4261     02DE  3185  2518  3182   	fcall	_CMP2_Initialize
  4262                           
  4263                           ;mcc_generated_files/mcc.c: 58:     FVR_Initialize();
  4264     02E1  3185  25AB  3182   	fcall	_FVR_Initialize
  4265                           
  4266                           ;mcc_generated_files/mcc.c: 59:     TMR4_Initialize();
  4267     02E4  3184  2449  3182   	fcall	_TMR4_Initialize
  4268                           
  4269                           ;mcc_generated_files/mcc.c: 60:     TMR2_Initialize();
  4270     02E7  3185  2545  3182   	fcall	_TMR2_Initialize
  4271                           
  4272                           ;mcc_generated_files/mcc.c: 61:     TMR0_Initialize();
  4273     02EA  3184  245D  3182   	fcall	_TMR0_Initialize
  4274                           
  4275                           ;mcc_generated_files/mcc.c: 62:     CMP1_Initialize();
  4276     02ED  3185  2524  3182   	fcall	_CMP1_Initialize
  4277                           
  4278                           ;mcc_generated_files/mcc.c: 63:     CCP4_Initialize();
  4279     02F0  3184  2471  3182   	fcall	_CCP4_Initialize
  4280                           
  4281                           ;mcc_generated_files/mcc.c: 64:     ADC_Initialize();
  4282     02F3  3185  254D  3182   	fcall	_ADC_Initialize
  4283                           
  4284                           ;mcc_generated_files/mcc.c: 65:     PWM3_Initialize();
  4285     02F6  3185  253B  3182   	fcall	_PWM3_Initialize
  4286                           
  4287                           ;mcc_generated_files/mcc.c: 66:     TMR1_Initialize();
  4288     02F9  3184  24E4  3182   	fcall	_TMR1_Initialize
  4289                           
  4290                           ;mcc_generated_files/mcc.c: 67:     EUSART_Initialize();
  4291     02FC  3183  23A9  3182   	fcall	_EUSART_Initialize
  4292     02FF                     l195:
  4293     02FF  0008               	return
  4294     0300                     __end_of_SYSTEM_Initialize:
  4295                           
  4296                           	psect	text7
  4297     05A7                     __ptext7:	
  4298 ;; *************** function _WDT_Initialize *****************
  4299 ;; Defined at:
  4300 ;;		line 80 in file "mcc_generated_files/mcc.c"
  4301 ;; Parameters:    Size  Location     Type
  4302 ;;		None
  4303 ;; Auto vars:     Size  Location     Type
  4304 ;;		None
  4305 ;; Return value:  Size  Location     Type
  4306 ;;                  1    wreg      void 
  4307 ;; Registers used:
  4308 ;;		wreg
  4309 ;; Tracked objects:
  4310 ;;		On entry : 0/0
  4311 ;;		On exit  : 0/0
  4312 ;;		Unchanged: 0/0
  4313 ;; Data sizes:     COMMON   BANK0   BANK1   BANK2   BANK3   BANK4
  4314 ;;      Params:         0       0       0       0       0       0
  4315 ;;      Locals:         0       0       0       0       0       0
  4316 ;;      Temps:          0       0       0       0       0       0
  4317 ;;      Totals:         0       0       0       0       0       0
  4318 ;;Total ram usage:        0 bytes
  4319 ;; Hardware stack levels used: 1
  4320 ;; Hardware stack levels required when called: 7
  4321 ;; This function calls:
  4322 ;;		Nothing
  4323 ;; This function is called by:
  4324 ;;		_SYSTEM_Initialize
  4325 ;; This function uses a non-reentrant model
  4326 ;;
  4327                           
  4328     05A7                     _WDT_Initialize:	
  4329                           ;psect for function _WDT_Initialize
  4330                           
  4331     05A7                     l2542:	
  4332                           ;incstack = 0
  4333                           ; Regs used in _WDT_Initialize: [wreg]
  4334                           
  4335                           
  4336                           ;mcc_generated_files/mcc.c: 83:     WDTCON = 0x16;
  4337     05A7  3016               	movlw	22
  4338     05A8  0021               	movlb	1	; select bank1
  4339     05A9  0097               	movwf	23	;volatile
  4340     05AA                     l201:
  4341     05AA  0008               	return
  4342     05AB                     __end_of_WDT_Initialize:
  4343                           
  4344                           	psect	text8
  4345     0449                     __ptext8:	
  4346 ;; *************** function _TMR4_Initialize *****************
  4347 ;; Defined at:
  4348 ;;		line 64 in file "mcc_generated_files/tmr4.c"
  4349 ;; Parameters:    Size  Location     Type
  4350 ;;		None
  4351 ;; Auto vars:     Size  Location     Type
  4352 ;;		None
  4353 ;; Return value:  Size  Location     Type
  4354 ;;                  1    wreg      void 
  4355 ;; Registers used:
  4356 ;;		wreg, status,2, status,0, pclath, cstack
  4357 ;; Tracked objects:
  4358 ;;		On entry : 0/0
  4359 ;;		On exit  : 0/0
  4360 ;;		Unchanged: 0/0
  4361 ;; Data sizes:     COMMON   BANK0   BANK1   BANK2   BANK3   BANK4
  4362 ;;      Params:         0       0       0       0       0       0
  4363 ;;      Locals:         0       0       0       0       0       0
  4364 ;;      Temps:          0       0       0       0       0       0
  4365 ;;      Totals:         0       0       0       0       0       0
  4366 ;;Total ram usage:        0 bytes
  4367 ;; Hardware stack levels used: 1
  4368 ;; Hardware stack levels required when called: 8
  4369 ;; This function calls:
  4370 ;;		_TMR4_SetInterruptHandler
  4371 ;; This function is called by:
  4372 ;;		_SYSTEM_Initialize
  4373 ;; This function uses a non-reentrant model
  4374 ;;
  4375                           
  4376     0449                     _TMR4_Initialize:	
  4377                           ;psect for function _TMR4_Initialize
  4378                           
  4379     0449                     l2546:	
  4380                           ;incstack = 0
  4381                           ; Regs used in _TMR4_Initialize: [wreg+status,2+status,0+pclath+cstack]
  4382                           
  4383                           
  4384                           ;mcc_generated_files/tmr4.c: 69:     PR4 = 0xF3;
  4385     0449  30F3               	movlw	243
  4386     044A  0028               	movlb	8	; select bank8
  4387     044B  0096               	movwf	22	;volatile
  4388     044C                     l2548:
  4389                           
  4390                           ;mcc_generated_files/tmr4.c: 72:     TMR4 = 0x00;
  4391     044C  0195               	clrf	21	;volatile
  4392     044D                     l2550:
  4393                           
  4394                           ;mcc_generated_files/tmr4.c: 75:     PIR3bits.TMR4IF = 0;
  4395     044D  0020               	movlb	0	; select bank0
  4396     044E  1093               	bcf	19,1	;volatile
  4397     044F                     l2552:
  4398                           
  4399                           ;mcc_generated_files/tmr4.c: 78:     PIE3bits.TMR4IE = 1;
  4400     044F  0021               	movlb	1	; select bank1
  4401     0450  1493               	bsf	19,1	;volatile
  4402     0451                     l2554:
  4403                           
  4404                           ;mcc_generated_files/tmr4.c: 81:     TMR4_SetInterruptHandler(TMR4_DefaultInterruptHandl
      +                          er);
  4405     0451  30B9               	movlw	low _TMR4_DefaultInterruptHandler
  4406     0452  0020               	movlb	0	; select bank0
  4407     0453  00B2               	movwf	TMR4_SetInterruptHandler@InterruptHandler
  4408     0454  3005               	movlw	high _TMR4_DefaultInterruptHandler
  4409     0455  00B3               	movwf	TMR4_SetInterruptHandler@InterruptHandler+1
  4410     0456  3185  2562  3184   	fcall	_TMR4_SetInterruptHandler
  4411     0459                     l2556:
  4412                           
  4413                           ;mcc_generated_files/tmr4.c: 84:     T4CON = 0x7F;
  4414     0459  307F               	movlw	127
  4415     045A  0028               	movlb	8	; select bank8
  4416     045B  0097               	movwf	23	;volatile
  4417     045C                     l602:
  4418     045C  0008               	return
  4419     045D                     __end_of_TMR4_Initialize:
  4420                           
  4421                           	psect	text9
  4422     0562                     __ptext9:	
  4423 ;; *************** function _TMR4_SetInterruptHandler *****************
  4424 ;; Defined at:
  4425 ;;		line 147 in file "mcc_generated_files/tmr4.c"
  4426 ;; Parameters:    Size  Location     Type
  4427 ;;  InterruptHan    2    0[BANK0 ] PTR FTN()void 
  4428 ;;		 -> controleMovimento(1), TMR4_DefaultInterruptHandler(1), 
  4429 ;; Auto vars:     Size  Location     Type
  4430 ;;		None
  4431 ;; Return value:  Size  Location     Type
  4432 ;;                  1    wreg      void 
  4433 ;; Registers used:
  4434 ;;		wreg
  4435 ;; Tracked objects:
  4436 ;;		On entry : 0/0
  4437 ;;		On exit  : 0/0
  4438 ;;		Unchanged: 0/0
  4439 ;; Data sizes:     COMMON   BANK0   BANK1   BANK2   BANK3   BANK4
  4440 ;;      Params:         0       2       0       0       0       0
  4441 ;;      Locals:         0       0       0       0       0       0
  4442 ;;      Temps:          0       0       0       0       0       0
  4443 ;;      Totals:         0       2       0       0       0       0
  4444 ;;Total ram usage:        2 bytes
  4445 ;; Hardware stack levels used: 1
  4446 ;; Hardware stack levels required when called: 7
  4447 ;; This function calls:
  4448 ;;		Nothing
  4449 ;; This function is called by:
  4450 ;;		_TMR4_Initialize
  4451 ;;		_main
  4452 ;; This function uses a non-reentrant model
  4453 ;;
  4454                           
  4455     0562                     _TMR4_SetInterruptHandler:	
  4456                           ;psect for function _TMR4_SetInterruptHandler
  4457                           
  4458     0562                     l2276:	
  4459                           ;incstack = 0
  4460                           ; Regs used in _TMR4_SetInterruptHandler: [wreg]
  4461                           
  4462                           
  4463                           ;mcc_generated_files/tmr4.c: 148:     TMR4_InterruptHandler = InterruptHandler;
  4464     0562  0020               	movlb	0	; select bank0
  4465     0563  0833               	movf	TMR4_SetInterruptHandler@InterruptHandler+1,w
  4466     0564  00C4               	movwf	_TMR4_InterruptHandler+1
  4467     0565  0832               	movf	TMR4_SetInterruptHandler@InterruptHandler,w
  4468     0566  00C3               	movwf	_TMR4_InterruptHandler
  4469     0567                     l630:
  4470     0567  0008               	return
  4471     0568                     __end_of_TMR4_SetInterruptHandler:
  4472                           
  4473                           	psect	text10
  4474     0545                     __ptext10:	
  4475 ;; *************** function _TMR2_Initialize *****************
  4476 ;; Defined at:
  4477 ;;		line 62 in file "mcc_generated_files/tmr2.c"
  4478 ;; Parameters:    Size  Location     Type
  4479 ;;		None
  4480 ;; Auto vars:     Size  Location     Type
  4481 ;;		None
  4482 ;; Return value:  Size  Location     Type
  4483 ;;                  1    wreg      void 
  4484 ;; Registers used:
  4485 ;;		wreg, status,2
  4486 ;; Tracked objects:
  4487 ;;		On entry : 0/0
  4488 ;;		On exit  : 0/0
  4489 ;;		Unchanged: 0/0
  4490 ;; Data sizes:     COMMON   BANK0   BANK1   BANK2   BANK3   BANK4
  4491 ;;      Params:         0       0       0       0       0       0
  4492 ;;      Locals:         0       0       0       0       0       0
  4493 ;;      Temps:          0       0       0       0       0       0
  4494 ;;      Totals:         0       0       0       0       0       0
  4495 ;;Total ram usage:        0 bytes
  4496 ;; Hardware stack levels used: 1
  4497 ;; Hardware stack levels required when called: 7
  4498 ;; This function calls:
  4499 ;;		Nothing
  4500 ;; This function is called by:
  4501 ;;		_SYSTEM_Initialize
  4502 ;; This function uses a non-reentrant model
  4503 ;;
  4504                           
  4505     0545                     _TMR2_Initialize:	
  4506                           ;psect for function _TMR2_Initialize
  4507                           
  4508     0545                     l2558:	
  4509                           ;incstack = 0
  4510                           ; Regs used in _TMR2_Initialize: [wreg+status,2]
  4511                           
  4512                           
  4513                           ;mcc_generated_files/tmr2.c: 67:     PR2 = 0xFF;
  4514     0545  30FF               	movlw	255
  4515     0546  0020               	movlb	0	; select bank0
  4516     0547  009B               	movwf	27	;volatile
  4517     0548                     l2560:
  4518                           
  4519                           ;mcc_generated_files/tmr2.c: 70:     TMR2 = 0x00;
  4520     0548  019A               	clrf	26	;volatile
  4521     0549                     l2562:
  4522                           
  4523                           ;mcc_generated_files/tmr2.c: 73:     PIR1bits.TMR2IF = 0;
  4524     0549  1091               	bcf	17,1	;volatile
  4525     054A                     l2564:
  4526                           
  4527                           ;mcc_generated_files/tmr2.c: 76:     T2CON = 0x04;
  4528     054A  3004               	movlw	4
  4529     054B  009C               	movwf	28	;volatile
  4530     054C                     l490:
  4531     054C  0008               	return
  4532     054D                     __end_of_TMR2_Initialize:
  4533                           
  4534                           	psect	text11
  4535     04E4                     __ptext11:	
  4536 ;; *************** function _TMR1_Initialize *****************
  4537 ;; Defined at:
  4538 ;;		line 63 in file "mcc_generated_files/tmr1.c"
  4539 ;; Parameters:    Size  Location     Type
  4540 ;;		None
  4541 ;; Auto vars:     Size  Location     Type
  4542 ;;		None
  4543 ;; Return value:  Size  Location     Type
  4544 ;;                  1    wreg      void 
  4545 ;; Registers used:
  4546 ;;		wreg, status,2
  4547 ;; Tracked objects:
  4548 ;;		On entry : 0/0
  4549 ;;		On exit  : 0/0
  4550 ;;		Unchanged: 0/0
  4551 ;; Data sizes:     COMMON   BANK0   BANK1   BANK2   BANK3   BANK4
  4552 ;;      Params:         0       0       0       0       0       0
  4553 ;;      Locals:         0       0       0       0       0       0
  4554 ;;      Temps:          0       0       0       0       0       0
  4555 ;;      Totals:         0       0       0       0       0       0
  4556 ;;Total ram usage:        0 bytes
  4557 ;; Hardware stack levels used: 1
  4558 ;; Hardware stack levels required when called: 7
  4559 ;; This function calls:
  4560 ;;		Nothing
  4561 ;; This function is called by:
  4562 ;;		_SYSTEM_Initialize
  4563 ;; This function uses a non-reentrant model
  4564 ;;
  4565                           
  4566     04E4                     _TMR1_Initialize:	
  4567                           ;psect for function _TMR1_Initialize
  4568                           
  4569     04E4                     l2596:	
  4570                           ;incstack = 0
  4571                           ; Regs used in _TMR1_Initialize: [wreg+status,2]
  4572                           
  4573                           
  4574                           ;mcc_generated_files/tmr1.c: 68:     T1GCON = 0x00;
  4575     04E4  0020               	movlb	0	; select bank0
  4576     04E5  0199               	clrf	25	;volatile
  4577     04E6                     l2598:
  4578                           
  4579                           ;mcc_generated_files/tmr1.c: 71:     TMR1H = 0x0B;
  4580     04E6  300B               	movlw	11
  4581     04E7  0097               	movwf	23	;volatile
  4582     04E8                     l2600:
  4583                           
  4584                           ;mcc_generated_files/tmr1.c: 74:     TMR1L = 0xDC;
  4585     04E8  30DC               	movlw	220
  4586     04E9  0096               	movwf	22	;volatile
  4587     04EA                     l2602:
  4588                           
  4589                           ;mcc_generated_files/tmr1.c: 77:     PIR1bits.TMR1IF = 0;
  4590     04EA  1011               	bcf	17,0	;volatile
  4591     04EB                     l2604:
  4592                           
  4593                           ;mcc_generated_files/tmr1.c: 80:     timer1ReloadVal=(uint16_t)((TMR1H << 8) | TMR1L);
  4594     04EB  0817               	movf	23,w	;volatile
  4595     04EC  00AD               	movwf	_timer1ReloadVal+1	;volatile
  4596     04ED  0816               	movf	22,w	;volatile
  4597     04EE  00AC               	movwf	_timer1ReloadVal	;volatile
  4598     04EF                     l2606:
  4599                           
  4600                           ;mcc_generated_files/tmr1.c: 83:     T1CON = 0x31;
  4601     04EF  3031               	movlw	49
  4602     04F0  0098               	movwf	24	;volatile
  4603     04F1                     l451:
  4604     04F1  0008               	return
  4605     04F2                     __end_of_TMR1_Initialize:
  4606                           
  4607                           	psect	text12
  4608     045D                     __ptext12:	
  4609 ;; *************** function _TMR0_Initialize *****************
  4610 ;; Defined at:
  4611 ;;		line 64 in file "mcc_generated_files/tmr0.c"
  4612 ;; Parameters:    Size  Location     Type
  4613 ;;		None
  4614 ;; Auto vars:     Size  Location     Type
  4615 ;;		None
  4616 ;; Return value:  Size  Location     Type
  4617 ;;                  1    wreg      void 
  4618 ;; Registers used:
  4619 ;;		wreg, status,2, status,0, pclath, cstack
  4620 ;; Tracked objects:
  4621 ;;		On entry : 0/0
  4622 ;;		On exit  : 0/0
  4623 ;;		Unchanged: 0/0
  4624 ;; Data sizes:     COMMON   BANK0   BANK1   BANK2   BANK3   BANK4
  4625 ;;      Params:         0       0       0       0       0       0
  4626 ;;      Locals:         0       0       0       0       0       0
  4627 ;;      Temps:          0       0       0       0       0       0
  4628 ;;      Totals:         0       0       0       0       0       0
  4629 ;;Total ram usage:        0 bytes
  4630 ;; Hardware stack levels used: 1
  4631 ;; Hardware stack levels required when called: 8
  4632 ;; This function calls:
  4633 ;;		_TMR0_SetInterruptHandler
  4634 ;; This function is called by:
  4635 ;;		_SYSTEM_Initialize
  4636 ;; This function uses a non-reentrant model
  4637 ;;
  4638                           
  4639     045D                     _TMR0_Initialize:	
  4640                           ;psect for function _TMR0_Initialize
  4641                           
  4642     045D                     l2566:	
  4643                           ;incstack = 0
  4644                           ; Regs used in _TMR0_Initialize: [wreg+status,2+status,0+pclath+cstack]
  4645                           
  4646                           
  4647                           ;mcc_generated_files/tmr0.c: 69:     OPTION_REG = (uint8_t)((OPTION_REG & 0xC0) | (0xD7 
      +                          & 0x3F));
  4648     045D  0021               	movlb	1	; select bank1
  4649     045E  0815               	movf	21,w	;volatile
  4650     045F  39C0               	andlw	192
  4651     0460  3817               	iorlw	23
  4652     0461  0095               	movwf	21	;volatile
  4653     0462                     l2568:
  4654                           
  4655                           ;mcc_generated_files/tmr0.c: 72:     TMR0 = 0x16;
  4656     0462  3016               	movlw	22
  4657     0463  0020               	movlb	0	; select bank0
  4658     0464  0095               	movwf	21	;volatile
  4659     0465                     l2570:
  4660                           
  4661                           ;mcc_generated_files/tmr0.c: 75:     timer0ReloadVal= 22;
  4662     0465  3016               	movlw	22
  4663     0466  00B0               	movwf	_timer0ReloadVal	;volatile
  4664     0467                     l2572:
  4665                           
  4666                           ;mcc_generated_files/tmr0.c: 78:     INTCONbits.TMR0IF = 0;
  4667     0467  110B               	bcf	11,2	;volatile
  4668     0468                     l2574:
  4669                           
  4670                           ;mcc_generated_files/tmr0.c: 81:     INTCONbits.TMR0IE = 1;
  4671     0468  168B               	bsf	11,5	;volatile
  4672     0469                     l2576:
  4673                           
  4674                           ;mcc_generated_files/tmr0.c: 84:     TMR0_SetInterruptHandler(TMR0_DefaultInterruptHandl
      +                          er);
  4675     0469  30BA               	movlw	low _TMR0_DefaultInterruptHandler
  4676     046A  00B2               	movwf	TMR0_SetInterruptHandler@InterruptHandler
  4677     046B  3005               	movlw	high _TMR0_DefaultInterruptHandler
  4678     046C  00B3               	movwf	TMR0_SetInterruptHandler@InterruptHandler+1
  4679     046D  3185  2568  3184   	fcall	_TMR0_SetInterruptHandler
  4680     0470                     l528:
  4681     0470  0008               	return
  4682     0471                     __end_of_TMR0_Initialize:
  4683                           
  4684                           	psect	text13
  4685     0568                     __ptext13:	
  4686 ;; *************** function _TMR0_SetInterruptHandler *****************
  4687 ;; Defined at:
  4688 ;;		line 140 in file "mcc_generated_files/tmr0.c"
  4689 ;; Parameters:    Size  Location     Type
  4690 ;;  InterruptHan    2    0[BANK0 ] PTR FTN()void 
  4691 ;;		 -> TMR0_DefaultInterruptHandler(1), 
  4692 ;; Auto vars:     Size  Location     Type
  4693 ;;		None
  4694 ;; Return value:  Size  Location     Type
  4695 ;;                  1    wreg      void 
  4696 ;; Registers used:
  4697 ;;		wreg
  4698 ;; Tracked objects:
  4699 ;;		On entry : 0/0
  4700 ;;		On exit  : 0/0
  4701 ;;		Unchanged: 0/0
  4702 ;; Data sizes:     COMMON   BANK0   BANK1   BANK2   BANK3   BANK4
  4703 ;;      Params:         0       2       0       0       0       0
  4704 ;;      Locals:         0       0       0       0       0       0
  4705 ;;      Temps:          0       0       0       0       0       0
  4706 ;;      Totals:         0       2       0       0       0       0
  4707 ;;Total ram usage:        2 bytes
  4708 ;; Hardware stack levels used: 1
  4709 ;; Hardware stack levels required when called: 7
  4710 ;; This function calls:
  4711 ;;		Nothing
  4712 ;; This function is called by:
  4713 ;;		_TMR0_Initialize
  4714 ;; This function uses a non-reentrant model
  4715 ;;
  4716                           
  4717     0568                     _TMR0_SetInterruptHandler:	
  4718                           ;psect for function _TMR0_SetInterruptHandler
  4719                           
  4720     0568                     l2272:	
  4721                           ;incstack = 0
  4722                           ; Regs used in _TMR0_SetInterruptHandler: [wreg]
  4723                           
  4724                           
  4725                           ;mcc_generated_files/tmr0.c: 141:     TMR0_InterruptHandler = InterruptHandler;
  4726     0568  0020               	movlb	0	; select bank0
  4727     0569  0833               	movf	TMR0_SetInterruptHandler@InterruptHandler+1,w
  4728     056A  00C8               	movwf	_TMR0_InterruptHandler+1
  4729     056B  0832               	movf	TMR0_SetInterruptHandler@InterruptHandler,w
  4730     056C  00C7               	movwf	_TMR0_InterruptHandler
  4731     056D                     l550:
  4732     056D  0008               	return
  4733     056E                     __end_of_TMR0_SetInterruptHandler:
  4734                           
  4735                           	psect	text14
  4736     0530                     __ptext14:	
  4737 ;; *************** function _SPI1_Initialize *****************
  4738 ;; Defined at:
  4739 ;;		line 62 in file "mcc_generated_files/spi1.c"
  4740 ;; Parameters:    Size  Location     Type
  4741 ;;		None
  4742 ;; Auto vars:     Size  Location     Type
  4743 ;;		None
  4744 ;; Return value:  Size  Location     Type
  4745 ;;                  1    wreg      void 
  4746 ;; Registers used:
  4747 ;;		wreg, status,2
  4748 ;; Tracked objects:
  4749 ;;		On entry : 0/0
  4750 ;;		On exit  : 0/0
  4751 ;;		Unchanged: 0/0
  4752 ;; Data sizes:     COMMON   BANK0   BANK1   BANK2   BANK3   BANK4
  4753 ;;      Params:         0       0       0       0       0       0
  4754 ;;      Locals:         0       0       0       0       0       0
  4755 ;;      Temps:          0       0       0       0       0       0
  4756 ;;      Totals:         0       0       0       0       0       0
  4757 ;;Total ram usage:        0 bytes
  4758 ;; Hardware stack levels used: 1
  4759 ;; Hardware stack levels required when called: 7
  4760 ;; This function calls:
  4761 ;;		Nothing
  4762 ;; This function is called by:
  4763 ;;		_SYSTEM_Initialize
  4764 ;; This function uses a non-reentrant model
  4765 ;;
  4766                           
  4767     0530                     _SPI1_Initialize:	
  4768                           ;psect for function _SPI1_Initialize
  4769                           
  4770     0530                     l2526:	
  4771                           ;incstack = 0
  4772                           ; Regs used in _SPI1_Initialize: [wreg+status,2]
  4773                           
  4774                           
  4775                           ;mcc_generated_files/spi1.c: 65:     SSP1STAT = 0x40;
  4776     0530  3040               	movlw	64
  4777     0531  0024               	movlb	4	; select bank4
  4778     0532  0094               	movwf	20	;volatile
  4779     0533                     l2528:
  4780                           
  4781                           ;mcc_generated_files/spi1.c: 66:     SSP1CON1 = 0x00;
  4782     0533  0195               	clrf	21	;volatile
  4783     0534                     l2530:
  4784                           
  4785                           ;mcc_generated_files/spi1.c: 67:     SSP1ADD = 0x01;
  4786     0534  3001               	movlw	1
  4787     0535  0092               	movwf	18	;volatile
  4788     0536                     l2532:
  4789                           
  4790                           ;mcc_generated_files/spi1.c: 68:     TRISBbits.TRISB4 = 0;
  4791     0536  0021               	movlb	1	; select bank1
  4792     0537  120D               	bcf	13,4	;volatile
  4793     0538                     l2534:
  4794                           
  4795                           ;mcc_generated_files/spi1.c: 69:     SSP1CON1bits.SSPEN = 0;
  4796     0538  0024               	movlb	4	; select bank4
  4797     0539  1295               	bcf	21,5	;volatile
  4798     053A                     l358:
  4799     053A  0008               	return
  4800     053B                     __end_of_SPI1_Initialize:
  4801                           
  4802                           	psect	text15
  4803     053B                     __ptext15:	
  4804 ;; *************** function _PWM3_Initialize *****************
  4805 ;; Defined at:
  4806 ;;		line 64 in file "mcc_generated_files/pwm3.c"
  4807 ;; Parameters:    Size  Location     Type
  4808 ;;		None
  4809 ;; Auto vars:     Size  Location     Type
  4810 ;;		None
  4811 ;; Return value:  Size  Location     Type
  4812 ;;                  1    wreg      void 
  4813 ;; Registers used:
  4814 ;;		wreg, status,2, status,0
  4815 ;; Tracked objects:
  4816 ;;		On entry : 0/0
  4817 ;;		On exit  : 0/0
  4818 ;;		Unchanged: 0/0
  4819 ;; Data sizes:     COMMON   BANK0   BANK1   BANK2   BANK3   BANK4
  4820 ;;      Params:         0       0       0       0       0       0
  4821 ;;      Locals:         0       0       0       0       0       0
  4822 ;;      Temps:          0       0       0       0       0       0
  4823 ;;      Totals:         0       0       0       0       0       0
  4824 ;;Total ram usage:        0 bytes
  4825 ;; Hardware stack levels used: 1
  4826 ;; Hardware stack levels required when called: 7
  4827 ;; This function calls:
  4828 ;;		Nothing
  4829 ;; This function is called by:
  4830 ;;		_SYSTEM_Initialize
  4831 ;; This function uses a non-reentrant model
  4832 ;;
  4833                           
  4834     053B                     _PWM3_Initialize:	
  4835                           ;psect for function _PWM3_Initialize
  4836                           
  4837     053B                     l2390:	
  4838                           ;incstack = 0
  4839                           ; Regs used in _PWM3_Initialize: [wreg+status,2+status,0]
  4840                           
  4841                           
  4842                           ;mcc_generated_files/pwm3.c: 69:  CCP3CON = 0x3C;
  4843     053B  303C               	movlw	60
  4844     053C  0026               	movlb	6	; select bank6
  4845     053D  0093               	movwf	19	;volatile
  4846                           
  4847                           ;mcc_generated_files/pwm3.c: 72:  CCPR3L = 0x7F;
  4848     053E  307F               	movlw	127
  4849     053F  0091               	movwf	17	;volatile
  4850     0540                     l2392:
  4851                           
  4852                           ;mcc_generated_files/pwm3.c: 75:  CCPR3H = 0x00;
  4853     0540  0192               	clrf	18	;volatile
  4854     0541                     l2394:
  4855                           
  4856                           ;mcc_generated_files/pwm3.c: 78:  CCPTMRS0bits.C3TSEL = 0x0;
  4857     0541  30CF               	movlw	-49
  4858     0542  0025               	movlb	5	; select bank5
  4859     0543  059E               	andwf	30,f	;volatile
  4860     0544                     l11:
  4861     0544  0008               	return
  4862     0545                     __end_of_PWM3_Initialize:
  4863                           
  4864                           	psect	text16
  4865     02A1                     __ptext16:	
  4866 ;; *************** function _PIN_MANAGER_Initialize *****************
  4867 ;; Defined at:
  4868 ;;		line 58 in file "mcc_generated_files/pin_manager.c"
  4869 ;; Parameters:    Size  Location     Type
  4870 ;;		None
  4871 ;; Auto vars:     Size  Location     Type
  4872 ;;		None
  4873 ;; Return value:  Size  Location     Type
  4874 ;;                  1    wreg      void 
  4875 ;; Registers used:
  4876 ;;		wreg, status,2, status,0, pclath, cstack
  4877 ;; Tracked objects:
  4878 ;;		On entry : 0/0
  4879 ;;		On exit  : 0/0
  4880 ;;		Unchanged: 0/0
  4881 ;; Data sizes:     COMMON   BANK0   BANK1   BANK2   BANK3   BANK4
  4882 ;;      Params:         0       0       0       0       0       0
  4883 ;;      Locals:         0       0       0       0       0       0
  4884 ;;      Temps:          0       0       0       0       0       0
  4885 ;;      Totals:         0       0       0       0       0       0
  4886 ;;Total ram usage:        0 bytes
  4887 ;; Hardware stack levels used: 1
  4888 ;; Hardware stack levels required when called: 8
  4889 ;; This function calls:
  4890 ;;		_IOCBF0_SetInterruptHandler
  4891 ;;		_IOCBF3_SetInterruptHandler
  4892 ;; This function is called by:
  4893 ;;		_SYSTEM_Initialize
  4894 ;; This function uses a non-reentrant model
  4895 ;;
  4896                           
  4897     02A1                     _PIN_MANAGER_Initialize:	
  4898                           ;psect for function _PIN_MANAGER_Initialize
  4899                           
  4900     02A1                     l2480:	
  4901                           ;incstack = 0
  4902                           ; Regs used in _PIN_MANAGER_Initialize: [wreg+status,2+status,0+pclath+cstack]
  4903                           
  4904                           
  4905                           ;mcc_generated_files/pin_manager.c: 63:     LATA = 0x00;
  4906     02A1  0022               	movlb	2	; select bank2
  4907     02A2  018C               	clrf	12	;volatile
  4908                           
  4909                           ;mcc_generated_files/pin_manager.c: 64:     LATB = 0x00;
  4910     02A3  018D               	clrf	13	;volatile
  4911     02A4                     l2482:
  4912                           
  4913                           ;mcc_generated_files/pin_manager.c: 69:     TRISA = 0x37;
  4914     02A4  3037               	movlw	55
  4915     02A5  0021               	movlb	1	; select bank1
  4916     02A6  008C               	movwf	12	;volatile
  4917     02A7                     l2484:
  4918                           
  4919                           ;mcc_generated_files/pin_manager.c: 70:     TRISB = 0xED;
  4920     02A7  30ED               	movlw	237
  4921     02A8  008D               	movwf	13	;volatile
  4922     02A9                     l2486:
  4923                           
  4924                           ;mcc_generated_files/pin_manager.c: 75:     ANSELB = 0xC0;
  4925     02A9  30C0               	movlw	192
  4926     02AA  0023               	movlb	3	; select bank3
  4927     02AB  008D               	movwf	13	;volatile
  4928     02AC                     l2488:
  4929                           
  4930                           ;mcc_generated_files/pin_manager.c: 76:     ANSELA = 0x0F;
  4931     02AC  300F               	movlw	15
  4932     02AD  008C               	movwf	12	;volatile
  4933     02AE                     l2490:
  4934                           
  4935                           ;mcc_generated_files/pin_manager.c: 81:     WPUB = 0x09;
  4936     02AE  3009               	movlw	9
  4937     02AF  0024               	movlb	4	; select bank4
  4938     02B0  008D               	movwf	13	;volatile
  4939     02B1                     l2492:
  4940                           
  4941                           ;mcc_generated_files/pin_manager.c: 82:     WPUA = 0x00;
  4942     02B1  018C               	clrf	12	;volatile
  4943     02B2                     l2494:
  4944                           
  4945                           ;mcc_generated_files/pin_manager.c: 83:     OPTION_REGbits.nWPUEN = 0;
  4946     02B2  0021               	movlb	1	; select bank1
  4947     02B3  1395               	bcf	21,7	;volatile
  4948                           
  4949                           ;mcc_generated_files/pin_manager.c: 89:     APFCON0 = 0xC0;
  4950     02B4  30C0               	movlw	192
  4951     02B5  0022               	movlb	2	; select bank2
  4952     02B6  009D               	movwf	29	;volatile
  4953                           
  4954                           ;mcc_generated_files/pin_manager.c: 90:     APFCON1 = 0x01;
  4955     02B7  3001               	movlw	1
  4956     02B8  009E               	movwf	30	;volatile
  4957     02B9                     l2496:
  4958                           
  4959                           ;mcc_generated_files/pin_manager.c: 96:     IOCBFbits.IOCBF0 = 0;
  4960     02B9  0027               	movlb	7	; select bank7
  4961     02BA  1016               	bcf	22,0	;volatile
  4962     02BB                     l2498:
  4963                           
  4964                           ;mcc_generated_files/pin_manager.c: 98:     IOCBFbits.IOCBF3 = 0;
  4965     02BB  1196               	bcf	22,3	;volatile
  4966     02BC                     l2500:
  4967                           
  4968                           ;mcc_generated_files/pin_manager.c: 100:     IOCBNbits.IOCBN0 = 1;
  4969     02BC  1415               	bsf	21,0	;volatile
  4970     02BD                     l2502:
  4971                           
  4972                           ;mcc_generated_files/pin_manager.c: 102:     IOCBNbits.IOCBN3 = 1;
  4973     02BD  1595               	bsf	21,3	;volatile
  4974     02BE                     l2504:
  4975                           
  4976                           ;mcc_generated_files/pin_manager.c: 104:     IOCBPbits.IOCBP0 = 0;
  4977     02BE  1014               	bcf	20,0	;volatile
  4978     02BF                     l2506:
  4979                           
  4980                           ;mcc_generated_files/pin_manager.c: 106:     IOCBPbits.IOCBP3 = 0;
  4981     02BF  1194               	bcf	20,3	;volatile
  4982     02C0                     l2508:
  4983                           
  4984                           ;mcc_generated_files/pin_manager.c: 111:     IOCBF0_SetInterruptHandler(IOCBF0_DefaultIn
      +                          terruptHandler);
  4985     02C0  30BC               	movlw	low _IOCBF0_DefaultInterruptHandler
  4986     02C1  0020               	movlb	0	; select bank0
  4987     02C2  00B2               	movwf	IOCBF0_SetInterruptHandler@InterruptHandler
  4988     02C3  3005               	movlw	high _IOCBF0_DefaultInterruptHandler
  4989     02C4  00B3               	movwf	IOCBF0_SetInterruptHandler@InterruptHandler+1
  4990     02C5  3185  2574  3182   	fcall	_IOCBF0_SetInterruptHandler
  4991     02C8                     l2510:
  4992                           
  4993                           ;mcc_generated_files/pin_manager.c: 112:     IOCBF3_SetInterruptHandler(IOCBF3_DefaultIn
      +                          terruptHandler);
  4994     02C8  30BB               	movlw	low _IOCBF3_DefaultInterruptHandler
  4995     02C9  0020               	movlb	0	; select bank0
  4996     02CA  00B2               	movwf	IOCBF3_SetInterruptHandler@InterruptHandler
  4997     02CB  3005               	movlw	high _IOCBF3_DefaultInterruptHandler
  4998     02CC  00B3               	movwf	IOCBF3_SetInterruptHandler@InterruptHandler+1
  4999     02CD  3185  256E  3182   	fcall	_IOCBF3_SetInterruptHandler
  5000     02D0                     l2512:
  5001                           
  5002                           ;mcc_generated_files/pin_manager.c: 115:     INTCONbits.IOCIE = 1;
  5003     02D0  158B               	bsf	11,3	;volatile
  5004     02D1                     l129:
  5005     02D1  0008               	return
  5006     02D2                     __end_of_PIN_MANAGER_Initialize:
  5007                           
  5008                           	psect	text17
  5009     056E                     __ptext17:	
  5010 ;; *************** function _IOCBF3_SetInterruptHandler *****************
  5011 ;; Defined at:
  5012 ;;		line 181 in file "mcc_generated_files/pin_manager.c"
  5013 ;; Parameters:    Size  Location     Type
  5014 ;;  InterruptHan    2    0[BANK0 ] PTR FTN()void 
  5015 ;;		 -> chegadaS2(1), IOCBF3_DefaultInterruptHandler(1), 
  5016 ;; Auto vars:     Size  Location     Type
  5017 ;;		None
  5018 ;; Return value:  Size  Location     Type
  5019 ;;                  1    wreg      void 
  5020 ;; Registers used:
  5021 ;;		wreg
  5022 ;; Tracked objects:
  5023 ;;		On entry : 0/0
  5024 ;;		On exit  : 0/0
  5025 ;;		Unchanged: 0/0
  5026 ;; Data sizes:     COMMON   BANK0   BANK1   BANK2   BANK3   BANK4
  5027 ;;      Params:         0       2       0       0       0       0
  5028 ;;      Locals:         0       0       0       0       0       0
  5029 ;;      Temps:          0       0       0       0       0       0
  5030 ;;      Totals:         0       2       0       0       0       0
  5031 ;;Total ram usage:        2 bytes
  5032 ;; Hardware stack levels used: 1
  5033 ;; Hardware stack levels required when called: 7
  5034 ;; This function calls:
  5035 ;;		Nothing
  5036 ;; This function is called by:
  5037 ;;		_PIN_MANAGER_Initialize
  5038 ;;		_main
  5039 ;; This function uses a non-reentrant model
  5040 ;;
  5041                           
  5042     056E                     _IOCBF3_SetInterruptHandler:	
  5043                           ;psect for function _IOCBF3_SetInterruptHandler
  5044                           
  5045     056E                     l2264:	
  5046                           ;incstack = 0
  5047                           ; Regs used in _IOCBF3_SetInterruptHandler: [wreg]
  5048                           
  5049                           
  5050                           ;mcc_generated_files/pin_manager.c: 182:     IOCBF3_InterruptHandler = InterruptHandler;
  5051     056E  0020               	movlb	0	; select bank0
  5052     056F  0833               	movf	IOCBF3_SetInterruptHandler@InterruptHandler+1,w
  5053     0570  00D0               	movwf	_IOCBF3_InterruptHandler+1
  5054     0571  0832               	movf	IOCBF3_SetInterruptHandler@InterruptHandler,w
  5055     0572  00CF               	movwf	_IOCBF3_InterruptHandler
  5056     0573                     l151:
  5057     0573  0008               	return
  5058     0574                     __end_of_IOCBF3_SetInterruptHandler:
  5059                           
  5060                           	psect	text18
  5061     0574                     __ptext18:	
  5062 ;; *************** function _IOCBF0_SetInterruptHandler *****************
  5063 ;; Defined at:
  5064 ;;		line 151 in file "mcc_generated_files/pin_manager.c"
  5065 ;; Parameters:    Size  Location     Type
  5066 ;;  InterruptHan    2    0[BANK0 ] PTR FTN()void 
  5067 ;;		 -> chegadaS1(1), IOCBF0_DefaultInterruptHandler(1), 
  5068 ;; Auto vars:     Size  Location     Type
  5069 ;;		None
  5070 ;; Return value:  Size  Location     Type
  5071 ;;                  1    wreg      void 
  5072 ;; Registers used:
  5073 ;;		wreg
  5074 ;; Tracked objects:
  5075 ;;		On entry : 0/0
  5076 ;;		On exit  : 0/0
  5077 ;;		Unchanged: 0/0
  5078 ;; Data sizes:     COMMON   BANK0   BANK1   BANK2   BANK3   BANK4
  5079 ;;      Params:         0       2       0       0       0       0
  5080 ;;      Locals:         0       0       0       0       0       0
  5081 ;;      Temps:          0       0       0       0       0       0
  5082 ;;      Totals:         0       2       0       0       0       0
  5083 ;;Total ram usage:        2 bytes
  5084 ;; Hardware stack levels used: 1
  5085 ;; Hardware stack levels required when called: 7
  5086 ;; This function calls:
  5087 ;;		Nothing
  5088 ;; This function is called by:
  5089 ;;		_PIN_MANAGER_Initialize
  5090 ;;		_main
  5091 ;; This function uses a non-reentrant model
  5092 ;;
  5093                           
  5094     0574                     _IOCBF0_SetInterruptHandler:	
  5095                           ;psect for function _IOCBF0_SetInterruptHandler
  5096                           
  5097     0574                     l2262:	
  5098                           ;incstack = 0
  5099                           ; Regs used in _IOCBF0_SetInterruptHandler: [wreg]
  5100                           
  5101                           
  5102                           ;mcc_generated_files/pin_manager.c: 152:     IOCBF0_InterruptHandler = InterruptHandler;
  5103     0574  0020               	movlb	0	; select bank0
  5104     0575  0833               	movf	IOCBF0_SetInterruptHandler@InterruptHandler+1,w
  5105     0576  00D2               	movwf	_IOCBF0_InterruptHandler+1
  5106     0577  0832               	movf	IOCBF0_SetInterruptHandler@InterruptHandler,w
  5107     0578  00D1               	movwf	_IOCBF0_InterruptHandler
  5108     0579                     l141:
  5109     0579  0008               	return
  5110     057A                     __end_of_IOCBF0_SetInterruptHandler:
  5111                           
  5112                           	psect	text19
  5113     0555                     __ptext19:	
  5114 ;; *************** function _OSCILLATOR_Initialize *****************
  5115 ;; Defined at:
  5116 ;;		line 70 in file "mcc_generated_files/mcc.c"
  5117 ;; Parameters:    Size  Location     Type
  5118 ;;		None
  5119 ;; Auto vars:     Size  Location     Type
  5120 ;;		None
  5121 ;; Return value:  Size  Location     Type
  5122 ;;                  1    wreg      void 
  5123 ;; Registers used:
  5124 ;;		wreg, status,2
  5125 ;; Tracked objects:
  5126 ;;		On entry : 0/0
  5127 ;;		On exit  : 0/0
  5128 ;;		Unchanged: 0/0
  5129 ;; Data sizes:     COMMON   BANK0   BANK1   BANK2   BANK3   BANK4
  5130 ;;      Params:         0       0       0       0       0       0
  5131 ;;      Locals:         0       0       0       0       0       0
  5132 ;;      Temps:          0       0       0       0       0       0
  5133 ;;      Totals:         0       0       0       0       0       0
  5134 ;;Total ram usage:        0 bytes
  5135 ;; Hardware stack levels used: 1
  5136 ;; Hardware stack levels required when called: 7
  5137 ;; This function calls:
  5138 ;;		Nothing
  5139 ;; This function is called by:
  5140 ;;		_SYSTEM_Initialize
  5141 ;; This function uses a non-reentrant model
  5142 ;;
  5143                           
  5144     0555                     _OSCILLATOR_Initialize:	
  5145                           ;psect for function _OSCILLATOR_Initialize
  5146                           
  5147     0555                     l2536:	
  5148                           ;incstack = 0
  5149                           ; Regs used in _OSCILLATOR_Initialize: [wreg+status,2]
  5150                           
  5151                           
  5152                           ;mcc_generated_files/mcc.c: 73:     OSCCON = 0x68;
  5153     0555  3068               	movlw	104
  5154     0556  0021               	movlb	1	; select bank1
  5155     0557  0099               	movwf	25	;volatile
  5156     0558                     l2538:
  5157                           
  5158                           ;mcc_generated_files/mcc.c: 75:     OSCTUNE = 0x00;
  5159     0558  0198               	clrf	24	;volatile
  5160     0559                     l2540:
  5161                           
  5162                           ;mcc_generated_files/mcc.c: 77:     BORCON = 0x00;
  5163     0559  0022               	movlb	2	; select bank2
  5164     055A  0196               	clrf	22	;volatile
  5165     055B                     l198:
  5166     055B  0008               	return
  5167     055C                     __end_of_OSCILLATOR_Initialize:
  5168                           
  5169                           	psect	text20
  5170     05AB                     __ptext20:	
  5171 ;; *************** function _FVR_Initialize *****************
  5172 ;; Defined at:
  5173 ;;		line 58 in file "mcc_generated_files/fvr.c"
  5174 ;; Parameters:    Size  Location     Type
  5175 ;;		None
  5176 ;; Auto vars:     Size  Location     Type
  5177 ;;		None
  5178 ;; Return value:  Size  Location     Type
  5179 ;;                  1    wreg      void 
  5180 ;; Registers used:
  5181 ;;		wreg
  5182 ;; Tracked objects:
  5183 ;;		On entry : 0/0
  5184 ;;		On exit  : 0/0
  5185 ;;		Unchanged: 0/0
  5186 ;; Data sizes:     COMMON   BANK0   BANK1   BANK2   BANK3   BANK4
  5187 ;;      Params:         0       0       0       0       0       0
  5188 ;;      Locals:         0       0       0       0       0       0
  5189 ;;      Temps:          0       0       0       0       0       0
  5190 ;;      Totals:         0       0       0       0       0       0
  5191 ;;Total ram usage:        0 bytes
  5192 ;; Hardware stack levels used: 1
  5193 ;; Hardware stack levels required when called: 7
  5194 ;; This function calls:
  5195 ;;		Nothing
  5196 ;; This function is called by:
  5197 ;;		_SYSTEM_Initialize
  5198 ;; This function uses a non-reentrant model
  5199 ;;
  5200                           
  5201     05AB                     _FVR_Initialize:	
  5202                           ;psect for function _FVR_Initialize
  5203                           
  5204     05AB                     l2544:	
  5205                           ;incstack = 0
  5206                           ; Regs used in _FVR_Initialize: [wreg]
  5207                           
  5208                           
  5209                           ;mcc_generated_files/fvr.c: 61:     FVRCON = 0x89;
  5210     05AB  3089               	movlw	137
  5211     05AC  0022               	movlb	2	; select bank2
  5212     05AD  0097               	movwf	23	;volatile
  5213     05AE                     l246:
  5214     05AE  0008               	return
  5215     05AF                     __end_of_FVR_Initialize:
  5216                           
  5217                           	psect	text21
  5218     03A9                     __ptext21:	
  5219 ;; *************** function _EUSART_Initialize *****************
  5220 ;; Defined at:
  5221 ;;		line 66 in file "mcc_generated_files/eusart.c"
  5222 ;; Parameters:    Size  Location     Type
  5223 ;;		None
  5224 ;; Auto vars:     Size  Location     Type
  5225 ;;		None
  5226 ;; Return value:  Size  Location     Type
  5227 ;;                  1    wreg      void 
  5228 ;; Registers used:
  5229 ;;		wreg, status,2, status,0, pclath, cstack
  5230 ;; Tracked objects:
  5231 ;;		On entry : 0/0
  5232 ;;		On exit  : 0/0
  5233 ;;		Unchanged: 0/0
  5234 ;; Data sizes:     COMMON   BANK0   BANK1   BANK2   BANK3   BANK4
  5235 ;;      Params:         0       0       0       0       0       0
  5236 ;;      Locals:         0       0       0       0       0       0
  5237 ;;      Temps:          0       0       0       0       0       0
  5238 ;;      Totals:         0       0       0       0       0       0
  5239 ;;Total ram usage:        0 bytes
  5240 ;; Hardware stack levels used: 1
  5241 ;; Hardware stack levels required when called: 8
  5242 ;; This function calls:
  5243 ;;		_EUSART_SetErrorHandler
  5244 ;;		_EUSART_SetFramingErrorHandler
  5245 ;;		_EUSART_SetOverrunErrorHandler
  5246 ;; This function is called by:
  5247 ;;		_SYSTEM_Initialize
  5248 ;; This function uses a non-reentrant model
  5249 ;;
  5250                           
  5251     03A9                     _EUSART_Initialize:	
  5252                           ;psect for function _EUSART_Initialize
  5253                           
  5254     03A9                     l2608:	
  5255                           ;incstack = 0
  5256                           ; Regs used in _EUSART_Initialize: [wreg+status,2+status,0+pclath+cstack]
  5257                           
  5258                           
  5259                           ;mcc_generated_files/eusart.c: 71:     BAUDCON = 0x08;
  5260     03A9  3008               	movlw	8
  5261     03AA  0023               	movlb	3	; select bank3
  5262     03AB  009F               	movwf	31	;volatile
  5263                           
  5264                           ;mcc_generated_files/eusart.c: 74:     RCSTA = 0x90;
  5265     03AC  3090               	movlw	144
  5266     03AD  009D               	movwf	29	;volatile
  5267                           
  5268                           ;mcc_generated_files/eusart.c: 77:     TXSTA = 0x24;
  5269     03AE  3024               	movlw	36
  5270     03AF  009E               	movwf	30	;volatile
  5271                           
  5272                           ;mcc_generated_files/eusart.c: 80:     SPBRGL = 0x33;
  5273     03B0  3033               	movlw	51
  5274     03B1  009B               	movwf	27	;volatile
  5275     03B2                     l2610:
  5276                           
  5277                           ;mcc_generated_files/eusart.c: 83:     SPBRGH = 0x00;
  5278     03B2  019C               	clrf	28	;volatile
  5279     03B3                     l2612:
  5280                           
  5281                           ;mcc_generated_files/eusart.c: 86:     EUSART_SetFramingErrorHandler(EUSART_DefaultFrami
      +                          ngErrorHandler);
  5282     03B3  3000               	movlw	0
  5283     03B4  0020               	movlb	0	; select bank0
  5284     03B5  00B2               	movwf	EUSART_SetFramingErrorHandler@interruptHandler
  5285     03B6  3000               	movlw	0
  5286     03B7  00B3               	movwf	EUSART_SetFramingErrorHandler@interruptHandler+1
  5287     03B8  3185  2580  3183   	fcall	_EUSART_SetFramingErrorHandler
  5288     03BB                     l2614:
  5289                           
  5290                           ;mcc_generated_files/eusart.c: 87:     EUSART_SetOverrunErrorHandler(EUSART_DefaultOverr
      +                          unErrorHandler);
  5291     03BB  3000               	movlw	0
  5292     03BC  0020               	movlb	0	; select bank0
  5293     03BD  00B2               	movwf	EUSART_SetOverrunErrorHandler@interruptHandler
  5294     03BE  3000               	movlw	0
  5295     03BF  00B3               	movwf	EUSART_SetOverrunErrorHandler@interruptHandler+1
  5296     03C0  3185  257A  3183   	fcall	_EUSART_SetOverrunErrorHandler
  5297     03C3                     l2616:
  5298                           
  5299                           ;mcc_generated_files/eusart.c: 88:     EUSART_SetErrorHandler(EUSART_DefaultErrorHandler
      +                          );
  5300     03C3  3000               	movlw	0
  5301     03C4  0020               	movlb	0	; select bank0
  5302     03C5  00B2               	movwf	EUSART_SetErrorHandler@interruptHandler
  5303     03C6  3000               	movlw	0
  5304     03C7  00B3               	movwf	EUSART_SetErrorHandler@interruptHandler+1
  5305     03C8  3185  2586  3183   	fcall	_EUSART_SetErrorHandler
  5306     03CB                     l2618:
  5307                           
  5308                           ;mcc_generated_files/eusart.c: 90:     eusartRxLastError.status = 0;
  5309     03CB  0020               	movlb	0	; select bank0
  5310     03CC  01B1               	clrf	_eusartRxLastError	;volatile
  5311     03CD                     l292:
  5312     03CD  0008               	return
  5313     03CE                     __end_of_EUSART_Initialize:
  5314                           
  5315                           	psect	text22
  5316     057A                     __ptext22:	
  5317 ;; *************** function _EUSART_SetOverrunErrorHandler *****************
  5318 ;; Defined at:
  5319 ;;		line 161 in file "mcc_generated_files/eusart.c"
  5320 ;; Parameters:    Size  Location     Type
  5321 ;;  interruptHan    2    0[BANK0 ] PTR FTN()void 
  5322 ;;		 -> EUSART_DefaultOverrunErrorHandler(1), 
  5323 ;; Auto vars:     Size  Location     Type
  5324 ;;		None
  5325 ;; Return value:  Size  Location     Type
  5326 ;;                  1    wreg      void 
  5327 ;; Registers used:
  5328 ;;		wreg
  5329 ;; Tracked objects:
  5330 ;;		On entry : 0/0
  5331 ;;		On exit  : 0/0
  5332 ;;		Unchanged: 0/0
  5333 ;; Data sizes:     COMMON   BANK0   BANK1   BANK2   BANK3   BANK4
  5334 ;;      Params:         0       2       0       0       0       0
  5335 ;;      Locals:         0       0       0       0       0       0
  5336 ;;      Temps:          0       0       0       0       0       0
  5337 ;;      Totals:         0       2       0       0       0       0
  5338 ;;Total ram usage:        2 bytes
  5339 ;; Hardware stack levels used: 1
  5340 ;; Hardware stack levels required when called: 7
  5341 ;; This function calls:
  5342 ;;		Nothing
  5343 ;; This function is called by:
  5344 ;;		_EUSART_Initialize
  5345 ;; This function uses a non-reentrant model
  5346 ;;
  5347                           
  5348     057A                     _EUSART_SetOverrunErrorHandler:	
  5349                           ;psect for function _EUSART_SetOverrunErrorHandler
  5350                           
  5351     057A                     l2268:	
  5352                           ;incstack = 0
  5353                           ; Regs used in _EUSART_SetOverrunErrorHandler: [wreg]
  5354                           
  5355                           
  5356                           ;mcc_generated_files/eusart.c: 162:     EUSART_OverrunErrorHandler = interruptHandler;
  5357     057A  0020               	movlb	0	; select bank0
  5358     057B  0833               	movf	EUSART_SetOverrunErrorHandler@interruptHandler+1,w
  5359     057C  00CC               	movwf	_EUSART_OverrunErrorHandler+1
  5360     057D  0832               	movf	EUSART_SetOverrunErrorHandler@interruptHandler,w
  5361     057E  00CB               	movwf	_EUSART_OverrunErrorHandler
  5362     057F                     l334:
  5363     057F  0008               	return
  5364     0580                     __end_of_EUSART_SetOverrunErrorHandler:
  5365                           
  5366                           	psect	text23
  5367     0580                     __ptext23:	
  5368 ;; *************** function _EUSART_SetFramingErrorHandler *****************
  5369 ;; Defined at:
  5370 ;;		line 157 in file "mcc_generated_files/eusart.c"
  5371 ;; Parameters:    Size  Location     Type
  5372 ;;  interruptHan    2    0[BANK0 ] PTR FTN()void 
  5373 ;;		 -> EUSART_DefaultFramingErrorHandler(1), 
  5374 ;; Auto vars:     Size  Location     Type
  5375 ;;		None
  5376 ;; Return value:  Size  Location     Type
  5377 ;;                  1    wreg      void 
  5378 ;; Registers used:
  5379 ;;		wreg
  5380 ;; Tracked objects:
  5381 ;;		On entry : 0/0
  5382 ;;		On exit  : 0/0
  5383 ;;		Unchanged: 0/0
  5384 ;; Data sizes:     COMMON   BANK0   BANK1   BANK2   BANK3   BANK4
  5385 ;;      Params:         0       2       0       0       0       0
  5386 ;;      Locals:         0       0       0       0       0       0
  5387 ;;      Temps:          0       0       0       0       0       0
  5388 ;;      Totals:         0       2       0       0       0       0
  5389 ;;Total ram usage:        2 bytes
  5390 ;; Hardware stack levels used: 1
  5391 ;; Hardware stack levels required when called: 7
  5392 ;; This function calls:
  5393 ;;		Nothing
  5394 ;; This function is called by:
  5395 ;;		_EUSART_Initialize
  5396 ;; This function uses a non-reentrant model
  5397 ;;
  5398                           
  5399     0580                     _EUSART_SetFramingErrorHandler:	
  5400                           ;psect for function _EUSART_SetFramingErrorHandler
  5401                           
  5402     0580                     l2266:	
  5403                           ;incstack = 0
  5404                           ; Regs used in _EUSART_SetFramingErrorHandler: [wreg]
  5405                           
  5406                           
  5407                           ;mcc_generated_files/eusart.c: 158:     EUSART_FramingErrorHandler = interruptHandler;
  5408     0580  0020               	movlb	0	; select bank0
  5409     0581  0833               	movf	EUSART_SetFramingErrorHandler@interruptHandler+1,w
  5410     0582  00CE               	movwf	_EUSART_FramingErrorHandler+1
  5411     0583  0832               	movf	EUSART_SetFramingErrorHandler@interruptHandler,w
  5412     0584  00CD               	movwf	_EUSART_FramingErrorHandler
  5413     0585                     l331:
  5414     0585  0008               	return
  5415     0586                     __end_of_EUSART_SetFramingErrorHandler:
  5416                           
  5417                           	psect	text24
  5418     0586                     __ptext24:	
  5419 ;; *************** function _EUSART_SetErrorHandler *****************
  5420 ;; Defined at:
  5421 ;;		line 165 in file "mcc_generated_files/eusart.c"
  5422 ;; Parameters:    Size  Location     Type
  5423 ;;  interruptHan    2    0[BANK0 ] PTR FTN()void 
  5424 ;;		 -> EUSART_DefaultErrorHandler(1), 
  5425 ;; Auto vars:     Size  Location     Type
  5426 ;;		None
  5427 ;; Return value:  Size  Location     Type
  5428 ;;                  1    wreg      void 
  5429 ;; Registers used:
  5430 ;;		wreg
  5431 ;; Tracked objects:
  5432 ;;		On entry : 0/0
  5433 ;;		On exit  : 0/0
  5434 ;;		Unchanged: 0/0
  5435 ;; Data sizes:     COMMON   BANK0   BANK1   BANK2   BANK3   BANK4
  5436 ;;      Params:         0       2       0       0       0       0
  5437 ;;      Locals:         0       0       0       0       0       0
  5438 ;;      Temps:          0       0       0       0       0       0
  5439 ;;      Totals:         0       2       0       0       0       0
  5440 ;;Total ram usage:        2 bytes
  5441 ;; Hardware stack levels used: 1
  5442 ;; Hardware stack levels required when called: 7
  5443 ;; This function calls:
  5444 ;;		Nothing
  5445 ;; This function is called by:
  5446 ;;		_EUSART_Initialize
  5447 ;; This function uses a non-reentrant model
  5448 ;;
  5449                           
  5450     0586                     _EUSART_SetErrorHandler:	
  5451                           ;psect for function _EUSART_SetErrorHandler
  5452                           
  5453     0586                     l2270:	
  5454                           ;incstack = 0
  5455                           ; Regs used in _EUSART_SetErrorHandler: [wreg]
  5456                           
  5457                           
  5458                           ;mcc_generated_files/eusart.c: 166:     EUSART_ErrorHandler = interruptHandler;
  5459     0586  0020               	movlb	0	; select bank0
  5460     0587  0833               	movf	EUSART_SetErrorHandler@interruptHandler+1,w
  5461     0588  00CA               	movwf	_EUSART_ErrorHandler+1
  5462     0589  0832               	movf	EUSART_SetErrorHandler@interruptHandler,w
  5463     058A  00C9               	movwf	_EUSART_ErrorHandler
  5464     058B                     l337:
  5465     058B  0008               	return
  5466     058C                     __end_of_EUSART_SetErrorHandler:
  5467                           
  5468                           	psect	text25
  5469     0518                     __ptext25:	
  5470 ;; *************** function _CMP2_Initialize *****************
  5471 ;; Defined at:
  5472 ;;		line 59 in file "mcc_generated_files/cmp2.c"
  5473 ;; Parameters:    Size  Location     Type
  5474 ;;		None
  5475 ;; Auto vars:     Size  Location     Type
  5476 ;;		None
  5477 ;; Return value:  Size  Location     Type
  5478 ;;                  1    wreg      void 
  5479 ;; Registers used:
  5480 ;;		wreg
  5481 ;; Tracked objects:
  5482 ;;		On entry : 0/0
  5483 ;;		On exit  : 0/0
  5484 ;;		Unchanged: 0/0
  5485 ;; Data sizes:     COMMON   BANK0   BANK1   BANK2   BANK3   BANK4
  5486 ;;      Params:         0       0       0       0       0       0
  5487 ;;      Locals:         0       0       0       0       0       0
  5488 ;;      Temps:          0       0       0       0       0       0
  5489 ;;      Totals:         0       0       0       0       0       0
  5490 ;;Total ram usage:        0 bytes
  5491 ;; Hardware stack levels used: 1
  5492 ;; Hardware stack levels required when called: 7
  5493 ;; This function calls:
  5494 ;;		Nothing
  5495 ;; This function is called by:
  5496 ;;		_SYSTEM_Initialize
  5497 ;; This function uses a non-reentrant model
  5498 ;;
  5499                           
  5500     0518                     _CMP2_Initialize:	
  5501                           ;psect for function _CMP2_Initialize
  5502                           
  5503     0518                     l2396:	
  5504                           ;incstack = 0
  5505                           ; Regs used in _CMP2_Initialize: [wreg]
  5506                           
  5507                           
  5508                           ;mcc_generated_files/cmp2.c: 66:     PIE2bits.C2IE = 0;
  5509     0518  0021               	movlb	1	; select bank1
  5510     0519  1312               	bcf	18,6	;volatile
  5511     051A                     l2398:
  5512                           
  5513                           ;mcc_generated_files/cmp2.c: 69:     CM2CON0 = 0x84;
  5514     051A  3084               	movlw	132
  5515     051B  0022               	movlb	2	; select bank2
  5516     051C  0093               	movwf	19	;volatile
  5517                           
  5518                           ;mcc_generated_files/cmp2.c: 72:     CM2CON1 = 0x61;
  5519     051D  3061               	movlw	97
  5520     051E  0094               	movwf	20	;volatile
  5521     051F                     l2400:
  5522                           
  5523                           ;mcc_generated_files/cmp2.c: 75:     PIR2bits.C2IF = 0;
  5524     051F  0020               	movlb	0	; select bank0
  5525     0520  1312               	bcf	18,6	;volatile
  5526     0521                     l2402:
  5527                           
  5528                           ;mcc_generated_files/cmp2.c: 78:     PIE2bits.C2IE = 1;
  5529     0521  0021               	movlb	1	; select bank1
  5530     0522  1712               	bsf	18,6	;volatile
  5531     0523                     l41:
  5532     0523  0008               	return
  5533     0524                     __end_of_CMP2_Initialize:
  5534                           
  5535                           	psect	text26
  5536     0524                     __ptext26:	
  5537 ;; *************** function _CMP1_Initialize *****************
  5538 ;; Defined at:
  5539 ;;		line 59 in file "mcc_generated_files/cmp1.c"
  5540 ;; Parameters:    Size  Location     Type
  5541 ;;		None
  5542 ;; Auto vars:     Size  Location     Type
  5543 ;;		None
  5544 ;; Return value:  Size  Location     Type
  5545 ;;                  1    wreg      void 
  5546 ;; Registers used:
  5547 ;;		wreg
  5548 ;; Tracked objects:
  5549 ;;		On entry : 0/0
  5550 ;;		On exit  : 0/0
  5551 ;;		Unchanged: 0/0
  5552 ;; Data sizes:     COMMON   BANK0   BANK1   BANK2   BANK3   BANK4
  5553 ;;      Params:         0       0       0       0       0       0
  5554 ;;      Locals:         0       0       0       0       0       0
  5555 ;;      Temps:          0       0       0       0       0       0
  5556 ;;      Totals:         0       0       0       0       0       0
  5557 ;;Total ram usage:        0 bytes
  5558 ;; Hardware stack levels used: 1
  5559 ;; Hardware stack levels required when called: 7
  5560 ;; This function calls:
  5561 ;;		Nothing
  5562 ;; This function is called by:
  5563 ;;		_SYSTEM_Initialize
  5564 ;; This function uses a non-reentrant model
  5565 ;;
  5566                           
  5567     0524                     _CMP1_Initialize:	
  5568                           ;psect for function _CMP1_Initialize
  5569                           
  5570     0524                     l2436:	
  5571                           ;incstack = 0
  5572                           ; Regs used in _CMP1_Initialize: [wreg]
  5573                           
  5574                           
  5575                           ;mcc_generated_files/cmp1.c: 66:     PIE2bits.C1IE = 0;
  5576     0524  0021               	movlb	1	; select bank1
  5577     0525  1292               	bcf	18,5	;volatile
  5578     0526                     l2438:
  5579                           
  5580                           ;mcc_generated_files/cmp1.c: 69:     CM1CON0 = 0x84;
  5581     0526  3084               	movlw	132
  5582     0527  0022               	movlb	2	; select bank2
  5583     0528  0091               	movwf	17	;volatile
  5584                           
  5585                           ;mcc_generated_files/cmp1.c: 72:     CM1CON1 = 0x60;
  5586     0529  3060               	movlw	96
  5587     052A  0092               	movwf	18	;volatile
  5588     052B                     l2440:
  5589                           
  5590                           ;mcc_generated_files/cmp1.c: 75:     PIR2bits.C1IF = 0;
  5591     052B  0020               	movlb	0	; select bank0
  5592     052C  1292               	bcf	18,5	;volatile
  5593     052D                     l2442:
  5594                           
  5595                           ;mcc_generated_files/cmp1.c: 78:     PIE2bits.C1IE = 1;
  5596     052D  0021               	movlb	1	; select bank1
  5597     052E  1692               	bsf	18,5	;volatile
  5598     052F                     l74:
  5599     052F  0008               	return
  5600     0530                     __end_of_CMP1_Initialize:
  5601                           
  5602                           	psect	text27
  5603     0471                     __ptext27:	
  5604 ;; *************** function _CCP4_Initialize *****************
  5605 ;; Defined at:
  5606 ;;		line 65 in file "mcc_generated_files/ccp4.c"
  5607 ;; Parameters:    Size  Location     Type
  5608 ;;		None
  5609 ;; Auto vars:     Size  Location     Type
  5610 ;;		None
  5611 ;; Return value:  Size  Location     Type
  5612 ;;                  1    wreg      void 
  5613 ;; Registers used:
  5614 ;;		wreg, status,2, status,0, pclath, cstack
  5615 ;; Tracked objects:
  5616 ;;		On entry : 0/0
  5617 ;;		On exit  : 0/0
  5618 ;;		Unchanged: 0/0
  5619 ;; Data sizes:     COMMON   BANK0   BANK1   BANK2   BANK3   BANK4
  5620 ;;      Params:         0       0       0       0       0       0
  5621 ;;      Locals:         0       0       0       0       0       0
  5622 ;;      Temps:          0       0       0       0       0       0
  5623 ;;      Totals:         0       0       0       0       0       0
  5624 ;;Total ram usage:        0 bytes
  5625 ;; Hardware stack levels used: 1
  5626 ;; Hardware stack levels required when called: 8
  5627 ;; This function calls:
  5628 ;;		_CCP4_SetCallBack
  5629 ;; This function is called by:
  5630 ;;		_SYSTEM_Initialize
  5631 ;; This function uses a non-reentrant model
  5632 ;;
  5633                           
  5634     0471                     _CCP4_Initialize:	
  5635                           ;psect for function _CCP4_Initialize
  5636                           
  5637     0471                     l2578:	
  5638                           ;incstack = 0
  5639                           ; Regs used in _CCP4_Initialize: [wreg+status,2+status,0+pclath+cstack]
  5640                           
  5641                           
  5642                           ;mcc_generated_files/ccp4.c: 70:  CCP4CON = 0x04;
  5643     0471  3004               	movlw	4
  5644     0472  0026               	movlb	6	; select bank6
  5645     0473  009A               	movwf	26	;volatile
  5646     0474                     l2580:
  5647                           
  5648                           ;mcc_generated_files/ccp4.c: 73:  CCPR4L = 0x00;
  5649     0474  0198               	clrf	24	;volatile
  5650     0475                     l2582:
  5651                           
  5652                           ;mcc_generated_files/ccp4.c: 76:  CCPR4H = 0x00;
  5653     0475  0199               	clrf	25	;volatile
  5654     0476                     l2584:
  5655                           
  5656                           ;mcc_generated_files/ccp4.c: 79:     CCP4_SetCallBack(CCP4_DefaultCallBack);
  5657     0476  30BD               	movlw	low _CCP4_DefaultCallBack
  5658     0477  0020               	movlb	0	; select bank0
  5659     0478  00B2               	movwf	CCP4_SetCallBack@customCallBack
  5660     0479  3005               	movlw	high _CCP4_DefaultCallBack
  5661     047A  00B3               	movwf	CCP4_SetCallBack@customCallBack+1
  5662     047B  3185  258C  3184   	fcall	_CCP4_SetCallBack
  5663     047E                     l2586:
  5664                           
  5665                           ;mcc_generated_files/ccp4.c: 83:     PIR3bits.CCP4IF = 0;
  5666     047E  0020               	movlb	0	; select bank0
  5667     047F  1293               	bcf	19,5	;volatile
  5668     0480                     l2588:
  5669                           
  5670                           ;mcc_generated_files/ccp4.c: 86:     PIE3bits.CCP4IE = 1;
  5671     0480  0021               	movlb	1	; select bank1
  5672     0481  1693               	bsf	19,5	;volatile
  5673     0482                     l573:
  5674     0482  0008               	return
  5675     0483                     __end_of_CCP4_Initialize:
  5676                           
  5677                           	psect	text28
  5678     058C                     __ptext28:	
  5679 ;; *************** function _CCP4_SetCallBack *****************
  5680 ;; Defined at:
  5681 ;;		line 104 in file "mcc_generated_files/ccp4.c"
  5682 ;; Parameters:    Size  Location     Type
  5683 ;;  customCallBa    2    0[BANK0 ] PTR FTN(unsigned short ,
  5684 ;;		 -> CCP4_DefaultCallBack(1), 
  5685 ;; Auto vars:     Size  Location     Type
  5686 ;;		None
  5687 ;; Return value:  Size  Location     Type
  5688 ;;                  1    wreg      void 
  5689 ;; Registers used:
  5690 ;;		wreg
  5691 ;; Tracked objects:
  5692 ;;		On entry : 0/0
  5693 ;;		On exit  : 0/0
  5694 ;;		Unchanged: 0/0
  5695 ;; Data sizes:     COMMON   BANK0   BANK1   BANK2   BANK3   BANK4
  5696 ;;      Params:         0       2       0       0       0       0
  5697 ;;      Locals:         0       0       0       0       0       0
  5698 ;;      Temps:          0       0       0       0       0       0
  5699 ;;      Totals:         0       2       0       0       0       0
  5700 ;;Total ram usage:        2 bytes
  5701 ;; Hardware stack levels used: 1
  5702 ;; Hardware stack levels required when called: 7
  5703 ;; This function calls:
  5704 ;;		Nothing
  5705 ;; This function is called by:
  5706 ;;		_CCP4_Initialize
  5707 ;; This function uses a non-reentrant model
  5708 ;;
  5709                           
  5710     058C                     _CCP4_SetCallBack:	
  5711                           ;psect for function _CCP4_SetCallBack
  5712                           
  5713     058C                     l2274:	
  5714                           ;incstack = 0
  5715                           ; Regs used in _CCP4_SetCallBack: [wreg]
  5716                           
  5717                           
  5718                           ;mcc_generated_files/ccp4.c: 105:     CCP4_CallBack = customCallBack;
  5719     058C  0020               	movlb	0	; select bank0
  5720     058D  0833               	movf	CCP4_SetCallBack@customCallBack+1,w
  5721     058E  00C6               	movwf	_CCP4_CallBack+1
  5722     058F  0832               	movf	CCP4_SetCallBack@customCallBack,w
  5723     0590  00C5               	movwf	_CCP4_CallBack
  5724     0591                     l579:
  5725     0591  0008               	return
  5726     0592                     __end_of_CCP4_SetCallBack:
  5727                           
  5728                           	psect	text29
  5729     054D                     __ptext29:	
  5730 ;; *************** function _ADC_Initialize *****************
  5731 ;; Defined at:
  5732 ;;		line 67 in file "mcc_generated_files/adc.c"
  5733 ;; Parameters:    Size  Location     Type
  5734 ;;		None
  5735 ;; Auto vars:     Size  Location     Type
  5736 ;;		None
  5737 ;; Return value:  Size  Location     Type
  5738 ;;                  1    wreg      void 
  5739 ;; Registers used:
  5740 ;;		wreg, status,2
  5741 ;; Tracked objects:
  5742 ;;		On entry : 0/0
  5743 ;;		On exit  : 0/0
  5744 ;;		Unchanged: 0/0
  5745 ;; Data sizes:     COMMON   BANK0   BANK1   BANK2   BANK3   BANK4
  5746 ;;      Params:         0       0       0       0       0       0
  5747 ;;      Locals:         0       0       0       0       0       0
  5748 ;;      Temps:          0       0       0       0       0       0
  5749 ;;      Totals:         0       0       0       0       0       0
  5750 ;;Total ram usage:        0 bytes
  5751 ;; Hardware stack levels used: 1
  5752 ;; Hardware stack levels required when called: 7
  5753 ;; This function calls:
  5754 ;;		Nothing
  5755 ;; This function is called by:
  5756 ;;		_SYSTEM_Initialize
  5757 ;; This function uses a non-reentrant model
  5758 ;;
  5759                           
  5760     054D                     _ADC_Initialize:	
  5761                           ;psect for function _ADC_Initialize
  5762                           
  5763     054D                     l2590:	
  5764                           ;incstack = 0
  5765                           ; Regs used in _ADC_Initialize: [wreg+status,2]
  5766                           
  5767                           
  5768                           ;mcc_generated_files/adc.c: 72:     ADCON1 = 0xC3;
  5769     054D  30C3               	movlw	195
  5770     054E  0021               	movlb	1	; select bank1
  5771     054F  009E               	movwf	30	;volatile
  5772     0550                     l2592:
  5773                           
  5774                           ;mcc_generated_files/adc.c: 75:     ADRESL = 0x00;
  5775     0550  019B               	clrf	27	;volatile
  5776     0551                     l2594:
  5777                           
  5778                           ;mcc_generated_files/adc.c: 78:     ADRESH = 0x00;
  5779     0551  019C               	clrf	28	;volatile
  5780                           
  5781                           ;mcc_generated_files/adc.c: 81:     ADCON0 = 0x01;
  5782     0552  3001               	movlw	1
  5783     0553  009D               	movwf	29	;volatile
  5784     0554                     l218:
  5785     0554  0008               	return
  5786     0555                     __end_of_ADC_Initialize:
  5787                           
  5788                           	psect	text30
  5789     0075                     __ptext30:	
  5790 ;; *************** function _SPI1_Open *****************
  5791 ;; Defined at:
  5792 ;;		line 72 in file "mcc_generated_files/spi1.c"
  5793 ;; Parameters:    Size  Location     Type
  5794 ;;  spi1UniqueCo    1    wreg     enum E358
  5795 ;; Auto vars:     Size  Location     Type
  5796 ;;  spi1UniqueCo    1    3[BANK0 ] enum E358
  5797 ;; Return value:  Size  Location     Type
  5798 ;;                  1    wreg      _Bool 
  5799 ;; Registers used:
  5800 ;;		wreg, fsr0l, fsr0h, status,2, status,0, pclath
  5801 ;; Tracked objects:
  5802 ;;		On entry : 0/0
  5803 ;;		On exit  : 0/0
  5804 ;;		Unchanged: 0/0
  5805 ;; Data sizes:     COMMON   BANK0   BANK1   BANK2   BANK3   BANK4
  5806 ;;      Params:         0       0       0       0       0       0
  5807 ;;      Locals:         0       1       0       0       0       0
  5808 ;;      Temps:          0       3       0       0       0       0
  5809 ;;      Totals:         0       4       0       0       0       0
  5810 ;;Total ram usage:        4 bytes
  5811 ;; Hardware stack levels used: 1
  5812 ;; Hardware stack levels required when called: 7
  5813 ;; This function calls:
  5814 ;;		Nothing
  5815 ;; This function is called by:
  5816 ;;		_main
  5817 ;; This function uses a non-reentrant model
  5818 ;;
  5819                           
  5820     0075                     _SPI1_Open:	
  5821                           ;psect for function _SPI1_Open
  5822                           
  5823                           
  5824                           ;incstack = 0
  5825                           ; Regs used in _SPI1_Open: [wreg-fsr0h+status,2+status,0+pclath]
  5826                           ;SPI1_Open@spi1UniqueConfiguration stored from wreg
  5827     0075  0020               	movlb	0	; select bank0
  5828     0076  00B5               	movwf	SPI1_Open@spi1UniqueConfiguration
  5829     0077                     l2680:
  5830                           
  5831                           ;mcc_generated_files/spi1.c: 72: _Bool SPI1_Open(spi1_modes_t spi1UniqueConfiguration);m
      +                          cc_generated_files/spi1.c: 73: {;mcc_generated_files/spi1.c: 74:     if(!SSP1CON1bits.SS
      +                          PEN)
  5832     0077  0024               	movlb	4	; select bank4
  5833     0078  1A95               	btfsc	21,5	;volatile
  5834     0079  287B               	goto	u1021
  5835     007A  287C               	goto	u1020
  5836     007B                     u1021:
  5837     007B  28CF               	goto	l362
  5838     007C                     u1020:
  5839     007C                     l2682:
  5840                           
  5841                           ;mcc_generated_files/spi1.c: 75:     {;mcc_generated_files/spi1.c: 76:         SSP1STAT 
      +                          = spi1_configuration[spi1UniqueConfiguration].stat;
  5842     007C  0020               	movlb	0	; select bank0
  5843     007D  0835               	movf	SPI1_Open@spi1UniqueConfiguration,w
  5844     007E  00B2               	movwf	??_SPI1_Open
  5845     007F  01B3               	clrf	??_SPI1_Open+1
  5846     0080  35B2               	lslf	??_SPI1_Open,f
  5847     0081  0DB3               	rlf	??_SPI1_Open+1,f
  5848     0082  35B2               	lslf	??_SPI1_Open,f
  5849     0083  0DB3               	rlf	??_SPI1_Open+1,f
  5850     0084  30A4               	movlw	low (_spi1_configuration+1)
  5851     0085  0732               	addwf	??_SPI1_Open,w
  5852     0086  0084               	movwf	4
  5853     0087  3005               	movlw	high (_spi1_configuration+1)
  5854     0088  3D33               	addwfc	??_SPI1_Open+1,w
  5855     0089  3880               	iorlw	128
  5856     008A  0085               	movwf	5
  5857     008B  0800               	movf	0,w	;code access
  5858     008C  0024               	movlb	4	; select bank4
  5859     008D  0094               	movwf	20	;volatile
  5860                           
  5861                           ;mcc_generated_files/spi1.c: 77:         SSP1CON1 = spi1_configuration[spi1UniqueConfigu
      +                          ration].con1;
  5862     008E  0020               	movlb	0	; select bank0
  5863     008F  0835               	movf	SPI1_Open@spi1UniqueConfiguration,w
  5864     0090  00B2               	movwf	??_SPI1_Open
  5865     0091  01B3               	clrf	??_SPI1_Open+1
  5866     0092  35B2               	lslf	??_SPI1_Open,f
  5867     0093  0DB3               	rlf	??_SPI1_Open+1,f
  5868     0094  35B2               	lslf	??_SPI1_Open,f
  5869     0095  0DB3               	rlf	??_SPI1_Open+1,f
  5870     0096  30A3               	movlw	low _spi1_configuration
  5871     0097  0732               	addwf	??_SPI1_Open,w
  5872     0098  0084               	movwf	4
  5873     0099  3005               	movlw	high _spi1_configuration
  5874     009A  3D33               	addwfc	??_SPI1_Open+1,w
  5875     009B  3880               	iorlw	128
  5876     009C  0085               	movwf	5
  5877     009D  0800               	movf	0,w	;code access
  5878     009E  0024               	movlb	4	; select bank4
  5879     009F  0095               	movwf	21	;volatile
  5880     00A0                     l2684:
  5881                           
  5882                           ;mcc_generated_files/spi1.c: 78:         SSP1CON2 = 0x00;
  5883     00A0  0196               	clrf	22	;volatile
  5884     00A1                     l2686:
  5885                           
  5886                           ;mcc_generated_files/spi1.c: 79:         SSP1ADD = spi1_configuration[spi1UniqueConfigur
      +                          ation].add;
  5887     00A1  0020               	movlb	0	; select bank0
  5888     00A2  0835               	movf	SPI1_Open@spi1UniqueConfiguration,w
  5889     00A3  00B2               	movwf	??_SPI1_Open
  5890     00A4  01B3               	clrf	??_SPI1_Open+1
  5891     00A5  35B2               	lslf	??_SPI1_Open,f
  5892     00A6  0DB3               	rlf	??_SPI1_Open+1,f
  5893     00A7  35B2               	lslf	??_SPI1_Open,f
  5894     00A8  0DB3               	rlf	??_SPI1_Open+1,f
  5895     00A9  30A5               	movlw	low (_spi1_configuration+2)
  5896     00AA  0732               	addwf	??_SPI1_Open,w
  5897     00AB  0084               	movwf	4
  5898     00AC  3005               	movlw	high (_spi1_configuration+2)
  5899     00AD  3D33               	addwfc	??_SPI1_Open+1,w
  5900     00AE  3880               	iorlw	128
  5901     00AF  0085               	movwf	5
  5902     00B0  0800               	movf	0,w	;code access
  5903     00B1  0024               	movlb	4	; select bank4
  5904     00B2  0092               	movwf	18	;volatile
  5905     00B3                     l2688:
  5906                           
  5907                           ;mcc_generated_files/spi1.c: 80:         TRISBbits.TRISB4 = spi1_configuration[spi1Uniqu
      +                          eConfiguration].operation;
  5908     00B3  0020               	movlb	0	; select bank0
  5909     00B4  0835               	movf	SPI1_Open@spi1UniqueConfiguration,w
  5910     00B5  00B2               	movwf	??_SPI1_Open
  5911     00B6  01B3               	clrf	??_SPI1_Open+1
  5912     00B7  35B2               	lslf	??_SPI1_Open,f
  5913     00B8  0DB3               	rlf	??_SPI1_Open+1,f
  5914     00B9  35B2               	lslf	??_SPI1_Open,f
  5915     00BA  0DB3               	rlf	??_SPI1_Open+1,f
  5916     00BB  30A6               	movlw	low (_spi1_configuration+3)
  5917     00BC  0732               	addwf	??_SPI1_Open,w
  5918     00BD  0084               	movwf	4
  5919     00BE  3005               	movlw	high (_spi1_configuration+3)
  5920     00BF  3D33               	addwfc	??_SPI1_Open+1,w
  5921     00C0  3880               	iorlw	128
  5922     00C1  0085               	movwf	5
  5923     00C2  0800               	movf	0,w	;code access
  5924     00C3  00B4               	movwf	??_SPI1_Open+2
  5925     00C4  0EB4               	swapf	??_SPI1_Open+2,f
  5926     00C5  0021               	movlb	1	; select bank1
  5927     00C6  080D               	movf	13,w	;volatile
  5928     00C7  0020               	movlb	0	; select bank0
  5929     00C8  0634               	xorwf	??_SPI1_Open+2,w
  5930     00C9  39EF               	andlw	-17
  5931     00CA  0634               	xorwf	??_SPI1_Open+2,w
  5932     00CB  0021               	movlb	1	; select bank1
  5933     00CC  008D               	movwf	13	;volatile
  5934     00CD                     l2690:
  5935                           
  5936                           ;mcc_generated_files/spi1.c: 81:         SSP1CON1bits.SSPEN = 1;
  5937     00CD  0024               	movlb	4	; select bank4
  5938     00CE  1695               	bsf	21,5	;volatile
  5939     00CF                     l362:
  5940     00CF  0008               	return
  5941     00D0                     __end_of_SPI1_Open:
  5942                           
  5943                           	psect	intentry
  5944     0004                     __pintentry:	
  5945 ;; *************** function _INTERRUPT_InterruptManager *****************
  5946 ;; Defined at:
  5947 ;;		line 52 in file "mcc_generated_files/interrupt_manager.c"
  5948 ;; Parameters:    Size  Location     Type
  5949 ;;		None
  5950 ;; Auto vars:     Size  Location     Type
  5951 ;;		None
  5952 ;; Return value:  Size  Location     Type
  5953 ;;                  1    wreg      void 
  5954 ;; Registers used:
  5955 ;;		wreg, fsr0l, fsr0h, fsr1l, fsr1h, status,2, status,0, pclath, cstack
  5956 ;; Tracked objects:
  5957 ;;		On entry : 0/0
  5958 ;;		On exit  : 0/0
  5959 ;;		Unchanged: 0/0
  5960 ;; Data sizes:     COMMON   BANK0   BANK1   BANK2   BANK3   BANK4
  5961 ;;      Params:         0       0       0       0       0       0
  5962 ;;      Locals:         0       0       0       0       0       0
  5963 ;;      Temps:          0       0       0       0       0       0
  5964 ;;      Totals:         0       0       0       0       0       0
  5965 ;;Total ram usage:        0 bytes
  5966 ;; Hardware stack levels used: 1
  5967 ;; Hardware stack levels required when called: 6
  5968 ;; This function calls:
  5969 ;;		_CCP4_CaptureISR
  5970 ;;		_CMP1_ISR
  5971 ;;		_CMP2_ISR
  5972 ;;		_PIN_MANAGER_IOC
  5973 ;;		_TMR0_ISR
  5974 ;;		_TMR4_ISR
  5975 ;; This function is called by:
  5976 ;;		Interrupt level 1
  5977 ;; This function uses a non-reentrant model
  5978 ;;
  5979                           
  5980     0004                     _INTERRUPT_InterruptManager:
  5981                           
  5982                           ;incstack = 0
  5983     0004  147E               	bsf	int$flags,0	;set compiler interrupt flag (level 1)
  5984                           
  5985                           ; Regs used in _INTERRUPT_InterruptManager: [wreg-fsr1h+status,2+status,0+pclath+cstack]
  5986     0005  3180               	pagesel	$
  5987     0006                     i1l2800:
  5988                           
  5989                           ;mcc_generated_files/interrupt_manager.c: 55:     if(INTCONbits.IOCIE == 1 && INTCONbits
      +                          .IOCIF == 1)
  5990     0006  1D8B               	btfss	11,3	;volatile
  5991     0007  2809               	goto	u112_21
  5992     0008  280A               	goto	u112_20
  5993     0009                     u112_21:
  5994     0009  2811               	goto	i1l2806
  5995     000A                     u112_20:
  5996     000A                     i1l2802:
  5997     000A  1C0B               	btfss	11,0	;volatile
  5998     000B  280D               	goto	u113_21
  5999     000C  280E               	goto	u113_20
  6000     000D                     u113_21:
  6001     000D  2811               	goto	i1l2806
  6002     000E                     u113_20:
  6003     000E                     i1l2804:
  6004                           
  6005                           ;mcc_generated_files/interrupt_manager.c: 56:     {;mcc_generated_files/interrupt_manage
      +                          r.c: 57:         PIN_MANAGER_IOC();
  6006     000E  3184  24A6  3180   	fcall	_PIN_MANAGER_IOC
  6007     0011                     i1l2806:
  6008                           
  6009                           ;mcc_generated_files/interrupt_manager.c: 59:     if(INTCONbits.TMR0IE == 1 && INTCONbit
      +                          s.TMR0IF == 1)
  6010     0011  1E8B               	btfss	11,5	;volatile
  6011     0012  2814               	goto	u114_21
  6012     0013  2815               	goto	u114_20
  6013     0014                     u114_21:
  6014     0014  281C               	goto	i1l2812
  6015     0015                     u114_20:
  6016     0015                     i1l2808:
  6017     0015  1D0B               	btfss	11,2	;volatile
  6018     0016  2818               	goto	u115_21
  6019     0017  2819               	goto	u115_20
  6020     0018                     u115_21:
  6021     0018  281C               	goto	i1l2812
  6022     0019                     u115_20:
  6023     0019                     i1l2810:
  6024                           
  6025                           ;mcc_generated_files/interrupt_manager.c: 60:     {;mcc_generated_files/interrupt_manage
      +                          r.c: 61:         TMR0_ISR();
  6026     0019  3184  2404  3180   	fcall	_TMR0_ISR
  6027     001C                     i1l2812:
  6028                           
  6029                           ;mcc_generated_files/interrupt_manager.c: 63:     if(INTCONbits.PEIE == 1)
  6030     001C  1F0B               	btfss	11,6	;volatile
  6031     001D  281F               	goto	u116_21
  6032     001E  2820               	goto	u116_20
  6033     001F                     u116_21:
  6034     001F  2854               	goto	i1l432
  6035     0020                     u116_20:
  6036     0020                     i1l2814:
  6037                           
  6038                           ;mcc_generated_files/interrupt_manager.c: 64:     {;mcc_generated_files/interrupt_manage
      +                          r.c: 65:         if(PIE2bits.C2IE == 1 && PIR2bits.C2IF == 1)
  6039     0020  0021               	movlb	1	; select bank1
  6040     0021  1F12               	btfss	18,6	;volatile
  6041     0022  2824               	goto	u117_21
  6042     0023  2825               	goto	u117_20
  6043     0024                     u117_21:
  6044     0024  282D               	goto	i1l2820
  6045     0025                     u117_20:
  6046     0025                     i1l2816:
  6047     0025  0020               	movlb	0	; select bank0
  6048     0026  1F12               	btfss	18,6	;volatile
  6049     0027  2829               	goto	u118_21
  6050     0028  282A               	goto	u118_20
  6051     0029                     u118_21:
  6052     0029  282D               	goto	i1l2820
  6053     002A                     u118_20:
  6054     002A                     i1l2818:
  6055                           
  6056                           ;mcc_generated_files/interrupt_manager.c: 66:         {;mcc_generated_files/interrupt_ma
      +                          nager.c: 67:             CMP2_ISR();
  6057     002A  3185  2592  3180   	fcall	_CMP2_ISR
  6058     002D                     i1l2820:
  6059                           
  6060                           ;mcc_generated_files/interrupt_manager.c: 69:         if(PIE2bits.C1IE == 1 && PIR2bits.
      +                          C1IF == 1)
  6061     002D  0021               	movlb	1	; select bank1
  6062     002E  1E92               	btfss	18,5	;volatile
  6063     002F  2831               	goto	u119_21
  6064     0030  2832               	goto	u119_20
  6065     0031                     u119_21:
  6066     0031  283A               	goto	i1l2826
  6067     0032                     u119_20:
  6068     0032                     i1l2822:
  6069     0032  0020               	movlb	0	; select bank0
  6070     0033  1E92               	btfss	18,5	;volatile
  6071     0034  2836               	goto	u120_21
  6072     0035  2837               	goto	u120_20
  6073     0036                     u120_21:
  6074     0036  283A               	goto	i1l2826
  6075     0037                     u120_20:
  6076     0037                     i1l2824:
  6077                           
  6078                           ;mcc_generated_files/interrupt_manager.c: 70:         {;mcc_generated_files/interrupt_ma
      +                          nager.c: 71:             CMP1_ISR();
  6079     0037  3185  2598  3180   	fcall	_CMP1_ISR
  6080     003A                     i1l2826:
  6081                           
  6082                           ;mcc_generated_files/interrupt_manager.c: 73:         if(PIE3bits.CCP4IE == 1 && PIR3bit
      +                          s.CCP4IF == 1)
  6083     003A  0021               	movlb	1	; select bank1
  6084     003B  1E93               	btfss	19,5	;volatile
  6085     003C  283E               	goto	u121_21
  6086     003D  283F               	goto	u121_20
  6087     003E                     u121_21:
  6088     003E  2847               	goto	i1l2832
  6089     003F                     u121_20:
  6090     003F                     i1l2828:
  6091     003F  0020               	movlb	0	; select bank0
  6092     0040  1E93               	btfss	19,5	;volatile
  6093     0041  2843               	goto	u122_21
  6094     0042  2844               	goto	u122_20
  6095     0043                     u122_21:
  6096     0043  2847               	goto	i1l2832
  6097     0044                     u122_20:
  6098     0044                     i1l2830:
  6099                           
  6100                           ;mcc_generated_files/interrupt_manager.c: 74:         {;mcc_generated_files/interrupt_ma
      +                          nager.c: 75:             CCP4_CaptureISR();
  6101     0044  3184  2483  3180   	fcall	_CCP4_CaptureISR
  6102     0047                     i1l2832:
  6103                           
  6104                           ;mcc_generated_files/interrupt_manager.c: 77:         if(PIE3bits.TMR4IE == 1 && PIR3bit
      +                          s.TMR4IF == 1)
  6105     0047  0021               	movlb	1	; select bank1
  6106     0048  1C93               	btfss	19,1	;volatile
  6107     0049  284B               	goto	u123_21
  6108     004A  284C               	goto	u123_20
  6109     004B                     u123_21:
  6110     004B  2854               	goto	i1l432
  6111     004C                     u123_20:
  6112     004C                     i1l2834:
  6113     004C  0020               	movlb	0	; select bank0
  6114     004D  1C93               	btfss	19,1	;volatile
  6115     004E  2850               	goto	u124_21
  6116     004F  2851               	goto	u124_20
  6117     0050                     u124_21:
  6118     0050  2854               	goto	i1l432
  6119     0051                     u124_20:
  6120     0051                     i1l2836:
  6121                           
  6122                           ;mcc_generated_files/interrupt_manager.c: 78:         {;mcc_generated_files/interrupt_ma
      +                          nager.c: 79:             TMR4_ISR();
  6123     0051  3184  2433  3180   	fcall	_TMR4_ISR
  6124     0054                     i1l432:
  6125     0054  107E               	bcf	int$flags,0	;clear compiler interrupt flag (level 1)
  6126     0055  0009               	retfie
  6127     0056                     __end_of_INTERRUPT_InterruptManager:
  6128                           
  6129                           	psect	text32
  6130     0433                     __ptext32:	
  6131 ;; *************** function _TMR4_ISR *****************
  6132 ;; Defined at:
  6133 ;;		line 119 in file "mcc_generated_files/tmr4.c"
  6134 ;; Parameters:    Size  Location     Type
  6135 ;;		None
  6136 ;; Auto vars:     Size  Location     Type
  6137 ;;		None
  6138 ;; Return value:  Size  Location     Type
  6139 ;;                  1    wreg      void 
  6140 ;; Registers used:
  6141 ;;		wreg, fsr0l, fsr0h, status,2, status,0, pclath, cstack
  6142 ;; Tracked objects:
  6143 ;;		On entry : 0/0
  6144 ;;		On exit  : 0/0
  6145 ;;		Unchanged: 0/0
  6146 ;; Data sizes:     COMMON   BANK0   BANK1   BANK2   BANK3   BANK4
  6147 ;;      Params:         0       0       0       0       0       0
  6148 ;;      Locals:         0       0       0       0       0       0
  6149 ;;      Temps:          0       0       0       0       0       0
  6150 ;;      Totals:         0       0       0       0       0       0
  6151 ;;Total ram usage:        0 bytes
  6152 ;; Hardware stack levels used: 1
  6153 ;; Hardware stack levels required when called: 3
  6154 ;; This function calls:
  6155 ;;		_TMR4_CallBack
  6156 ;; This function is called by:
  6157 ;;		_INTERRUPT_InterruptManager
  6158 ;; This function uses a non-reentrant model
  6159 ;;
  6160                           
  6161     0433                     _TMR4_ISR:	
  6162                           ;psect for function _TMR4_ISR
  6163                           
  6164     0433                     i1l2708:	
  6165                           ;incstack = 0
  6166                           ; Regs used in _TMR4_ISR: [wreg-fsr0h+status,2+status,0+pclath+cstack]
  6167                           
  6168                           
  6169                           ;mcc_generated_files/tmr4.c: 121:     static volatile unsigned int CountCallBack = 0;;mc
      +                          c_generated_files/tmr4.c: 124:     PIR3bits.TMR4IF = 0;
  6170     0433  0020               	movlb	0	; select bank0
  6171     0434  1093               	bcf	19,1	;volatile
  6172     0435                     i1l2710:
  6173                           
  6174                           ;mcc_generated_files/tmr4.c: 127:     if (++CountCallBack >= 2)
  6175     0435  3001               	movlw	1
  6176     0436  07A8               	addwf	TMR4_ISR@CountCallBack,f	;volatile
  6177     0437  3000               	movlw	0
  6178     0438  3DA9               	addwfc	TMR4_ISR@CountCallBack+1,f	;volatile
  6179     0439  3000               	movlw	0
  6180     043A  0229               	subwf	TMR4_ISR@CountCallBack+1,w	;volatile
  6181     043B  3002               	movlw	2
  6182     043C  1903               	skipnz
  6183     043D  0228               	subwf	TMR4_ISR@CountCallBack,w	;volatile
  6184     043E  1C03               	skipc
  6185     043F  2C41               	goto	u104_21
  6186     0440  2C42               	goto	u104_20
  6187     0441                     u104_21:
  6188     0441  2C48               	goto	i1l623
  6189     0442                     u104_20:
  6190     0442                     i1l2712:
  6191                           
  6192                           ;mcc_generated_files/tmr4.c: 128:     {;mcc_generated_files/tmr4.c: 130:         TMR4_Ca
      +                          llBack();
  6193     0442  3184  24F2  3184   	fcall	_TMR4_CallBack
  6194     0445                     i1l2714:
  6195                           
  6196                           ;mcc_generated_files/tmr4.c: 133:         CountCallBack = 0;
  6197     0445  0020               	movlb	0	; select bank0
  6198     0446  01A8               	clrf	TMR4_ISR@CountCallBack	;volatile
  6199     0447  01A9               	clrf	TMR4_ISR@CountCallBack+1	;volatile
  6200     0448                     i1l623:
  6201     0448  0008               	return
  6202     0449                     __end_of_TMR4_ISR:
  6203                           
  6204                           	psect	text33
  6205     04F2                     __ptext33:	
  6206 ;; *************** function _TMR4_CallBack *****************
  6207 ;; Defined at:
  6208 ;;		line 137 in file "mcc_generated_files/tmr4.c"
  6209 ;; Parameters:    Size  Location     Type
  6210 ;;		None
  6211 ;; Auto vars:     Size  Location     Type
  6212 ;;		None
  6213 ;; Return value:  Size  Location     Type
  6214 ;;                  1    wreg      void 
  6215 ;; Registers used:
  6216 ;;		wreg, fsr0l, fsr0h, status,2, status,0, pclath, cstack
  6217 ;; Tracked objects:
  6218 ;;		On entry : 0/0
  6219 ;;		On exit  : 0/0
  6220 ;;		Unchanged: 0/0
  6221 ;; Data sizes:     COMMON   BANK0   BANK1   BANK2   BANK3   BANK4
  6222 ;;      Params:         0       0       0       0       0       0
  6223 ;;      Locals:         0       0       0       0       0       0
  6224 ;;      Temps:          0       0       0       0       0       0
  6225 ;;      Totals:         0       0       0       0       0       0
  6226 ;;Total ram usage:        0 bytes
  6227 ;; Hardware stack levels used: 1
  6228 ;; Hardware stack levels required when called: 2
  6229 ;; This function calls:
  6230 ;;		NULL
  6231 ;;		_TMR4_DefaultInterruptHandler
  6232 ;;		_controleMovimento
  6233 ;; This function is called by:
  6234 ;;		_TMR4_ISR
  6235 ;; This function uses a non-reentrant model
  6236 ;;
  6237                           
  6238     04F2                     _TMR4_CallBack:	
  6239                           ;psect for function _TMR4_CallBack
  6240                           
  6241     04F2                     i1l2624:	
  6242                           ;incstack = 0
  6243                           ; Regs used in _TMR4_CallBack: [wreg-fsr0h+status,2+status,0+pclath+cstack]
  6244                           
  6245                           
  6246                           ;mcc_generated_files/tmr4.c: 141:     if(TMR4_InterruptHandler)
  6247     04F2  0020               	movlb	0	; select bank0
  6248     04F3  0843               	movf	_TMR4_InterruptHandler,w
  6249     04F4  0444               	iorwf	_TMR4_InterruptHandler+1,w
  6250     04F5  1903               	btfsc	3,2
  6251     04F6  2CF8               	goto	u98_21
  6252     04F7  2CF9               	goto	u98_20
  6253     04F8                     u98_21:
  6254     04F8  2CFE               	goto	i1l627
  6255     04F9                     u98_20:
  6256     04F9                     i1l2626:
  6257                           
  6258                           ;mcc_generated_files/tmr4.c: 142:     {;mcc_generated_files/tmr4.c: 143:         TMR4_In
      +                          terruptHandler();
  6259     04F9  0844               	movf	_TMR4_InterruptHandler+1,w
  6260     04FA  008A               	movwf	10
  6261     04FB  0843               	movf	_TMR4_InterruptHandler,w
  6262     04FC  000A               	callw
  6263     04FD  3184               	pagesel	$
  6264     04FE                     i1l627:
  6265     04FE  0008               	return
  6266     04FF                     __end_of_TMR4_CallBack:
  6267                           
  6268                           	psect	text34
  6269     05B9                     __ptext34:	
  6270 ;; *************** function _TMR4_DefaultInterruptHandler *****************
  6271 ;; Defined at:
  6272 ;;		line 151 in file "mcc_generated_files/tmr4.c"
  6273 ;; Parameters:    Size  Location     Type
  6274 ;;		None
  6275 ;; Auto vars:     Size  Location     Type
  6276 ;;		None
  6277 ;; Return value:  Size  Location     Type
  6278 ;;                  1    wreg      void 
  6279 ;; Registers used:
  6280 ;;		None
  6281 ;; Tracked objects:
  6282 ;;		On entry : 0/0
  6283 ;;		On exit  : 0/0
  6284 ;;		Unchanged: 0/0
  6285 ;; Data sizes:     COMMON   BANK0   BANK1   BANK2   BANK3   BANK4
  6286 ;;      Params:         0       0       0       0       0       0
  6287 ;;      Locals:         0       0       0       0       0       0
  6288 ;;      Temps:          0       0       0       0       0       0
  6289 ;;      Totals:         0       0       0       0       0       0
  6290 ;;Total ram usage:        0 bytes
  6291 ;; Hardware stack levels used: 1
  6292 ;; This function calls:
  6293 ;;		Nothing
  6294 ;; This function is called by:
  6295 ;;		_TMR4_Initialize
  6296 ;;		_TMR4_CallBack
  6297 ;; This function uses a non-reentrant model
  6298 ;;
  6299                           
  6300     05B9                     _TMR4_DefaultInterruptHandler:	
  6301                           ;psect for function _TMR4_DefaultInterruptHandler
  6302                           
  6303     05B9                     i1l633:	
  6304                           ;incstack = 0
  6305                           ; Regs used in _TMR4_DefaultInterruptHandler: []
  6306                           
  6307     05B9  0008               	return
  6308     05BA                     __end_of_TMR4_DefaultInterruptHandler:
  6309                           
  6310                           	psect	text35
  6311     017F                     __ptext35:	
  6312 ;; *************** function _controleMovimento *****************
  6313 ;; Defined at:
  6314 ;;		line 58 in file "main.c"
  6315 ;; Parameters:    Size  Location     Type
  6316 ;;		None
  6317 ;; Auto vars:     Size  Location     Type
  6318 ;;		None
  6319 ;; Return value:  Size  Location     Type
  6320 ;;                  1    wreg      void 
  6321 ;; Registers used:
  6322 ;;		wreg, fsr0l, fsr0h, status,2, status,0, pclath, cstack
  6323 ;; Tracked objects:
  6324 ;;		On entry : 0/0
  6325 ;;		On exit  : 0/0
  6326 ;;		Unchanged: 0/0
  6327 ;; Data sizes:     COMMON   BANK0   BANK1   BANK2   BANK3   BANK4
  6328 ;;      Params:         0       0       0       0       0       0
  6329 ;;      Locals:         0       0       0       0       0       0
  6330 ;;      Temps:          2       0       0       0       0       0
  6331 ;;      Totals:         2       0       0       0       0       0
  6332 ;;Total ram usage:        2 bytes
  6333 ;; Hardware stack levels used: 1
  6334 ;; Hardware stack levels required when called: 1
  6335 ;; This function calls:
  6336 ;;		_PWM3_LoadDutyValue
  6337 ;;		_TMR4_StopTimer
  6338 ;; This function is called by:
  6339 ;;		_main
  6340 ;;		_TMR4_CallBack
  6341 ;; This function uses a non-reentrant model
  6342 ;;
  6343                           
  6344     017F                     _controleMovimento:	
  6345                           ;psect for function _controleMovimento
  6346                           
  6347     017F                     i1l2284:	
  6348                           ;incstack = 0
  6349                           ; Regs used in _controleMovimento: [wreg-fsr0h+status,2+status,0+pclath+cstack]
  6350                           
  6351                           
  6352                           ;main.c: 59:     static uint8_t cont = 0;;main.c: 60:     switch(mov){
  6353     017F  29A6               	goto	i1l2310
  6354     0180                     i1l2286:
  6355                           
  6356                           ;main.c: 62:             PWM3_LoadDutyValue(0);
  6357     0180  3000               	movlw	0
  6358     0181  00F0               	movwf	PWM3_LoadDutyValue@dutyValue
  6359     0182  00F1               	movwf	PWM3_LoadDutyValue@dutyValue+1
  6360     0183  3184  241C  3181   	fcall	_PWM3_LoadDutyValue
  6361     0186                     i1l2288:
  6362                           
  6363                           ;main.c: 63:             TMR4_StopTimer();
  6364     0186  3185  25AF  3181   	fcall	_TMR4_StopTimer
  6365                           
  6366                           ;main.c: 64:             break;
  6367     0189  29BC               	goto	i1l2312
  6368     018A                     i1l2290:
  6369                           
  6370                           ;main.c: 66:             PWM3_LoadDutyValue(300);
  6371     018A  302C               	movlw	44
  6372     018B  00F0               	movwf	PWM3_LoadDutyValue@dutyValue
  6373     018C  3001               	movlw	1
  6374     018D  00F1               	movwf	PWM3_LoadDutyValue@dutyValue+1
  6375     018E  3184  241C  3181   	fcall	_PWM3_LoadDutyValue
  6376     0191  2986               	goto	i1l2288
  6377     0192                     i1l2298:
  6378                           
  6379                           ;main.c: 74:             if (cont >=4){
  6380     0192  3004               	movlw	4
  6381     0193  027D               	subwf	controleMovimento@cont,w
  6382     0194  1C03               	skipc
  6383     0195  2997               	goto	u73_21
  6384     0196  2998               	goto	u73_20
  6385     0197                     u73_21:
  6386     0197  29A1               	goto	i1l2306
  6387     0198                     u73_20:
  6388     0198                     i1l2300:
  6389                           
  6390                           ;main.c: 75:                 PWM3_LoadDutyValue(300);
  6391     0198  302C               	movlw	44
  6392     0199  00F0               	movwf	PWM3_LoadDutyValue@dutyValue
  6393     019A  3001               	movlw	1
  6394     019B  00F1               	movwf	PWM3_LoadDutyValue@dutyValue+1
  6395     019C  3184  241C  3181   	fcall	_PWM3_LoadDutyValue
  6396     019F                     i1l2302:
  6397                           
  6398                           ;main.c: 76:                 cont = 0;
  6399     019F  01FD               	clrf	controleMovimento@cont
  6400     01A0  2986               	goto	i1l2288
  6401     01A1                     i1l2306:
  6402                           
  6403                           ;main.c: 79:                 cont++;
  6404     01A1  3001               	movlw	1
  6405     01A2  00F4               	movwf	??_controleMovimento
  6406     01A3  0874               	movf	??_controleMovimento,w
  6407     01A4  07FD               	addwf	controleMovimento@cont,f
  6408     01A5  29BC               	goto	i1l2312
  6409     01A6                     i1l2310:
  6410     01A6  087B               	movf	_mov,w
  6411     01A7  00F4               	movwf	??_controleMovimento
  6412     01A8  01F5               	clrf	??_controleMovimento+1
  6413                           
  6414                           ; Switch on 2 bytes has been partitioned into a top level switch of size 1, and 1 sub-sw
      +                          itches
  6415                           ; Switch size 1, requested type "simple"
  6416                           ; Number of cases is 1, Range of values is 0 to 0
  6417                           ; switch strategies available:
  6418                           ; Name         Instructions Cycles
  6419                           ; simple_byte            4     3 (average)
  6420                           ; direct_byte            8     6 (fixed)
  6421                           ; jumptable            260     6 (fixed)
  6422                           ;	Chosen strategy is simple_byte
  6423     01A9  0875               	movf	??_controleMovimento+1,w
  6424     01AA  3A00               	xorlw	0	; case 0
  6425     01AB  1903               	skipnz
  6426     01AC  29AE               	goto	i1l2874
  6427     01AD  29BC               	goto	i1l2312
  6428     01AE                     i1l2874:
  6429                           
  6430                           ; Switch size 1, requested type "simple"
  6431                           ; Number of cases is 4, Range of values is 0 to 3
  6432                           ; switch strategies available:
  6433                           ; Name         Instructions Cycles
  6434                           ; simple_byte           13     7 (average)
  6435                           ; direct_byte           14     6 (fixed)
  6436                           ; jumptable            260     6 (fixed)
  6437                           ;	Chosen strategy is simple_byte
  6438     01AE  0874               	movf	??_controleMovimento,w
  6439     01AF  3A00               	xorlw	0	; case 0
  6440     01B0  1903               	skipnz
  6441     01B1  2980               	goto	i1l2286
  6442     01B2  3A01               	xorlw	1	; case 1
  6443     01B3  1903               	skipnz
  6444     01B4  298A               	goto	i1l2290
  6445     01B5  3A03               	xorlw	3	; case 2
  6446     01B6  1903               	skipnz
  6447     01B7  298A               	goto	i1l2290
  6448     01B8  3A01               	xorlw	1	; case 3
  6449     01B9  1903               	skipnz
  6450     01BA  2992               	goto	i1l2298
  6451     01BB  29BC               	goto	i1l2312
  6452     01BC                     i1l2312:
  6453                           
  6454                           ;main.c: 84:     if(destinoSub != 0 && mov != RetornaS0 ){
  6455     01BC  087C               	movf	_destinoSub,w
  6456     01BD  1903               	btfsc	3,2
  6457     01BE  29C0               	goto	u74_21
  6458     01BF  29C1               	goto	u74_20
  6459     01C0                     u74_21:
  6460     01C0  29CD               	goto	i1l2318
  6461     01C1                     u74_20:
  6462     01C1                     i1l2314:
  6463     01C1  3003               	movlw	3
  6464     01C2  067B               	xorwf	_mov,w
  6465     01C3  1903               	btfsc	3,2
  6466     01C4  29C6               	goto	u75_21
  6467     01C5  29C7               	goto	u75_20
  6468     01C6                     u75_21:
  6469     01C6  29CD               	goto	i1l2318
  6470     01C7                     u75_20:
  6471     01C7                     i1l2316:
  6472                           
  6473                           ;main.c: 86:         subindo = 1;
  6474     01C7  0020               	movlb	0	; select bank0
  6475     01C8  01D4               	clrf	_subindo
  6476     01C9  0AD4               	incf	_subindo,f
  6477     01CA                     i1l712:	
  6478                           ;main.c: 87:         do { LATAbits.LATA7 = 1; } while(0);
  6479                           
  6480     01CA  0022               	movlb	2	; select bank2
  6481     01CB  178C               	bsf	12,7	;volatile
  6482     01CC  29D1               	goto	i1l717
  6483     01CD                     i1l2318:
  6484                           
  6485                           ;main.c: 90:         subindo = 0;
  6486     01CD  0020               	movlb	0	; select bank0
  6487     01CE  01D4               	clrf	_subindo
  6488     01CF                     i1l2320:
  6489     01CF  0022               	movlb	2	; select bank2
  6490     01D0  138C               	bcf	12,7	;volatile
  6491     01D1                     i1l717:
  6492     01D1  0008               	return
  6493     01D2                     __end_of_controleMovimento:
  6494                           
  6495                           	psect	text36
  6496     05AF                     __ptext36:	
  6497 ;; *************** function _TMR4_StopTimer *****************
  6498 ;; Defined at:
  6499 ;;		line 93 in file "mcc_generated_files/tmr4.c"
  6500 ;; Parameters:    Size  Location     Type
  6501 ;;		None
  6502 ;; Auto vars:     Size  Location     Type
  6503 ;;		None
  6504 ;; Return value:  Size  Location     Type
  6505 ;;                  1    wreg      void 
  6506 ;; Registers used:
  6507 ;;		None
  6508 ;; Tracked objects:
  6509 ;;		On entry : 0/0
  6510 ;;		On exit  : 0/0
  6511 ;;		Unchanged: 0/0
  6512 ;; Data sizes:     COMMON   BANK0   BANK1   BANK2   BANK3   BANK4
  6513 ;;      Params:         0       0       0       0       0       0
  6514 ;;      Locals:         0       0       0       0       0       0
  6515 ;;      Temps:          0       0       0       0       0       0
  6516 ;;      Totals:         0       0       0       0       0       0
  6517 ;;Total ram usage:        0 bytes
  6518 ;; Hardware stack levels used: 1
  6519 ;; This function calls:
  6520 ;;		Nothing
  6521 ;; This function is called by:
  6522 ;;		_controleMovimento
  6523 ;; This function uses a non-reentrant model
  6524 ;;
  6525                           
  6526     05AF                     _TMR4_StopTimer:	
  6527                           ;psect for function _TMR4_StopTimer
  6528                           
  6529     05AF                     i1l2224:	
  6530                           ;incstack = 0
  6531                           ; Regs used in _TMR4_StopTimer: []
  6532                           
  6533                           
  6534                           ;mcc_generated_files/tmr4.c: 96:     T4CONbits.TMR4ON = 0;
  6535     05AF  0028               	movlb	8	; select bank8
  6536     05B0  1117               	bcf	23,2	;volatile
  6537     05B1                     i1l608:
  6538     05B1  0008               	return
  6539     05B2                     __end_of_TMR4_StopTimer:
  6540                           
  6541                           	psect	text37
  6542     0404                     __ptext37:	
  6543 ;; *************** function _TMR0_ISR *****************
  6544 ;; Defined at:
  6545 ;;		line 108 in file "mcc_generated_files/tmr0.c"
  6546 ;; Parameters:    Size  Location     Type
  6547 ;;		None
  6548 ;; Auto vars:     Size  Location     Type
  6549 ;;		None
  6550 ;; Return value:  Size  Location     Type
  6551 ;;                  1    wreg      void 
  6552 ;; Registers used:
  6553 ;;		wreg, status,2, status,0, pclath, cstack
  6554 ;; Tracked objects:
  6555 ;;		On entry : 0/0
  6556 ;;		On exit  : 0/0
  6557 ;;		Unchanged: 0/0
  6558 ;; Data sizes:     COMMON   BANK0   BANK1   BANK2   BANK3   BANK4
  6559 ;;      Params:         0       0       0       0       0       0
  6560 ;;      Locals:         0       0       0       0       0       0
  6561 ;;      Temps:          0       0       0       0       0       0
  6562 ;;      Totals:         0       0       0       0       0       0
  6563 ;;Total ram usage:        0 bytes
  6564 ;; Hardware stack levels used: 1
  6565 ;; Hardware stack levels required when called: 2
  6566 ;; This function calls:
  6567 ;;		_TMR0_CallBack
  6568 ;; This function is called by:
  6569 ;;		_INTERRUPT_InterruptManager
  6570 ;; This function uses a non-reentrant model
  6571 ;;
  6572                           
  6573     0404                     _TMR0_ISR:	
  6574                           ;psect for function _TMR0_ISR
  6575                           
  6576     0404                     i1l2694:	
  6577                           ;incstack = 0
  6578                           ; Regs used in _TMR0_ISR: [wreg+status,2+status,0+pclath+cstack]
  6579                           
  6580                           
  6581                           ;mcc_generated_files/tmr0.c: 110:     static volatile uint16_t CountCallBack = 0;;mcc_ge
      +                          nerated_files/tmr0.c: 113:     INTCONbits.TMR0IF = 0;
  6582     0404  110B               	bcf	11,2	;volatile
  6583     0405                     i1l2696:
  6584                           
  6585                           ;mcc_generated_files/tmr0.c: 115:     TMR0 = timer0ReloadVal;
  6586     0405  0020               	movlb	0	; select bank0
  6587     0406  0830               	movf	_timer0ReloadVal,w	;volatile
  6588     0407  0095               	movwf	21	;volatile
  6589                           
  6590                           ;mcc_generated_files/tmr0.c: 118:     if (++CountCallBack >= 5)
  6591     0408  3001               	movlw	1
  6592     0409  07AA               	addwf	TMR0_ISR@CountCallBack,f	;volatile
  6593     040A  3000               	movlw	0
  6594     040B  3DAB               	addwfc	TMR0_ISR@CountCallBack+1,f	;volatile
  6595     040C  3000               	movlw	0
  6596     040D  022B               	subwf	TMR0_ISR@CountCallBack+1,w	;volatile
  6597     040E  3005               	movlw	5
  6598     040F  1903               	skipnz
  6599     0410  022A               	subwf	TMR0_ISR@CountCallBack,w	;volatile
  6600     0411  1C03               	skipc
  6601     0412  2C14               	goto	u103_21
  6602     0413  2C15               	goto	u103_20
  6603     0414                     u103_21:
  6604     0414  2C1B               	goto	i1l543
  6605     0415                     u103_20:
  6606     0415                     i1l2698:
  6607                           
  6608                           ;mcc_generated_files/tmr0.c: 119:     {;mcc_generated_files/tmr0.c: 121:         TMR0_Ca
      +                          llBack();
  6609     0415  3184  24FF  3184   	fcall	_TMR0_CallBack
  6610     0418                     i1l2700:
  6611                           
  6612                           ;mcc_generated_files/tmr0.c: 124:         CountCallBack = 0;
  6613     0418  0020               	movlb	0	; select bank0
  6614     0419  01AA               	clrf	TMR0_ISR@CountCallBack	;volatile
  6615     041A  01AB               	clrf	TMR0_ISR@CountCallBack+1	;volatile
  6616     041B                     i1l543:
  6617     041B  0008               	return
  6618     041C                     __end_of_TMR0_ISR:
  6619                           
  6620                           	psect	text38
  6621     04FF                     __ptext38:	
  6622 ;; *************** function _TMR0_CallBack *****************
  6623 ;; Defined at:
  6624 ;;		line 130 in file "mcc_generated_files/tmr0.c"
  6625 ;; Parameters:    Size  Location     Type
  6626 ;;		None
  6627 ;; Auto vars:     Size  Location     Type
  6628 ;;		None
  6629 ;; Return value:  Size  Location     Type
  6630 ;;                  1    wreg      void 
  6631 ;; Registers used:
  6632 ;;		wreg, status,2, status,0, pclath, cstack
  6633 ;; Tracked objects:
  6634 ;;		On entry : 0/0
  6635 ;;		On exit  : 0/0
  6636 ;;		Unchanged: 0/0
  6637 ;; Data sizes:     COMMON   BANK0   BANK1   BANK2   BANK3   BANK4
  6638 ;;      Params:         0       0       0       0       0       0
  6639 ;;      Locals:         0       0       0       0       0       0
  6640 ;;      Temps:          0       0       0       0       0       0
  6641 ;;      Totals:         0       0       0       0       0       0
  6642 ;;Total ram usage:        0 bytes
  6643 ;; Hardware stack levels used: 1
  6644 ;; Hardware stack levels required when called: 1
  6645 ;; This function calls:
  6646 ;;		NULL
  6647 ;;		_TMR0_DefaultInterruptHandler
  6648 ;; This function is called by:
  6649 ;;		_TMR0_ISR
  6650 ;; This function uses a non-reentrant model
  6651 ;;
  6652                           
  6653     04FF                     _TMR0_CallBack:	
  6654                           ;psect for function _TMR0_CallBack
  6655                           
  6656     04FF                     i1l2620:	
  6657                           ;incstack = 0
  6658                           ; Regs used in _TMR0_CallBack: [wreg+status,2+status,0+pclath+cstack]
  6659                           
  6660                           
  6661                           ;mcc_generated_files/tmr0.c: 134:     if(TMR0_InterruptHandler)
  6662     04FF  0020               	movlb	0	; select bank0
  6663     0500  0847               	movf	_TMR0_InterruptHandler,w
  6664     0501  0448               	iorwf	_TMR0_InterruptHandler+1,w
  6665     0502  1903               	btfsc	3,2
  6666     0503  2D05               	goto	u97_21
  6667     0504  2D06               	goto	u97_20
  6668     0505                     u97_21:
  6669     0505  2D0B               	goto	i1l547
  6670     0506                     u97_20:
  6671     0506                     i1l2622:
  6672                           
  6673                           ;mcc_generated_files/tmr0.c: 135:     {;mcc_generated_files/tmr0.c: 136:         TMR0_In
      +                          terruptHandler();
  6674     0506  0848               	movf	_TMR0_InterruptHandler+1,w
  6675     0507  008A               	movwf	10
  6676     0508  0847               	movf	_TMR0_InterruptHandler,w
  6677     0509  000A               	callw
  6678     050A  3184               	pagesel	$
  6679     050B                     i1l547:
  6680     050B  0008               	return
  6681     050C                     __end_of_TMR0_CallBack:
  6682                           
  6683                           	psect	text39
  6684     05BA                     __ptext39:	
  6685 ;; *************** function _TMR0_DefaultInterruptHandler *****************
  6686 ;; Defined at:
  6687 ;;		line 144 in file "mcc_generated_files/tmr0.c"
  6688 ;; Parameters:    Size  Location     Type
  6689 ;;		None
  6690 ;; Auto vars:     Size  Location     Type
  6691 ;;		None
  6692 ;; Return value:  Size  Location     Type
  6693 ;;                  1    wreg      void 
  6694 ;; Registers used:
  6695 ;;		None
  6696 ;; Tracked objects:
  6697 ;;		On entry : 0/0
  6698 ;;		On exit  : 0/0
  6699 ;;		Unchanged: 0/0
  6700 ;; Data sizes:     COMMON   BANK0   BANK1   BANK2   BANK3   BANK4
  6701 ;;      Params:         0       0       0       0       0       0
  6702 ;;      Locals:         0       0       0       0       0       0
  6703 ;;      Temps:          0       0       0       0       0       0
  6704 ;;      Totals:         0       0       0       0       0       0
  6705 ;;Total ram usage:        0 bytes
  6706 ;; Hardware stack levels used: 1
  6707 ;; This function calls:
  6708 ;;		Nothing
  6709 ;; This function is called by:
  6710 ;;		_TMR0_Initialize
  6711 ;;		_TMR0_CallBack
  6712 ;; This function uses a non-reentrant model
  6713 ;;
  6714                           
  6715     05BA                     _TMR0_DefaultInterruptHandler:	
  6716                           ;psect for function _TMR0_DefaultInterruptHandler
  6717                           
  6718     05BA                     i1l553:	
  6719                           ;incstack = 0
  6720                           ; Regs used in _TMR0_DefaultInterruptHandler: []
  6721                           
  6722     05BA  0008               	return
  6723     05BB                     __end_of_TMR0_DefaultInterruptHandler:
  6724                           
  6725                           	psect	text40
  6726     04A6                     __ptext40:	
  6727 ;; *************** function _PIN_MANAGER_IOC *****************
  6728 ;; Defined at:
  6729 ;;		line 119 in file "mcc_generated_files/pin_manager.c"
  6730 ;; Parameters:    Size  Location     Type
  6731 ;;		None
  6732 ;; Auto vars:     Size  Location     Type
  6733 ;;		None
  6734 ;; Return value:  Size  Location     Type
  6735 ;;                  1    wreg      void 
  6736 ;; Registers used:
  6737 ;;		wreg, fsr1l, fsr1h, status,2, status,0, pclath, cstack
  6738 ;; Tracked objects:
  6739 ;;		On entry : 0/0
  6740 ;;		On exit  : 0/0
  6741 ;;		Unchanged: 0/0
  6742 ;; Data sizes:     COMMON   BANK0   BANK1   BANK2   BANK3   BANK4
  6743 ;;      Params:         0       0       0       0       0       0
  6744 ;;      Locals:         0       0       0       0       0       0
  6745 ;;      Temps:          0       0       0       0       0       0
  6746 ;;      Totals:         0       0       0       0       0       0
  6747 ;;Total ram usage:        0 bytes
  6748 ;; Hardware stack levels used: 1
  6749 ;; Hardware stack levels required when called: 5
  6750 ;; This function calls:
  6751 ;;		_IOCBF0_ISR
  6752 ;;		_IOCBF3_ISR
  6753 ;; This function is called by:
  6754 ;;		_INTERRUPT_InterruptManager
  6755 ;; This function uses a non-reentrant model
  6756 ;;
  6757                           
  6758     04A6                     _PIN_MANAGER_IOC:	
  6759                           ;psect for function _PIN_MANAGER_IOC
  6760                           
  6761     04A6                     i1l2670:	
  6762                           ;incstack = 0
  6763                           ; Regs used in _PIN_MANAGER_IOC: [wreg+fsr1l+fsr1h+status,2+status,0+pclath+cstack]
  6764                           
  6765                           
  6766                           ;mcc_generated_files/pin_manager.c: 122:     if(IOCBFbits.IOCBF0 == 1)
  6767     04A6  0027               	movlb	7	; select bank7
  6768     04A7  1C16               	btfss	22,0	;volatile
  6769     04A8  2CAA               	goto	u100_21
  6770     04A9  2CAB               	goto	u100_20
  6771     04AA                     u100_21:
  6772     04AA  2CAE               	goto	i1l2674
  6773     04AB                     u100_20:
  6774     04AB                     i1l2672:
  6775                           
  6776                           ;mcc_generated_files/pin_manager.c: 123:     {;mcc_generated_files/pin_manager.c: 124:  
      +                                 IOCBF0_ISR();
  6777     04AB  3184  24C6  3184   	fcall	_IOCBF0_ISR
  6778     04AE                     i1l2674:
  6779                           
  6780                           ;mcc_generated_files/pin_manager.c: 127:     if(IOCBFbits.IOCBF3 == 1)
  6781     04AE  0027               	movlb	7	; select bank7
  6782     04AF  1D96               	btfss	22,3	;volatile
  6783     04B0  2CB2               	goto	u101_21
  6784     04B1  2CB3               	goto	u101_20
  6785     04B2                     u101_21:
  6786     04B2  2CB6               	goto	i1l134
  6787     04B3                     u101_20:
  6788     04B3                     i1l2676:
  6789                           
  6790                           ;mcc_generated_files/pin_manager.c: 128:     {;mcc_generated_files/pin_manager.c: 129:  
      +                                 IOCBF3_ISR();
  6791     04B3  3184  24B7  3184   	fcall	_IOCBF3_ISR
  6792     04B6                     i1l134:
  6793     04B6  0008               	return
  6794     04B7                     __end_of_PIN_MANAGER_IOC:
  6795                           
  6796                           	psect	text41
  6797     04B7                     __ptext41:	
  6798 ;; *************** function _IOCBF3_ISR *****************
  6799 ;; Defined at:
  6800 ;;		line 166 in file "mcc_generated_files/pin_manager.c"
  6801 ;; Parameters:    Size  Location     Type
  6802 ;;		None
  6803 ;; Auto vars:     Size  Location     Type
  6804 ;;		None
  6805 ;; Return value:  Size  Location     Type
  6806 ;;                  1    wreg      void 
  6807 ;; Registers used:
  6808 ;;		wreg, fsr1l, fsr1h, status,2, status,0, pclath, cstack
  6809 ;; Tracked objects:
  6810 ;;		On entry : 0/0
  6811 ;;		On exit  : 0/0
  6812 ;;		Unchanged: 0/0
  6813 ;; Data sizes:     COMMON   BANK0   BANK1   BANK2   BANK3   BANK4
  6814 ;;      Params:         0       0       0       0       0       0
  6815 ;;      Locals:         0       0       0       0       0       0
  6816 ;;      Temps:          0       0       0       0       0       0
  6817 ;;      Totals:         0       0       0       0       0       0
  6818 ;;Total ram usage:        0 bytes
  6819 ;; Hardware stack levels used: 1
  6820 ;; Hardware stack levels required when called: 4
  6821 ;; This function calls:
  6822 ;;		NULL
  6823 ;;		_IOCBF3_DefaultInterruptHandler
  6824 ;;		_chegadaS2
  6825 ;; This function is called by:
  6826 ;;		_PIN_MANAGER_IOC
  6827 ;; This function uses a non-reentrant model
  6828 ;;
  6829                           
  6830     04B7                     _IOCBF3_ISR:	
  6831                           ;psect for function _IOCBF3_ISR
  6832                           
  6833     04B7                     i1l2520:	
  6834                           ;incstack = 0
  6835                           ; Regs used in _IOCBF3_ISR: [wreg+fsr1l+fsr1h+status,2+status,0+pclath+cstack]
  6836                           
  6837                           
  6838                           ;mcc_generated_files/pin_manager.c: 171:     if(IOCBF3_InterruptHandler)
  6839     04B7  0020               	movlb	0	; select bank0
  6840     04B8  084F               	movf	_IOCBF3_InterruptHandler,w
  6841     04B9  0450               	iorwf	_IOCBF3_InterruptHandler+1,w
  6842     04BA  1903               	btfsc	3,2
  6843     04BB  2CBD               	goto	u96_21
  6844     04BC  2CBE               	goto	u96_20
  6845     04BD                     u96_21:
  6846     04BD  2CC3               	goto	i1l2524
  6847     04BE                     u96_20:
  6848     04BE                     i1l2522:
  6849                           
  6850                           ;mcc_generated_files/pin_manager.c: 172:     {;mcc_generated_files/pin_manager.c: 173:  
      +                                 IOCBF3_InterruptHandler();
  6851     04BE  0850               	movf	_IOCBF3_InterruptHandler+1,w
  6852     04BF  008A               	movwf	10
  6853     04C0  084F               	movf	_IOCBF3_InterruptHandler,w
  6854     04C1  000A               	callw
  6855     04C2  3184               	pagesel	$
  6856     04C3                     i1l2524:
  6857                           
  6858                           ;mcc_generated_files/pin_manager.c: 175:     IOCBFbits.IOCBF3 = 0;
  6859     04C3  0027               	movlb	7	; select bank7
  6860     04C4  1196               	bcf	22,3	;volatile
  6861     04C5                     i1l148:
  6862     04C5  0008               	return
  6863     04C6                     __end_of_IOCBF3_ISR:
  6864                           
  6865                           	psect	text42
  6866     05BB                     __ptext42:	
  6867 ;; *************** function _IOCBF3_DefaultInterruptHandler *****************
  6868 ;; Defined at:
  6869 ;;		line 188 in file "mcc_generated_files/pin_manager.c"
  6870 ;; Parameters:    Size  Location     Type
  6871 ;;		None
  6872 ;; Auto vars:     Size  Location     Type
  6873 ;;		None
  6874 ;; Return value:  Size  Location     Type
  6875 ;;                  1    wreg      void 
  6876 ;; Registers used:
  6877 ;;		None
  6878 ;; Tracked objects:
  6879 ;;		On entry : 0/0
  6880 ;;		On exit  : 0/0
  6881 ;;		Unchanged: 0/0
  6882 ;; Data sizes:     COMMON   BANK0   BANK1   BANK2   BANK3   BANK4
  6883 ;;      Params:         0       0       0       0       0       0
  6884 ;;      Locals:         0       0       0       0       0       0
  6885 ;;      Temps:          0       0       0       0       0       0
  6886 ;;      Totals:         0       0       0       0       0       0
  6887 ;;Total ram usage:        0 bytes
  6888 ;; Hardware stack levels used: 1
  6889 ;; This function calls:
  6890 ;;		Nothing
  6891 ;; This function is called by:
  6892 ;;		_PIN_MANAGER_Initialize
  6893 ;;		_IOCBF3_ISR
  6894 ;; This function uses a non-reentrant model
  6895 ;;
  6896                           
  6897     05BB                     _IOCBF3_DefaultInterruptHandler:	
  6898                           ;psect for function _IOCBF3_DefaultInterruptHandler
  6899                           
  6900     05BB                     i1l154:	
  6901                           ;incstack = 0
  6902                           ; Regs used in _IOCBF3_DefaultInterruptHandler: []
  6903                           
  6904     05BB  0008               	return
  6905     05BC                     __end_of_IOCBF3_DefaultInterruptHandler:
  6906                           
  6907                           	psect	text43
  6908     012A                     __ptext43:	
  6909 ;; *************** function _chegadaS2 *****************
  6910 ;; Defined at:
  6911 ;;		line 126 in file "main.c"
  6912 ;; Parameters:    Size  Location     Type
  6913 ;;		None
  6914 ;; Auto vars:     Size  Location     Type
  6915 ;;		None
  6916 ;; Return value:  Size  Location     Type
  6917 ;;                  1    wreg      void 
  6918 ;; Registers used:
  6919 ;;		wreg, fsr1l, fsr1h, status,2, status,0, pclath, cstack
  6920 ;; Tracked objects:
  6921 ;;		On entry : 0/0
  6922 ;;		On exit  : 0/0
  6923 ;;		Unchanged: 0/0
  6924 ;; Data sizes:     COMMON   BANK0   BANK1   BANK2   BANK3   BANK4
  6925 ;;      Params:         0       0       0       0       0       0
  6926 ;;      Locals:         0       0       0       0       0       0
  6927 ;;      Temps:          0       0       0       0       0       0
  6928 ;;      Totals:         0       0       0       0       0       0
  6929 ;;Total ram usage:        0 bytes
  6930 ;; Hardware stack levels used: 1
  6931 ;; Hardware stack levels required when called: 3
  6932 ;; This function calls:
  6933 ;;		_PWM3_LoadDutyValue
  6934 ;;		_TMR4_StartTimer
  6935 ;;		_TMR4_WriteTimer
  6936 ;;		i1_matrixUpdate
  6937 ;; This function is called by:
  6938 ;;		_main
  6939 ;;		_IOCBF3_ISR
  6940 ;; This function uses a non-reentrant model
  6941 ;;
  6942                           
  6943     012A                     _chegadaS2:	
  6944                           ;psect for function _chegadaS2
  6945                           
  6946     012A                     i1l2326:	
  6947                           ;incstack = 0
  6948                           ; Regs used in _chegadaS2: [wreg+fsr1l+fsr1h+status,2+status,0+pclath+cstack]
  6949                           
  6950                           
  6951                           ;main.c: 129:     if((((destinoSub & 0b00000010) == 2 )&& subindo)||(!subindo &&((destin
      +                          oDesc & 0b00000010) == 2) ) ){
  6952     012A  1CFC               	btfss	_destinoSub,1
  6953     012B  292D               	goto	u76_21
  6954     012C  292E               	goto	u76_20
  6955     012D                     u76_21:
  6956     012D  2934               	goto	i1l2330
  6957     012E                     u76_20:
  6958     012E                     i1l2328:
  6959     012E  0020               	movlb	0	; select bank0
  6960     012F  0854               	movf	_subindo,w
  6961     0130  1D03               	btfss	3,2
  6962     0131  2933               	goto	u77_21
  6963     0132  2934               	goto	u77_20
  6964     0133                     u77_21:
  6965     0133  293E               	goto	i1l2334
  6966     0134                     u77_20:
  6967     0134                     i1l2330:
  6968     0134  0020               	movlb	0	; select bank0
  6969     0135  0854               	movf	_subindo,w
  6970     0136  1D03               	btfss	3,2
  6971     0137  2939               	goto	u78_21
  6972     0138  293A               	goto	u78_20
  6973     0139                     u78_21:
  6974     0139  294B               	goto	i1l2338
  6975     013A                     u78_20:
  6976     013A                     i1l2332:
  6977     013A  1CD3               	btfss	_destinoDesc,1
  6978     013B  293D               	goto	u79_21
  6979     013C  293E               	goto	u79_20
  6980     013D                     u79_21:
  6981     013D  294B               	goto	i1l2338
  6982     013E                     u79_20:
  6983     013E                     i1l2334:
  6984                           
  6985                           ;main.c: 130:         PWM3_LoadDutyValue(0);
  6986     013E  3000               	movlw	0
  6987     013F  00F0               	movwf	PWM3_LoadDutyValue@dutyValue
  6988     0140  00F1               	movwf	PWM3_LoadDutyValue@dutyValue+1
  6989     0141  3184  241C  3181   	fcall	_PWM3_LoadDutyValue
  6990                           
  6991                           ;main.c: 131:         TMR4_WriteTimer(0);
  6992     0144  3000               	movlw	0
  6993     0145  3185  259E  3181   	fcall	_TMR4_WriteTimer
  6994     0148                     i1l2336:
  6995                           
  6996                           ;main.c: 132:         TMR4_StartTimer();
  6997     0148  3185  25B2  3181   	fcall	_TMR4_StartTimer
  6998     014B                     i1l2338:
  6999                           
  7000                           ;main.c: 137:     MatrixLed[0] = 0b00000000;
  7001     014B  0020               	movlb	0	; select bank0
  7002     014C  01A0               	clrf	_MatrixLed
  7003     014D                     i1l2340:
  7004                           
  7005                           ;main.c: 138:     MatrixLed[1] = 0b01000001;
  7006     014D  3041               	movlw	65
  7007     014E  00A1               	movwf	_MatrixLed+1
  7008     014F                     i1l2342:
  7009                           
  7010                           ;main.c: 139:     MatrixLed[2] = 0b11111111;
  7011     014F  30FF               	movlw	255
  7012     0150  00A2               	movwf	_MatrixLed+2
  7013     0151                     i1l2344:
  7014                           
  7015                           ;main.c: 140:     MatrixLed[3] = 0b00000001;
  7016     0151  01A3               	clrf	_MatrixLed+3
  7017     0152  0AA3               	incf	_MatrixLed+3,f
  7018     0153                     i1l2346:
  7019                           
  7020                           ;main.c: 141:     MatrixLed[4] = 0;
  7021     0153  01A4               	clrf	_MatrixLed+4
  7022     0154                     i1l2348:
  7023                           
  7024                           ;main.c: 142:     if(subindo){
  7025     0154  0854               	movf	_subindo,w
  7026     0155  1903               	btfsc	3,2
  7027     0156  2958               	goto	u80_21
  7028     0157  2959               	goto	u80_20
  7029     0158                     u80_21:
  7030     0158  2965               	goto	i1l2356
  7031     0159                     u80_20:
  7032     0159                     i1l2350:
  7033                           
  7034                           ;main.c: 143:         MatrixLed[5] = 0b01100000;
  7035     0159  3060               	movlw	96
  7036     015A  00A5               	movwf	_MatrixLed+5
  7037                           
  7038                           ;main.c: 144:         MatrixLed[6] = 0b11000000;
  7039     015B  30C0               	movlw	192
  7040     015C  00A6               	movwf	_MatrixLed+6
  7041                           
  7042                           ;main.c: 145:         MatrixLed[7] = 0b01100000;
  7043     015D  3060               	movlw	96
  7044     015E  00A7               	movwf	_MatrixLed+7
  7045     015F                     i1l2352:
  7046                           
  7047                           ;main.c: 146:         destinoSub = destinoSub & 0b11111101;
  7048     015F  087C               	movf	_destinoSub,w
  7049     0160  39FD               	andlw	253
  7050     0161  00FC               	movwf	_destinoSub
  7051     0162                     i1l2354:
  7052                           
  7053                           ;main.c: 148:         mov = EmTrajeto;
  7054     0162  3002               	movlw	2
  7055     0163  00FB               	movwf	_mov
  7056                           
  7057                           ;main.c: 149:     }else{
  7058     0164  2975               	goto	i1l2364
  7059     0165                     i1l2356:
  7060                           
  7061                           ;main.c: 150:         MatrixLed[5] = 0b11000000;
  7062     0165  30C0               	movlw	192
  7063     0166  00A5               	movwf	_MatrixLed+5
  7064                           
  7065                           ;main.c: 151:         MatrixLed[6] = 0b01100000;
  7066     0167  3060               	movlw	96
  7067     0168  00A6               	movwf	_MatrixLed+6
  7068                           
  7069                           ;main.c: 152:         MatrixLed[7] = 0b11000000;
  7070     0169  30C0               	movlw	192
  7071     016A  00A7               	movwf	_MatrixLed+7
  7072     016B                     i1l2358:
  7073                           
  7074                           ;main.c: 153:         destinoDesc = destinoDesc & 0b11111101;
  7075     016B  0853               	movf	_destinoDesc,w
  7076     016C  39FD               	andlw	253
  7077     016D  00D3               	movwf	_destinoDesc
  7078     016E                     i1l2360:
  7079                           
  7080                           ;main.c: 156:         if(destinoDesc == 0){
  7081     016E  0853               	movf	_destinoDesc,w
  7082     016F  1D03               	btfss	3,2
  7083     0170  2972               	goto	u81_21
  7084     0171  2973               	goto	u81_20
  7085     0172                     u81_21:
  7086     0172  2975               	goto	i1l2364
  7087     0173                     u81_20:
  7088     0173                     i1l2362:
  7089                           
  7090                           ;main.c: 157:             mov = RetornaS0;
  7091     0173  3003               	movlw	3
  7092     0174  00FB               	movwf	_mov
  7093     0175                     i1l2364:
  7094                           
  7095                           ;main.c: 160:     MatrixLed[7] = MatrixLed[7] | destinoSub;
  7096     0175  0827               	movf	_MatrixLed+7,w
  7097     0176  047C               	iorwf	_destinoSub,w
  7098     0177  00A7               	movwf	_MatrixLed+7
  7099     0178                     i1l2366:
  7100                           
  7101                           ;main.c: 161:     MatrixLed[6] = MatrixLed[6] | destinoDesc;
  7102     0178  0826               	movf	_MatrixLed+6,w
  7103     0179  0453               	iorwf	_destinoDesc,w
  7104     017A  00A6               	movwf	_MatrixLed+6
  7105     017B                     i1l2368:
  7106                           
  7107                           ;main.c: 162:     matrixUpdate();
  7108     017B  3183  23EA  3181   	fcall	i1_matrixUpdate
  7109     017E                     i1l733:
  7110     017E  0008               	return
  7111     017F                     __end_of_chegadaS2:
  7112                           
  7113                           	psect	text44
  7114     04C6                     __ptext44:	
  7115 ;; *************** function _IOCBF0_ISR *****************
  7116 ;; Defined at:
  7117 ;;		line 136 in file "mcc_generated_files/pin_manager.c"
  7118 ;; Parameters:    Size  Location     Type
  7119 ;;		None
  7120 ;; Auto vars:     Size  Location     Type
  7121 ;;		None
  7122 ;; Return value:  Size  Location     Type
  7123 ;;                  1    wreg      void 
  7124 ;; Registers used:
  7125 ;;		wreg, fsr1l, fsr1h, status,2, status,0, pclath, cstack
  7126 ;; Tracked objects:
  7127 ;;		On entry : 0/0
  7128 ;;		On exit  : 0/0
  7129 ;;		Unchanged: 0/0
  7130 ;; Data sizes:     COMMON   BANK0   BANK1   BANK2   BANK3   BANK4
  7131 ;;      Params:         0       0       0       0       0       0
  7132 ;;      Locals:         0       0       0       0       0       0
  7133 ;;      Temps:          0       0       0       0       0       0
  7134 ;;      Totals:         0       0       0       0       0       0
  7135 ;;Total ram usage:        0 bytes
  7136 ;; Hardware stack levels used: 1
  7137 ;; Hardware stack levels required when called: 4
  7138 ;; This function calls:
  7139 ;;		NULL
  7140 ;;		_IOCBF0_DefaultInterruptHandler
  7141 ;;		i1_chegadaS1
  7142 ;; This function is called by:
  7143 ;;		_PIN_MANAGER_IOC
  7144 ;; This function uses a non-reentrant model
  7145 ;;
  7146                           
  7147     04C6                     _IOCBF0_ISR:	
  7148                           ;psect for function _IOCBF0_ISR
  7149                           
  7150     04C6                     i1l2514:	
  7151                           ;incstack = 0
  7152                           ; Regs used in _IOCBF0_ISR: [wreg+fsr1l+fsr1h+status,2+status,0+pclath+cstack]
  7153                           
  7154                           
  7155                           ;mcc_generated_files/pin_manager.c: 141:     if(IOCBF0_InterruptHandler)
  7156     04C6  0020               	movlb	0	; select bank0
  7157     04C7  0851               	movf	_IOCBF0_InterruptHandler,w
  7158     04C8  0452               	iorwf	_IOCBF0_InterruptHandler+1,w
  7159     04C9  1903               	btfsc	3,2
  7160     04CA  2CCC               	goto	u95_21
  7161     04CB  2CCD               	goto	u95_20
  7162     04CC                     u95_21:
  7163     04CC  2CD2               	goto	i1l2518
  7164     04CD                     u95_20:
  7165     04CD                     i1l2516:
  7166                           
  7167                           ;mcc_generated_files/pin_manager.c: 142:     {;mcc_generated_files/pin_manager.c: 143:  
      +                                 IOCBF0_InterruptHandler();
  7168     04CD  0852               	movf	_IOCBF0_InterruptHandler+1,w
  7169     04CE  008A               	movwf	10
  7170     04CF  0851               	movf	_IOCBF0_InterruptHandler,w
  7171     04D0  000A               	callw
  7172     04D1  3184               	pagesel	$
  7173     04D2                     i1l2518:
  7174                           
  7175                           ;mcc_generated_files/pin_manager.c: 145:     IOCBFbits.IOCBF0 = 0;
  7176     04D2  0027               	movlb	7	; select bank7
  7177     04D3  1016               	bcf	22,0	;volatile
  7178     04D4                     i1l138:
  7179     04D4  0008               	return
  7180     04D5                     __end_of_IOCBF0_ISR:
  7181                           
  7182                           	psect	text45
  7183     05BC                     __ptext45:	
  7184 ;; *************** function _IOCBF0_DefaultInterruptHandler *****************
  7185 ;; Defined at:
  7186 ;;		line 158 in file "mcc_generated_files/pin_manager.c"
  7187 ;; Parameters:    Size  Location     Type
  7188 ;;		None
  7189 ;; Auto vars:     Size  Location     Type
  7190 ;;		None
  7191 ;; Return value:  Size  Location     Type
  7192 ;;                  1    wreg      void 
  7193 ;; Registers used:
  7194 ;;		None
  7195 ;; Tracked objects:
  7196 ;;		On entry : 0/0
  7197 ;;		On exit  : 0/0
  7198 ;;		Unchanged: 0/0
  7199 ;; Data sizes:     COMMON   BANK0   BANK1   BANK2   BANK3   BANK4
  7200 ;;      Params:         0       0       0       0       0       0
  7201 ;;      Locals:         0       0       0       0       0       0
  7202 ;;      Temps:          0       0       0       0       0       0
  7203 ;;      Totals:         0       0       0       0       0       0
  7204 ;;Total ram usage:        0 bytes
  7205 ;; Hardware stack levels used: 1
  7206 ;; This function calls:
  7207 ;;		Nothing
  7208 ;; This function is called by:
  7209 ;;		_PIN_MANAGER_Initialize
  7210 ;;		_IOCBF0_ISR
  7211 ;; This function uses a non-reentrant model
  7212 ;;
  7213                           
  7214     05BC                     _IOCBF0_DefaultInterruptHandler:	
  7215                           ;psect for function _IOCBF0_DefaultInterruptHandler
  7216                           
  7217     05BC                     i1l144:	
  7218                           ;incstack = 0
  7219                           ; Regs used in _IOCBF0_DefaultInterruptHandler: []
  7220                           
  7221     05BC  0008               	return
  7222     05BD                     __end_of_IOCBF0_DefaultInterruptHandler:
  7223                           
  7224                           	psect	text46
  7225     0300                     __ptext46:	
  7226 ;; *************** function i1_chegadaS1 *****************
  7227 ;; Defined at:
  7228 ;;		line 97 in file "main.c"
  7229 ;; Parameters:    Size  Location     Type
  7230 ;;		None
  7231 ;; Auto vars:     Size  Location     Type
  7232 ;;		None
  7233 ;; Return value:  Size  Location     Type
  7234 ;;                  1    wreg      void 
  7235 ;; Registers used:
  7236 ;;		wreg, fsr1l, fsr1h, status,2, status,0, pclath, cstack
  7237 ;; Tracked objects:
  7238 ;;		On entry : 0/0
  7239 ;;		On exit  : 0/0
  7240 ;;		Unchanged: 0/0
  7241 ;; Data sizes:     COMMON   BANK0   BANK1   BANK2   BANK3   BANK4
  7242 ;;      Params:         0       0       0       0       0       0
  7243 ;;      Locals:         0       0       0       0       0       0
  7244 ;;      Temps:          0       0       0       0       0       0
  7245 ;;      Totals:         0       0       0       0       0       0
  7246 ;;Total ram usage:        0 bytes
  7247 ;; Hardware stack levels used: 1
  7248 ;; Hardware stack levels required when called: 3
  7249 ;; This function calls:
  7250 ;;		i1_matrixUpdate
  7251 ;; This function is called by:
  7252 ;;		_IOCBF0_ISR
  7253 ;; This function uses a non-reentrant model
  7254 ;;
  7255                           
  7256     0300                     i1_chegadaS1:	
  7257                           ;psect for function i1_chegadaS1
  7258                           
  7259     0300                     i1l2370:	
  7260                           ;incstack = 0
  7261                           ; Regs used in i1_chegadaS1: [wreg+fsr1l+fsr1h+status,2+status,0+pclath+cstack]
  7262                           
  7263                           
  7264                           ;main.c: 101:     MatrixLed[0] = 0b01111110;
  7265     0300  307E               	movlw	126
  7266     0301  0020               	movlb	0	; select bank0
  7267     0302  00A0               	movwf	_MatrixLed
  7268                           
  7269                           ;main.c: 102:     MatrixLed[1] = 0b10000001;
  7270     0303  3081               	movlw	129
  7271     0304  00A1               	movwf	_MatrixLed+1
  7272                           
  7273                           ;main.c: 103:     MatrixLed[2] = 0b10000001;
  7274     0305  3081               	movlw	129
  7275     0306  00A2               	movwf	_MatrixLed+2
  7276                           
  7277                           ;main.c: 104:     MatrixLed[3] = 0b01111110;
  7278     0307  307E               	movlw	126
  7279     0308  00A3               	movwf	_MatrixLed+3
  7280     0309                     i1l2372:
  7281                           
  7282                           ;main.c: 105:     MatrixLed[4] = 0;
  7283     0309  01A4               	clrf	_MatrixLed+4
  7284     030A                     i1l2374:
  7285                           
  7286                           ;main.c: 106:     if(subindo){
  7287     030A  0854               	movf	_subindo,w
  7288     030B  1903               	btfsc	3,2
  7289     030C  2B0E               	goto	u82_21
  7290     030D  2B0F               	goto	u82_20
  7291     030E                     u82_21:
  7292     030E  2B19               	goto	i1l2380
  7293     030F                     u82_20:
  7294     030F                     i1l2376:
  7295                           
  7296                           ;main.c: 107:         MatrixLed[5] = 0b01100000;
  7297     030F  3060               	movlw	96
  7298     0310  00A5               	movwf	_MatrixLed+5
  7299                           
  7300                           ;main.c: 108:         MatrixLed[6] = 0b11000000;
  7301     0311  30C0               	movlw	192
  7302     0312  00A6               	movwf	_MatrixLed+6
  7303                           
  7304                           ;main.c: 109:         MatrixLed[7] = 0b01100000;
  7305     0313  3060               	movlw	96
  7306     0314  00A7               	movwf	_MatrixLed+7
  7307     0315                     i1l2378:
  7308                           
  7309                           ;main.c: 110:         destinoSub = destinoSub & 0b11111110;
  7310     0315  087C               	movf	_destinoSub,w
  7311     0316  39FE               	andlw	254
  7312     0317  00FC               	movwf	_destinoSub
  7313                           
  7314                           ;main.c: 111:     }else{
  7315     0318  2B22               	goto	i1l2384
  7316     0319                     i1l2380:
  7317                           
  7318                           ;main.c: 112:         MatrixLed[5] = 0b11000000;
  7319     0319  30C0               	movlw	192
  7320     031A  00A5               	movwf	_MatrixLed+5
  7321                           
  7322                           ;main.c: 113:         MatrixLed[6] = 0b01100000;
  7323     031B  3060               	movlw	96
  7324     031C  00A6               	movwf	_MatrixLed+6
  7325                           
  7326                           ;main.c: 114:         MatrixLed[7] = 0b11000000;
  7327     031D  30C0               	movlw	192
  7328     031E  00A7               	movwf	_MatrixLed+7
  7329     031F                     i1l2382:
  7330                           
  7331                           ;main.c: 115:         destinoDesc = destinoDesc & 0b11111110;
  7332     031F  0853               	movf	_destinoDesc,w
  7333     0320  39FE               	andlw	254
  7334     0321  00D3               	movwf	_destinoDesc
  7335     0322                     i1l2384:
  7336                           
  7337                           ;main.c: 117:     matrixUpdate();
  7338     0322  3183  23EA  3183   	fcall	i1_matrixUpdate
  7339     0325                     i1l2386:
  7340                           
  7341                           ;main.c: 119:     MatrixLed[7] = MatrixLed[7] | destinoSub;
  7342     0325  0020               	movlb	0	; select bank0
  7343     0326  0827               	movf	_MatrixLed+7,w
  7344     0327  047C               	iorwf	_destinoSub,w
  7345     0328  00A7               	movwf	_MatrixLed+7
  7346     0329                     i1l2388:
  7347                           
  7348                           ;main.c: 120:     MatrixLed[6] = MatrixLed[6] | destinoDesc;
  7349     0329  0826               	movf	_MatrixLed+6,w
  7350     032A  0453               	iorwf	_destinoDesc,w
  7351     032B  00A6               	movwf	_MatrixLed+6
  7352     032C                     i1l722:
  7353     032C  0008               	return
  7354     032D                     __end_ofi1_chegadaS1:
  7355                           
  7356                           	psect	text47
  7357     0592                     __ptext47:	
  7358 ;; *************** function _CMP2_ISR *****************
  7359 ;; Defined at:
  7360 ;;		line 86 in file "mcc_generated_files/cmp2.c"
  7361 ;; Parameters:    Size  Location     Type
  7362 ;;		None
  7363 ;; Auto vars:     Size  Location     Type
  7364 ;;		None
  7365 ;; Return value:  Size  Location     Type
  7366 ;;                  1    wreg      void 
  7367 ;; Registers used:
  7368 ;;		wreg, fsr1l, fsr1h, status,2, status,0, pclath, cstack
  7369 ;; Tracked objects:
  7370 ;;		On entry : 0/0
  7371 ;;		On exit  : 0/0
  7372 ;;		Unchanged: 0/0
  7373 ;; Data sizes:     COMMON   BANK0   BANK1   BANK2   BANK3   BANK4
  7374 ;;      Params:         0       0       0       0       0       0
  7375 ;;      Locals:         0       0       0       0       0       0
  7376 ;;      Temps:          0       0       0       0       0       0
  7377 ;;      Totals:         0       0       0       0       0       0
  7378 ;;Total ram usage:        0 bytes
  7379 ;; Hardware stack levels used: 1
  7380 ;; Hardware stack levels required when called: 4
  7381 ;; This function calls:
  7382 ;;		_chegadaS4
  7383 ;; This function is called by:
  7384 ;;		_INTERRUPT_InterruptManager
  7385 ;; This function uses a non-reentrant model
  7386 ;;
  7387                           
  7388     0592                     _CMP2_ISR:	
  7389                           ;psect for function _CMP2_ISR
  7390                           
  7391     0592                     i1l2662:	
  7392                           ;incstack = 0
  7393                           ; Regs used in _CMP2_ISR: [wreg+fsr1l+fsr1h+status,2+status,0+pclath+cstack]
  7394                           
  7395                           
  7396                           ;mcc_generated_files/cmp2.c: 89:     PIR2bits.C2IF = 0;
  7397     0592  0020               	movlb	0	; select bank0
  7398     0593  1312               	bcf	18,6	;volatile
  7399     0594                     i1l2664:
  7400                           
  7401                           ;mcc_generated_files/cmp2.c: 90:     chegadaS4();
  7402     0594  3182  2221  3185   	fcall	_chegadaS4
  7403     0597                     i1l47:
  7404     0597  0008               	return
  7405     0598                     __end_of_CMP2_ISR:
  7406                           
  7407                           	psect	text48
  7408     0221                     __ptext48:	
  7409 ;; *************** function _chegadaS4 *****************
  7410 ;; Defined at:
  7411 ;;		line 205 in file "main.c"
  7412 ;; Parameters:    Size  Location     Type
  7413 ;;		None
  7414 ;; Auto vars:     Size  Location     Type
  7415 ;;		None
  7416 ;; Return value:  Size  Location     Type
  7417 ;;                  1    wreg      void 
  7418 ;; Registers used:
  7419 ;;		wreg, fsr1l, fsr1h, status,2, status,0, pclath, cstack
  7420 ;; Tracked objects:
  7421 ;;		On entry : 0/0
  7422 ;;		On exit  : 0/0
  7423 ;;		Unchanged: 0/0
  7424 ;; Data sizes:     COMMON   BANK0   BANK1   BANK2   BANK3   BANK4
  7425 ;;      Params:         0       0       0       0       0       0
  7426 ;;      Locals:         0       0       0       0       0       0
  7427 ;;      Temps:          0       0       0       0       0       0
  7428 ;;      Totals:         0       0       0       0       0       0
  7429 ;;Total ram usage:        0 bytes
  7430 ;; Hardware stack levels used: 1
  7431 ;; Hardware stack levels required when called: 3
  7432 ;; This function calls:
  7433 ;;		_PWM3_LoadDutyValue
  7434 ;;		_TMR4_StartTimer
  7435 ;;		_TMR4_WriteTimer
  7436 ;;		i1_matrixUpdate
  7437 ;; This function is called by:
  7438 ;;		_CMP2_ISR
  7439 ;; This function uses a non-reentrant model
  7440 ;;
  7441                           
  7442     0221                     _chegadaS4:	
  7443                           ;psect for function _chegadaS4
  7444                           
  7445     0221                     i1l2404:	
  7446                           ;incstack = 0
  7447                           ; Regs used in _chegadaS4: [wreg+fsr1l+fsr1h+status,2+status,0+pclath+cstack]
  7448                           
  7449                           
  7450                           ;main.c: 208:     if((((destinoSub & 0b00001000) == 8 )&& subindo)||(!subindo &&((destin
      +                          oDesc & 0b00001000) == 8 )) ){
  7451     0221  1DFC               	btfss	_destinoSub,3
  7452     0222  2A24               	goto	u83_21
  7453     0223  2A25               	goto	u83_20
  7454     0224                     u83_21:
  7455     0224  2A2B               	goto	i1l2408
  7456     0225                     u83_20:
  7457     0225                     i1l2406:
  7458     0225  0020               	movlb	0	; select bank0
  7459     0226  0854               	movf	_subindo,w
  7460     0227  1D03               	btfss	3,2
  7461     0228  2A2A               	goto	u84_21
  7462     0229  2A2B               	goto	u84_20
  7463     022A                     u84_21:
  7464     022A  2A35               	goto	i1l2412
  7465     022B                     u84_20:
  7466     022B                     i1l2408:
  7467     022B  0020               	movlb	0	; select bank0
  7468     022C  0854               	movf	_subindo,w
  7469     022D  1D03               	btfss	3,2
  7470     022E  2A30               	goto	u85_21
  7471     022F  2A31               	goto	u85_20
  7472     0230                     u85_21:
  7473     0230  2A42               	goto	i1l747
  7474     0231                     u85_20:
  7475     0231                     i1l2410:
  7476     0231  1DD3               	btfss	_destinoDesc,3
  7477     0232  2A34               	goto	u86_21
  7478     0233  2A35               	goto	u86_20
  7479     0234                     u86_21:
  7480     0234  2A42               	goto	i1l747
  7481     0235                     u86_20:
  7482     0235                     i1l2412:
  7483                           
  7484                           ;main.c: 209:         PWM3_LoadDutyValue(0);
  7485     0235  3000               	movlw	0
  7486     0236  00F0               	movwf	PWM3_LoadDutyValue@dutyValue
  7487     0237  00F1               	movwf	PWM3_LoadDutyValue@dutyValue+1
  7488     0238  3184  241C  3182   	fcall	_PWM3_LoadDutyValue
  7489                           
  7490                           ;main.c: 210:         TMR4_WriteTimer(0);
  7491     023B  3000               	movlw	0
  7492     023C  3185  259E  3182   	fcall	_TMR4_WriteTimer
  7493     023F                     i1l2414:
  7494                           
  7495                           ;main.c: 211:         TMR4_StartTimer();
  7496     023F  3185  25B2  3182   	fcall	_TMR4_StartTimer
  7497     0242                     i1l747:	
  7498                           ;main.c: 212:     }
  7499                           
  7500                           
  7501                           ;main.c: 215:     MatrixLed[0] = 0b10000001;
  7502     0242  3081               	movlw	129
  7503     0243  0020               	movlb	0	; select bank0
  7504     0244  00A0               	movwf	_MatrixLed
  7505                           
  7506                           ;main.c: 216:     MatrixLed[1] = 0b10010001;
  7507     0245  3091               	movlw	145
  7508     0246  00A1               	movwf	_MatrixLed+1
  7509                           
  7510                           ;main.c: 217:     MatrixLed[2] = 0b10010001;
  7511     0247  3091               	movlw	145
  7512     0248  00A2               	movwf	_MatrixLed+2
  7513                           
  7514                           ;main.c: 218:     MatrixLed[3] = 0b01101110;
  7515     0249  306E               	movlw	110
  7516     024A  00A3               	movwf	_MatrixLed+3
  7517     024B                     i1l2416:
  7518                           
  7519                           ;main.c: 219:     MatrixLed[4] = 0;
  7520     024B  01A4               	clrf	_MatrixLed+4
  7521     024C                     i1l2418:
  7522                           
  7523                           ;main.c: 220:     if(subindo){
  7524     024C  0854               	movf	_subindo,w
  7525     024D  1903               	btfsc	3,2
  7526     024E  2A50               	goto	u87_21
  7527     024F  2A51               	goto	u87_20
  7528     0250                     u87_21:
  7529     0250  2A5B               	goto	i1l2424
  7530     0251                     u87_20:
  7531     0251                     i1l2420:
  7532                           
  7533                           ;main.c: 221:         MatrixLed[5] = 0b01100000;
  7534     0251  3060               	movlw	96
  7535     0252  00A5               	movwf	_MatrixLed+5
  7536                           
  7537                           ;main.c: 222:         MatrixLed[6] = 0b11000000;
  7538     0253  30C0               	movlw	192
  7539     0254  00A6               	movwf	_MatrixLed+6
  7540                           
  7541                           ;main.c: 223:         MatrixLed[7] = 0b01100000;
  7542     0255  3060               	movlw	96
  7543     0256  00A7               	movwf	_MatrixLed+7
  7544     0257                     i1l2422:
  7545                           
  7546                           ;main.c: 224:         destinoSub = destinoSub & 0b11110111;
  7547     0257  087C               	movf	_destinoSub,w
  7548     0258  39F7               	andlw	247
  7549     0259  00FC               	movwf	_destinoSub
  7550                           
  7551                           ;main.c: 225:     }else{
  7552     025A  2A64               	goto	i1l2428
  7553     025B                     i1l2424:
  7554                           
  7555                           ;main.c: 226:         MatrixLed[5] = 0b11000000;
  7556     025B  30C0               	movlw	192
  7557     025C  00A5               	movwf	_MatrixLed+5
  7558                           
  7559                           ;main.c: 227:         MatrixLed[6] = 0b01100000;
  7560     025D  3060               	movlw	96
  7561     025E  00A6               	movwf	_MatrixLed+6
  7562                           
  7563                           ;main.c: 228:         MatrixLed[7] = 0b11000000;
  7564     025F  30C0               	movlw	192
  7565     0260  00A7               	movwf	_MatrixLed+7
  7566     0261                     i1l2426:
  7567                           
  7568                           ;main.c: 229:         destinoDesc = destinoDesc & 0b11110111;
  7569     0261  0853               	movf	_destinoDesc,w
  7570     0262  39F7               	andlw	247
  7571     0263  00D3               	movwf	_destinoDesc
  7572     0264                     i1l2428:
  7573                           
  7574                           ;main.c: 231:     MatrixLed[7] = MatrixLed[7] | destinoSub;
  7575     0264  0827               	movf	_MatrixLed+7,w
  7576     0265  047C               	iorwf	_destinoSub,w
  7577     0266  00A7               	movwf	_MatrixLed+7
  7578     0267                     i1l2430:
  7579                           
  7580                           ;main.c: 232:     MatrixLed[6] = MatrixLed[6] | destinoDesc;
  7581     0267  0826               	movf	_MatrixLed+6,w
  7582     0268  0453               	iorwf	_destinoDesc,w
  7583     0269  00A6               	movwf	_MatrixLed+6
  7584     026A                     i1l2432:
  7585                           
  7586                           ;main.c: 233:     matrixUpdate();
  7587     026A  3183  23EA  3182   	fcall	i1_matrixUpdate
  7588     026D                     i1l2434:
  7589                           
  7590                           ;main.c: 236:     mov = RetornaS0;
  7591     026D  3003               	movlw	3
  7592     026E  00FB               	movwf	_mov
  7593     026F                     i1l754:
  7594     026F  0008               	return
  7595     0270                     __end_of_chegadaS4:
  7596                           
  7597                           	psect	text49
  7598     0598                     __ptext49:	
  7599 ;; *************** function _CMP1_ISR *****************
  7600 ;; Defined at:
  7601 ;;		line 86 in file "mcc_generated_files/cmp1.c"
  7602 ;; Parameters:    Size  Location     Type
  7603 ;;		None
  7604 ;; Auto vars:     Size  Location     Type
  7605 ;;		None
  7606 ;; Return value:  Size  Location     Type
  7607 ;;                  1    wreg      void 
  7608 ;; Registers used:
  7609 ;;		wreg, fsr1l, fsr1h, status,2, status,0, pclath, cstack
  7610 ;; Tracked objects:
  7611 ;;		On entry : 0/0
  7612 ;;		On exit  : 0/0
  7613 ;;		Unchanged: 0/0
  7614 ;; Data sizes:     COMMON   BANK0   BANK1   BANK2   BANK3   BANK4
  7615 ;;      Params:         0       0       0       0       0       0
  7616 ;;      Locals:         0       0       0       0       0       0
  7617 ;;      Temps:          0       0       0       0       0       0
  7618 ;;      Totals:         0       0       0       0       0       0
  7619 ;;Total ram usage:        0 bytes
  7620 ;; Hardware stack levels used: 1
  7621 ;; Hardware stack levels required when called: 4
  7622 ;; This function calls:
  7623 ;;		_chegadaS3
  7624 ;; This function is called by:
  7625 ;;		_INTERRUPT_InterruptManager
  7626 ;; This function uses a non-reentrant model
  7627 ;;
  7628                           
  7629     0598                     _CMP1_ISR:	
  7630                           ;psect for function _CMP1_ISR
  7631                           
  7632     0598                     i1l2666:	
  7633                           ;incstack = 0
  7634                           ; Regs used in _CMP1_ISR: [wreg+fsr1l+fsr1h+status,2+status,0+pclath+cstack]
  7635                           
  7636                           
  7637                           ;mcc_generated_files/cmp1.c: 89:     PIR2bits.C1IF = 0;
  7638     0598  0020               	movlb	0	; select bank0
  7639     0599  1292               	bcf	18,5	;volatile
  7640     059A                     i1l2668:
  7641                           
  7642                           ;mcc_generated_files/cmp1.c: 90:     chegadaS3();
  7643     059A  3180  20D0  3185   	fcall	_chegadaS3
  7644     059D                     i1l80:
  7645     059D  0008               	return
  7646     059E                     __end_of_CMP1_ISR:
  7647                           
  7648                           	psect	text50
  7649     00D0                     __ptext50:	
  7650 ;; *************** function _chegadaS3 *****************
  7651 ;; Defined at:
  7652 ;;		line 167 in file "main.c"
  7653 ;; Parameters:    Size  Location     Type
  7654 ;;		None
  7655 ;; Auto vars:     Size  Location     Type
  7656 ;;		None
  7657 ;; Return value:  Size  Location     Type
  7658 ;;                  1    wreg      void 
  7659 ;; Registers used:
  7660 ;;		wreg, fsr1l, fsr1h, status,2, status,0, pclath, cstack
  7661 ;; Tracked objects:
  7662 ;;		On entry : 0/0
  7663 ;;		On exit  : 0/0
  7664 ;;		Unchanged: 0/0
  7665 ;; Data sizes:     COMMON   BANK0   BANK1   BANK2   BANK3   BANK4
  7666 ;;      Params:         0       0       0       0       0       0
  7667 ;;      Locals:         0       0       0       0       0       0
  7668 ;;      Temps:          0       0       0       0       0       0
  7669 ;;      Totals:         0       0       0       0       0       0
  7670 ;;Total ram usage:        0 bytes
  7671 ;; Hardware stack levels used: 1
  7672 ;; Hardware stack levels required when called: 3
  7673 ;; This function calls:
  7674 ;;		_PWM3_LoadDutyValue
  7675 ;;		_TMR4_StartTimer
  7676 ;;		_TMR4_WriteTimer
  7677 ;;		i1_matrixUpdate
  7678 ;; This function is called by:
  7679 ;;		_CMP1_ISR
  7680 ;; This function uses a non-reentrant model
  7681 ;;
  7682                           
  7683     00D0                     _chegadaS3:	
  7684                           ;psect for function _chegadaS3
  7685                           
  7686     00D0                     i1l2444:	
  7687                           ;incstack = 0
  7688                           ; Regs used in _chegadaS3: [wreg+fsr1l+fsr1h+status,2+status,0+pclath+cstack]
  7689                           
  7690                           
  7691                           ;main.c: 170:     if((((destinoSub & 0b00000100) == 4 )&& subindo)||(!subindo &&((destin
      +                          oDesc & 0b00000100) == 4 )) ){
  7692     00D0  1D7C               	btfss	_destinoSub,2
  7693     00D1  28D3               	goto	u88_21
  7694     00D2  28D4               	goto	u88_20
  7695     00D3                     u88_21:
  7696     00D3  28DA               	goto	i1l2448
  7697     00D4                     u88_20:
  7698     00D4                     i1l2446:
  7699     00D4  0020               	movlb	0	; select bank0
  7700     00D5  0854               	movf	_subindo,w
  7701     00D6  1D03               	btfss	3,2
  7702     00D7  28D9               	goto	u89_21
  7703     00D8  28DA               	goto	u89_20
  7704     00D9                     u89_21:
  7705     00D9  28E4               	goto	i1l2452
  7706     00DA                     u89_20:
  7707     00DA                     i1l2448:
  7708     00DA  0020               	movlb	0	; select bank0
  7709     00DB  0854               	movf	_subindo,w
  7710     00DC  1D03               	btfss	3,2
  7711     00DD  28DF               	goto	u90_21
  7712     00DE  28E0               	goto	u90_20
  7713     00DF                     u90_21:
  7714     00DF  28F1               	goto	i1l736
  7715     00E0                     u90_20:
  7716     00E0                     i1l2450:
  7717     00E0  1D53               	btfss	_destinoDesc,2
  7718     00E1  28E3               	goto	u91_21
  7719     00E2  28E4               	goto	u91_20
  7720     00E3                     u91_21:
  7721     00E3  28F1               	goto	i1l736
  7722     00E4                     u91_20:
  7723     00E4                     i1l2452:
  7724                           
  7725                           ;main.c: 171:         PWM3_LoadDutyValue(0);
  7726     00E4  3000               	movlw	0
  7727     00E5  00F0               	movwf	PWM3_LoadDutyValue@dutyValue
  7728     00E6  00F1               	movwf	PWM3_LoadDutyValue@dutyValue+1
  7729     00E7  3184  241C  3180   	fcall	_PWM3_LoadDutyValue
  7730                           
  7731                           ;main.c: 172:         TMR4_WriteTimer(0);
  7732     00EA  3000               	movlw	0
  7733     00EB  3185  259E  3180   	fcall	_TMR4_WriteTimer
  7734     00EE                     i1l2454:
  7735                           
  7736                           ;main.c: 173:         TMR4_StartTimer();
  7737     00EE  3185  25B2  3180   	fcall	_TMR4_StartTimer
  7738     00F1                     i1l736:	
  7739                           ;main.c: 174:     }
  7740                           
  7741                           
  7742                           ;main.c: 177:     MatrixLed[0] = 0b01000011;
  7743     00F1  3043               	movlw	67
  7744     00F2  0020               	movlb	0	; select bank0
  7745     00F3  00A0               	movwf	_MatrixLed
  7746                           
  7747                           ;main.c: 178:     MatrixLed[1] = 0b10000101;
  7748     00F4  3085               	movlw	133
  7749     00F5  00A1               	movwf	_MatrixLed+1
  7750                           
  7751                           ;main.c: 179:     MatrixLed[2] = 0b10001001;
  7752     00F6  3089               	movlw	137
  7753     00F7  00A2               	movwf	_MatrixLed+2
  7754                           
  7755                           ;main.c: 180:     MatrixLed[3] = 0b01110001;
  7756     00F8  3071               	movlw	113
  7757     00F9  00A3               	movwf	_MatrixLed+3
  7758     00FA                     i1l2456:
  7759                           
  7760                           ;main.c: 181:     MatrixLed[4] = 0;
  7761     00FA  01A4               	clrf	_MatrixLed+4
  7762     00FB                     i1l2458:
  7763                           
  7764                           ;main.c: 182:     if(subindo){
  7765     00FB  0854               	movf	_subindo,w
  7766     00FC  1903               	btfsc	3,2
  7767     00FD  28FF               	goto	u92_21
  7768     00FE  2900               	goto	u92_20
  7769     00FF                     u92_21:
  7770     00FF  290A               	goto	i1l2464
  7771     0100                     u92_20:
  7772     0100                     i1l2460:
  7773                           
  7774                           ;main.c: 183:         MatrixLed[5] = 0b01100000;
  7775     0100  3060               	movlw	96
  7776     0101  00A5               	movwf	_MatrixLed+5
  7777                           
  7778                           ;main.c: 184:         MatrixLed[6] = 0b11000000;
  7779     0102  30C0               	movlw	192
  7780     0103  00A6               	movwf	_MatrixLed+6
  7781                           
  7782                           ;main.c: 185:         MatrixLed[7] = 0b01100000;
  7783     0104  3060               	movlw	96
  7784     0105  00A7               	movwf	_MatrixLed+7
  7785     0106                     i1l2462:
  7786                           
  7787                           ;main.c: 186:         destinoSub = destinoSub & 0b11111011;
  7788     0106  087C               	movf	_destinoSub,w
  7789     0107  39FB               	andlw	251
  7790     0108  00FC               	movwf	_destinoSub
  7791                           
  7792                           ;main.c: 187:     }else{
  7793     0109  2913               	goto	i1l2468
  7794     010A                     i1l2464:
  7795                           
  7796                           ;main.c: 188:         MatrixLed[5] = 0b11000000;
  7797     010A  30C0               	movlw	192
  7798     010B  00A5               	movwf	_MatrixLed+5
  7799                           
  7800                           ;main.c: 189:         MatrixLed[6] = 0b01100000;
  7801     010C  3060               	movlw	96
  7802     010D  00A6               	movwf	_MatrixLed+6
  7803                           
  7804                           ;main.c: 190:         MatrixLed[7] = 0b11000000;
  7805     010E  30C0               	movlw	192
  7806     010F  00A7               	movwf	_MatrixLed+7
  7807     0110                     i1l2466:
  7808                           
  7809                           ;main.c: 191:         destinoDesc = destinoDesc & 0b11111011;
  7810     0110  0853               	movf	_destinoDesc,w
  7811     0111  39FB               	andlw	251
  7812     0112  00D3               	movwf	_destinoDesc
  7813     0113                     i1l2468:
  7814                           
  7815                           ;main.c: 193:     MatrixLed[7] = MatrixLed[7] | destinoSub;
  7816     0113  0827               	movf	_MatrixLed+7,w
  7817     0114  047C               	iorwf	_destinoSub,w
  7818     0115  00A7               	movwf	_MatrixLed+7
  7819     0116                     i1l2470:
  7820                           
  7821                           ;main.c: 194:     MatrixLed[6] = MatrixLed[6] | destinoDesc;
  7822     0116  0826               	movf	_MatrixLed+6,w
  7823     0117  0453               	iorwf	_destinoDesc,w
  7824     0118  00A6               	movwf	_MatrixLed+6
  7825     0119                     i1l2472:
  7826                           
  7827                           ;main.c: 195:     matrixUpdate();
  7828     0119  3183  23EA  3180   	fcall	i1_matrixUpdate
  7829     011C                     i1l2474:
  7830                           
  7831                           ;main.c: 198:     if(destinoDesc ==0 && destinoSub == 0){
  7832     011C  0020               	movlb	0	; select bank0
  7833     011D  0853               	movf	_destinoDesc,w
  7834     011E  1D03               	btfss	3,2
  7835     011F  2921               	goto	u93_21
  7836     0120  2922               	goto	u93_20
  7837     0121                     u93_21:
  7838     0121  2929               	goto	i1l744
  7839     0122                     u93_20:
  7840     0122                     i1l2476:
  7841     0122  087C               	movf	_destinoSub,w
  7842     0123  1D03               	btfss	3,2
  7843     0124  2926               	goto	u94_21
  7844     0125  2927               	goto	u94_20
  7845     0126                     u94_21:
  7846     0126  2929               	goto	i1l744
  7847     0127                     u94_20:
  7848     0127                     i1l2478:
  7849                           
  7850                           ;main.c: 199:         mov = RetornaS0;
  7851     0127  3003               	movlw	3
  7852     0128  00FB               	movwf	_mov
  7853     0129                     i1l744:
  7854     0129  0008               	return
  7855     012A                     __end_of_chegadaS3:
  7856                           
  7857                           	psect	text51
  7858     03EA                     __ptext51:	
  7859 ;; *************** function i1_matrixUpdate *****************
  7860 ;; Defined at:
  7861 ;;		line 20 in file "main.c"
  7862 ;; Parameters:    Size  Location     Type
  7863 ;;		None
  7864 ;; Auto vars:     Size  Location     Type
  7865 ;;  data            2    8[COMMON] unsigned char [2]
  7866 ;;  i               1   10[COMMON] unsigned char 
  7867 ;;  i               1    0        unsigned char 
  7868 ;;  index           1    0        unsigned char 
  7869 ;; Return value:  Size  Location     Type
  7870 ;;                  1    wreg      void 
  7871 ;; Registers used:
  7872 ;;		wreg, fsr1l, fsr1h, status,2, status,0, pclath, cstack
  7873 ;; Tracked objects:
  7874 ;;		On entry : 0/0
  7875 ;;		On exit  : 0/0
  7876 ;;		Unchanged: 0/0
  7877 ;; Data sizes:     COMMON   BANK0   BANK1   BANK2   BANK3   BANK4
  7878 ;;      Params:         0       0       0       0       0       0
  7879 ;;      Locals:         3       0       0       0       0       0
  7880 ;;      Temps:          0       0       0       0       0       0
  7881 ;;      Totals:         3       0       0       0       0       0
  7882 ;;Total ram usage:        3 bytes
  7883 ;; Hardware stack levels used: 1
  7884 ;; Hardware stack levels required when called: 2
  7885 ;; This function calls:
  7886 ;;		i1_txSpi
  7887 ;; This function is called by:
  7888 ;;		_chegadaS2
  7889 ;;		_chegadaS3
  7890 ;;		_chegadaS4
  7891 ;;		i1_chegadaS1
  7892 ;; This function uses a non-reentrant model
  7893 ;;
  7894                           
  7895     03EA                     i1_matrixUpdate:	
  7896                           ;psect for function i1_matrixUpdate
  7897                           
  7898     03EA                     i1l2228:	
  7899                           ;incstack = 0
  7900                           ; Regs used in i1_matrixUpdate: [wreg+fsr1l+fsr1h+status,2+status,0+pclath+cstack]
  7901                           
  7902                           
  7903                           ;main.c: 23:         for(uint8_t i=8;i>0;i--){
  7904     03EA  3008               	movlw	8
  7905     03EB  00FA               	movwf	i1matrixUpdate@i
  7906     03EC                     i1l2234:
  7907                           
  7908                           ;main.c: 24:             data[0] = i;
  7909     03EC  087A               	movf	i1matrixUpdate@i,w
  7910     03ED  00F8               	movwf	i1matrixUpdate@data
  7911     03EE                     i1l2236:
  7912                           
  7913                           ;main.c: 25:             data[1] = MatrixLed[i-1];
  7914     03EE  087A               	movf	i1matrixUpdate@i,w
  7915     03EF  3E1F               	addlw	(low ((_MatrixLed| 0+255)))& (0+255)
  7916     03F0  0086               	movwf	6
  7917     03F1  0187               	clrf	7
  7918     03F2  0801               	movf	1,w
  7919     03F3  00F9               	movwf	i1matrixUpdate@data+1
  7920     03F4                     i1l2238:
  7921                           
  7922                           ;main.c: 26:             txSpi(data, 2);
  7923     03F4  3002               	movlw	2
  7924     03F5  00F5               	movwf	i1txSpi@dataSize
  7925     03F6  3000               	movlw	0
  7926     03F7  00F6               	movwf	i1txSpi@dataSize+1
  7927     03F8  3078               	movlw	(low (i1matrixUpdate@data| 0))& (0+255)
  7928     03F9  3184  24D5  3183   	fcall	i1_txSpi
  7929     03FC                     i1l2240:
  7930                           
  7931                           ;main.c: 27:         }
  7932     03FC  3001               	movlw	1
  7933     03FD  02FA               	subwf	i1matrixUpdate@i,f
  7934     03FE                     i1l2242:
  7935     03FE  087A               	movf	i1matrixUpdate@i,w
  7936     03FF  1D03               	btfss	3,2
  7937     0400  2C02               	goto	u72_21
  7938     0401  2C03               	goto	u72_20
  7939     0402                     u72_21:
  7940     0402  2BEC               	goto	i1l2234
  7941     0403                     u72_20:
  7942     0403                     i1l689:
  7943     0403  0008               	return
  7944     0404                     __end_ofi1_matrixUpdate:
  7945                           
  7946                           	psect	text52
  7947     04D5                     __ptext52:	
  7948 ;; *************** function i1_txSpi *****************
  7949 ;; Defined at:
  7950 ;;		line 12 in file "main.c"
  7951 ;; Parameters:    Size  Location     Type
  7952 ;;  data            1    wreg     PTR unsigned char 
  7953 ;;		 -> i1matrixUpdate@data(2), initMatrix@data(4), matrixUpdate@data(2), 
  7954 ;;  dataSize        2    5[COMMON] unsigned int 
  7955 ;; Auto vars:     Size  Location     Type
  7956 ;;  data            1    7[COMMON] PTR unsigned char 
  7957 ;;		 -> i1matrixUpdate@data(2), initMatrix@data(4), matrixUpdate@data(2), 
  7958 ;; Return value:  Size  Location     Type
  7959 ;;                  1    wreg      void 
  7960 ;; Registers used:
  7961 ;;		wreg, fsr1l, fsr1h, status,2, status,0, pclath, cstack
  7962 ;; Tracked objects:
  7963 ;;		On entry : 0/0
  7964 ;;		On exit  : 0/0
  7965 ;;		Unchanged: 0/0
  7966 ;; Data sizes:     COMMON   BANK0   BANK1   BANK2   BANK3   BANK4
  7967 ;;      Params:         2       0       0       0       0       0
  7968 ;;      Locals:         1       0       0       0       0       0
  7969 ;;      Temps:          0       0       0       0       0       0
  7970 ;;      Totals:         3       0       0       0       0       0
  7971 ;;Total ram usage:        3 bytes
  7972 ;; Hardware stack levels used: 1
  7973 ;; Hardware stack levels required when called: 1
  7974 ;; This function calls:
  7975 ;;		i1_SPI1_ExchangeBlock
  7976 ;; This function is called by:
  7977 ;;		i1_matrixUpdate
  7978 ;; This function uses a non-reentrant model
  7979 ;;
  7980                           
  7981     04D5                     i1_txSpi:	
  7982                           ;psect for function i1_txSpi
  7983                           
  7984                           
  7985                           ;incstack = 0
  7986                           ; Regs used in i1_txSpi: [wreg+fsr1l+fsr1h+status,2+status,0+pclath+cstack]
  7987                           ;i1txSpi@data stored from wreg
  7988     04D5  00F7               	movwf	i1txSpi@data
  7989     04D6                     i1l676:	
  7990                           ;main.c: 13:     do { LATBbits.LATB1 = 0; } while(0);
  7991                           
  7992     04D6  0022               	movlb	2	; select bank2
  7993     04D7  108D               	bcf	13,1	;volatile
  7994     04D8                     i1l2204:
  7995                           
  7996                           ;main.c: 14:     SPI1_ExchangeBlock(data,dataSize);
  7997     04D8  0876               	movf	i1txSpi@dataSize+1,w
  7998     04D9  00F1               	movwf	i1SPI1_ExchangeBlock@blockSize+1
  7999     04DA  0875               	movf	i1txSpi@dataSize,w
  8000     04DB  00F0               	movwf	i1SPI1_ExchangeBlock@blockSize
  8001     04DC  0877               	movf	i1txSpi@data,w
  8002     04DD  3183  2382  3184   	fcall	i1_SPI1_ExchangeBlock
  8003     04E0                     i1l2206:
  8004     04E0  0022               	movlb	2	; select bank2
  8005     04E1  148D               	bsf	13,1	;volatile
  8006     04E2                     i1l2208:
  8007                           
  8008                           ;main.c: 17:     _delay((unsigned long)((1)*(4000000/4000000.0)));
  8009     04E2  0000               	nop
  8010     04E3                     i1l680:
  8011     04E3  0008               	return
  8012     04E4                     __end_ofi1_txSpi:
  8013                           
  8014                           	psect	text53
  8015     0382                     __ptext53:	
  8016 ;; *************** function i1_SPI1_ExchangeBlock *****************
  8017 ;; Defined at:
  8018 ;;		line 100 in file "mcc_generated_files/spi1.c"
  8019 ;; Parameters:    Size  Location     Type
  8020 ;;  block           1    wreg     PTR void 
  8021 ;;		 -> i1matrixUpdate@data(2), initMatrix@data(4), matrixUpdate@data(2), 
  8022 ;;  blockSize       2    0[COMMON] unsigned int 
  8023 ;; Auto vars:     Size  Location     Type
  8024 ;;  block           1    3[COMMON] PTR void 
  8025 ;;		 -> i1matrixUpdate@data(2), initMatrix@data(4), matrixUpdate@data(2), 
  8026 ;;  data            1    4[COMMON] PTR unsigned char 
  8027 ;;		 -> i1matrixUpdate@data(2), initMatrix@data(4), matrixUpdate@data(2), 
  8028 ;; Return value:  Size  Location     Type
  8029 ;;                  1    wreg      void 
  8030 ;; Registers used:
  8031 ;;		wreg, fsr1l, fsr1h, status,2, status,0
  8032 ;; Tracked objects:
  8033 ;;		On entry : 0/0
  8034 ;;		On exit  : 0/0
  8035 ;;		Unchanged: 0/0
  8036 ;; Data sizes:     COMMON   BANK0   BANK1   BANK2   BANK3   BANK4
  8037 ;;      Params:         2       0       0       0       0       0
  8038 ;;      Locals:         2       0       0       0       0       0
  8039 ;;      Temps:          1       0       0       0       0       0
  8040 ;;      Totals:         5       0       0       0       0       0
  8041 ;;Total ram usage:        5 bytes
  8042 ;; Hardware stack levels used: 1
  8043 ;; This function calls:
  8044 ;;		Nothing
  8045 ;; This function is called by:
  8046 ;;		i1_txSpi
  8047 ;; This function uses a non-reentrant model
  8048 ;;
  8049                           
  8050     0382                     i1_SPI1_ExchangeBlock:	
  8051                           ;psect for function i1_SPI1_ExchangeBlock
  8052                           
  8053                           
  8054                           ;incstack = 0
  8055                           ; Regs used in i1_SPI1_ExchangeBlock: [wreg+fsr1l+fsr1h+status,2+status,0]
  8056                           ;i1SPI1_ExchangeBlock@block stored from wreg
  8057     0382  00F3               	movwf	i1SPI1_ExchangeBlock@block
  8058     0383                     i1l2194:
  8059                           
  8060                           ;mcc_generated_files/spi1.c: 100: void SPI1_ExchangeBlock(void *block, size_t blockSize)
      +                          ;mcc_generated_files/spi1.c: 101: {;mcc_generated_files/spi1.c: 102:     uint8_t *data =
      +                           block;
  8061     0383  0873               	movf	i1SPI1_ExchangeBlock@block,w
  8062     0384  00F4               	movwf	i1SPI1_ExchangeBlock@data
  8063                           
  8064                           ;mcc_generated_files/spi1.c: 103:     while(blockSize--)
  8065     0385  2B9C               	goto	i1l2202
  8066     0386                     i1l2196:
  8067                           
  8068                           ;mcc_generated_files/spi1.c: 104:     {;mcc_generated_files/spi1.c: 105:         SSP1BUF
      +                           = *data;
  8069     0386  0874               	movf	i1SPI1_ExchangeBlock@data,w
  8070     0387  0086               	movwf	6
  8071     0388  0187               	clrf	7
  8072     0389  0801               	movf	1,w
  8073     038A  0024               	movlb	4	; select bank4
  8074     038B  0091               	movwf	17	;volatile
  8075     038C                     i1l376:	
  8076                           ;mcc_generated_files/spi1.c: 106:         while(!PIR1bits.SSP1IF);
  8077                           
  8078     038C  0020               	movlb	0	; select bank0
  8079     038D  1D91               	btfss	17,3	;volatile
  8080     038E  2B90               	goto	u67_21
  8081     038F  2B91               	goto	u67_20
  8082     0390                     u67_21:
  8083     0390  2B8C               	goto	i1l376
  8084     0391                     u67_20:
  8085     0391                     i1l378:
  8086                           
  8087                           ;mcc_generated_files/spi1.c: 107:         PIR1bits.SSP1IF = 0;
  8088     0391  1191               	bcf	17,3	;volatile
  8089     0392                     i1l2198:
  8090                           
  8091                           ;mcc_generated_files/spi1.c: 108:         *data++ = SSP1BUF;
  8092     0392  0874               	movf	i1SPI1_ExchangeBlock@data,w
  8093     0393  0086               	movwf	6
  8094     0394  0187               	clrf	7
  8095     0395  0024               	movlb	4	; select bank4
  8096     0396  0811               	movf	17,w	;volatile
  8097     0397  0081               	movwf	1
  8098     0398                     i1l2200:
  8099     0398  3001               	movlw	1
  8100     0399  00F2               	movwf	??i1_SPI1_ExchangeBlock
  8101     039A  0872               	movf	??i1_SPI1_ExchangeBlock,w
  8102     039B  07F4               	addwf	i1SPI1_ExchangeBlock@data,f
  8103     039C                     i1l2202:
  8104                           
  8105                           ;mcc_generated_files/spi1.c: 103:     while(blockSize--)
  8106     039C  3001               	movlw	1
  8107     039D  02F0               	subwf	i1SPI1_ExchangeBlock@blockSize,f
  8108     039E  3000               	movlw	0
  8109     039F  3BF1               	subwfb	i1SPI1_ExchangeBlock@blockSize+1,f
  8110     03A0  0A70               	incf	i1SPI1_ExchangeBlock@blockSize,w
  8111     03A1  1D03               	skipz
  8112     03A2  2BA7               	goto	u68_21
  8113     03A3  0A71               	incf	i1SPI1_ExchangeBlock@blockSize+1,w
  8114     03A4  1D03               	btfss	3,2
  8115     03A5  2BA7               	goto	u68_21
  8116     03A6  2BA8               	goto	u68_20
  8117     03A7                     u68_21:
  8118     03A7  2B86               	goto	i1l2196
  8119     03A8                     u68_20:
  8120     03A8                     i1l380:
  8121     03A8  0008               	return
  8122     03A9                     __end_ofi1_SPI1_ExchangeBlock:
  8123                           
  8124                           	psect	text54
  8125     059E                     __ptext54:	
  8126 ;; *************** function _TMR4_WriteTimer *****************
  8127 ;; Defined at:
  8128 ;;		line 108 in file "mcc_generated_files/tmr4.c"
  8129 ;; Parameters:    Size  Location     Type
  8130 ;;  timerVal        1    wreg     unsigned char 
  8131 ;; Auto vars:     Size  Location     Type
  8132 ;;  timerVal        1    0[COMMON] unsigned char 
  8133 ;; Return value:  Size  Location     Type
  8134 ;;                  1    wreg      void 
  8135 ;; Registers used:
  8136 ;;		wreg
  8137 ;; Tracked objects:
  8138 ;;		On entry : 0/0
  8139 ;;		On exit  : 0/0
  8140 ;;		Unchanged: 0/0
  8141 ;; Data sizes:     COMMON   BANK0   BANK1   BANK2   BANK3   BANK4
  8142 ;;      Params:         0       0       0       0       0       0
  8143 ;;      Locals:         1       0       0       0       0       0
  8144 ;;      Temps:          0       0       0       0       0       0
  8145 ;;      Totals:         1       0       0       0       0       0
  8146 ;;Total ram usage:        1 bytes
  8147 ;; Hardware stack levels used: 1
  8148 ;; This function calls:
  8149 ;;		Nothing
  8150 ;; This function is called by:
  8151 ;;		_chegadaS2
  8152 ;;		_chegadaS3
  8153 ;;		_chegadaS4
  8154 ;; This function uses a non-reentrant model
  8155 ;;
  8156                           
  8157     059E                     _TMR4_WriteTimer:	
  8158                           ;psect for function _TMR4_WriteTimer
  8159                           
  8160                           
  8161                           ;incstack = 0
  8162                           ; Regs used in _TMR4_WriteTimer: [wreg]
  8163                           ;TMR4_WriteTimer@timerVal stored from wreg
  8164     059E  00F0               	movwf	TMR4_WriteTimer@timerVal
  8165     059F                     i1l2226:
  8166                           
  8167                           ;mcc_generated_files/tmr4.c: 108: void TMR4_WriteTimer(uint8_t timerVal);mcc_generated_f
      +                          iles/tmr4.c: 109: {;mcc_generated_files/tmr4.c: 111:     TMR4 = timerVal;
  8168     059F  0870               	movf	TMR4_WriteTimer@timerVal,w
  8169     05A0  0028               	movlb	8	; select bank8
  8170     05A1  0095               	movwf	21	;volatile
  8171     05A2                     i1l614:
  8172     05A2  0008               	return
  8173     05A3                     __end_of_TMR4_WriteTimer:
  8174                           
  8175                           	psect	text55
  8176     05B2                     __ptext55:	
  8177 ;; *************** function _TMR4_StartTimer *****************
  8178 ;; Defined at:
  8179 ;;		line 87 in file "mcc_generated_files/tmr4.c"
  8180 ;; Parameters:    Size  Location     Type
  8181 ;;		None
  8182 ;; Auto vars:     Size  Location     Type
  8183 ;;		None
  8184 ;; Return value:  Size  Location     Type
  8185 ;;                  1    wreg      void 
  8186 ;; Registers used:
  8187 ;;		None
  8188 ;; Tracked objects:
  8189 ;;		On entry : 0/0
  8190 ;;		On exit  : 0/0
  8191 ;;		Unchanged: 0/0
  8192 ;; Data sizes:     COMMON   BANK0   BANK1   BANK2   BANK3   BANK4
  8193 ;;      Params:         0       0       0       0       0       0
  8194 ;;      Locals:         0       0       0       0       0       0
  8195 ;;      Temps:          0       0       0       0       0       0
  8196 ;;      Totals:         0       0       0       0       0       0
  8197 ;;Total ram usage:        0 bytes
  8198 ;; Hardware stack levels used: 1
  8199 ;; This function calls:
  8200 ;;		Nothing
  8201 ;; This function is called by:
  8202 ;;		_chegadaS2
  8203 ;;		_chegadaS3
  8204 ;;		_chegadaS4
  8205 ;; This function uses a non-reentrant model
  8206 ;;
  8207                           
  8208     05B2                     _TMR4_StartTimer:	
  8209                           ;psect for function _TMR4_StartTimer
  8210                           
  8211     05B2                     i1l2222:	
  8212                           ;incstack = 0
  8213                           ; Regs used in _TMR4_StartTimer: []
  8214                           
  8215                           
  8216                           ;mcc_generated_files/tmr4.c: 90:     T4CONbits.TMR4ON = 1;
  8217     05B2  0028               	movlb	8	; select bank8
  8218     05B3  1517               	bsf	23,2	;volatile
  8219     05B4                     i1l605:
  8220     05B4  0008               	return
  8221     05B5                     __end_of_TMR4_StartTimer:
  8222                           
  8223                           	psect	text56
  8224     041C                     __ptext56:	
  8225 ;; *************** function _PWM3_LoadDutyValue *****************
  8226 ;; Defined at:
  8227 ;;		line 82 in file "mcc_generated_files/pwm3.c"
  8228 ;; Parameters:    Size  Location     Type
  8229 ;;  dutyValue       2    0[COMMON] unsigned short 
  8230 ;; Auto vars:     Size  Location     Type
  8231 ;;		None
  8232 ;; Return value:  Size  Location     Type
  8233 ;;                  1    wreg      void 
  8234 ;; Registers used:
  8235 ;;		wreg, status,2, status,0
  8236 ;; Tracked objects:
  8237 ;;		On entry : 0/0
  8238 ;;		On exit  : 0/0
  8239 ;;		Unchanged: 0/0
  8240 ;; Data sizes:     COMMON   BANK0   BANK1   BANK2   BANK3   BANK4
  8241 ;;      Params:         2       0       0       0       0       0
  8242 ;;      Locals:         0       0       0       0       0       0
  8243 ;;      Temps:          2       0       0       0       0       0
  8244 ;;      Totals:         4       0       0       0       0       0
  8245 ;;Total ram usage:        4 bytes
  8246 ;; Hardware stack levels used: 1
  8247 ;; This function calls:
  8248 ;;		Nothing
  8249 ;; This function is called by:
  8250 ;;		_controleMovimento
  8251 ;;		_chegadaS2
  8252 ;;		_chegadaS3
  8253 ;;		_chegadaS4
  8254 ;; This function uses a non-reentrant model
  8255 ;;
  8256                           
  8257     041C                     _PWM3_LoadDutyValue:	
  8258                           ;psect for function _PWM3_LoadDutyValue
  8259                           
  8260     041C                     i1l2210:	
  8261                           ;incstack = 0
  8262                           ; Regs used in _PWM3_LoadDutyValue: [wreg+status,2+status,0]
  8263                           
  8264                           
  8265                           ;mcc_generated_files/pwm3.c: 82: void PWM3_LoadDutyValue(uint16_t dutyValue);mcc_generat
      +                          ed_files/pwm3.c: 83: {;mcc_generated_files/pwm3.c: 85:     CCPR3L = ((dutyValue & 0x03FC
      +                          )>>2);
  8266     041C  0871               	movf	PWM3_LoadDutyValue@dutyValue+1,w
  8267     041D  00F3               	movwf	??_PWM3_LoadDutyValue+1
  8268     041E  0870               	movf	PWM3_LoadDutyValue@dutyValue,w
  8269     041F  00F2               	movwf	??_PWM3_LoadDutyValue
  8270     0420  36F3               	lsrf	??_PWM3_LoadDutyValue+1,f
  8271     0421  0CF2               	rrf	??_PWM3_LoadDutyValue,f
  8272     0422  36F3               	lsrf	??_PWM3_LoadDutyValue+1,f
  8273     0423  0CF2               	rrf	??_PWM3_LoadDutyValue,f
  8274     0424  0872               	movf	??_PWM3_LoadDutyValue,w
  8275     0425  0026               	movlb	6	; select bank6
  8276     0426  0091               	movwf	17	;volatile
  8277                           
  8278                           ;mcc_generated_files/pwm3.c: 88:     CCP3CON = ((uint8_t)(CCP3CON & 0xCF) | ((dutyValue 
      +                          & 0x0003)<<4));
  8279     0427  0870               	movf	PWM3_LoadDutyValue@dutyValue,w
  8280     0428  3903               	andlw	3
  8281     0429  00F2               	movwf	??_PWM3_LoadDutyValue
  8282     042A  3004               	movlw	4
  8283     042B                     u69_25:
  8284     042B  35F2               	lslf	??_PWM3_LoadDutyValue,f
  8285     042C  0B89               	decfsz	9,f
  8286     042D  2C2B               	goto	u69_25
  8287     042E  0813               	movf	19,w	;volatile
  8288     042F  39CF               	andlw	207
  8289     0430  0472               	iorwf	??_PWM3_LoadDutyValue,w
  8290     0431  0093               	movwf	19	;volatile
  8291     0432                     i1l14:
  8292     0432  0008               	return
  8293     0433                     __end_of_PWM3_LoadDutyValue:
  8294                           
  8295                           	psect	text57
  8296     0483                     __ptext57:	
  8297 ;; *************** function _CCP4_CaptureISR *****************
  8298 ;; Defined at:
  8299 ;;		line 89 in file "mcc_generated_files/ccp4.c"
  8300 ;; Parameters:    Size  Location     Type
  8301 ;;		None
  8302 ;; Auto vars:     Size  Location     Type
  8303 ;;  module          2    2[COMMON] struct CCPR4Reg_tag
  8304 ;; Return value:  Size  Location     Type
  8305 ;;                  1    wreg      void 
  8306 ;; Registers used:
  8307 ;;		wreg, status,2, status,0, pclath, cstack
  8308 ;; Tracked objects:
  8309 ;;		On entry : 0/0
  8310 ;;		On exit  : 0/0
  8311 ;;		Unchanged: 0/0
  8312 ;; Data sizes:     COMMON   BANK0   BANK1   BANK2   BANK3   BANK4
  8313 ;;      Params:         0       0       0       0       0       0
  8314 ;;      Locals:         2       0       0       0       0       0
  8315 ;;      Temps:          0       0       0       0       0       0
  8316 ;;      Totals:         2       0       0       0       0       0
  8317 ;;Total ram usage:        2 bytes
  8318 ;; Hardware stack levels used: 1
  8319 ;; Hardware stack levels required when called: 1
  8320 ;; This function calls:
  8321 ;;		NULL
  8322 ;;		_CCP4_DefaultCallBack
  8323 ;; This function is called by:
  8324 ;;		_INTERRUPT_InterruptManager
  8325 ;; This function uses a non-reentrant model
  8326 ;;
  8327                           
  8328     0483                     _CCP4_CaptureISR:	
  8329                           ;psect for function _CCP4_CaptureISR
  8330                           
  8331     0483                     i1l2702:	
  8332                           ;incstack = 0
  8333                           ; Regs used in _CCP4_CaptureISR: [wreg+status,2+status,0+pclath+cstack]
  8334                           
  8335                           
  8336                           ;mcc_generated_files/ccp4.c: 91:     CCP4_PERIOD_REG_T module;;mcc_generated_files/ccp4.
      +                          c: 94:     PIR3bits.CCP4IF = 0;
  8337     0483  0020               	movlb	0	; select bank0
  8338     0484  1293               	bcf	19,5	;volatile
  8339     0485                     i1l2704:
  8340                           
  8341                           ;mcc_generated_files/ccp4.c: 97:     module.ccpr4l = CCPR4L;
  8342     0485  0026               	movlb	6	; select bank6
  8343     0486  0818               	movf	24,w	;volatile
  8344     0487  00F2               	movwf	CCP4_CaptureISR@module
  8345                           
  8346                           ;mcc_generated_files/ccp4.c: 98:     module.ccpr4h = CCPR4H;
  8347     0488  0819               	movf	25,w	;volatile
  8348     0489  00F3               	movwf	CCP4_CaptureISR@module+1
  8349     048A                     i1l2706:
  8350                           
  8351                           ;mcc_generated_files/ccp4.c: 101:     CCP4_CallBack(module.ccpr4_16Bit);
  8352     048A  0873               	movf	CCP4_CaptureISR@module+1,w
  8353     048B  00F1               	movwf	CCP4_DefaultCallBack@capturedValue+1
  8354     048C  0872               	movf	CCP4_CaptureISR@module,w
  8355     048D  00F0               	movwf	CCP4_DefaultCallBack@capturedValue
  8356     048E  0020               	movlb	0	; select bank0
  8357     048F  0846               	movf	_CCP4_CallBack+1,w
  8358     0490  008A               	movwf	10
  8359     0491  0845               	movf	_CCP4_CallBack,w
  8360     0492  000A               	callw
  8361     0493  3184               	pagesel	$
  8362     0494                     i1l576:
  8363     0494  0008               	return
  8364     0495                     __end_of_CCP4_CaptureISR:
  8365                           
  8366                           	psect	text58
  8367     05BD                     __ptext58:	
  8368 ;; *************** function _CCP4_DefaultCallBack *****************
  8369 ;; Defined at:
  8370 ;;		line 60 in file "mcc_generated_files/ccp4.c"
  8371 ;; Parameters:    Size  Location     Type
  8372 ;;  capturedValu    2    0[COMMON] unsigned short 
  8373 ;; Auto vars:     Size  Location     Type
  8374 ;;		None
  8375 ;; Return value:  Size  Location     Type
  8376 ;;                  1    wreg      void 
  8377 ;; Registers used:
  8378 ;;		None
  8379 ;; Tracked objects:
  8380 ;;		On entry : 0/0
  8381 ;;		On exit  : 0/0
  8382 ;;		Unchanged: 0/0
  8383 ;; Data sizes:     COMMON   BANK0   BANK1   BANK2   BANK3   BANK4
  8384 ;;      Params:         2       0       0       0       0       0
  8385 ;;      Locals:         0       0       0       0       0       0
  8386 ;;      Temps:          0       0       0       0       0       0
  8387 ;;      Totals:         2       0       0       0       0       0
  8388 ;;Total ram usage:        2 bytes
  8389 ;; Hardware stack levels used: 1
  8390 ;; This function calls:
  8391 ;;		Nothing
  8392 ;; This function is called by:
  8393 ;;		_CCP4_Initialize
  8394 ;;		_CCP4_CaptureISR
  8395 ;; This function uses a non-reentrant model
  8396 ;;
  8397                           
  8398     05BD                     _CCP4_DefaultCallBack:	
  8399                           ;psect for function _CCP4_DefaultCallBack
  8400                           
  8401     05BD                     i1l570:	
  8402                           ;incstack = 0
  8403                           ; Regs used in _CCP4_DefaultCallBack: []
  8404                           
  8405     05BD  0008               	return
  8406     05BE                     __end_of_CCP4_DefaultCallBack:
  8407     007E                     btemp	set	126	;btemp
  8408     007E                     int$flags	set	126
  8409     007E                     wtemp0	set	126
  8410                           
  8411                           	psect	idloc
  8412                           
  8413                           ;Config register IDLOC0 @ 0x8000
  8414                           ;	unspecified, using default values
  8415     8000                     	org	32768
  8416     8000  3FFF               	dw	16383
  8417                           
  8418                           ;Config register IDLOC1 @ 0x8001
  8419                           ;	unspecified, using default values
  8420     8001                     	org	32769
  8421     8001  3FFF               	dw	16383
  8422                           
  8423                           ;Config register IDLOC2 @ 0x8002
  8424                           ;	unspecified, using default values
  8425     8002                     	org	32770
  8426     8002  3FFF               	dw	16383
  8427                           
  8428                           ;Config register IDLOC3 @ 0x8003
  8429                           ;	unspecified, using default values
  8430     8003                     	org	32771
  8431     8003  3FFF               	dw	16383
  8432                           
  8433                           	psect	config
  8434                           
  8435                           ;Config register CONFIG1 @ 0x8007
  8436                           ;	Oscillator Selection
  8437                           ;	FOSC = INTOSC, INTOSC oscillator: I/O function on CLKIN pin
  8438                           ;	Watchdog Timer Enable
  8439                           ;	WDTE = OFF, WDT disabled
  8440                           ;	Power-up Timer Enable
  8441                           ;	PWRTE = OFF, PWRT disabled
  8442                           ;	MCLR Pin Function Select
  8443                           ;	MCLRE = ON, MCLR/VPP pin function is MCLR
  8444                           ;	Flash Program Memory Code Protection
  8445                           ;	CP = OFF, Program memory code protection is disabled
  8446                           ;	Data Memory Code Protection
  8447                           ;	CPD = OFF, Data memory code protection is disabled
  8448                           ;	Brown-out Reset Enable
  8449                           ;	BOREN = ON, Brown-out Reset enabled
  8450                           ;	Clock Out Enable
  8451                           ;	CLKOUTEN = OFF, CLKOUT function is disabled. I/O or oscillator function on the CLKOUT 
      +                          pin
  8452                           ;	Internal/External Switchover
  8453                           ;	IESO = ON, Internal/External Switchover mode is enabled
  8454                           ;	Fail-Safe Clock Monitor Enable
  8455                           ;	FCMEN = ON, Fail-Safe Clock Monitor is enabled
  8456     8007                     	org	32775
  8457     8007  3FE4               	dw	16356
  8458                           
  8459                           ;Config register CONFIG2 @ 0x8008
  8460                           ;	Flash Memory Self-Write Protection
  8461                           ;	WRT = OFF, Write protection off
  8462                           ;	PLL Enable
  8463                           ;	PLLEN = OFF, 4x PLL disabled
  8464                           ;	Stack Overflow/Underflow Reset Enable
  8465                           ;	STVREN = ON, Stack Overflow or Underflow will cause a Reset
  8466                           ;	Brown-out Reset Voltage Selection
  8467                           ;	BORV = LO, Brown-out Reset Voltage (Vbor), low trip point selected.
  8468                           ;	Low-Voltage Programming Enable
  8469                           ;	LVP = ON, Low-voltage programming enabled
  8470     8008                     	org	32776
  8471     8008  3EFF               	dw	16127

Data Sizes:
    Strings     0
    Constant    16
    Data        4
    BSS         19
    Persistent  48
    Stack       0

Auto Spaces:
    Space          Size  Autos    Used
    COMMON           14     11      14
    BANK0            80     17      53
    BANK1            80      0       0
    BANK2            80      0       0
    BANK3            80      0       0
    BANK4            48      0       0

Pointer List with Targets:

    ADC_InterruptHandler	PTR FTN()void  size(2) Largest target is 1
		 -> NULL(), 

    txSpi@data	PTR unsigned char  size(1) Largest target is 4
		 -> initMatrix@data(BANK0[4]), matrixUpdate@data(BANK0[2]), 

    TMR4_SetInterruptHandler@InterruptHandler	PTR FTN()void  size(2) Largest target is 1
		 -> controleMovimento(), TMR4_DefaultInterruptHandler(), 

    TMR4_InterruptHandler	PTR FTN()void  size(2) Largest target is 1
		 -> controleMovimento(), TMR4_DefaultInterruptHandler(), NULL(), 

    CCP4_SetCallBack@customCallBack	PTR FTN(unsigned short ,)void  size(2) Largest target is 1
		 -> CCP4_DefaultCallBack(), 

    CCP4_CallBack	PTR FTN(unsigned short ,)void  size(2) Largest target is 1
		 -> CCP4_DefaultCallBack(), NULL(), 

    TMR0_SetInterruptHandler@InterruptHandler	PTR FTN()void  size(2) Largest target is 1
		 -> TMR0_DefaultInterruptHandler(), 

    TMR0_InterruptHandler	PTR FTN()void  size(2) Largest target is 1
		 -> TMR0_DefaultInterruptHandler(), NULL(), 

    SPI1_ExchangeBlock@block	PTR void  size(1) Largest target is 4
		 -> initMatrix@data(BANK0[4]), matrixUpdate@data(BANK0[2]), 

    SPI1_ExchangeBlock@data	PTR unsigned char  size(1) Largest target is 4
		 -> initMatrix@data(BANK0[4]), matrixUpdate@data(BANK0[2]), 

    EUSART_SetErrorHandler@interruptHandler	PTR FTN()void  size(2) Largest target is 1
		 -> EUSART_DefaultErrorHandler(), 

    EUSART_ErrorHandler	PTR FTN()void  size(2) Largest target is 1
		 -> EUSART_DefaultErrorHandler(), NULL(), 

    EUSART_SetOverrunErrorHandler@interruptHandler	PTR FTN()void  size(2) Largest target is 1
		 -> EUSART_DefaultOverrunErrorHandler(), 

    EUSART_OverrunErrorHandler	PTR FTN()void  size(2) Largest target is 1
		 -> EUSART_DefaultOverrunErrorHandler(), NULL(), 

    EUSART_SetFramingErrorHandler@interruptHandler	PTR FTN()void  size(2) Largest target is 1
		 -> EUSART_DefaultFramingErrorHandler(), 

    EUSART_FramingErrorHandler	PTR FTN()void  size(2) Largest target is 1
		 -> EUSART_DefaultFramingErrorHandler(), NULL(), 

    IOCBF3_SetInterruptHandler@InterruptHandler	PTR FTN()void  size(2) Largest target is 1
		 -> chegadaS2(), IOCBF3_DefaultInterruptHandler(), 

    IOCBF3_InterruptHandler	PTR FTN()void  size(2) Largest target is 1
		 -> chegadaS2(), NULL(), IOCBF3_DefaultInterruptHandler(), 

    IOCBF0_SetInterruptHandler@InterruptHandler	PTR FTN()void  size(2) Largest target is 1
		 -> chegadaS1(), IOCBF0_DefaultInterruptHandler(), 

    IOCBF0_InterruptHandler	PTR FTN()void  size(2) Largest target is 1
		 -> i1_chegadaS1(), chegadaS1(), NULL(), IOCBF0_DefaultInterruptHandler(), 


Critical Paths under _main in COMMON

    None.

Critical Paths under _INTERRUPT_InterruptManager in COMMON

    _TMR4_CallBack->_controleMovimento
    _controleMovimento->_PWM3_LoadDutyValue
    _chegadaS2->i1_matrixUpdate
    i1_chegadaS1->i1_matrixUpdate
    _chegadaS4->i1_matrixUpdate
    _chegadaS3->i1_matrixUpdate
    i1_matrixUpdate->i1_txSpi
    i1_txSpi->i1_SPI1_ExchangeBlock
    _CCP4_CaptureISR->_CCP4_DefaultCallBack

Critical Paths under _main in BANK0

    _main->_initMatrix
    _initMatrix->_txSpi
    _chegadaS1->_matrixUpdate
    _matrixUpdate->_txSpi
    _txSpi->_SPI1_ExchangeBlock
    _TMR4_Initialize->_TMR4_SetInterruptHandler
    _TMR0_Initialize->_TMR0_SetInterruptHandler
    _PIN_MANAGER_Initialize->_IOCBF0_SetInterruptHandler
    _PIN_MANAGER_Initialize->_IOCBF3_SetInterruptHandler
    _EUSART_Initialize->_EUSART_SetErrorHandler
    _EUSART_Initialize->_EUSART_SetFramingErrorHandler
    _EUSART_Initialize->_EUSART_SetOverrunErrorHandler
    _CCP4_Initialize->_CCP4_SetCallBack

Critical Paths under _INTERRUPT_InterruptManager in BANK0

    None.

Critical Paths under _main in BANK1

    None.

Critical Paths under _INTERRUPT_InterruptManager in BANK1

    None.

Critical Paths under _main in BANK2

    None.

Critical Paths under _INTERRUPT_InterruptManager in BANK2

    None.

Critical Paths under _main in BANK3

    None.

Critical Paths under _INTERRUPT_InterruptManager in BANK3

    None.

Critical Paths under _main in BANK4

    None.

Critical Paths under _INTERRUPT_InterruptManager in BANK4

    None.

Call Graph Tables:

 ---------------------------------------------------------------------------------
 (Depth) Function   	        Calls       Base Space   Used Autos Params    Refs
 ---------------------------------------------------------------------------------
 (0) _main                                                 0     0      0    3414
         _IOCBF0_SetInterruptHandler
         _IOCBF3_SetInterruptHandler
                          _SPI1_Open
                  _SYSTEM_Initialize
           _TMR4_SetInterruptHandler
                          _chegadaS1
                         _initMatrix
 ---------------------------------------------------------------------------------
 (1) _initMatrix                                           9     9      0     940
                                              8 BANK0      9     9      0
                              _txSpi
 ---------------------------------------------------------------------------------
 (1) _chegadaS1                                            0     0      0     852
                       _matrixUpdate
 ---------------------------------------------------------------------------------
 (2) _matrixUpdate                                         5     5      0     852
                                              8 BANK0      3     3      0
                              _txSpi
 ---------------------------------------------------------------------------------
 (2) _txSpi                                                3     1      2     570
                                              5 BANK0      3     1      2
                 _SPI1_ExchangeBlock
 ---------------------------------------------------------------------------------
 (3) _SPI1_ExchangeBlock                                   5     3      2     199
                                              0 BANK0      5     3      2
 ---------------------------------------------------------------------------------
 (1) _SYSTEM_Initialize                                    0     0      0    1012
                     _ADC_Initialize
                    _CCP4_Initialize
                    _CMP1_Initialize
                    _CMP2_Initialize
                  _EUSART_Initialize
                     _FVR_Initialize
              _OSCILLATOR_Initialize
             _PIN_MANAGER_Initialize
                    _PWM3_Initialize
                    _SPI1_Initialize
                    _TMR0_Initialize
                    _TMR1_Initialize
                    _TMR2_Initialize
                    _TMR4_Initialize
                     _WDT_Initialize
 ---------------------------------------------------------------------------------
 (2) _WDT_Initialize                                       0     0      0       0
 ---------------------------------------------------------------------------------
 (2) _TMR4_Initialize                                      0     0      0     174
           _TMR4_SetInterruptHandler
 ---------------------------------------------------------------------------------
 (1) _TMR4_SetInterruptHandler                             2     0      2     174
                                              0 BANK0      2     0      2
 ---------------------------------------------------------------------------------
 (2) _TMR2_Initialize                                      0     0      0       0
 ---------------------------------------------------------------------------------
 (2) _TMR1_Initialize                                      0     0      0       0
 ---------------------------------------------------------------------------------
 (2) _TMR0_Initialize                                      0     0      0      98
           _TMR0_SetInterruptHandler
 ---------------------------------------------------------------------------------
 (3) _TMR0_SetInterruptHandler                             2     0      2      98
                                              0 BANK0      2     0      2
 ---------------------------------------------------------------------------------
 (2) _SPI1_Initialize                                      0     0      0       0
 ---------------------------------------------------------------------------------
 (2) _PWM3_Initialize                                      0     0      0       0
 ---------------------------------------------------------------------------------
 (2) _PIN_MANAGER_Initialize                               0     0      0     348
         _IOCBF0_SetInterruptHandler
         _IOCBF3_SetInterruptHandler
 ---------------------------------------------------------------------------------
 (3) _IOCBF3_SetInterruptHandler                           2     0      2     174
                                              0 BANK0      2     0      2
 ---------------------------------------------------------------------------------
 (3) _IOCBF0_SetInterruptHandler                           2     0      2     174
                                              0 BANK0      2     0      2
 ---------------------------------------------------------------------------------
 (2) _OSCILLATOR_Initialize                                0     0      0       0
 ---------------------------------------------------------------------------------
 (2) _FVR_Initialize                                       0     0      0       0
 ---------------------------------------------------------------------------------
 (2) _EUSART_Initialize                                    0     0      0     294
             _EUSART_SetErrorHandler
      _EUSART_SetFramingErrorHandler
      _EUSART_SetOverrunErrorHandler
 ---------------------------------------------------------------------------------
 (3) _EUSART_SetOverrunErrorHandler                        2     0      2      98
                                              0 BANK0      2     0      2
 ---------------------------------------------------------------------------------
 (3) _EUSART_SetFramingErrorHandler                        2     0      2      98
                                              0 BANK0      2     0      2
 ---------------------------------------------------------------------------------
 (3) _EUSART_SetErrorHandler                               2     0      2      98
                                              0 BANK0      2     0      2
 ---------------------------------------------------------------------------------
 (2) _CMP2_Initialize                                      0     0      0       0
 ---------------------------------------------------------------------------------
 (2) _CMP1_Initialize                                      0     0      0       0
 ---------------------------------------------------------------------------------
 (2) _CCP4_Initialize                                      0     0      0      98
                   _CCP4_SetCallBack
 ---------------------------------------------------------------------------------
 (3) _CCP4_SetCallBack                                     2     0      2      98
                                              0 BANK0      2     0      2
 ---------------------------------------------------------------------------------
 (2) _ADC_Initialize                                       0     0      0       0
 ---------------------------------------------------------------------------------
 (1) _SPI1_Open                                            4     4      0      88
                                              0 BANK0      4     4      0
 ---------------------------------------------------------------------------------
 Estimated maximum stack depth 3
 ---------------------------------------------------------------------------------
 (Depth) Function   	        Calls       Base Space   Used Autos Params    Refs
 ---------------------------------------------------------------------------------
 (5) _INTERRUPT_InterruptManager                           0     0      0    4434
                    _CCP4_CaptureISR
                           _CMP1_ISR
                           _CMP2_ISR
                    _PIN_MANAGER_IOC
                           _TMR0_ISR
                           _TMR4_ISR
 ---------------------------------------------------------------------------------
 (6) _TMR4_ISR                                             0     0      0     576
                      _TMR4_CallBack
 ---------------------------------------------------------------------------------
 (7) _TMR4_CallBack                                        0     0      0     576
                                NULL *
       _TMR4_DefaultInterruptHandler *
                  _controleMovimento *
 ---------------------------------------------------------------------------------
 (8) _controleMovimento                                    2     2      0     576
                                              4 COMMON     2     2      0
                 _PWM3_LoadDutyValue
                     _TMR4_StopTimer
 ---------------------------------------------------------------------------------
 (9) _TMR4_StopTimer                                       0     0      0       0
 ---------------------------------------------------------------------------------
 (8) _TMR4_DefaultInterruptHandler                         0     0      0       0
 ---------------------------------------------------------------------------------
 (6) _TMR0_ISR                                             0     0      0       0
                      _TMR0_CallBack
 ---------------------------------------------------------------------------------
 (7) _TMR0_CallBack                                        0     0      0       0
                                NULL *
       _TMR0_DefaultInterruptHandler *
 ---------------------------------------------------------------------------------
 (8) _TMR0_DefaultInterruptHandler                         0     0      0       0
 ---------------------------------------------------------------------------------
 (6) _PIN_MANAGER_IOC                                      0     0      0    1580
                         _IOCBF0_ISR
                         _IOCBF3_ISR
 ---------------------------------------------------------------------------------
 (7) _IOCBF3_ISR                                           0     0      0    1089
                                NULL *
     _IOCBF3_DefaultInterruptHandler *
                          _chegadaS2 *
 ---------------------------------------------------------------------------------
 (8) _chegadaS2                                            0     0      0    1089
                 _PWM3_LoadDutyValue
                    _TMR4_StartTimer
                    _TMR4_WriteTimer
                     i1_matrixUpdate
 ---------------------------------------------------------------------------------
 (8) _IOCBF3_DefaultInterruptHandler                       0     0      0       0
 ---------------------------------------------------------------------------------
 (7) _IOCBF0_ISR                                           0     0      0     491
                                NULL *
     _IOCBF0_DefaultInterruptHandler *
                        i1_chegadaS1 *
 ---------------------------------------------------------------------------------
 (8) i1_chegadaS1                                          0     0      0     491
                     i1_matrixUpdate
 ---------------------------------------------------------------------------------
 (8) _IOCBF0_DefaultInterruptHandler                       0     0      0       0
 ---------------------------------------------------------------------------------
 (6) _CMP2_ISR                                             0     0      0    1089
                          _chegadaS4
 ---------------------------------------------------------------------------------
 (7) _chegadaS4                                            0     0      0    1089
                 _PWM3_LoadDutyValue
                    _TMR4_StartTimer
                    _TMR4_WriteTimer
                     i1_matrixUpdate
 ---------------------------------------------------------------------------------
 (6) _CMP1_ISR                                             0     0      0    1089
                          _chegadaS3
 ---------------------------------------------------------------------------------
 (7) _chegadaS3                                            0     0      0    1089
                 _PWM3_LoadDutyValue
                    _TMR4_StartTimer
                    _TMR4_WriteTimer
                     i1_matrixUpdate
 ---------------------------------------------------------------------------------
 (9) i1_matrixUpdate                                       5     5      0     491
                                              8 COMMON     3     3      0
                            i1_txSpi
 ---------------------------------------------------------------------------------
 (10) i1_txSpi                                             3     1      2     212
                                              5 COMMON     3     1      2
               i1_SPI1_ExchangeBlock
 ---------------------------------------------------------------------------------
 (11) i1_SPI1_ExchangeBlock                                5     3      2     116
                                              0 COMMON     5     3      2
 ---------------------------------------------------------------------------------
 (9) _TMR4_WriteTimer                                      1     1      0      22
                                              0 COMMON     1     1      0
 ---------------------------------------------------------------------------------
 (9) _TMR4_StartTimer                                      0     0      0       0
 ---------------------------------------------------------------------------------
 (9) _PWM3_LoadDutyValue                                   4     2      2     576
                                              0 COMMON     4     2      2
 ---------------------------------------------------------------------------------
 (6) _CCP4_CaptureISR                                      2     2      0     100
                                              2 COMMON     2     2      0
                                NULL *
               _CCP4_DefaultCallBack *
 ---------------------------------------------------------------------------------
 (7) _CCP4_DefaultCallBack                                 2     0      2      53
                                              0 COMMON     2     0      2
 ---------------------------------------------------------------------------------
 (8) NULL(Fake)                                            0     0      0       0
 ---------------------------------------------------------------------------------
 Estimated maximum stack depth 11
 ---------------------------------------------------------------------------------

 Call Graph Graphs:

 _main (ROOT)
   _IOCBF0_SetInterruptHandler
   _IOCBF3_SetInterruptHandler
   _SPI1_Open
   _SYSTEM_Initialize
     _ADC_Initialize
     _CCP4_Initialize
       _CCP4_SetCallBack
     _CMP1_Initialize
     _CMP2_Initialize
     _EUSART_Initialize
       _EUSART_SetErrorHandler
       _EUSART_SetFramingErrorHandler
       _EUSART_SetOverrunErrorHandler
     _FVR_Initialize
     _OSCILLATOR_Initialize
     _PIN_MANAGER_Initialize
       _IOCBF0_SetInterruptHandler
       _IOCBF3_SetInterruptHandler
     _PWM3_Initialize
     _SPI1_Initialize
     _TMR0_Initialize
       _TMR0_SetInterruptHandler
     _TMR1_Initialize
     _TMR2_Initialize
     _TMR4_Initialize
       _TMR4_SetInterruptHandler
     _WDT_Initialize
   _TMR4_SetInterruptHandler
   _chegadaS1
     _matrixUpdate
       _txSpi
         _SPI1_ExchangeBlock
   _initMatrix
     _txSpi

 _INTERRUPT_InterruptManager (ROOT)
   _CCP4_CaptureISR
     NULL(Fake) *
     _CCP4_DefaultCallBack *
   _CMP1_ISR
     _chegadaS3
       _PWM3_LoadDutyValue
       _TMR4_StartTimer
       _TMR4_WriteTimer
       i1_matrixUpdate
         i1_txSpi
           i1_SPI1_ExchangeBlock
   _CMP2_ISR
     _chegadaS4
       _PWM3_LoadDutyValue
       _TMR4_StartTimer
       _TMR4_WriteTimer
       i1_matrixUpdate
   _PIN_MANAGER_IOC
     _IOCBF0_ISR
       NULL(Fake) *
       _IOCBF0_DefaultInterruptHandler *
       i1_chegadaS1 *
         i1_matrixUpdate
     _IOCBF3_ISR
       NULL(Fake) *
       _IOCBF3_DefaultInterruptHandler *
       _chegadaS2 *
         _PWM3_LoadDutyValue
         _TMR4_StartTimer
         _TMR4_WriteTimer
         i1_matrixUpdate
   _TMR0_ISR
     _TMR0_CallBack
       NULL(Fake) *
       _TMR0_DefaultInterruptHandler *
   _TMR4_ISR
     _TMR4_CallBack
       NULL(Fake) *
       _TMR4_DefaultInterruptHandler *
       _controleMovimento *
         _PWM3_LoadDutyValue
         _TMR4_StopTimer

 Address spaces:
Name               Size   Autos  Total    Cost      Usage
BIGRAM             170      0       0       0        0.0%
EEDATA             100      0       0       0        0.0%
NULL                 0      0       0       0        0.0%
CODE                 0      0       0       0        0.0%
BITCOMMON            E      0       0       1        0.0%
BITSFR0              0      0       0       1        0.0%
SFR0                 0      0       0       1        0.0%
COMMON               E      B       E       2      100.0%
BITSFR1              0      0       0       2        0.0%
SFR1                 0      0       0       2        0.0%
BITSFR2              0      0       0       3        0.0%
SFR2                 0      0       0       3        0.0%
STACK                0      0       0       3        0.0%
BITSFR3              0      0       0       4        0.0%
SFR3                 0      0       0       4        0.0%
ABS                  0      0      43       4        0.0%
BITBANK0            50      0       0       5        0.0%
BITSFR4              0      0       0       5        0.0%
SFR4                 0      0       0       5        0.0%
BANK0               50     11      35       6       66.2%
BITSFR5              0      0       0       6        0.0%
SFR5                 0      0       0       6        0.0%
BITBANK1            50      0       0       7        0.0%
BITSFR6              0      0       0       7        0.0%
SFR6                 0      0       0       7        0.0%
BANK1               50      0       0       8        0.0%
BITSFR7              0      0       0       8        0.0%
SFR7                 0      0       0       8        0.0%
BITBANK2            50      0       0       9        0.0%
BITSFR8              0      0       0       9        0.0%
SFR8                 0      0       0       9        0.0%
BANK2               50      0       0      10        0.0%
BITSFR9              0      0       0      10        0.0%
SFR9                 0      0       0      10        0.0%
BITBANK3            50      0       0      11        0.0%
BITSFR10             0      0       0      11        0.0%
SFR10                0      0       0      11        0.0%
BANK3               50      0       0      12        0.0%
BITSFR11             0      0       0      12        0.0%
SFR11                0      0       0      12        0.0%
BITBANK4            30      0       0      13        0.0%
BITSFR12             0      0       0      13        0.0%
SFR12                0      0       0      13        0.0%
BANK4               30      0       0      14        0.0%
BITSFR13             0      0       0      14        0.0%
SFR13                0      0       0      14        0.0%
BITSFR14             0      0       0      15        0.0%
SFR14                0      0       0      15        0.0%
DATA                 0      0      43      15        0.0%
BITSFR15             0      0       0      16        0.0%
SFR15                0      0       0      16        0.0%
BITSFR16             0      0       0      17        0.0%
SFR16                0      0       0      17        0.0%
BITSFR17             0      0       0      18        0.0%
SFR17                0      0       0      18        0.0%
BITSFR18             0      0       0      19        0.0%
SFR18                0      0       0      19        0.0%
BITSFR19             0      0       0      20        0.0%
SFR19                0      0       0      20        0.0%
BITSFR20             0      0       0      21        0.0%
SFR20                0      0       0      21        0.0%
BITSFR21             0      0       0      22        0.0%
SFR21                0      0       0      22        0.0%
BITSFR22             0      0       0      23        0.0%
SFR22                0      0       0      23        0.0%
BITSFR23             0      0       0      24        0.0%
SFR23                0      0       0      24        0.0%
BITSFR24             0      0       0      25        0.0%
SFR24                0      0       0      25        0.0%
BITSFR25             0      0       0      26        0.0%
SFR25                0      0       0      26        0.0%
BITSFR26             0      0       0      27        0.0%
SFR26                0      0       0      27        0.0%
BITSFR27             0      0       0      28        0.0%
SFR27                0      0       0      28        0.0%
BITSFR28             0      0       0      29        0.0%
SFR28                0      0       0      29        0.0%
BITSFR29             0      0       0      30        0.0%
SFR29                0      0       0      30        0.0%
BITSFR30             0      0       0      31        0.0%
SFR30                0      0       0      31        0.0%
BITSFR31             0      0       0      32        0.0%
SFR31                0      0       0      32        0.0%


Microchip Technology PIC Macro Assembler V2.41 build 20230208172133 
Symbol Table                                                                                   Tue Jul 18 14:39:00 2023

                              _CCP4_Initialize 0471               ??_IOCBF3_DefaultInterruptHandler 0070  
              ?_IOCBF3_DefaultInterruptHandler 0070                             _SPI1_ExchangeBlock 0359  
                                           l11 0544                                             l41 0523  
                                           l74 052F                              ??_CMP1_Initialize 0032  
                       __end_of_FVR_Initialize 05AF                                _timer0ReloadVal 0030  
                                          l201 05AA                                            l141 0579  
                                          l151 0573                                            l129 02D1  
                                          l218 0554                                            l331 0585  
                                          l334 057F                                            l246 05AE  
                                          l337 058B                                            l362 00CF  
                                          l602 045C                                            l451 04F1  
                                          l195 02FF                                            l292 03CD  
                                          l380 0381                                            l198 055B  
                                          l358 053A                                            l550 056D  
                                          l630 0567                                            l528 0470  
                                          l376 0364                                            l490 054C  
                                          l378 0369                                            l722 02A0  
                                          l573 0482                                            l680 04A5  
                                          l761 0356                                            l762 0356  
                                          l579 0591                                            l676 0497  
                                          l689 03E9                                            l698 0220  
                                          _PR2 001B                                            _PR4 0416  
                                          u700 0369                                            u701 0368  
                                          u710 0381                                            u711 0380  
                                          u990 03E9                                            u991 03E8  
                          ?_SPI1_ExchangeBlock 0032                                _timer1ReloadVal 002C  
                                          _mov 007B                 ?_EUSART_SetFramingErrorHandler 0032  
                              _TMR2_Initialize 0545                 CCP4_SetCallBack@customCallBack 0032  
                                          wreg 0009                               _CCP4_SetCallBack 058C  
                      SPI1_ExchangeBlock@block 0035                        __end_of_CCP4_CaptureISR 0495  
                                  i1_chegadaS1 0300                                           l2220 0375  
                                         l2212 035B                                           l2214 035E  
                                         l2400 051F                                           l2216 036A  
                                         l2402 0521                                           l2218 0370  
                                         l2500 02BC                                           l2270 0586  
                                         l2262 0574                                           l2510 02C8  
                                         l2502 02BD                                           l2440 052B  
                                         l2264 056E                                           l2512 02D0  
                                         l2504 02BE                                           l2272 0568  
                                         l2600 04E8                                           l2280 04A2  
                                         l2274 058C                                           l2442 052D  
                                         l2266 0580                                           l2610 03B2  
                                         l2506 02BF                                           l2530 0534  
                                         l2602 04EA                                           l2282 04A4  
                                         l2436 0524                                           l2268 057A  
                                         l2612 03B3                                           l2540 0559  
                                         l2508 02C0                                           l2532 0536  
                                         l2604 04EB                                           l2276 0562  
                                         l2438 0526                                           l2614 03BB  
                                         l2390 053B                                           l2534 0538  
                                         l2526 0530                                           l2606 04EF  
                                         l2550 044D                                           l2542 05A7  
                                         l2278 0499                                           l2616 03C3  
                                         l2608 03A9                                           l2544 05AB  
                                         l2536 0555                                           l2480 02A1  
                                         l2392 0540                                           l2528 0533  
                                         l2560 0548                                           l2552 044F  
                                         l2640 03E1                                           l2618 03CB  
                                         l2538 0558                                           l2490 02AE  
                                         l2482 02A4                                           l2394 0541  
                                         l2570 0465                                           l2562 0549  
                                         l2554 0451                                           l2546 0449  
                                         l2642 03E4                                           l2634 03D1  
                                         l2730 01D2                                           l2580 0474  
                                         l2396 0518                                           l2492 02B1  
                                         l2484 02A7                                           l2572 0467  
                                         l2564 054A                                           l2556 0459  
                                         l2548 044C                                           l2636 03D3  
                                         l2628 03CE                                           l2740 01DE  
                                         l2590 054D                                           l2582 0475  
                                         l2398 051A                                           l2494 02B2  
                                         l2486 02A9                                           l2574 0468  
                                         l2566 045D                                           l2558 0545  
                                         l2638 03D9                                           l2742 01E4  
                                         l2680 0077                                           l2592 0550  
                                         l2584 0476                                           l2496 02B9  
                                         l2488 02AC                                           l2576 0469  
                                         l2568 0462                                           l2760 020A  
                                         l2736 01D5                                           l2690 00CD  
                                         l2682 007C                                           l2594 0551  
                                         l2586 047E                                           l2578 0471  
                                         l2498 02BB                                           l2770 027D  
                                         l2762 020D                                           l2754 01E6  
                                         l2738 01DA                                           l2850 0351  
                                         l2842 032D                                           l2684 00A0  
                                         l2588 0480                                           l2596 04E4  
                                         l2780 0293                                           l2772 027E  
                                         l2764 0215                                           l2756 0201  
                                         l2748 01E5                                           l2852 0352  
                                         l2844 0348                                           l2686 00A1  
                                         l2598 04E6                                           l2678 02D2  
                                         l2782 0296                                           l2774 0283  
                                         l2766 021A                                           l2758 0204  
                                         l2846 034A                                           l2688 00B3  
                                         l2784 0299                                           l2776 0289  
                                         l2768 0274                                           l2848 034E  
                                         l2786 029D                                           l2778 028D  
                                         u1020 007C                                           u1021 007B  
                                         u1060 01E4                                           u1061 01E3  
                                         u1070 020A                                           u1071 0209  
                                         u1080 0220                                           u1081 021F  
                                         u1090 0283                                           u1091 0282  
                                         _LATA 010C                                           _LATB 010D  
                            ??_CMP2_Initialize 0032                                           i1l14 0432  
                                         i1l47 0597                                           i1l80 059D  
                                         _TMR0 0015                                           _TMR2 001A  
                                         _TMR4 0415                                           _WPUA 020C  
                                         _WPUB 020D                                           _main 032D  
                                         fsr0h 0005                                           fsr1h 0007  
                                         indf0 0000                                           fsr0l 0004  
                                         indf1 0001                                           fsr1l 0006  
                                         btemp 007E                           ??_SPI1_ExchangeBlock 0034  
                    i1SPI1_ExchangeBlock@block 0073                                           start 0056  
                              __end_ofi1_txSpi 04E4                               __end_of_CMP1_ISR 059E  
                             __end_of_CMP2_ISR 0598                     ??_TMR4_SetInterruptHandler 0034  
                           i1matrixUpdate@data 0078                        __end_of_TMR0_Initialize 0471  
               ??_TMR0_DefaultInterruptHandler 0070                                ?_FVR_Initialize 0070  
                __end_of_OSCILLATOR_Initialize 055C                                          ?_main 0070  
                       ??_CCP4_DefaultCallBack 0072               SPI1_Open@spi1UniqueConfiguration 0035  
                                        _T1CON 0018                                          _T2CON 001C  
                                        _T4CON 0417                                          i1l134 04B6  
                                        i1l144 05BC                                          i1l138 04D4  
                                        i1l154 05BB                                          i1l148 04C5  
                                        i1l432 0054                                          i1l380 03A8  
                                        i1l605 05B4                                          i1l614 05A2  
                                        i1l543 041B                                          i1l623 0448  
                                        i1l376 038C                                          i1l608 05B1  
                                        i1l712 01CA                                          i1l553 05BA  
                                        i1l633 05B9                                          i1l570 05BD  
                                        i1l378 0391                                          i1l722 032C  
                                        i1l547 050B                                          i1l627 04FE  
                                        i1l733 017E                                          i1l717 01D1  
                                        i1l576 0494                                          i1l680 04E3  
                                        i1l744 0129                                          i1l736 00F1  
                                        i1l754 026F                                          i1l747 0242  
                                        i1l676 04D6                                          i1l689 0403  
                                        _RCREG 0199                                          _RCSTA 019D  
                                        _TMR1H 0017                                          _TMR1L 0016  
                                        u72_20 0403                                          u80_20 0159  
                                        u72_21 0402                                          u80_21 0158  
                                        u81_20 0173                                          u73_20 0198  
                                        u81_21 0172                                          u73_21 0197  
                                        _TRISA 008C                                          _TRISB 008D  
                                        u90_20 00E0                                          u82_20 030F  
                                        u74_20 01C1                                          u90_21 00DF  
                                        u82_21 030E                                          u74_21 01C0  
                                        u67_20 0391                                          u91_20 00E4  
                                        u83_20 0225                                          u75_20 01C7  
                                        u67_21 0390                                          u91_21 00E3  
                                        u83_21 0224                                          u75_21 01C6  
                                        u68_20 03A8                                          u92_20 0100  
                                        u84_20 022B                                          u76_20 012E  
                                        u68_21 03A7                                          u92_21 00FF  
                                        u84_21 022A                                          u76_21 012D  
                                        u93_20 0122                                          u85_20 0231  
                                        u77_20 0134                                          u93_21 0121  
                                        u85_21 0230                                          u77_21 0133  
                                        u69_25 042B                                          u94_20 0127  
                                        u86_20 0235                                          u78_20 013A  
                                        u94_21 0126                                          u86_21 0234  
                                        u78_21 0139                                          u87_20 0251  
                                        u95_20 04CD                                          u79_20 013E  
                                        u87_21 0250                                          u95_21 04CC  
                                        u79_21 013D                                          u88_20 00D4  
                                        u96_20 04BE                                          u88_21 00D3  
                                        u96_21 04BD                                          u89_20 00DA  
                                        u97_20 0506                                          u89_21 00D9  
                                        u97_21 0505                                          _TXREG 019A  
                                        u98_20 04F9                                          u98_21 04F8  
                                        _TXSTA 019E                                _TMR4_Initialize 0449  
                    ?_TMR0_SetInterruptHandler 0032                               __end_of_TMR0_ISR 041C  
                             __end_of_TMR4_ISR 0449                        __end_of_PIN_MANAGER_IOC 04B7  
                               _WDT_Initialize 05A7                                          _txSpi 0495  
                      __end_of_PWM3_Initialize 0545                        __end_of_TMR1_Initialize 04F2  
                                        pclath 000A                                          status 0003  
                      __end_of_CCP4_Initialize 0483                                          wtemp0 007E  
                                txSpi@dataSize 0037                               ??i1_matrixUpdate 0078  
                              __initialization 0058                                i1matrixUpdate@i 007A  
                                 __end_of_main 0359                        __end_of_TMR2_Initialize 054D  
                  ?_INTERRUPT_InterruptManager 0070                                         ??_main 0043  
                          _chegadaS1$intlevel0 0274                        _IOCBF0_InterruptHandler 0051  
                       __end_of_WDT_Initialize 05AB                               ?_CCP4_CaptureISR 0070  
            _EUSART_DefaultFramingErrorHandler 0000                                         _ADCON0 009D  
                                       _ADCON1 009E                     _EUSART_OverrunErrorHandler 004B  
                                       _ADRESH 009C                                         _ADRESL 009B  
                                       _CCPR3H 0312                                         _CCPR4H 0319  
                                       _CCPR3L 0311                                         _CCPR4L 0318  
                                       ?_txSpi 0037                                         _ANSELA 018C  
                                       _ANSELB 018D                                         _BORCON 0116  
                                       _T1GCON 0019                                         u100_20 04AB  
                                       u100_21 04AA                                         u101_20 04B3  
                                       u101_21 04B2                                         i1l2200 0398  
                                       u103_20 0415                                         u103_21 0414  
                                       i1l2210 041C                                         i1l2202 039C  
                                       i1l2204 04D8                                         i1l2300 0198  
                                       i1l2222 05B2                                         i1l2206 04E0  
                                       i1l2302 019F                                         i1l2310 01A6  
                                       i1l2208 04E2                                         i1l2240 03FC  
                                       i1l2224 05AF                                         i1l2320 01CF  
                                       i1l2312 01BC                                         u104_20 0442  
                                       u120_20 0037                                         u112_20 000A  
                                       u104_21 0441                                         u120_21 0036  
                                       u112_21 0009                                         i1l2226 059F  
                                       i1l2242 03FE                                         i1l2234 03EC  
                                       i1l2410 0231                                         i1l2330 0134  
                                       i1l2314 01C1                                         i1l2306 01A1  
                                       i1l2236 03EE                                         i1l2228 03EA  
                                       i1l2420 0251                                         i1l2412 0235  
                                       i1l2404 0221                                         i1l2340 014D  
                                       i1l2332 013A                                         i1l2316 01C7  
                                       i1l2238 03F4                                         i1l2430 0267  
                                       i1l2422 0257                                         i1l2414 023F  
                                       i1l2406 0225                                         i1l2350 0159  
                                       i1l2342 014F                                         i1l2334 013E  
                                       i1l2326 012A                                         i1l2318 01CD  
                                       i1l2432 026A                                         i1l2424 025B  
                                       i1l2416 024B                                         i1l2408 022B  
                                       i1l2360 016E                                         i1l2352 015F  
                                       i1l2344 0151                                         i1l2336 0148  
                                       i1l2328 012E                                         i1l2520 04B7  
                                       u121_20 003F                                         u113_20 000E  
                                       u121_21 003E                                         u113_21 000D  
                                       i1l2194 0383                                         i1l2450 00E0  
                                       i1l2434 026D                                         i1l2426 0261  
                                       i1l2418 024C                                         i1l2370 0300  
                                       i1l2514 04C6                                         i1l2362 0173  
                                       i1l2354 0162                                         i1l2346 0153  
                                       i1l2338 014B                                         i1l2522 04BE  
                                       i1l2290 018A                                         i1l2196 0386  
                                       i1l2460 0100                                         i1l2452 00E4  
                                       i1l2444 00D0                                         i1l2428 0264  
                                       i1l2380 0319                                         i1l2372 0309  
                                       i1l2516 04CD                                         i1l2364 0175  
                                       i1l2356 0165                                         i1l2348 0154  
                                       i1l2524 04C3                                         i1l2620 04FF  
                                       i1l2700 0418                                         i1l2284 017F  
                                       i1l2702 0483                                         i1l2198 0392  
                                       i1l2470 0116                                         i1l2462 0106  
                                       i1l2454 00EE                                         i1l2446 00D4  
                                       i1l2382 031F                                         i1l2374 030A  
                                       i1l2518 04D2                                         i1l2366 0178  
                                       i1l2358 016B                                         i1l2622 0506  
                                       i1l2286 0180                                         i1l2710 0435  
                                       i1l2704 0485                                         i1l2472 0119  
                                       i1l2464 010A                                         i1l2456 00FA  
                                       i1l2448 00DA                                         i1l2384 0322  
                                       i1l2376 030F                                         i1l2368 017B  
                                       i1l2288 0186                                         i1l2624 04F2  
                                       i1l2712 0442                                         u122_20 0044  
                                       u114_20 0015                                         i1l2800 0006  
                                       u122_21 0043                                         u114_21 0014  
                                       i1l2706 048A                                         i1l2474 011C  
                                       i1l2466 0110                                         i1l2458 00FB  
                                       i1l2386 0325                                         i1l2378 0315  
                                       i1l2298 0192                                         i1l2626 04F9  
                                       i1l2714 0445                                         i1l2810 0019  
                                       i1l2802 000A                                         i1l2476 0122  
                                       i1l2468 0113                                         i1l2388 0329  
                                       i1l2708 0433                                         i1l2820 002D  
                                       i1l2812 001C                                         i1l2804 000E  
                                       i1l2478 0127                                         i1l2662 0592  
                                       i1l2670 04A6                                         i1l2830 0044  
                                       i1l2822 0032                                         i1l2814 0020  
                                       i1l2806 0011                                         i1l2664 0594  
                                       i1l2672 04AB                                         u123_20 004C  
                                       i1l2832 0047                                         i1l2824 0037  
                                       i1l2816 0025                                         u115_20 0019  
                                       i1l2808 0015                                         u123_21 004B  
                                       u115_21 0018                                         i1l2666 0598  
                                       i1l2674 04AE                                         i1l2834 004C  
                                       i1l2826 003A                                         i1l2818 002A  
                                       i1l2668 059A                                         i1l2676 04B3  
                                       i1l2836 0051                                         i1l2828 003F  
                                       i1l2694 0404                                         i1l2696 0405  
                                       u124_20 0051                                         u116_20 0020  
                                       u124_21 0050                                         u116_21 001F  
                                       i1l2698 0415                                         i1l2874 01AE  
                                       u117_20 0025                                         u117_21 0024  
                                       u118_20 002A                                         u118_21 0029  
                                       u119_20 0032                                         u119_21 0031  
                                  initMatrix@i 0041                                    initMatrix@j 0042  
                                  initMatrix@k 0040                        TMR4_WriteTimer@timerVal 0070  
                                       _FVRCON 0117                                         _OSCCON 0099  
                                    ??i1_txSpi 0077                                         _SPBRGH 019C  
                                       _SPBRGL 019B                                         _WDTCON 0097  
                              _TMR4_StartTimer 05B2                              __end_of_SPI1_Open 00D0  
                                 _CCPTMRS0bits 029E                                  ?_matrixUpdate 0070  
                             ?_TMR0_Initialize 0070                        __end_of_TMR4_Initialize 045D  
                                _CCP4_CallBack 0045           __end_of_TMR4_DefaultInterruptHandler 05BA  
                 _TMR4_DefaultInterruptHandler 05B9                                _TMR4_WriteTimer 059E  
                                 __pdataCOMMON 007B                                ?_WDT_Initialize 0070  
                     i1SPI1_ExchangeBlock@data 0074                                      ?_CMP1_ISR 0070  
                        __end_of_TMR0_CallBack 050C                                      ?_CMP2_ISR 0070  
     TMR4_SetInterruptHandler@InterruptHandler 0032       TMR0_SetInterruptHandler@InterruptHandler 0032  
   IOCBF3_SetInterruptHandler@InterruptHandler 0032     IOCBF0_SetInterruptHandler@InterruptHandler 0032  
                             ?_PIN_MANAGER_IOC 0070                                   ??_IOCBF0_ISR 007B  
                                 ??_IOCBF3_ISR 007B                               ?_PWM3_Initialize 0070  
                             ?_TMR1_Initialize 0070                              _SYSTEM_Initialize 02D2  
                      __end_of__initialization 0071                               ?_CCP4_Initialize 0070  
                              _CMP1_Initialize 0524                             ?_SYSTEM_Initialize 0070  
                     __end_of_CCP4_SetCallBack 0592                                    i1txSpi@data 0077  
                               __pcstackCOMMON 0070                          __end_of_TMR4_CallBack 04FF  
                                 __pidataBANK0 05B7                            ??_SYSTEM_Initialize 0034  
                                    ?_TMR0_ISR 0070                                i1txSpi@dataSize 0075  
                               ??_matrixUpdate 003A                                      ?_TMR4_ISR 0070  
                            ??_SPI1_Initialize 0032         __end_of_IOCBF0_DefaultInterruptHandler 05BD  
               _IOCBF0_DefaultInterruptHandler 05BC                                  __end_of_txSpi 04A6  
                             ?_TMR2_Initialize 0070                             __end_of_IOCBF0_ISR 04D5  
                           __end_of_IOCBF3_ISR 04C6                                _CMP2_Initialize 0518  
                           _spi1_configuration 05A3                                 _OPTION_REGbits 0095  
                        TMR0_ISR@CountCallBack 002A                  ?_TMR4_DefaultInterruptHandler 0070  
              ??_EUSART_SetOverrunErrorHandler 0034         __end_of_IOCBF3_DefaultInterruptHandler 05BC  
               _IOCBF3_DefaultInterruptHandler 05BB                                     ??_CMP1_ISR 007B  
                                   ??_CMP2_ISR 007B                                   ?i1_chegadaS1 0070  
                      __end_of_TMR4_StartTimer 05B5                      __end_of_SYSTEM_Initialize 0300  
                                      ??_txSpi 0039                                     __pbssBANK0 0020  
                        _TMR4_InterruptHandler 0043                               ??_FVR_Initialize 0032  
                                   __pmaintext 032D               __end_of_TMR0_SetInterruptHandler 056E  
                                   ??_TMR0_ISR 0070                                     ??_TMR4_ISR 0076  
                                   __pintentry 0004                        __end_of_TMR4_WriteTimer 05A3  
                                      _CM1CON0 0111                                        _CM1CON1 0112  
                                      _CM2CON0 0113                                        _CM2CON1 0114  
                                      _CCP3CON 0313                                        _CCP4CON 031A  
                                      _BAUDCON 019F                               ?_TMR4_Initialize 0070  
                                      _APFCON0 011D                                        _APFCON1 011E  
                                   _destinoSub 007C                                        _OSCTUNE 0098  
                                      _SSP1ADD 0212                                        _SSP1BUF 0211  
                      __end_of_CMP1_Initialize 0530                       ??_EUSART_SetErrorHandler 0034  
                            __end_of_chegadaS1 02A1                              __end_of_chegadaS2 017F  
                            __end_of_chegadaS3 012A                              __end_of_chegadaS4 0270  
                                      i1_txSpi 04D5                           _ADC_InterruptHandler 002E  
                                   _initMatrix 01D2                        __end_of_CMP2_Initialize 0524  
                                      __ptext1 01D2                                        __ptext2 0270  
                                      __ptext3 03CE                                        __ptext4 0495  
                                      __ptext5 0359                                        __ptext6 02D2  
                                      __ptext7 05A7                                        __ptext8 0449  
                                      __ptext9 0562                                      _T1CONbits 0018  
                        _OSCILLATOR_Initialize 0555                                      _T2CONbits 001C  
                                    _CMOUTbits 0115                                      _T4CONbits 0417  
                     ??_PIN_MANAGER_Initialize 0034                                      _IOCBFbits 0396  
                    ?_TMR4_SetInterruptHandler 0032                                      _IOCBNbits 0395  
                                    _IOCBPbits 0394                                        _subindo 0054  
                                      clrloop0 055D                               ?_TMR4_StartTimer 0070  
                         end_of_initialization 0071                           __end_of_matrixUpdate 03EA  
                               initMatrix@data 003B                 ??_TMR4_DefaultInterruptHandler 0070  
        __end_of_EUSART_SetOverrunErrorHandler 0580                  _EUSART_SetOverrunErrorHandler 057A  
                            _EUSART_Initialize 03A9                             ?_EUSART_Initialize 0070  
                                    _RCSTAbits 019D                                      _SPI1_Open 0075  
                             ?_TMR4_WriteTimer 0070                            ??_EUSART_Initialize 0034  
                             ??_WDT_Initialize 0032                       _TMR0_SetInterruptHandler 0568  
                                    _TRISBbits 008D                   ??_IOCBF0_SetInterruptHandler 0034  
                 ??_IOCBF3_SetInterruptHandler 0034                               ?_CMP1_Initialize 0070  
                       SPI1_ExchangeBlock@data 0036                      __end_of_EUSART_Initialize 03CE  
                              _SPI1_Initialize 0530                                      _TXSTAbits 019E  
            CCP4_DefaultCallBack@capturedValue 0070                     __end_of_PWM3_LoadDutyValue 0433  
                            ?_CCP4_SetCallBack 0032                                    ?_initMatrix 0070  
                             ?_CMP2_Initialize 0070                                     ?_SPI1_Open 0070  
                           ??_CCP4_SetCallBack 0034                     _EUSART_DefaultErrorHandler 0000  
                                __pidataCOMMON 05B5                                 _ADC_Initialize 054D  
                       ?_OSCILLATOR_Initialize 0070                            start_initialization 0058  
                 __end_ofi1_SPI1_ExchangeBlock 03A9                                      _MatrixLed 0020  
               ?_EUSART_SetOverrunErrorHandler 0032                                 _TMR4_StopTimer 05AF  
                   _EUSART_FramingErrorHandler 004D                         _EUSART_SetErrorHandler 0586  
                       __end_of_ADC_Initialize 0555                                    __pdataBANK0 0053  
                        CCP4_CaptureISR@module 0072                          TMR4_ISR@CountCallBack 0028  
                                  __pbssCOMMON 007D                                      ___latbits 0001  
                                __pcstackBANK0 0032                        __end_of_SPI1_Initialize 053B  
                                     ?i1_txSpi 0075                                      _chegadaS1 0270  
                                    _chegadaS2 012A                                      _chegadaS3 00D0  
                                    _chegadaS4 0221                          _TMR0_InterruptHandler 0047  
                                    __pnvBANK0 0043                         __end_of_TMR4_StopTimer 05B2  
                      _IOCBF3_InterruptHandler 004F                         _PIN_MANAGER_Initialize 02A1  
             __end_of_TMR4_SetInterruptHandler 0568                              ??_CCP4_CaptureISR 0072  
                                  ??_SPI1_Open 0032                                ?_ADC_Initialize 0070  
                            _controleMovimento 017F                                   _matrixUpdate 03CE  
                 ??_INTERRUPT_InterruptManager 007B                             ?_controleMovimento 0070  
           __end_of_IOCBF0_SetInterruptHandler 057A                     _IOCBF0_SetInterruptHandler 0574  
           __end_of_IOCBF3_SetInterruptHandler 0574                     _IOCBF3_SetInterruptHandler 056E  
                          ??_controleMovimento 0074                                       _CMP1_ISR 0598  
                                     _CMP2_ISR 0592                                  _TMR0_CallBack 04FF  
                   __end_of_SPI1_ExchangeBlock 0382                              ??_TMR0_Initialize 0034  
                                  _destinoDesc 0053                                       _LATAbits 010C  
       EUSART_SetErrorHandler@interruptHandler 0032                                       _LATBbits 010D  
                                   ?_chegadaS1 0070                                     ?_chegadaS2 0070  
                                   ?_chegadaS3 0070                                     ?_chegadaS4 0070  
                          __end_of_matrix_conf 0518                                      clear_ram0 055C  
                 __end_of_CCP4_DefaultCallBack 05BE                                       _PIE2bits 0092  
                                     _PIE3bits 0093                              _eusartRxLastError 0031  
                              ?_TMR4_StopTimer 0070                     ??_TMR0_SetInterruptHandler 0034  
                                     _PIR1bits 0011                ??_EUSART_SetFramingErrorHandler 0034  
                                     _PIR2bits 0012                                       _PIR3bits 0013  
                    __end_of_controleMovimento 01D2                                       _SSP1CON1 0215  
                                     _SSP1CON2 0216                           i1_SPI1_ExchangeBlock 0382  
                                     _TMR0_ISR 0404              _EUSART_DefaultOverrunErrorHandler 0000  
                                     _TMR4_ISR 0433                                  _TMR4_CallBack 04F2  
                                     _SSP1STAT 0214                              ??_PIN_MANAGER_IOC 007B  
                            ??_PWM3_Initialize 0032                              ??_TMR1_Initialize 0032  
                                   _ADCON0bits 009D                                 i1_matrixUpdate 03EA  
                            ??_CCP4_Initialize 0034                                 ?_TMR0_CallBack 0070  
                             initMatrix@i_1489 003F                               ?_SPI1_Initialize 0070  
                            ??_TMR2_Initialize 0032                                   ??_initMatrix 003A  
                        ?i1_SPI1_ExchangeBlock 0070                                 ?_TMR4_CallBack 0070  
                      ??_OSCILLATOR_Initialize 0032                            _EUSART_ErrorHandler 0049  
                       __end_ofi1_matrixUpdate 0404                       _TMR4_SetInterruptHandler 0562  
                           _PWM3_LoadDutyValue 041C                                  ??i1_chegadaS1 007B  
                                     __ptext10 0545                                       __ptext11 04E4  
                                     __ptext20 05AB                                       __ptext12 045D  
                                     __ptext21 03A9                                       __ptext13 0568  
                                   _T1GCONbits 0019                                       __ptext30 0075  
                                     __ptext22 057A                                       __ptext14 0530  
                                     __ptext23 0580                                       __ptext15 053B  
                                     __ptext40 04A6                                       __ptext32 0433  
                                     __ptext24 0586                                       __ptext16 02A1  
                                     __ptext41 04B7                                       __ptext33 04F2  
                                     __ptext25 0518                                       __ptext17 056E  
                                     __ptext50 00D0                                       __ptext42 05BB  
                                     __ptext34 05B9                                       __ptext26 0524  
                                     __ptext18 0574                                       __ptext51 03EA  
                                     __ptext43 012A                                       __ptext35 017F  
                                     __ptext27 0471                                       __ptext19 0555  
                                     __ptext52 04D5                                       __ptext44 04C6  
                                     __ptext36 05AF                                       __ptext28 058C  
                                     __ptext53 0382                                       __ptext45 05BC  
                                     __ptext37 0404                                       __ptext29 054D  
                                     __ptext54 059E                                       __ptext46 0300  
                                     __ptext38 04FF                                       __ptext55 05B2  
                                     __ptext47 0592                                       __ptext39 05BA  
                                     __ptext56 041C                                       __ptext48 0221  
                                     __ptext57 0483                                       __ptext49 0598  
                                     __ptext58 05BD                            ?_PWM3_LoadDutyValue 0070  
                                 _SSP1CON1bits 0215                          controleMovimento@cont 007D  
                                  _matrix_conf 050C                             __end_of_initMatrix 0221  
                                   _IOCBF0_ISR 04C6                                     _IOCBF3_ISR 04B7  
                            ??_TMR4_Initialize 0034                                    ??_chegadaS1 003D  
                                  ??_chegadaS2 007B                                    ??_chegadaS3 007B  
                                  ??_chegadaS4 007B           __end_of_TMR0_DefaultInterruptHandler 05BB  
                 _TMR0_DefaultInterruptHandler 05BA                        ?_EUSART_SetErrorHandler 0032  
                i1SPI1_ExchangeBlock@blockSize 0070  EUSART_SetOverrunErrorHandler@interruptHandler 0032  
                         ??_PWM3_LoadDutyValue 0072                                       int$flags 007E  
           __end_of_INTERRUPT_InterruptManager 0056                     _INTERRUPT_InterruptManager 0004  
                              ?i1_matrixUpdate 0070          __end_of_EUSART_SetFramingErrorHandler 0586  
                _EUSART_SetFramingErrorHandler 0580                                      txSpi@data 0039  
                  SPI1_ExchangeBlock@blockSize 0032                               matrixUpdate@data 003A  
                                   _INTCONbits 000B                           _CCP4_DefaultCallBack 05BD  
                              ??_TMR0_CallBack 0070                                     _FVRCONbits 0117  
                                     intlevel1 0000                                _CCP4_CaptureISR 0483  
                      ?_PIN_MANAGER_Initialize 0070                            __end_ofi1_chegadaS1 032D  
               __end_of_EUSART_SetErrorHandler 058C                               ??_ADC_Initialize 0032  
                              ??_TMR4_CallBack 0076                         ??i1_SPI1_ExchangeBlock 0072  
                ?_TMR0_DefaultInterruptHandler 0070  EUSART_SetFramingErrorHandler@interruptHandler 0032  
                  PWM3_LoadDutyValue@dutyValue 0070                              ??_TMR4_StartTimer 0070  
                                __pstringtext1 050C                                  __pstringtext2 05A3  
                               _FVR_Initialize 05AB                                     _OPTION_REG 0095  
                        ?_CCP4_DefaultCallBack 0070                                _TMR0_Initialize 045D  
                  ?_IOCBF0_SetInterruptHandler 0032                    ?_IOCBF3_SetInterruptHandler 0032  
                                  ?_IOCBF0_ISR 0070                                    ?_IOCBF3_ISR 0070  
               __end_of_PIN_MANAGER_Initialize 02D2                               ??_TMR4_StopTimer 0070  
                            ??_TMR4_WriteTimer 0070               ??_IOCBF0_DefaultInterruptHandler 0070  
              ?_IOCBF0_DefaultInterruptHandler 0070                                  matrixUpdate@i 003C  
                              _PIN_MANAGER_IOC 04A6                                _TMR1_Initialize 04E4  
                              _PWM3_Initialize 053B                     __end_of_spi1_configuration 05A7  
