

Microchip MPLAB XC8 Assembler V2.41 build 20230208172133 
                                                                                               Fri Jul 14 11:06:22 2023

Microchip MPLAB XC8 C Compiler v2.41 (Free license) build 20230208172133 Og1 
     1                           	processor	16F1827
     2                           	pagewidth 120
     3                           	opt	flic
     4                           	psect	idataCOMMON,global,class=CODE,delta=2,noexec
     5                           	psect	stringtext1,global,class=STRCODE,delta=2,noexec
     6                           	psect	stringtext2,global,class=STRCODE,delta=2,noexec
     7                           	psect	nvBANK0,global,class=BANK0,space=1,delta=1,noexec
     8                           	psect	cinit,global,class=CODE,merge=1,delta=2
     9                           	psect	bssCOMMON,global,class=COMMON,space=1,delta=1,noexec
    10                           	psect	dataCOMMON,global,class=COMMON,space=1,delta=1,noexec
    11                           	psect	bssBANK0,global,class=BANK0,space=1,delta=1,noexec
    12                           	psect	clrtext,global,class=CODE,delta=2
    13                           	psect	cstackCOMMON,global,class=COMMON,space=1,delta=1,noexec
    14                           	psect	cstackBANK0,global,class=BANK0,space=1,delta=1,noexec
    15                           	psect	maintext,global,class=CODE,merge=1,split=1,delta=2
    16                           	psect	text1,local,class=CODE,merge=1,delta=2
    17                           	psect	text2,local,class=CODE,merge=1,delta=2
    18                           	psect	text3,local,class=CODE,merge=1,delta=2
    19                           	psect	text4,local,class=CODE,merge=1,delta=2
    20                           	psect	text5,local,class=CODE,merge=1,delta=2
    21                           	psect	text6,local,class=CODE,merge=1,delta=2
    22                           	psect	text7,local,class=CODE,merge=1,delta=2
    23                           	psect	text8,local,class=CODE,merge=1,delta=2
    24                           	psect	text9,local,class=CODE,merge=1,delta=2
    25                           	psect	text10,local,class=CODE,merge=1,delta=2
    26                           	psect	text11,local,class=CODE,merge=1,delta=2
    27                           	psect	text12,local,class=CODE,merge=1,delta=2
    28                           	psect	text13,local,class=CODE,merge=1,delta=2
    29                           	psect	text14,local,class=CODE,merge=1,delta=2
    30                           	psect	text15,local,class=CODE,merge=1,delta=2
    31                           	psect	text16,local,class=CODE,merge=1,delta=2
    32                           	psect	text17,local,class=CODE,merge=1,delta=2
    33                           	psect	text18,local,class=CODE,merge=1,delta=2
    34                           	psect	text19,local,class=CODE,merge=1,delta=2
    35                           	psect	text20,local,class=CODE,merge=1,delta=2
    36                           	psect	text21,local,class=CODE,merge=1,delta=2
    37                           	psect	text22,local,class=CODE,merge=1,delta=2
    38                           	psect	text23,local,class=CODE,merge=1,delta=2
    39                           	psect	text24,local,class=CODE,merge=1,delta=2
    40                           	psect	text25,local,class=CODE,merge=1,delta=2
    41                           	psect	text26,local,class=CODE,merge=1,delta=2
    42                           	psect	text27,local,class=CODE,merge=1,delta=2
    43                           	psect	text28,local,class=CODE,merge=1,delta=2
    44                           	psect	intentry,global,class=CODE,delta=2
    45                           	psect	text30,local,class=CODE,merge=1,delta=2
    46                           	psect	text31,local,class=CODE,merge=1,delta=2
    47                           	psect	text32,local,class=CODE,merge=1,delta=2
    48                           	psect	text33,local,class=CODE,merge=1,delta=2
    49                           	psect	text34,local,class=CODE,merge=1,delta=2
    50                           	psect	text35,local,class=CODE,merge=1,delta=2
    51                           	psect	text36,local,class=CODE,merge=1,delta=2
    52                           	psect	text37,local,class=CODE,merge=1,delta=2
    53                           	psect	text38,local,class=CODE,merge=1,delta=2
    54                           	psect	text39,local,class=CODE,merge=1,delta=2
    55                           	psect	text40,local,class=CODE,merge=1,delta=2
    56                           	psect	text41,local,class=CODE,merge=1,delta=2
    57                           	psect	text42,local,class=CODE,merge=1,delta=2
    58                           	psect	text43,local,class=CODE,merge=1,delta=2
    59                           	psect	text44,local,class=CODE,merge=1,delta=2
    60                           	psect	text45,local,class=CODE,merge=1,delta=2
    61                           	psect	text46,local,class=CODE,merge=1,delta=2
    62                           	psect	text47,local,class=CODE,merge=1,delta=2
    63                           	psect	text48,local,class=CODE,merge=1,delta=2
    64                           	psect	text49,local,class=CODE,merge=1,delta=2
    65                           	psect	text50,local,class=CODE,merge=1,delta=2
    66                           	psect	idloc,global,abs,ovrld,class=IDLOC,space=5,delta=2,noexec
    67                           	psect	config,global,abs,ovrld,class=CONFIG,space=4,delta=2,noexec
    68                           	dabs	1,0x7E,2
    69     0000                     
    70                           ; Version 2.40
    71                           ; Generated 17/11/2021 GMT
    72                           ; 
    73                           ; Copyright © 2021, Microchip Technology Inc. and its subsidiaries ("Microchip")
    74                           ; All rights reserved.
    75                           ; 
    76                           ; This software is developed by Microchip Technology Inc. and its subsidiaries ("Microch
      +                          ip").
    77                           ; 
    78                           ; Redistribution and use in source and binary forms, with or without modification, are
    79                           ; permitted provided that the following conditions are met:
    80                           ; 
    81                           ;     1. Redistributions of source code must retain the above copyright notice, this lis
      +                          t of
    82                           ;        conditions and the following disclaimer.
    83                           ; 
    84                           ;     2. Redistributions in binary form must reproduce the above copyright notice, this 
      +                          list
    85                           ;        of conditions and the following disclaimer in the documentation and/or other
    86                           ;        materials provided with the distribution. Publication is not required when
    87                           ;        this file is used in an embedded application.
    88                           ; 
    89                           ;     3. Microchip's name may not be used to endorse or promote products derived from th
      +                          is
    90                           ;        software without specific prior written permission.
    91                           ; 
    92                           ; THIS SOFTWARE IS PROVIDED BY MICROCHIP "AS IS" AND ANY EXPRESS OR IMPLIED WARRANTIES,
    93                           ; INCLUDING, BUT NOT LIMITED TO, THE IMPLIED WARRANTIES OF MERCHANTABILITY AND FITNESS F
      +                          OR
    94                           ; PURPOSE ARE DISCLAIMED.  IN NO EVENT SHALL MICROCHIP BE LIABLE FOR ANY DIRECT, INDIREC
      +                          T,
    95                           ; INCIDENTAL, SPECIAL, EXEMPLARY, OR CONSEQUENTIAL DAMAGES (INCLUDING BUT NOT LIMITED TO
    96                           ; PROCUREMENT OF SUBSTITUTE GOODS OR SERVICES; LOSS OF USE, DATA OR PROFITS; OR BUSINESS
    97                           ; INTERRUPTION) HOWSOEVER CAUSED AND ON ANY THEORY OF LIABILITY, WHETHER IN CONTRACT, ST
      +                          RICT
    98                           ; LIABILITY, OR TORT (INCLUDING NEGLIGENCE OR OTHERWISE) ARISING IN ANY WAY OUT OF THE U
      +                          SE OF
    99                           ; THIS SOFTWARE, EVEN IF ADVISED OF THE POSSIBILITY OF SUCH DAMAGE.
   100                           ; 
   101                           ; 
   102                           ; Code-generator required, PIC16F1827 Definitions
   103                           ; 
   104                           ; SFR Addresses
   105     0000                     	;# 
   106     0001                     	;# 
   107     0002                     	;# 
   108     0003                     	;# 
   109     0004                     	;# 
   110     0005                     	;# 
   111     0006                     	;# 
   112     0007                     	;# 
   113     0008                     	;# 
   114     0009                     	;# 
   115     000A                     	;# 
   116     000B                     	;# 
   117     000C                     	;# 
   118     000D                     	;# 
   119     0011                     	;# 
   120     0012                     	;# 
   121     0013                     	;# 
   122     0014                     	;# 
   123     0015                     	;# 
   124     0016                     	;# 
   125     0016                     	;# 
   126     0017                     	;# 
   127     0018                     	;# 
   128     0019                     	;# 
   129     001A                     	;# 
   130     001B                     	;# 
   131     001C                     	;# 
   132     001E                     	;# 
   133     001F                     	;# 
   134     008C                     	;# 
   135     008D                     	;# 
   136     0091                     	;# 
   137     0092                     	;# 
   138     0093                     	;# 
   139     0094                     	;# 
   140     0095                     	;# 
   141     0096                     	;# 
   142     0097                     	;# 
   143     0098                     	;# 
   144     0099                     	;# 
   145     009A                     	;# 
   146     009B                     	;# 
   147     009B                     	;# 
   148     009C                     	;# 
   149     009D                     	;# 
   150     009E                     	;# 
   151     010C                     	;# 
   152     010D                     	;# 
   153     0111                     	;# 
   154     0112                     	;# 
   155     0113                     	;# 
   156     0114                     	;# 
   157     0115                     	;# 
   158     0116                     	;# 
   159     0117                     	;# 
   160     0118                     	;# 
   161     0119                     	;# 
   162     011A                     	;# 
   163     011B                     	;# 
   164     011D                     	;# 
   165     011E                     	;# 
   166     018C                     	;# 
   167     018D                     	;# 
   168     0191                     	;# 
   169     0191                     	;# 
   170     0192                     	;# 
   171     0193                     	;# 
   172     0193                     	;# 
   173     0193                     	;# 
   174     0194                     	;# 
   175     0195                     	;# 
   176     0196                     	;# 
   177     0199                     	;# 
   178     019A                     	;# 
   179     019B                     	;# 
   180     019B                     	;# 
   181     019B                     	;# 
   182     019B                     	;# 
   183     019C                     	;# 
   184     019C                     	;# 
   185     019D                     	;# 
   186     019E                     	;# 
   187     019F                     	;# 
   188     020C                     	;# 
   189     020D                     	;# 
   190     0211                     	;# 
   191     0211                     	;# 
   192     0212                     	;# 
   193     0212                     	;# 
   194     0213                     	;# 
   195     0213                     	;# 
   196     0214                     	;# 
   197     0214                     	;# 
   198     0215                     	;# 
   199     0215                     	;# 
   200     0215                     	;# 
   201     0216                     	;# 
   202     0216                     	;# 
   203     0217                     	;# 
   204     0217                     	;# 
   205     0219                     	;# 
   206     021A                     	;# 
   207     021B                     	;# 
   208     021C                     	;# 
   209     021D                     	;# 
   210     021E                     	;# 
   211     021F                     	;# 
   212     0291                     	;# 
   213     0291                     	;# 
   214     0292                     	;# 
   215     0293                     	;# 
   216     0294                     	;# 
   217     0295                     	;# 
   218     0295                     	;# 
   219     0296                     	;# 
   220     0298                     	;# 
   221     0298                     	;# 
   222     0299                     	;# 
   223     029A                     	;# 
   224     029B                     	;# 
   225     029C                     	;# 
   226     029C                     	;# 
   227     029D                     	;# 
   228     029E                     	;# 
   229     029E                     	;# 
   230     0311                     	;# 
   231     0311                     	;# 
   232     0312                     	;# 
   233     0313                     	;# 
   234     0318                     	;# 
   235     0318                     	;# 
   236     0319                     	;# 
   237     031A                     	;# 
   238     0394                     	;# 
   239     0395                     	;# 
   240     0396                     	;# 
   241     039A                     	;# 
   242     039C                     	;# 
   243     039D                     	;# 
   244     039E                     	;# 
   245     039F                     	;# 
   246     0415                     	;# 
   247     0416                     	;# 
   248     0417                     	;# 
   249     041C                     	;# 
   250     041D                     	;# 
   251     041E                     	;# 
   252     0FE4                     	;# 
   253     0FE5                     	;# 
   254     0FE6                     	;# 
   255     0FE7                     	;# 
   256     0FE8                     	;# 
   257     0FE9                     	;# 
   258     0FEA                     	;# 
   259     0FEB                     	;# 
   260     0FED                     	;# 
   261     0FEE                     	;# 
   262     0FEF                     	;# 
   263     0000                     	;# 
   264     0001                     	;# 
   265     0002                     	;# 
   266     0003                     	;# 
   267     0004                     	;# 
   268     0005                     	;# 
   269     0006                     	;# 
   270     0007                     	;# 
   271     0008                     	;# 
   272     0009                     	;# 
   273     000A                     	;# 
   274     000B                     	;# 
   275     000C                     	;# 
   276     000D                     	;# 
   277     0011                     	;# 
   278     0012                     	;# 
   279     0013                     	;# 
   280     0014                     	;# 
   281     0015                     	;# 
   282     0016                     	;# 
   283     0016                     	;# 
   284     0017                     	;# 
   285     0018                     	;# 
   286     0019                     	;# 
   287     001A                     	;# 
   288     001B                     	;# 
   289     001C                     	;# 
   290     001E                     	;# 
   291     001F                     	;# 
   292     008C                     	;# 
   293     008D                     	;# 
   294     0091                     	;# 
   295     0092                     	;# 
   296     0093                     	;# 
   297     0094                     	;# 
   298     0095                     	;# 
   299     0096                     	;# 
   300     0097                     	;# 
   301     0098                     	;# 
   302     0099                     	;# 
   303     009A                     	;# 
   304     009B                     	;# 
   305     009B                     	;# 
   306     009C                     	;# 
   307     009D                     	;# 
   308     009E                     	;# 
   309     010C                     	;# 
   310     010D                     	;# 
   311     0111                     	;# 
   312     0112                     	;# 
   313     0113                     	;# 
   314     0114                     	;# 
   315     0115                     	;# 
   316     0116                     	;# 
   317     0117                     	;# 
   318     0118                     	;# 
   319     0119                     	;# 
   320     011A                     	;# 
   321     011B                     	;# 
   322     011D                     	;# 
   323     011E                     	;# 
   324     018C                     	;# 
   325     018D                     	;# 
   326     0191                     	;# 
   327     0191                     	;# 
   328     0192                     	;# 
   329     0193                     	;# 
   330     0193                     	;# 
   331     0193                     	;# 
   332     0194                     	;# 
   333     0195                     	;# 
   334     0196                     	;# 
   335     0199                     	;# 
   336     019A                     	;# 
   337     019B                     	;# 
   338     019B                     	;# 
   339     019B                     	;# 
   340     019B                     	;# 
   341     019C                     	;# 
   342     019C                     	;# 
   343     019D                     	;# 
   344     019E                     	;# 
   345     019F                     	;# 
   346     020C                     	;# 
   347     020D                     	;# 
   348     0211                     	;# 
   349     0211                     	;# 
   350     0212                     	;# 
   351     0212                     	;# 
   352     0213                     	;# 
   353     0213                     	;# 
   354     0214                     	;# 
   355     0214                     	;# 
   356     0215                     	;# 
   357     0215                     	;# 
   358     0215                     	;# 
   359     0216                     	;# 
   360     0216                     	;# 
   361     0217                     	;# 
   362     0217                     	;# 
   363     0219                     	;# 
   364     021A                     	;# 
   365     021B                     	;# 
   366     021C                     	;# 
   367     021D                     	;# 
   368     021E                     	;# 
   369     021F                     	;# 
   370     0291                     	;# 
   371     0291                     	;# 
   372     0292                     	;# 
   373     0293                     	;# 
   374     0294                     	;# 
   375     0295                     	;# 
   376     0295                     	;# 
   377     0296                     	;# 
   378     0298                     	;# 
   379     0298                     	;# 
   380     0299                     	;# 
   381     029A                     	;# 
   382     029B                     	;# 
   383     029C                     	;# 
   384     029C                     	;# 
   385     029D                     	;# 
   386     029E                     	;# 
   387     029E                     	;# 
   388     0311                     	;# 
   389     0311                     	;# 
   390     0312                     	;# 
   391     0313                     	;# 
   392     0318                     	;# 
   393     0318                     	;# 
   394     0319                     	;# 
   395     031A                     	;# 
   396     0394                     	;# 
   397     0395                     	;# 
   398     0396                     	;# 
   399     039A                     	;# 
   400     039C                     	;# 
   401     039D                     	;# 
   402     039E                     	;# 
   403     039F                     	;# 
   404     0415                     	;# 
   405     0416                     	;# 
   406     0417                     	;# 
   407     041C                     	;# 
   408     041D                     	;# 
   409     041E                     	;# 
   410     0FE4                     	;# 
   411     0FE5                     	;# 
   412     0FE6                     	;# 
   413     0FE7                     	;# 
   414     0FE8                     	;# 
   415     0FE9                     	;# 
   416     0FEA                     	;# 
   417     0FEB                     	;# 
   418     0FED                     	;# 
   419     0FEE                     	;# 
   420     0FEF                     	;# 
   421     0000                     	;# 
   422     0001                     	;# 
   423     0002                     	;# 
   424     0003                     	;# 
   425     0004                     	;# 
   426     0005                     	;# 
   427     0006                     	;# 
   428     0007                     	;# 
   429     0008                     	;# 
   430     0009                     	;# 
   431     000A                     	;# 
   432     000B                     	;# 
   433     000C                     	;# 
   434     000D                     	;# 
   435     0011                     	;# 
   436     0012                     	;# 
   437     0013                     	;# 
   438     0014                     	;# 
   439     0015                     	;# 
   440     0016                     	;# 
   441     0016                     	;# 
   442     0017                     	;# 
   443     0018                     	;# 
   444     0019                     	;# 
   445     001A                     	;# 
   446     001B                     	;# 
   447     001C                     	;# 
   448     001E                     	;# 
   449     001F                     	;# 
   450     008C                     	;# 
   451     008D                     	;# 
   452     0091                     	;# 
   453     0092                     	;# 
   454     0093                     	;# 
   455     0094                     	;# 
   456     0095                     	;# 
   457     0096                     	;# 
   458     0097                     	;# 
   459     0098                     	;# 
   460     0099                     	;# 
   461     009A                     	;# 
   462     009B                     	;# 
   463     009B                     	;# 
   464     009C                     	;# 
   465     009D                     	;# 
   466     009E                     	;# 
   467     010C                     	;# 
   468     010D                     	;# 
   469     0111                     	;# 
   470     0112                     	;# 
   471     0113                     	;# 
   472     0114                     	;# 
   473     0115                     	;# 
   474     0116                     	;# 
   475     0117                     	;# 
   476     0118                     	;# 
   477     0119                     	;# 
   478     011A                     	;# 
   479     011B                     	;# 
   480     011D                     	;# 
   481     011E                     	;# 
   482     018C                     	;# 
   483     018D                     	;# 
   484     0191                     	;# 
   485     0191                     	;# 
   486     0192                     	;# 
   487     0193                     	;# 
   488     0193                     	;# 
   489     0193                     	;# 
   490     0194                     	;# 
   491     0195                     	;# 
   492     0196                     	;# 
   493     0199                     	;# 
   494     019A                     	;# 
   495     019B                     	;# 
   496     019B                     	;# 
   497     019B                     	;# 
   498     019B                     	;# 
   499     019C                     	;# 
   500     019C                     	;# 
   501     019D                     	;# 
   502     019E                     	;# 
   503     019F                     	;# 
   504     020C                     	;# 
   505     020D                     	;# 
   506     0211                     	;# 
   507     0211                     	;# 
   508     0212                     	;# 
   509     0212                     	;# 
   510     0213                     	;# 
   511     0213                     	;# 
   512     0214                     	;# 
   513     0214                     	;# 
   514     0215                     	;# 
   515     0215                     	;# 
   516     0215                     	;# 
   517     0216                     	;# 
   518     0216                     	;# 
   519     0217                     	;# 
   520     0217                     	;# 
   521     0219                     	;# 
   522     021A                     	;# 
   523     021B                     	;# 
   524     021C                     	;# 
   525     021D                     	;# 
   526     021E                     	;# 
   527     021F                     	;# 
   528     0291                     	;# 
   529     0291                     	;# 
   530     0292                     	;# 
   531     0293                     	;# 
   532     0294                     	;# 
   533     0295                     	;# 
   534     0295                     	;# 
   535     0296                     	;# 
   536     0298                     	;# 
   537     0298                     	;# 
   538     0299                     	;# 
   539     029A                     	;# 
   540     029B                     	;# 
   541     029C                     	;# 
   542     029C                     	;# 
   543     029D                     	;# 
   544     029E                     	;# 
   545     029E                     	;# 
   546     0311                     	;# 
   547     0311                     	;# 
   548     0312                     	;# 
   549     0313                     	;# 
   550     0318                     	;# 
   551     0318                     	;# 
   552     0319                     	;# 
   553     031A                     	;# 
   554     0394                     	;# 
   555     0395                     	;# 
   556     0396                     	;# 
   557     039A                     	;# 
   558     039C                     	;# 
   559     039D                     	;# 
   560     039E                     	;# 
   561     039F                     	;# 
   562     0415                     	;# 
   563     0416                     	;# 
   564     0417                     	;# 
   565     041C                     	;# 
   566     041D                     	;# 
   567     041E                     	;# 
   568     0FE4                     	;# 
   569     0FE5                     	;# 
   570     0FE6                     	;# 
   571     0FE7                     	;# 
   572     0FE8                     	;# 
   573     0FE9                     	;# 
   574     0FEA                     	;# 
   575     0FEB                     	;# 
   576     0FED                     	;# 
   577     0FEE                     	;# 
   578     0FEF                     	;# 
   579     0000                     	;# 
   580     0001                     	;# 
   581     0002                     	;# 
   582     0003                     	;# 
   583     0004                     	;# 
   584     0005                     	;# 
   585     0006                     	;# 
   586     0007                     	;# 
   587     0008                     	;# 
   588     0009                     	;# 
   589     000A                     	;# 
   590     000B                     	;# 
   591     000C                     	;# 
   592     000D                     	;# 
   593     0011                     	;# 
   594     0012                     	;# 
   595     0013                     	;# 
   596     0014                     	;# 
   597     0015                     	;# 
   598     0016                     	;# 
   599     0016                     	;# 
   600     0017                     	;# 
   601     0018                     	;# 
   602     0019                     	;# 
   603     001A                     	;# 
   604     001B                     	;# 
   605     001C                     	;# 
   606     001E                     	;# 
   607     001F                     	;# 
   608     008C                     	;# 
   609     008D                     	;# 
   610     0091                     	;# 
   611     0092                     	;# 
   612     0093                     	;# 
   613     0094                     	;# 
   614     0095                     	;# 
   615     0096                     	;# 
   616     0097                     	;# 
   617     0098                     	;# 
   618     0099                     	;# 
   619     009A                     	;# 
   620     009B                     	;# 
   621     009B                     	;# 
   622     009C                     	;# 
   623     009D                     	;# 
   624     009E                     	;# 
   625     010C                     	;# 
   626     010D                     	;# 
   627     0111                     	;# 
   628     0112                     	;# 
   629     0113                     	;# 
   630     0114                     	;# 
   631     0115                     	;# 
   632     0116                     	;# 
   633     0117                     	;# 
   634     0118                     	;# 
   635     0119                     	;# 
   636     011A                     	;# 
   637     011B                     	;# 
   638     011D                     	;# 
   639     011E                     	;# 
   640     018C                     	;# 
   641     018D                     	;# 
   642     0191                     	;# 
   643     0191                     	;# 
   644     0192                     	;# 
   645     0193                     	;# 
   646     0193                     	;# 
   647     0193                     	;# 
   648     0194                     	;# 
   649     0195                     	;# 
   650     0196                     	;# 
   651     0199                     	;# 
   652     019A                     	;# 
   653     019B                     	;# 
   654     019B                     	;# 
   655     019B                     	;# 
   656     019B                     	;# 
   657     019C                     	;# 
   658     019C                     	;# 
   659     019D                     	;# 
   660     019E                     	;# 
   661     019F                     	;# 
   662     020C                     	;# 
   663     020D                     	;# 
   664     0211                     	;# 
   665     0211                     	;# 
   666     0212                     	;# 
   667     0212                     	;# 
   668     0213                     	;# 
   669     0213                     	;# 
   670     0214                     	;# 
   671     0214                     	;# 
   672     0215                     	;# 
   673     0215                     	;# 
   674     0215                     	;# 
   675     0216                     	;# 
   676     0216                     	;# 
   677     0217                     	;# 
   678     0217                     	;# 
   679     0219                     	;# 
   680     021A                     	;# 
   681     021B                     	;# 
   682     021C                     	;# 
   683     021D                     	;# 
   684     021E                     	;# 
   685     021F                     	;# 
   686     0291                     	;# 
   687     0291                     	;# 
   688     0292                     	;# 
   689     0293                     	;# 
   690     0294                     	;# 
   691     0295                     	;# 
   692     0295                     	;# 
   693     0296                     	;# 
   694     0298                     	;# 
   695     0298                     	;# 
   696     0299                     	;# 
   697     029A                     	;# 
   698     029B                     	;# 
   699     029C                     	;# 
   700     029C                     	;# 
   701     029D                     	;# 
   702     029E                     	;# 
   703     029E                     	;# 
   704     0311                     	;# 
   705     0311                     	;# 
   706     0312                     	;# 
   707     0313                     	;# 
   708     0318                     	;# 
   709     0318                     	;# 
   710     0319                     	;# 
   711     031A                     	;# 
   712     0394                     	;# 
   713     0395                     	;# 
   714     0396                     	;# 
   715     039A                     	;# 
   716     039C                     	;# 
   717     039D                     	;# 
   718     039E                     	;# 
   719     039F                     	;# 
   720     0415                     	;# 
   721     0416                     	;# 
   722     0417                     	;# 
   723     041C                     	;# 
   724     041D                     	;# 
   725     041E                     	;# 
   726     0FE4                     	;# 
   727     0FE5                     	;# 
   728     0FE6                     	;# 
   729     0FE7                     	;# 
   730     0FE8                     	;# 
   731     0FE9                     	;# 
   732     0FEA                     	;# 
   733     0FEB                     	;# 
   734     0FED                     	;# 
   735     0FEE                     	;# 
   736     0FEF                     	;# 
   737     0000                     	;# 
   738     0001                     	;# 
   739     0002                     	;# 
   740     0003                     	;# 
   741     0004                     	;# 
   742     0005                     	;# 
   743     0006                     	;# 
   744     0007                     	;# 
   745     0008                     	;# 
   746     0009                     	;# 
   747     000A                     	;# 
   748     000B                     	;# 
   749     000C                     	;# 
   750     000D                     	;# 
   751     0011                     	;# 
   752     0012                     	;# 
   753     0013                     	;# 
   754     0014                     	;# 
   755     0015                     	;# 
   756     0016                     	;# 
   757     0016                     	;# 
   758     0017                     	;# 
   759     0018                     	;# 
   760     0019                     	;# 
   761     001A                     	;# 
   762     001B                     	;# 
   763     001C                     	;# 
   764     001E                     	;# 
   765     001F                     	;# 
   766     008C                     	;# 
   767     008D                     	;# 
   768     0091                     	;# 
   769     0092                     	;# 
   770     0093                     	;# 
   771     0094                     	;# 
   772     0095                     	;# 
   773     0096                     	;# 
   774     0097                     	;# 
   775     0098                     	;# 
   776     0099                     	;# 
   777     009A                     	;# 
   778     009B                     	;# 
   779     009B                     	;# 
   780     009C                     	;# 
   781     009D                     	;# 
   782     009E                     	;# 
   783     010C                     	;# 
   784     010D                     	;# 
   785     0111                     	;# 
   786     0112                     	;# 
   787     0113                     	;# 
   788     0114                     	;# 
   789     0115                     	;# 
   790     0116                     	;# 
   791     0117                     	;# 
   792     0118                     	;# 
   793     0119                     	;# 
   794     011A                     	;# 
   795     011B                     	;# 
   796     011D                     	;# 
   797     011E                     	;# 
   798     018C                     	;# 
   799     018D                     	;# 
   800     0191                     	;# 
   801     0191                     	;# 
   802     0192                     	;# 
   803     0193                     	;# 
   804     0193                     	;# 
   805     0193                     	;# 
   806     0194                     	;# 
   807     0195                     	;# 
   808     0196                     	;# 
   809     0199                     	;# 
   810     019A                     	;# 
   811     019B                     	;# 
   812     019B                     	;# 
   813     019B                     	;# 
   814     019B                     	;# 
   815     019C                     	;# 
   816     019C                     	;# 
   817     019D                     	;# 
   818     019E                     	;# 
   819     019F                     	;# 
   820     020C                     	;# 
   821     020D                     	;# 
   822     0211                     	;# 
   823     0211                     	;# 
   824     0212                     	;# 
   825     0212                     	;# 
   826     0213                     	;# 
   827     0213                     	;# 
   828     0214                     	;# 
   829     0214                     	;# 
   830     0215                     	;# 
   831     0215                     	;# 
   832     0215                     	;# 
   833     0216                     	;# 
   834     0216                     	;# 
   835     0217                     	;# 
   836     0217                     	;# 
   837     0219                     	;# 
   838     021A                     	;# 
   839     021B                     	;# 
   840     021C                     	;# 
   841     021D                     	;# 
   842     021E                     	;# 
   843     021F                     	;# 
   844     0291                     	;# 
   845     0291                     	;# 
   846     0292                     	;# 
   847     0293                     	;# 
   848     0294                     	;# 
   849     0295                     	;# 
   850     0295                     	;# 
   851     0296                     	;# 
   852     0298                     	;# 
   853     0298                     	;# 
   854     0299                     	;# 
   855     029A                     	;# 
   856     029B                     	;# 
   857     029C                     	;# 
   858     029C                     	;# 
   859     029D                     	;# 
   860     029E                     	;# 
   861     029E                     	;# 
   862     0311                     	;# 
   863     0311                     	;# 
   864     0312                     	;# 
   865     0313                     	;# 
   866     0318                     	;# 
   867     0318                     	;# 
   868     0319                     	;# 
   869     031A                     	;# 
   870     0394                     	;# 
   871     0395                     	;# 
   872     0396                     	;# 
   873     039A                     	;# 
   874     039C                     	;# 
   875     039D                     	;# 
   876     039E                     	;# 
   877     039F                     	;# 
   878     0415                     	;# 
   879     0416                     	;# 
   880     0417                     	;# 
   881     041C                     	;# 
   882     041D                     	;# 
   883     041E                     	;# 
   884     0FE4                     	;# 
   885     0FE5                     	;# 
   886     0FE6                     	;# 
   887     0FE7                     	;# 
   888     0FE8                     	;# 
   889     0FE9                     	;# 
   890     0FEA                     	;# 
   891     0FEB                     	;# 
   892     0FED                     	;# 
   893     0FEE                     	;# 
   894     0FEF                     	;# 
   895     0000                     	;# 
   896     0001                     	;# 
   897     0002                     	;# 
   898     0003                     	;# 
   899     0004                     	;# 
   900     0005                     	;# 
   901     0006                     	;# 
   902     0007                     	;# 
   903     0008                     	;# 
   904     0009                     	;# 
   905     000A                     	;# 
   906     000B                     	;# 
   907     000C                     	;# 
   908     000D                     	;# 
   909     0011                     	;# 
   910     0012                     	;# 
   911     0013                     	;# 
   912     0014                     	;# 
   913     0015                     	;# 
   914     0016                     	;# 
   915     0016                     	;# 
   916     0017                     	;# 
   917     0018                     	;# 
   918     0019                     	;# 
   919     001A                     	;# 
   920     001B                     	;# 
   921     001C                     	;# 
   922     001E                     	;# 
   923     001F                     	;# 
   924     008C                     	;# 
   925     008D                     	;# 
   926     0091                     	;# 
   927     0092                     	;# 
   928     0093                     	;# 
   929     0094                     	;# 
   930     0095                     	;# 
   931     0096                     	;# 
   932     0097                     	;# 
   933     0098                     	;# 
   934     0099                     	;# 
   935     009A                     	;# 
   936     009B                     	;# 
   937     009B                     	;# 
   938     009C                     	;# 
   939     009D                     	;# 
   940     009E                     	;# 
   941     010C                     	;# 
   942     010D                     	;# 
   943     0111                     	;# 
   944     0112                     	;# 
   945     0113                     	;# 
   946     0114                     	;# 
   947     0115                     	;# 
   948     0116                     	;# 
   949     0117                     	;# 
   950     0118                     	;# 
   951     0119                     	;# 
   952     011A                     	;# 
   953     011B                     	;# 
   954     011D                     	;# 
   955     011E                     	;# 
   956     018C                     	;# 
   957     018D                     	;# 
   958     0191                     	;# 
   959     0191                     	;# 
   960     0192                     	;# 
   961     0193                     	;# 
   962     0193                     	;# 
   963     0193                     	;# 
   964     0194                     	;# 
   965     0195                     	;# 
   966     0196                     	;# 
   967     0199                     	;# 
   968     019A                     	;# 
   969     019B                     	;# 
   970     019B                     	;# 
   971     019B                     	;# 
   972     019B                     	;# 
   973     019C                     	;# 
   974     019C                     	;# 
   975     019D                     	;# 
   976     019E                     	;# 
   977     019F                     	;# 
   978     020C                     	;# 
   979     020D                     	;# 
   980     0211                     	;# 
   981     0211                     	;# 
   982     0212                     	;# 
   983     0212                     	;# 
   984     0213                     	;# 
   985     0213                     	;# 
   986     0214                     	;# 
   987     0214                     	;# 
   988     0215                     	;# 
   989     0215                     	;# 
   990     0215                     	;# 
   991     0216                     	;# 
   992     0216                     	;# 
   993     0217                     	;# 
   994     0217                     	;# 
   995     0219                     	;# 
   996     021A                     	;# 
   997     021B                     	;# 
   998     021C                     	;# 
   999     021D                     	;# 
  1000     021E                     	;# 
  1001     021F                     	;# 
  1002     0291                     	;# 
  1003     0291                     	;# 
  1004     0292                     	;# 
  1005     0293                     	;# 
  1006     0294                     	;# 
  1007     0295                     	;# 
  1008     0295                     	;# 
  1009     0296                     	;# 
  1010     0298                     	;# 
  1011     0298                     	;# 
  1012     0299                     	;# 
  1013     029A                     	;# 
  1014     029B                     	;# 
  1015     029C                     	;# 
  1016     029C                     	;# 
  1017     029D                     	;# 
  1018     029E                     	;# 
  1019     029E                     	;# 
  1020     0311                     	;# 
  1021     0311                     	;# 
  1022     0312                     	;# 
  1023     0313                     	;# 
  1024     0318                     	;# 
  1025     0318                     	;# 
  1026     0319                     	;# 
  1027     031A                     	;# 
  1028     0394                     	;# 
  1029     0395                     	;# 
  1030     0396                     	;# 
  1031     039A                     	;# 
  1032     039C                     	;# 
  1033     039D                     	;# 
  1034     039E                     	;# 
  1035     039F                     	;# 
  1036     0415                     	;# 
  1037     0416                     	;# 
  1038     0417                     	;# 
  1039     041C                     	;# 
  1040     041D                     	;# 
  1041     041E                     	;# 
  1042     0FE4                     	;# 
  1043     0FE5                     	;# 
  1044     0FE6                     	;# 
  1045     0FE7                     	;# 
  1046     0FE8                     	;# 
  1047     0FE9                     	;# 
  1048     0FEA                     	;# 
  1049     0FEB                     	;# 
  1050     0FED                     	;# 
  1051     0FEE                     	;# 
  1052     0FEF                     	;# 
  1053     0000                     	;# 
  1054     0001                     	;# 
  1055     0002                     	;# 
  1056     0003                     	;# 
  1057     0004                     	;# 
  1058     0005                     	;# 
  1059     0006                     	;# 
  1060     0007                     	;# 
  1061     0008                     	;# 
  1062     0009                     	;# 
  1063     000A                     	;# 
  1064     000B                     	;# 
  1065     000C                     	;# 
  1066     000D                     	;# 
  1067     0011                     	;# 
  1068     0012                     	;# 
  1069     0013                     	;# 
  1070     0014                     	;# 
  1071     0015                     	;# 
  1072     0016                     	;# 
  1073     0016                     	;# 
  1074     0017                     	;# 
  1075     0018                     	;# 
  1076     0019                     	;# 
  1077     001A                     	;# 
  1078     001B                     	;# 
  1079     001C                     	;# 
  1080     001E                     	;# 
  1081     001F                     	;# 
  1082     008C                     	;# 
  1083     008D                     	;# 
  1084     0091                     	;# 
  1085     0092                     	;# 
  1086     0093                     	;# 
  1087     0094                     	;# 
  1088     0095                     	;# 
  1089     0096                     	;# 
  1090     0097                     	;# 
  1091     0098                     	;# 
  1092     0099                     	;# 
  1093     009A                     	;# 
  1094     009B                     	;# 
  1095     009B                     	;# 
  1096     009C                     	;# 
  1097     009D                     	;# 
  1098     009E                     	;# 
  1099     010C                     	;# 
  1100     010D                     	;# 
  1101     0111                     	;# 
  1102     0112                     	;# 
  1103     0113                     	;# 
  1104     0114                     	;# 
  1105     0115                     	;# 
  1106     0116                     	;# 
  1107     0117                     	;# 
  1108     0118                     	;# 
  1109     0119                     	;# 
  1110     011A                     	;# 
  1111     011B                     	;# 
  1112     011D                     	;# 
  1113     011E                     	;# 
  1114     018C                     	;# 
  1115     018D                     	;# 
  1116     0191                     	;# 
  1117     0191                     	;# 
  1118     0192                     	;# 
  1119     0193                     	;# 
  1120     0193                     	;# 
  1121     0193                     	;# 
  1122     0194                     	;# 
  1123     0195                     	;# 
  1124     0196                     	;# 
  1125     0199                     	;# 
  1126     019A                     	;# 
  1127     019B                     	;# 
  1128     019B                     	;# 
  1129     019B                     	;# 
  1130     019B                     	;# 
  1131     019C                     	;# 
  1132     019C                     	;# 
  1133     019D                     	;# 
  1134     019E                     	;# 
  1135     019F                     	;# 
  1136     020C                     	;# 
  1137     020D                     	;# 
  1138     0211                     	;# 
  1139     0211                     	;# 
  1140     0212                     	;# 
  1141     0212                     	;# 
  1142     0213                     	;# 
  1143     0213                     	;# 
  1144     0214                     	;# 
  1145     0214                     	;# 
  1146     0215                     	;# 
  1147     0215                     	;# 
  1148     0215                     	;# 
  1149     0216                     	;# 
  1150     0216                     	;# 
  1151     0217                     	;# 
  1152     0217                     	;# 
  1153     0219                     	;# 
  1154     021A                     	;# 
  1155     021B                     	;# 
  1156     021C                     	;# 
  1157     021D                     	;# 
  1158     021E                     	;# 
  1159     021F                     	;# 
  1160     0291                     	;# 
  1161     0291                     	;# 
  1162     0292                     	;# 
  1163     0293                     	;# 
  1164     0294                     	;# 
  1165     0295                     	;# 
  1166     0295                     	;# 
  1167     0296                     	;# 
  1168     0298                     	;# 
  1169     0298                     	;# 
  1170     0299                     	;# 
  1171     029A                     	;# 
  1172     029B                     	;# 
  1173     029C                     	;# 
  1174     029C                     	;# 
  1175     029D                     	;# 
  1176     029E                     	;# 
  1177     029E                     	;# 
  1178     0311                     	;# 
  1179     0311                     	;# 
  1180     0312                     	;# 
  1181     0313                     	;# 
  1182     0318                     	;# 
  1183     0318                     	;# 
  1184     0319                     	;# 
  1185     031A                     	;# 
  1186     0394                     	;# 
  1187     0395                     	;# 
  1188     0396                     	;# 
  1189     039A                     	;# 
  1190     039C                     	;# 
  1191     039D                     	;# 
  1192     039E                     	;# 
  1193     039F                     	;# 
  1194     0415                     	;# 
  1195     0416                     	;# 
  1196     0417                     	;# 
  1197     041C                     	;# 
  1198     041D                     	;# 
  1199     041E                     	;# 
  1200     0FE4                     	;# 
  1201     0FE5                     	;# 
  1202     0FE6                     	;# 
  1203     0FE7                     	;# 
  1204     0FE8                     	;# 
  1205     0FE9                     	;# 
  1206     0FEA                     	;# 
  1207     0FEB                     	;# 
  1208     0FED                     	;# 
  1209     0FEE                     	;# 
  1210     0FEF                     	;# 
  1211     0000                     	;# 
  1212     0001                     	;# 
  1213     0002                     	;# 
  1214     0003                     	;# 
  1215     0004                     	;# 
  1216     0005                     	;# 
  1217     0006                     	;# 
  1218     0007                     	;# 
  1219     0008                     	;# 
  1220     0009                     	;# 
  1221     000A                     	;# 
  1222     000B                     	;# 
  1223     000C                     	;# 
  1224     000D                     	;# 
  1225     0011                     	;# 
  1226     0012                     	;# 
  1227     0013                     	;# 
  1228     0014                     	;# 
  1229     0015                     	;# 
  1230     0016                     	;# 
  1231     0016                     	;# 
  1232     0017                     	;# 
  1233     0018                     	;# 
  1234     0019                     	;# 
  1235     001A                     	;# 
  1236     001B                     	;# 
  1237     001C                     	;# 
  1238     001E                     	;# 
  1239     001F                     	;# 
  1240     008C                     	;# 
  1241     008D                     	;# 
  1242     0091                     	;# 
  1243     0092                     	;# 
  1244     0093                     	;# 
  1245     0094                     	;# 
  1246     0095                     	;# 
  1247     0096                     	;# 
  1248     0097                     	;# 
  1249     0098                     	;# 
  1250     0099                     	;# 
  1251     009A                     	;# 
  1252     009B                     	;# 
  1253     009B                     	;# 
  1254     009C                     	;# 
  1255     009D                     	;# 
  1256     009E                     	;# 
  1257     010C                     	;# 
  1258     010D                     	;# 
  1259     0111                     	;# 
  1260     0112                     	;# 
  1261     0113                     	;# 
  1262     0114                     	;# 
  1263     0115                     	;# 
  1264     0116                     	;# 
  1265     0117                     	;# 
  1266     0118                     	;# 
  1267     0119                     	;# 
  1268     011A                     	;# 
  1269     011B                     	;# 
  1270     011D                     	;# 
  1271     011E                     	;# 
  1272     018C                     	;# 
  1273     018D                     	;# 
  1274     0191                     	;# 
  1275     0191                     	;# 
  1276     0192                     	;# 
  1277     0193                     	;# 
  1278     0193                     	;# 
  1279     0193                     	;# 
  1280     0194                     	;# 
  1281     0195                     	;# 
  1282     0196                     	;# 
  1283     0199                     	;# 
  1284     019A                     	;# 
  1285     019B                     	;# 
  1286     019B                     	;# 
  1287     019B                     	;# 
  1288     019B                     	;# 
  1289     019C                     	;# 
  1290     019C                     	;# 
  1291     019D                     	;# 
  1292     019E                     	;# 
  1293     019F                     	;# 
  1294     020C                     	;# 
  1295     020D                     	;# 
  1296     0211                     	;# 
  1297     0211                     	;# 
  1298     0212                     	;# 
  1299     0212                     	;# 
  1300     0213                     	;# 
  1301     0213                     	;# 
  1302     0214                     	;# 
  1303     0214                     	;# 
  1304     0215                     	;# 
  1305     0215                     	;# 
  1306     0215                     	;# 
  1307     0216                     	;# 
  1308     0216                     	;# 
  1309     0217                     	;# 
  1310     0217                     	;# 
  1311     0219                     	;# 
  1312     021A                     	;# 
  1313     021B                     	;# 
  1314     021C                     	;# 
  1315     021D                     	;# 
  1316     021E                     	;# 
  1317     021F                     	;# 
  1318     0291                     	;# 
  1319     0291                     	;# 
  1320     0292                     	;# 
  1321     0293                     	;# 
  1322     0294                     	;# 
  1323     0295                     	;# 
  1324     0295                     	;# 
  1325     0296                     	;# 
  1326     0298                     	;# 
  1327     0298                     	;# 
  1328     0299                     	;# 
  1329     029A                     	;# 
  1330     029B                     	;# 
  1331     029C                     	;# 
  1332     029C                     	;# 
  1333     029D                     	;# 
  1334     029E                     	;# 
  1335     029E                     	;# 
  1336     0311                     	;# 
  1337     0311                     	;# 
  1338     0312                     	;# 
  1339     0313                     	;# 
  1340     0318                     	;# 
  1341     0318                     	;# 
  1342     0319                     	;# 
  1343     031A                     	;# 
  1344     0394                     	;# 
  1345     0395                     	;# 
  1346     0396                     	;# 
  1347     039A                     	;# 
  1348     039C                     	;# 
  1349     039D                     	;# 
  1350     039E                     	;# 
  1351     039F                     	;# 
  1352     0415                     	;# 
  1353     0416                     	;# 
  1354     0417                     	;# 
  1355     041C                     	;# 
  1356     041D                     	;# 
  1357     041E                     	;# 
  1358     0FE4                     	;# 
  1359     0FE5                     	;# 
  1360     0FE6                     	;# 
  1361     0FE7                     	;# 
  1362     0FE8                     	;# 
  1363     0FE9                     	;# 
  1364     0FEA                     	;# 
  1365     0FEB                     	;# 
  1366     0FED                     	;# 
  1367     0FEE                     	;# 
  1368     0FEF                     	;# 
  1369     0000                     	;# 
  1370     0001                     	;# 
  1371     0002                     	;# 
  1372     0003                     	;# 
  1373     0004                     	;# 
  1374     0005                     	;# 
  1375     0006                     	;# 
  1376     0007                     	;# 
  1377     0008                     	;# 
  1378     0009                     	;# 
  1379     000A                     	;# 
  1380     000B                     	;# 
  1381     000C                     	;# 
  1382     000D                     	;# 
  1383     0011                     	;# 
  1384     0012                     	;# 
  1385     0013                     	;# 
  1386     0014                     	;# 
  1387     0015                     	;# 
  1388     0016                     	;# 
  1389     0016                     	;# 
  1390     0017                     	;# 
  1391     0018                     	;# 
  1392     0019                     	;# 
  1393     001A                     	;# 
  1394     001B                     	;# 
  1395     001C                     	;# 
  1396     001E                     	;# 
  1397     001F                     	;# 
  1398     008C                     	;# 
  1399     008D                     	;# 
  1400     0091                     	;# 
  1401     0092                     	;# 
  1402     0093                     	;# 
  1403     0094                     	;# 
  1404     0095                     	;# 
  1405     0096                     	;# 
  1406     0097                     	;# 
  1407     0098                     	;# 
  1408     0099                     	;# 
  1409     009A                     	;# 
  1410     009B                     	;# 
  1411     009B                     	;# 
  1412     009C                     	;# 
  1413     009D                     	;# 
  1414     009E                     	;# 
  1415     010C                     	;# 
  1416     010D                     	;# 
  1417     0111                     	;# 
  1418     0112                     	;# 
  1419     0113                     	;# 
  1420     0114                     	;# 
  1421     0115                     	;# 
  1422     0116                     	;# 
  1423     0117                     	;# 
  1424     0118                     	;# 
  1425     0119                     	;# 
  1426     011A                     	;# 
  1427     011B                     	;# 
  1428     011D                     	;# 
  1429     011E                     	;# 
  1430     018C                     	;# 
  1431     018D                     	;# 
  1432     0191                     	;# 
  1433     0191                     	;# 
  1434     0192                     	;# 
  1435     0193                     	;# 
  1436     0193                     	;# 
  1437     0193                     	;# 
  1438     0194                     	;# 
  1439     0195                     	;# 
  1440     0196                     	;# 
  1441     0199                     	;# 
  1442     019A                     	;# 
  1443     019B                     	;# 
  1444     019B                     	;# 
  1445     019B                     	;# 
  1446     019B                     	;# 
  1447     019C                     	;# 
  1448     019C                     	;# 
  1449     019D                     	;# 
  1450     019E                     	;# 
  1451     019F                     	;# 
  1452     020C                     	;# 
  1453     020D                     	;# 
  1454     0211                     	;# 
  1455     0211                     	;# 
  1456     0212                     	;# 
  1457     0212                     	;# 
  1458     0213                     	;# 
  1459     0213                     	;# 
  1460     0214                     	;# 
  1461     0214                     	;# 
  1462     0215                     	;# 
  1463     0215                     	;# 
  1464     0215                     	;# 
  1465     0216                     	;# 
  1466     0216                     	;# 
  1467     0217                     	;# 
  1468     0217                     	;# 
  1469     0219                     	;# 
  1470     021A                     	;# 
  1471     021B                     	;# 
  1472     021C                     	;# 
  1473     021D                     	;# 
  1474     021E                     	;# 
  1475     021F                     	;# 
  1476     0291                     	;# 
  1477     0291                     	;# 
  1478     0292                     	;# 
  1479     0293                     	;# 
  1480     0294                     	;# 
  1481     0295                     	;# 
  1482     0295                     	;# 
  1483     0296                     	;# 
  1484     0298                     	;# 
  1485     0298                     	;# 
  1486     0299                     	;# 
  1487     029A                     	;# 
  1488     029B                     	;# 
  1489     029C                     	;# 
  1490     029C                     	;# 
  1491     029D                     	;# 
  1492     029E                     	;# 
  1493     029E                     	;# 
  1494     0311                     	;# 
  1495     0311                     	;# 
  1496     0312                     	;# 
  1497     0313                     	;# 
  1498     0318                     	;# 
  1499     0318                     	;# 
  1500     0319                     	;# 
  1501     031A                     	;# 
  1502     0394                     	;# 
  1503     0395                     	;# 
  1504     0396                     	;# 
  1505     039A                     	;# 
  1506     039C                     	;# 
  1507     039D                     	;# 
  1508     039E                     	;# 
  1509     039F                     	;# 
  1510     0415                     	;# 
  1511     0416                     	;# 
  1512     0417                     	;# 
  1513     041C                     	;# 
  1514     041D                     	;# 
  1515     041E                     	;# 
  1516     0FE4                     	;# 
  1517     0FE5                     	;# 
  1518     0FE6                     	;# 
  1519     0FE7                     	;# 
  1520     0FE8                     	;# 
  1521     0FE9                     	;# 
  1522     0FEA                     	;# 
  1523     0FEB                     	;# 
  1524     0FED                     	;# 
  1525     0FEE                     	;# 
  1526     0FEF                     	;# 
  1527     0000                     	;# 
  1528     0001                     	;# 
  1529     0002                     	;# 
  1530     0003                     	;# 
  1531     0004                     	;# 
  1532     0005                     	;# 
  1533     0006                     	;# 
  1534     0007                     	;# 
  1535     0008                     	;# 
  1536     0009                     	;# 
  1537     000A                     	;# 
  1538     000B                     	;# 
  1539     000C                     	;# 
  1540     000D                     	;# 
  1541     0011                     	;# 
  1542     0012                     	;# 
  1543     0013                     	;# 
  1544     0014                     	;# 
  1545     0015                     	;# 
  1546     0016                     	;# 
  1547     0016                     	;# 
  1548     0017                     	;# 
  1549     0018                     	;# 
  1550     0019                     	;# 
  1551     001A                     	;# 
  1552     001B                     	;# 
  1553     001C                     	;# 
  1554     001E                     	;# 
  1555     001F                     	;# 
  1556     008C                     	;# 
  1557     008D                     	;# 
  1558     0091                     	;# 
  1559     0092                     	;# 
  1560     0093                     	;# 
  1561     0094                     	;# 
  1562     0095                     	;# 
  1563     0096                     	;# 
  1564     0097                     	;# 
  1565     0098                     	;# 
  1566     0099                     	;# 
  1567     009A                     	;# 
  1568     009B                     	;# 
  1569     009B                     	;# 
  1570     009C                     	;# 
  1571     009D                     	;# 
  1572     009E                     	;# 
  1573     010C                     	;# 
  1574     010D                     	;# 
  1575     0111                     	;# 
  1576     0112                     	;# 
  1577     0113                     	;# 
  1578     0114                     	;# 
  1579     0115                     	;# 
  1580     0116                     	;# 
  1581     0117                     	;# 
  1582     0118                     	;# 
  1583     0119                     	;# 
  1584     011A                     	;# 
  1585     011B                     	;# 
  1586     011D                     	;# 
  1587     011E                     	;# 
  1588     018C                     	;# 
  1589     018D                     	;# 
  1590     0191                     	;# 
  1591     0191                     	;# 
  1592     0192                     	;# 
  1593     0193                     	;# 
  1594     0193                     	;# 
  1595     0193                     	;# 
  1596     0194                     	;# 
  1597     0195                     	;# 
  1598     0196                     	;# 
  1599     0199                     	;# 
  1600     019A                     	;# 
  1601     019B                     	;# 
  1602     019B                     	;# 
  1603     019B                     	;# 
  1604     019B                     	;# 
  1605     019C                     	;# 
  1606     019C                     	;# 
  1607     019D                     	;# 
  1608     019E                     	;# 
  1609     019F                     	;# 
  1610     020C                     	;# 
  1611     020D                     	;# 
  1612     0211                     	;# 
  1613     0211                     	;# 
  1614     0212                     	;# 
  1615     0212                     	;# 
  1616     0213                     	;# 
  1617     0213                     	;# 
  1618     0214                     	;# 
  1619     0214                     	;# 
  1620     0215                     	;# 
  1621     0215                     	;# 
  1622     0215                     	;# 
  1623     0216                     	;# 
  1624     0216                     	;# 
  1625     0217                     	;# 
  1626     0217                     	;# 
  1627     0219                     	;# 
  1628     021A                     	;# 
  1629     021B                     	;# 
  1630     021C                     	;# 
  1631     021D                     	;# 
  1632     021E                     	;# 
  1633     021F                     	;# 
  1634     0291                     	;# 
  1635     0291                     	;# 
  1636     0292                     	;# 
  1637     0293                     	;# 
  1638     0294                     	;# 
  1639     0295                     	;# 
  1640     0295                     	;# 
  1641     0296                     	;# 
  1642     0298                     	;# 
  1643     0298                     	;# 
  1644     0299                     	;# 
  1645     029A                     	;# 
  1646     029B                     	;# 
  1647     029C                     	;# 
  1648     029C                     	;# 
  1649     029D                     	;# 
  1650     029E                     	;# 
  1651     029E                     	;# 
  1652     0311                     	;# 
  1653     0311                     	;# 
  1654     0312                     	;# 
  1655     0313                     	;# 
  1656     0318                     	;# 
  1657     0318                     	;# 
  1658     0319                     	;# 
  1659     031A                     	;# 
  1660     0394                     	;# 
  1661     0395                     	;# 
  1662     0396                     	;# 
  1663     039A                     	;# 
  1664     039C                     	;# 
  1665     039D                     	;# 
  1666     039E                     	;# 
  1667     039F                     	;# 
  1668     0415                     	;# 
  1669     0416                     	;# 
  1670     0417                     	;# 
  1671     041C                     	;# 
  1672     041D                     	;# 
  1673     041E                     	;# 
  1674     0FE4                     	;# 
  1675     0FE5                     	;# 
  1676     0FE6                     	;# 
  1677     0FE7                     	;# 
  1678     0FE8                     	;# 
  1679     0FE9                     	;# 
  1680     0FEA                     	;# 
  1681     0FEB                     	;# 
  1682     0FED                     	;# 
  1683     0FEE                     	;# 
  1684     0FEF                     	;# 
  1685     0000                     	;# 
  1686     0001                     	;# 
  1687     0002                     	;# 
  1688     0003                     	;# 
  1689     0004                     	;# 
  1690     0005                     	;# 
  1691     0006                     	;# 
  1692     0007                     	;# 
  1693     0008                     	;# 
  1694     0009                     	;# 
  1695     000A                     	;# 
  1696     000B                     	;# 
  1697     000C                     	;# 
  1698     000D                     	;# 
  1699     0011                     	;# 
  1700     0012                     	;# 
  1701     0013                     	;# 
  1702     0014                     	;# 
  1703     0015                     	;# 
  1704     0016                     	;# 
  1705     0016                     	;# 
  1706     0017                     	;# 
  1707     0018                     	;# 
  1708     0019                     	;# 
  1709     001A                     	;# 
  1710     001B                     	;# 
  1711     001C                     	;# 
  1712     001E                     	;# 
  1713     001F                     	;# 
  1714     008C                     	;# 
  1715     008D                     	;# 
  1716     0091                     	;# 
  1717     0092                     	;# 
  1718     0093                     	;# 
  1719     0094                     	;# 
  1720     0095                     	;# 
  1721     0096                     	;# 
  1722     0097                     	;# 
  1723     0098                     	;# 
  1724     0099                     	;# 
  1725     009A                     	;# 
  1726     009B                     	;# 
  1727     009B                     	;# 
  1728     009C                     	;# 
  1729     009D                     	;# 
  1730     009E                     	;# 
  1731     010C                     	;# 
  1732     010D                     	;# 
  1733     0111                     	;# 
  1734     0112                     	;# 
  1735     0113                     	;# 
  1736     0114                     	;# 
  1737     0115                     	;# 
  1738     0116                     	;# 
  1739     0117                     	;# 
  1740     0118                     	;# 
  1741     0119                     	;# 
  1742     011A                     	;# 
  1743     011B                     	;# 
  1744     011D                     	;# 
  1745     011E                     	;# 
  1746     018C                     	;# 
  1747     018D                     	;# 
  1748     0191                     	;# 
  1749     0191                     	;# 
  1750     0192                     	;# 
  1751     0193                     	;# 
  1752     0193                     	;# 
  1753     0193                     	;# 
  1754     0194                     	;# 
  1755     0195                     	;# 
  1756     0196                     	;# 
  1757     0199                     	;# 
  1758     019A                     	;# 
  1759     019B                     	;# 
  1760     019B                     	;# 
  1761     019B                     	;# 
  1762     019B                     	;# 
  1763     019C                     	;# 
  1764     019C                     	;# 
  1765     019D                     	;# 
  1766     019E                     	;# 
  1767     019F                     	;# 
  1768     020C                     	;# 
  1769     020D                     	;# 
  1770     0211                     	;# 
  1771     0211                     	;# 
  1772     0212                     	;# 
  1773     0212                     	;# 
  1774     0213                     	;# 
  1775     0213                     	;# 
  1776     0214                     	;# 
  1777     0214                     	;# 
  1778     0215                     	;# 
  1779     0215                     	;# 
  1780     0215                     	;# 
  1781     0216                     	;# 
  1782     0216                     	;# 
  1783     0217                     	;# 
  1784     0217                     	;# 
  1785     0219                     	;# 
  1786     021A                     	;# 
  1787     021B                     	;# 
  1788     021C                     	;# 
  1789     021D                     	;# 
  1790     021E                     	;# 
  1791     021F                     	;# 
  1792     0291                     	;# 
  1793     0291                     	;# 
  1794     0292                     	;# 
  1795     0293                     	;# 
  1796     0294                     	;# 
  1797     0295                     	;# 
  1798     0295                     	;# 
  1799     0296                     	;# 
  1800     0298                     	;# 
  1801     0298                     	;# 
  1802     0299                     	;# 
  1803     029A                     	;# 
  1804     029B                     	;# 
  1805     029C                     	;# 
  1806     029C                     	;# 
  1807     029D                     	;# 
  1808     029E                     	;# 
  1809     029E                     	;# 
  1810     0311                     	;# 
  1811     0311                     	;# 
  1812     0312                     	;# 
  1813     0313                     	;# 
  1814     0318                     	;# 
  1815     0318                     	;# 
  1816     0319                     	;# 
  1817     031A                     	;# 
  1818     0394                     	;# 
  1819     0395                     	;# 
  1820     0396                     	;# 
  1821     039A                     	;# 
  1822     039C                     	;# 
  1823     039D                     	;# 
  1824     039E                     	;# 
  1825     039F                     	;# 
  1826     0415                     	;# 
  1827     0416                     	;# 
  1828     0417                     	;# 
  1829     041C                     	;# 
  1830     041D                     	;# 
  1831     041E                     	;# 
  1832     0FE4                     	;# 
  1833     0FE5                     	;# 
  1834     0FE6                     	;# 
  1835     0FE7                     	;# 
  1836     0FE8                     	;# 
  1837     0FE9                     	;# 
  1838     0FEA                     	;# 
  1839     0FEB                     	;# 
  1840     0FED                     	;# 
  1841     0FEE                     	;# 
  1842     0FEF                     	;# 
  1843     0000                     	;# 
  1844     0001                     	;# 
  1845     0002                     	;# 
  1846     0003                     	;# 
  1847     0004                     	;# 
  1848     0005                     	;# 
  1849     0006                     	;# 
  1850     0007                     	;# 
  1851     0008                     	;# 
  1852     0009                     	;# 
  1853     000A                     	;# 
  1854     000B                     	;# 
  1855     000C                     	;# 
  1856     000D                     	;# 
  1857     0011                     	;# 
  1858     0012                     	;# 
  1859     0013                     	;# 
  1860     0014                     	;# 
  1861     0015                     	;# 
  1862     0016                     	;# 
  1863     0016                     	;# 
  1864     0017                     	;# 
  1865     0018                     	;# 
  1866     0019                     	;# 
  1867     001A                     	;# 
  1868     001B                     	;# 
  1869     001C                     	;# 
  1870     001E                     	;# 
  1871     001F                     	;# 
  1872     008C                     	;# 
  1873     008D                     	;# 
  1874     0091                     	;# 
  1875     0092                     	;# 
  1876     0093                     	;# 
  1877     0094                     	;# 
  1878     0095                     	;# 
  1879     0096                     	;# 
  1880     0097                     	;# 
  1881     0098                     	;# 
  1882     0099                     	;# 
  1883     009A                     	;# 
  1884     009B                     	;# 
  1885     009B                     	;# 
  1886     009C                     	;# 
  1887     009D                     	;# 
  1888     009E                     	;# 
  1889     010C                     	;# 
  1890     010D                     	;# 
  1891     0111                     	;# 
  1892     0112                     	;# 
  1893     0113                     	;# 
  1894     0114                     	;# 
  1895     0115                     	;# 
  1896     0116                     	;# 
  1897     0117                     	;# 
  1898     0118                     	;# 
  1899     0119                     	;# 
  1900     011A                     	;# 
  1901     011B                     	;# 
  1902     011D                     	;# 
  1903     011E                     	;# 
  1904     018C                     	;# 
  1905     018D                     	;# 
  1906     0191                     	;# 
  1907     0191                     	;# 
  1908     0192                     	;# 
  1909     0193                     	;# 
  1910     0193                     	;# 
  1911     0193                     	;# 
  1912     0194                     	;# 
  1913     0195                     	;# 
  1914     0196                     	;# 
  1915     0199                     	;# 
  1916     019A                     	;# 
  1917     019B                     	;# 
  1918     019B                     	;# 
  1919     019B                     	;# 
  1920     019B                     	;# 
  1921     019C                     	;# 
  1922     019C                     	;# 
  1923     019D                     	;# 
  1924     019E                     	;# 
  1925     019F                     	;# 
  1926     020C                     	;# 
  1927     020D                     	;# 
  1928     0211                     	;# 
  1929     0211                     	;# 
  1930     0212                     	;# 
  1931     0212                     	;# 
  1932     0213                     	;# 
  1933     0213                     	;# 
  1934     0214                     	;# 
  1935     0214                     	;# 
  1936     0215                     	;# 
  1937     0215                     	;# 
  1938     0215                     	;# 
  1939     0216                     	;# 
  1940     0216                     	;# 
  1941     0217                     	;# 
  1942     0217                     	;# 
  1943     0219                     	;# 
  1944     021A                     	;# 
  1945     021B                     	;# 
  1946     021C                     	;# 
  1947     021D                     	;# 
  1948     021E                     	;# 
  1949     021F                     	;# 
  1950     0291                     	;# 
  1951     0291                     	;# 
  1952     0292                     	;# 
  1953     0293                     	;# 
  1954     0294                     	;# 
  1955     0295                     	;# 
  1956     0295                     	;# 
  1957     0296                     	;# 
  1958     0298                     	;# 
  1959     0298                     	;# 
  1960     0299                     	;# 
  1961     029A                     	;# 
  1962     029B                     	;# 
  1963     029C                     	;# 
  1964     029C                     	;# 
  1965     029D                     	;# 
  1966     029E                     	;# 
  1967     029E                     	;# 
  1968     0311                     	;# 
  1969     0311                     	;# 
  1970     0312                     	;# 
  1971     0313                     	;# 
  1972     0318                     	;# 
  1973     0318                     	;# 
  1974     0319                     	;# 
  1975     031A                     	;# 
  1976     0394                     	;# 
  1977     0395                     	;# 
  1978     0396                     	;# 
  1979     039A                     	;# 
  1980     039C                     	;# 
  1981     039D                     	;# 
  1982     039E                     	;# 
  1983     039F                     	;# 
  1984     0415                     	;# 
  1985     0416                     	;# 
  1986     0417                     	;# 
  1987     041C                     	;# 
  1988     041D                     	;# 
  1989     041E                     	;# 
  1990     0FE4                     	;# 
  1991     0FE5                     	;# 
  1992     0FE6                     	;# 
  1993     0FE7                     	;# 
  1994     0FE8                     	;# 
  1995     0FE9                     	;# 
  1996     0FEA                     	;# 
  1997     0FEB                     	;# 
  1998     0FED                     	;# 
  1999     0FEE                     	;# 
  2000     0FEF                     	;# 
  2001     0000                     	;# 
  2002     0001                     	;# 
  2003     0002                     	;# 
  2004     0003                     	;# 
  2005     0004                     	;# 
  2006     0005                     	;# 
  2007     0006                     	;# 
  2008     0007                     	;# 
  2009     0008                     	;# 
  2010     0009                     	;# 
  2011     000A                     	;# 
  2012     000B                     	;# 
  2013     000C                     	;# 
  2014     000D                     	;# 
  2015     0011                     	;# 
  2016     0012                     	;# 
  2017     0013                     	;# 
  2018     0014                     	;# 
  2019     0015                     	;# 
  2020     0016                     	;# 
  2021     0016                     	;# 
  2022     0017                     	;# 
  2023     0018                     	;# 
  2024     0019                     	;# 
  2025     001A                     	;# 
  2026     001B                     	;# 
  2027     001C                     	;# 
  2028     001E                     	;# 
  2029     001F                     	;# 
  2030     008C                     	;# 
  2031     008D                     	;# 
  2032     0091                     	;# 
  2033     0092                     	;# 
  2034     0093                     	;# 
  2035     0094                     	;# 
  2036     0095                     	;# 
  2037     0096                     	;# 
  2038     0097                     	;# 
  2039     0098                     	;# 
  2040     0099                     	;# 
  2041     009A                     	;# 
  2042     009B                     	;# 
  2043     009B                     	;# 
  2044     009C                     	;# 
  2045     009D                     	;# 
  2046     009E                     	;# 
  2047     010C                     	;# 
  2048     010D                     	;# 
  2049     0111                     	;# 
  2050     0112                     	;# 
  2051     0113                     	;# 
  2052     0114                     	;# 
  2053     0115                     	;# 
  2054     0116                     	;# 
  2055     0117                     	;# 
  2056     0118                     	;# 
  2057     0119                     	;# 
  2058     011A                     	;# 
  2059     011B                     	;# 
  2060     011D                     	;# 
  2061     011E                     	;# 
  2062     018C                     	;# 
  2063     018D                     	;# 
  2064     0191                     	;# 
  2065     0191                     	;# 
  2066     0192                     	;# 
  2067     0193                     	;# 
  2068     0193                     	;# 
  2069     0193                     	;# 
  2070     0194                     	;# 
  2071     0195                     	;# 
  2072     0196                     	;# 
  2073     0199                     	;# 
  2074     019A                     	;# 
  2075     019B                     	;# 
  2076     019B                     	;# 
  2077     019B                     	;# 
  2078     019B                     	;# 
  2079     019C                     	;# 
  2080     019C                     	;# 
  2081     019D                     	;# 
  2082     019E                     	;# 
  2083     019F                     	;# 
  2084     020C                     	;# 
  2085     020D                     	;# 
  2086     0211                     	;# 
  2087     0211                     	;# 
  2088     0212                     	;# 
  2089     0212                     	;# 
  2090     0213                     	;# 
  2091     0213                     	;# 
  2092     0214                     	;# 
  2093     0214                     	;# 
  2094     0215                     	;# 
  2095     0215                     	;# 
  2096     0215                     	;# 
  2097     0216                     	;# 
  2098     0216                     	;# 
  2099     0217                     	;# 
  2100     0217                     	;# 
  2101     0219                     	;# 
  2102     021A                     	;# 
  2103     021B                     	;# 
  2104     021C                     	;# 
  2105     021D                     	;# 
  2106     021E                     	;# 
  2107     021F                     	;# 
  2108     0291                     	;# 
  2109     0291                     	;# 
  2110     0292                     	;# 
  2111     0293                     	;# 
  2112     0294                     	;# 
  2113     0295                     	;# 
  2114     0295                     	;# 
  2115     0296                     	;# 
  2116     0298                     	;# 
  2117     0298                     	;# 
  2118     0299                     	;# 
  2119     029A                     	;# 
  2120     029B                     	;# 
  2121     029C                     	;# 
  2122     029C                     	;# 
  2123     029D                     	;# 
  2124     029E                     	;# 
  2125     029E                     	;# 
  2126     0311                     	;# 
  2127     0311                     	;# 
  2128     0312                     	;# 
  2129     0313                     	;# 
  2130     0318                     	;# 
  2131     0318                     	;# 
  2132     0319                     	;# 
  2133     031A                     	;# 
  2134     0394                     	;# 
  2135     0395                     	;# 
  2136     0396                     	;# 
  2137     039A                     	;# 
  2138     039C                     	;# 
  2139     039D                     	;# 
  2140     039E                     	;# 
  2141     039F                     	;# 
  2142     0415                     	;# 
  2143     0416                     	;# 
  2144     0417                     	;# 
  2145     041C                     	;# 
  2146     041D                     	;# 
  2147     041E                     	;# 
  2148     0FE4                     	;# 
  2149     0FE5                     	;# 
  2150     0FE6                     	;# 
  2151     0FE7                     	;# 
  2152     0FE8                     	;# 
  2153     0FE9                     	;# 
  2154     0FEA                     	;# 
  2155     0FEB                     	;# 
  2156     0FED                     	;# 
  2157     0FEE                     	;# 
  2158     0FEF                     	;# 
  2159     0000                     	;# 
  2160     0001                     	;# 
  2161     0002                     	;# 
  2162     0003                     	;# 
  2163     0004                     	;# 
  2164     0005                     	;# 
  2165     0006                     	;# 
  2166     0007                     	;# 
  2167     0008                     	;# 
  2168     0009                     	;# 
  2169     000A                     	;# 
  2170     000B                     	;# 
  2171     000C                     	;# 
  2172     000D                     	;# 
  2173     0011                     	;# 
  2174     0012                     	;# 
  2175     0013                     	;# 
  2176     0014                     	;# 
  2177     0015                     	;# 
  2178     0016                     	;# 
  2179     0016                     	;# 
  2180     0017                     	;# 
  2181     0018                     	;# 
  2182     0019                     	;# 
  2183     001A                     	;# 
  2184     001B                     	;# 
  2185     001C                     	;# 
  2186     001E                     	;# 
  2187     001F                     	;# 
  2188     008C                     	;# 
  2189     008D                     	;# 
  2190     0091                     	;# 
  2191     0092                     	;# 
  2192     0093                     	;# 
  2193     0094                     	;# 
  2194     0095                     	;# 
  2195     0096                     	;# 
  2196     0097                     	;# 
  2197     0098                     	;# 
  2198     0099                     	;# 
  2199     009A                     	;# 
  2200     009B                     	;# 
  2201     009B                     	;# 
  2202     009C                     	;# 
  2203     009D                     	;# 
  2204     009E                     	;# 
  2205     010C                     	;# 
  2206     010D                     	;# 
  2207     0111                     	;# 
  2208     0112                     	;# 
  2209     0113                     	;# 
  2210     0114                     	;# 
  2211     0115                     	;# 
  2212     0116                     	;# 
  2213     0117                     	;# 
  2214     0118                     	;# 
  2215     0119                     	;# 
  2216     011A                     	;# 
  2217     011B                     	;# 
  2218     011D                     	;# 
  2219     011E                     	;# 
  2220     018C                     	;# 
  2221     018D                     	;# 
  2222     0191                     	;# 
  2223     0191                     	;# 
  2224     0192                     	;# 
  2225     0193                     	;# 
  2226     0193                     	;# 
  2227     0193                     	;# 
  2228     0194                     	;# 
  2229     0195                     	;# 
  2230     0196                     	;# 
  2231     0199                     	;# 
  2232     019A                     	;# 
  2233     019B                     	;# 
  2234     019B                     	;# 
  2235     019B                     	;# 
  2236     019B                     	;# 
  2237     019C                     	;# 
  2238     019C                     	;# 
  2239     019D                     	;# 
  2240     019E                     	;# 
  2241     019F                     	;# 
  2242     020C                     	;# 
  2243     020D                     	;# 
  2244     0211                     	;# 
  2245     0211                     	;# 
  2246     0212                     	;# 
  2247     0212                     	;# 
  2248     0213                     	;# 
  2249     0213                     	;# 
  2250     0214                     	;# 
  2251     0214                     	;# 
  2252     0215                     	;# 
  2253     0215                     	;# 
  2254     0215                     	;# 
  2255     0216                     	;# 
  2256     0216                     	;# 
  2257     0217                     	;# 
  2258     0217                     	;# 
  2259     0219                     	;# 
  2260     021A                     	;# 
  2261     021B                     	;# 
  2262     021C                     	;# 
  2263     021D                     	;# 
  2264     021E                     	;# 
  2265     021F                     	;# 
  2266     0291                     	;# 
  2267     0291                     	;# 
  2268     0292                     	;# 
  2269     0293                     	;# 
  2270     0294                     	;# 
  2271     0295                     	;# 
  2272     0295                     	;# 
  2273     0296                     	;# 
  2274     0298                     	;# 
  2275     0298                     	;# 
  2276     0299                     	;# 
  2277     029A                     	;# 
  2278     029B                     	;# 
  2279     029C                     	;# 
  2280     029C                     	;# 
  2281     029D                     	;# 
  2282     029E                     	;# 
  2283     029E                     	;# 
  2284     0311                     	;# 
  2285     0311                     	;# 
  2286     0312                     	;# 
  2287     0313                     	;# 
  2288     0318                     	;# 
  2289     0318                     	;# 
  2290     0319                     	;# 
  2291     031A                     	;# 
  2292     0394                     	;# 
  2293     0395                     	;# 
  2294     0396                     	;# 
  2295     039A                     	;# 
  2296     039C                     	;# 
  2297     039D                     	;# 
  2298     039E                     	;# 
  2299     039F                     	;# 
  2300     0415                     	;# 
  2301     0416                     	;# 
  2302     0417                     	;# 
  2303     041C                     	;# 
  2304     041D                     	;# 
  2305     041E                     	;# 
  2306     0FE4                     	;# 
  2307     0FE5                     	;# 
  2308     0FE6                     	;# 
  2309     0FE7                     	;# 
  2310     0FE8                     	;# 
  2311     0FE9                     	;# 
  2312     0FEA                     	;# 
  2313     0FEB                     	;# 
  2314     0FED                     	;# 
  2315     0FEE                     	;# 
  2316     0FEF                     	;# 
  2317     0000                     	;# 
  2318     0001                     	;# 
  2319     0002                     	;# 
  2320     0003                     	;# 
  2321     0004                     	;# 
  2322     0005                     	;# 
  2323     0006                     	;# 
  2324     0007                     	;# 
  2325     0008                     	;# 
  2326     0009                     	;# 
  2327     000A                     	;# 
  2328     000B                     	;# 
  2329     000C                     	;# 
  2330     000D                     	;# 
  2331     0011                     	;# 
  2332     0012                     	;# 
  2333     0013                     	;# 
  2334     0014                     	;# 
  2335     0015                     	;# 
  2336     0016                     	;# 
  2337     0016                     	;# 
  2338     0017                     	;# 
  2339     0018                     	;# 
  2340     0019                     	;# 
  2341     001A                     	;# 
  2342     001B                     	;# 
  2343     001C                     	;# 
  2344     001E                     	;# 
  2345     001F                     	;# 
  2346     008C                     	;# 
  2347     008D                     	;# 
  2348     0091                     	;# 
  2349     0092                     	;# 
  2350     0093                     	;# 
  2351     0094                     	;# 
  2352     0095                     	;# 
  2353     0096                     	;# 
  2354     0097                     	;# 
  2355     0098                     	;# 
  2356     0099                     	;# 
  2357     009A                     	;# 
  2358     009B                     	;# 
  2359     009B                     	;# 
  2360     009C                     	;# 
  2361     009D                     	;# 
  2362     009E                     	;# 
  2363     010C                     	;# 
  2364     010D                     	;# 
  2365     0111                     	;# 
  2366     0112                     	;# 
  2367     0113                     	;# 
  2368     0114                     	;# 
  2369     0115                     	;# 
  2370     0116                     	;# 
  2371     0117                     	;# 
  2372     0118                     	;# 
  2373     0119                     	;# 
  2374     011A                     	;# 
  2375     011B                     	;# 
  2376     011D                     	;# 
  2377     011E                     	;# 
  2378     018C                     	;# 
  2379     018D                     	;# 
  2380     0191                     	;# 
  2381     0191                     	;# 
  2382     0192                     	;# 
  2383     0193                     	;# 
  2384     0193                     	;# 
  2385     0193                     	;# 
  2386     0194                     	;# 
  2387     0195                     	;# 
  2388     0196                     	;# 
  2389     0199                     	;# 
  2390     019A                     	;# 
  2391     019B                     	;# 
  2392     019B                     	;# 
  2393     019B                     	;# 
  2394     019B                     	;# 
  2395     019C                     	;# 
  2396     019C                     	;# 
  2397     019D                     	;# 
  2398     019E                     	;# 
  2399     019F                     	;# 
  2400     020C                     	;# 
  2401     020D                     	;# 
  2402     0211                     	;# 
  2403     0211                     	;# 
  2404     0212                     	;# 
  2405     0212                     	;# 
  2406     0213                     	;# 
  2407     0213                     	;# 
  2408     0214                     	;# 
  2409     0214                     	;# 
  2410     0215                     	;# 
  2411     0215                     	;# 
  2412     0215                     	;# 
  2413     0216                     	;# 
  2414     0216                     	;# 
  2415     0217                     	;# 
  2416     0217                     	;# 
  2417     0219                     	;# 
  2418     021A                     	;# 
  2419     021B                     	;# 
  2420     021C                     	;# 
  2421     021D                     	;# 
  2422     021E                     	;# 
  2423     021F                     	;# 
  2424     0291                     	;# 
  2425     0291                     	;# 
  2426     0292                     	;# 
  2427     0293                     	;# 
  2428     0294                     	;# 
  2429     0295                     	;# 
  2430     0295                     	;# 
  2431     0296                     	;# 
  2432     0298                     	;# 
  2433     0298                     	;# 
  2434     0299                     	;# 
  2435     029A                     	;# 
  2436     029B                     	;# 
  2437     029C                     	;# 
  2438     029C                     	;# 
  2439     029D                     	;# 
  2440     029E                     	;# 
  2441     029E                     	;# 
  2442     0311                     	;# 
  2443     0311                     	;# 
  2444     0312                     	;# 
  2445     0313                     	;# 
  2446     0318                     	;# 
  2447     0318                     	;# 
  2448     0319                     	;# 
  2449     031A                     	;# 
  2450     0394                     	;# 
  2451     0395                     	;# 
  2452     0396                     	;# 
  2453     039A                     	;# 
  2454     039C                     	;# 
  2455     039D                     	;# 
  2456     039E                     	;# 
  2457     039F                     	;# 
  2458     0415                     	;# 
  2459     0416                     	;# 
  2460     0417                     	;# 
  2461     041C                     	;# 
  2462     041D                     	;# 
  2463     041E                     	;# 
  2464     0FE4                     	;# 
  2465     0FE5                     	;# 
  2466     0FE6                     	;# 
  2467     0FE7                     	;# 
  2468     0FE8                     	;# 
  2469     0FE9                     	;# 
  2470     0FEA                     	;# 
  2471     0FEB                     	;# 
  2472     0FED                     	;# 
  2473     0FEE                     	;# 
  2474     0FEF                     	;# 
  2475                           
  2476 ;; Function _EUSART_DefaultFramingErrorHandler is unused but had its address taken
  2477     0000                     
  2478 ;; Function _EUSART_DefaultOverrunErrorHandler is unused but had its address taken
  2479     0000                     
  2480 ;; Function _EUSART_DefaultErrorHandler is unused but had its address taken
  2481     0000                     
  2482                           	psect	idataCOMMON
  2483     048C                     __pidataCOMMON:
  2484                           
  2485                           ;initializer for _subindo
  2486     048C  3401               	retlw	1
  2487                           
  2488                           	psect	stringtext1
  2489     03F0                     __pstringtext1:
  2490     03F0                     _matrix_conf:
  2491     03F0  3409               	retlw	9
  2492     03F1  3400               	retlw	0
  2493     03F2  340A               	retlw	10
  2494     03F3  3400               	retlw	0
  2495     03F4  340B               	retlw	11
  2496     03F5  3407               	retlw	7
  2497     03F6  340C               	retlw	12
  2498     03F7  3401               	retlw	1
  2499     03F8  340F               	retlw	15
  2500     03F9  3401               	retlw	1
  2501     03FA  340F               	retlw	15
  2502     03FB  3400               	retlw	0
  2503     03FC                     __end_of_matrix_conf:
  2504                           
  2505                           	psect	stringtext2
  2506     0480                     __pstringtext2:
  2507     0480                     _spi1_configuration:
  2508     0480  3400               	retlw	0
  2509     0481  3440               	retlw	64
  2510     0482  3401               	retlw	1
  2511     0483  3400               	retlw	0
  2512     0484                     __end_of_spi1_configuration:
  2513                           
  2514                           	psect	nvBANK0
  2515     0048                     __pnvBANK0:
  2516     0048                     _TMR0_InterruptHandler:
  2517     0048                     	ds	2
  2518     004A                     _TMR1_InterruptHandler:
  2519     004A                     	ds	2
  2520     004C                     _EUSART_ErrorHandler:
  2521     004C                     	ds	2
  2522     004E                     _EUSART_OverrunErrorHandler:
  2523     004E                     	ds	2
  2524     0050                     _EUSART_FramingErrorHandler:
  2525     0050                     	ds	2
  2526     0052                     _IOCBF3_InterruptHandler:
  2527     0052                     	ds	2
  2528     0054                     _IOCBF0_InterruptHandler:
  2529     0054                     	ds	2
  2530     0015                     _TMR0	set	21
  2531     001C                     _T2CONbits	set	28
  2532     001C                     _T2CON	set	28
  2533     001A                     _TMR2	set	26
  2534     001B                     _PR2	set	27
  2535     0019                     _T1GCONbits	set	25
  2536     0018                     _T1CONbits	set	24
  2537     0018                     _T1CON	set	24
  2538     0016                     _TMR1L	set	22
  2539     0017                     _TMR1H	set	23
  2540     0019                     _T1GCON	set	25
  2541     0011                     _PIR1bits	set	17
  2542     000B                     _INTCONbits	set	11
  2543     0012                     _PIR2bits	set	18
  2544     0095                     _OPTION_REG	set	149
  2545     0091                     _PIE1bits	set	145
  2546     008D                     _TRISBbits	set	141
  2547     009D                     _ADCON0bits	set	157
  2548     009D                     _ADCON0	set	157
  2549     009C                     _ADRESH	set	156
  2550     009B                     _ADRESL	set	155
  2551     009E                     _ADCON1	set	158
  2552     0097                     _WDTCON	set	151
  2553     0098                     _OSCTUNE	set	152
  2554     0099                     _OSCCON	set	153
  2555     0095                     _OPTION_REGbits	set	149
  2556     008D                     _TRISB	set	141
  2557     008C                     _TRISA	set	140
  2558     0092                     _PIE2bits	set	146
  2559     010D                     _LATBbits	set	269
  2560     0117                     _FVRCONbits	set	279
  2561     0117                     _FVRCON	set	279
  2562     0116                     _BORCON	set	278
  2563     011E                     _APFCON1	set	286
  2564     011D                     _APFCON0	set	285
  2565     010D                     _LATB	set	269
  2566     010C                     _LATA	set	268
  2567     0112                     _CM1CON1	set	274
  2568     0111                     _CM1CON0	set	273
  2569     0115                     _CMOUTbits	set	277
  2570     0114                     _CM2CON1	set	276
  2571     0113                     _CM2CON0	set	275
  2572     019A                     _TXREG	set	410
  2573     0199                     _RCREG	set	409
  2574     019D                     _RCSTAbits	set	413
  2575     019E                     _TXSTAbits	set	414
  2576     019C                     _SPBRGH	set	412
  2577     019B                     _SPBRGL	set	411
  2578     019E                     _TXSTA	set	414
  2579     019D                     _RCSTA	set	413
  2580     019F                     _BAUDCON	set	415
  2581     018C                     _ANSELA	set	396
  2582     018D                     _ANSELB	set	397
  2583     0211                     _SSP1BUF	set	529
  2584     0216                     _SSP1CON2	set	534
  2585     0215                     _SSP1CON1bits	set	533
  2586     0212                     _SSP1ADD	set	530
  2587     0215                     _SSP1CON1	set	533
  2588     0214                     _SSP1STAT	set	532
  2589     020C                     _WPUA	set	524
  2590     020D                     _WPUB	set	525
  2591     029E                     _CCPTMRS0bits	set	670
  2592     0312                     _CCPR3H	set	786
  2593     0311                     _CCPR3L	set	785
  2594     0313                     _CCP3CON	set	787
  2595     0394                     _IOCBPbits	set	916
  2596     0395                     _IOCBNbits	set	917
  2597     0396                     _IOCBFbits	set	918
  2598                           
  2599                           	psect	cinit
  2600     004B                     start_initialization:	
  2601                           ; #config settings
  2602                           
  2603     004B                     __initialization:
  2604                           
  2605                           ; Initialize objects allocated to COMMON
  2606     004B  3184  248C  3180   	fcall	__pidataCOMMON	;fetch initializer
  2607     004E  00FD               	movwf	__pdataCOMMON& (0+127)
  2608                           
  2609                           ; Clear objects allocated to COMMON
  2610     004F  01FB               	clrf	__pbssCOMMON& (0+127)
  2611     0050  01FC               	clrf	(__pbssCOMMON+1)& (0+127)
  2612                           
  2613                           ; Clear objects allocated to BANK0
  2614     0051  3020               	movlw	low __pbssBANK0
  2615     0052  0084               	movwf	4
  2616     0053  3000               	movlw	high __pbssBANK0
  2617     0054  0085               	movwf	5
  2618     0055  3015               	movlw	21
  2619     0056  3184  243F  3180   	fcall	clear_ram0
  2620     0059                     end_of_initialization:	
  2621                           ;End of C runtime variable initialization code
  2622                           
  2623     0059                     __end_of__initialization:
  2624     0059  107E               	bcf	int$flags,0	;clear compiler interrupt flag (level 1)
  2625     005A  0020               	movlb	0
  2626     005B  3180  285D         	ljmp	_main	;jump to C main() function
  2627                           
  2628                           	psect	bssCOMMON
  2629     007B                     __pbssCOMMON:
  2630     007B                     _destinoDesc:
  2631     007B                     	ds	1
  2632     007C                     _destinoSub:
  2633     007C                     	ds	1
  2634                           
  2635                           	psect	dataCOMMON
  2636     007D                     __pdataCOMMON:
  2637     007D                     _subindo:
  2638     007D                     	ds	1
  2639                           
  2640                           	psect	bssBANK0
  2641     0020                     __pbssBANK0:
  2642     0020                     _MatrixLed:
  2643     0020                     	ds	8
  2644     0028                     TMR0_ISR@CountCallBack:
  2645     0028                     	ds	2
  2646     002A                     _timer1ReloadVal:
  2647     002A                     	ds	2
  2648     002C                     _ADC_InterruptHandler:
  2649     002C                     	ds	2
  2650     002E                     _timer0ReloadVal:
  2651     002E                     	ds	1
  2652     002F                     _eusartRxLastError:
  2653     002F                     	ds	1
  2654     0030                     _destino:
  2655     0030                     	ds	1
  2656     0031                     _origem:
  2657     0031                     	ds	1
  2658     0032                     _RXaccepted:
  2659     0032                     	ds	1
  2660     0033                     _waitRX:
  2661     0033                     	ds	1
  2662     0034                     _rxValue:
  2663     0034                     	ds	1
  2664                           
  2665                           	psect	clrtext
  2666     043F                     clear_ram0:	
  2667                           ;	Called with FSR0 containing the base address, and
  2668                           ;	WREG with the size to clear
  2669                           
  2670     043F  0064               	clrwdt	;clear the watchdog before getting into this loop
  2671     0440                     clrloop0:
  2672     0440  0180               	clrf	0	;clear RAM location pointed to by FSR
  2673     0441  3101               	addfsr 0,1
  2674     0442  0B89               	decfsz	9,f	;Have we reached the end of clearing yet?
  2675     0443  2C40               	goto	clrloop0	;have we reached the end yet?
  2676     0444  3400               	retlw	0	;all done for this memory range, return
  2677                           
  2678                           	psect	cstackCOMMON
  2679     0070                     __pcstackCOMMON:
  2680     0070                     ?_chegadaS4:
  2681     0070                     ?_chegadaS3:	
  2682                           ; 1 bytes @ 0x0
  2683                           
  2684     0070                     ?_IOCBF0_DefaultInterruptHandler:	
  2685                           ; 1 bytes @ 0x0
  2686                           
  2687     0070                     ??_IOCBF0_DefaultInterruptHandler:	
  2688                           ; 1 bytes @ 0x0
  2689                           
  2690     0070                     ?_IOCBF3_DefaultInterruptHandler:	
  2691                           ; 1 bytes @ 0x0
  2692                           
  2693     0070                     ??_IOCBF3_DefaultInterruptHandler:	
  2694                           ; 1 bytes @ 0x0
  2695                           
  2696     0070                     ?_IOCBF0_ISR:	
  2697                           ; 1 bytes @ 0x0
  2698                           
  2699     0070                     ??_IOCBF0_ISR:	
  2700                           ; 1 bytes @ 0x0
  2701                           
  2702     0070                     ?_IOCBF3_ISR:	
  2703                           ; 1 bytes @ 0x0
  2704                           
  2705     0070                     ?_SPI1_Initialize:	
  2706                           ; 1 bytes @ 0x0
  2707                           
  2708     0070                     ?_OSCILLATOR_Initialize:	
  2709                           ; 1 bytes @ 0x0
  2710                           
  2711     0070                     ?_WDT_Initialize:	
  2712                           ; 1 bytes @ 0x0
  2713                           
  2714     0070                     ?_FVR_Initialize:	
  2715                           ; 1 bytes @ 0x0
  2716                           
  2717     0070                     ?_TMR2_Initialize:	
  2718                           ; 1 bytes @ 0x0
  2719                           
  2720     0070                     ?_TMR0_Initialize:	
  2721                           ; 1 bytes @ 0x0
  2722                           
  2723     0070                     ?_ADC_Initialize:	
  2724                           ; 1 bytes @ 0x0
  2725                           
  2726     0070                     ?_TMR1_Initialize:	
  2727                           ; 1 bytes @ 0x0
  2728                           
  2729     0070                     ?_EUSART_Initialize:	
  2730                           ; 1 bytes @ 0x0
  2731                           
  2732     0070                     ?_TMR0_ISR:	
  2733                           ; 1 bytes @ 0x0
  2734                           
  2735     0070                     ??_TMR0_ISR:	
  2736                           ; 1 bytes @ 0x0
  2737                           
  2738     0070                     ?_TMR1_ISR:	
  2739                           ; 1 bytes @ 0x0
  2740                           
  2741     0070                     ?_TMR1_DefaultInterruptHandler:	
  2742                           ; 1 bytes @ 0x0
  2743                           
  2744     0070                     ??_TMR1_DefaultInterruptHandler:	
  2745                           ; 1 bytes @ 0x0
  2746                           
  2747     0070                     ?_TMR1_CallBack:	
  2748                           ; 1 bytes @ 0x0
  2749                           
  2750     0070                     ??_TMR1_CallBack:	
  2751                           ; 1 bytes @ 0x0
  2752                           
  2753     0070                     ?_TMR0_DefaultInterruptHandler:	
  2754                           ; 1 bytes @ 0x0
  2755                           
  2756     0070                     ??_TMR0_DefaultInterruptHandler:	
  2757                           ; 1 bytes @ 0x0
  2758                           
  2759     0070                     ?_TMR0_CallBack:	
  2760                           ; 1 bytes @ 0x0
  2761                           
  2762     0070                     ??_TMR0_CallBack:	
  2763                           ; 1 bytes @ 0x0
  2764                           
  2765     0070                     ?_PWM3_Initialize:	
  2766                           ; 1 bytes @ 0x0
  2767                           
  2768     0070                     ?_CMP2_Initialize:	
  2769                           ; 1 bytes @ 0x0
  2770                           
  2771     0070                     ?_CMP2_ISR:	
  2772                           ; 1 bytes @ 0x0
  2773                           
  2774     0070                     ?_CMP1_Initialize:	
  2775                           ; 1 bytes @ 0x0
  2776                           
  2777     0070                     ?_CMP1_ISR:	
  2778                           ; 1 bytes @ 0x0
  2779                           
  2780     0070                     ?_PIN_MANAGER_Initialize:	
  2781                           ; 1 bytes @ 0x0
  2782                           
  2783     0070                     ?_PIN_MANAGER_IOC:	
  2784                           ; 1 bytes @ 0x0
  2785                           
  2786     0070                     ?_SYSTEM_Initialize:	
  2787                           ; 1 bytes @ 0x0
  2788                           
  2789     0070                     ?_EUSART_is_rx_ready:	
  2790                           ; 1 bytes @ 0x0
  2791                           
  2792     0070                     ?_EUSART_Read:	
  2793                           ; 1 bytes @ 0x0
  2794                           
  2795     0070                     ?_SPI1_Open:	
  2796                           ; 1 bytes @ 0x0
  2797                           
  2798     0070                     ?_INTERRUPT_InterruptManager:	
  2799                           ; 1 bytes @ 0x0
  2800                           
  2801     0070                     ?_TMR1_WriteTimer:	
  2802                           ; 1 bytes @ 0x0
  2803                           
  2804     0070                     ?_isValidFloor:	
  2805                           ; 1 bytes @ 0x0
  2806                           
  2807     0070                     ?_matrixUpdate:	
  2808                           ; 1 bytes @ 0x0
  2809                           
  2810     0070                     ?_initMatrix:	
  2811                           ; 1 bytes @ 0x0
  2812                           
  2813     0070                     ?_chegadaS1:	
  2814                           ; 1 bytes @ 0x0
  2815                           
  2816     0070                     ?_chegadaS2:	
  2817                           ; 1 bytes @ 0x0
  2818                           
  2819     0070                     ?_main:	
  2820                           ; 1 bytes @ 0x0
  2821                           
  2822     0070                     ?i1_SPI1_ExchangeBlock:	
  2823                           ; 1 bytes @ 0x0
  2824                           
  2825     0070                     TMR1_WriteTimer@timerVal:	
  2826                           ; 1 bytes @ 0x0
  2827                           
  2828     0070                     i1SPI1_ExchangeBlock@blockSize:	
  2829                           ; 2 bytes @ 0x0
  2830                           
  2831                           
  2832                           ; 2 bytes @ 0x0
  2833     0070                     	ds	2
  2834     0072                     ??_TMR1_ISR:
  2835     0072                     ??_TMR1_WriteTimer:	
  2836                           ; 1 bytes @ 0x2
  2837                           
  2838     0072                     ??i1_SPI1_ExchangeBlock:	
  2839                           ; 1 bytes @ 0x2
  2840                           
  2841                           
  2842                           ; 1 bytes @ 0x2
  2843     0072                     	ds	1
  2844     0073                     i1SPI1_ExchangeBlock@block:
  2845                           
  2846                           ; 1 bytes @ 0x3
  2847     0073                     	ds	1
  2848     0074                     i1SPI1_ExchangeBlock@data:
  2849                           
  2850                           ; 1 bytes @ 0x4
  2851     0074                     	ds	1
  2852     0075                     ?i1_txSpi:
  2853     0075                     i1txSpi@dataSize:	
  2854                           ; 1 bytes @ 0x5
  2855                           
  2856                           
  2857                           ; 2 bytes @ 0x5
  2858     0075                     	ds	2
  2859     0077                     ??i1_txSpi:
  2860     0077                     i1txSpi@data:	
  2861                           ; 1 bytes @ 0x7
  2862                           
  2863                           
  2864                           ; 1 bytes @ 0x7
  2865     0077                     	ds	1
  2866     0078                     ??_matrixUpdate:
  2867     0078                     matrixUpdate@data:	
  2868                           ; 1 bytes @ 0x8
  2869                           
  2870                           
  2871                           ; 2 bytes @ 0x8
  2872     0078                     	ds	2
  2873     007A                     matrixUpdate@i:
  2874                           
  2875                           ; 1 bytes @ 0xA
  2876     007A                     	ds	1
  2877     007B                     ??_chegadaS4:
  2878     007B                     ??_chegadaS3:	
  2879                           ; 1 bytes @ 0xB
  2880                           
  2881     007B                     ??_IOCBF3_ISR:	
  2882                           ; 1 bytes @ 0xB
  2883                           
  2884     007B                     ??_CMP2_ISR:	
  2885                           ; 1 bytes @ 0xB
  2886                           
  2887     007B                     ??_CMP1_ISR:	
  2888                           ; 1 bytes @ 0xB
  2889                           
  2890     007B                     ??_PIN_MANAGER_IOC:	
  2891                           ; 1 bytes @ 0xB
  2892                           
  2893     007B                     ??_INTERRUPT_InterruptManager:	
  2894                           ; 1 bytes @ 0xB
  2895                           
  2896     007B                     ??_chegadaS1:	
  2897                           ; 1 bytes @ 0xB
  2898                           
  2899     007B                     ??_chegadaS2:	
  2900                           ; 1 bytes @ 0xB
  2901                           
  2902                           
  2903                           	psect	cstackBANK0
  2904     0035                     __pcstackBANK0:	
  2905                           ; 1 bytes @ 0xB
  2906                           
  2907     0035                     ?_IOCBF0_SetInterruptHandler:
  2908     0035                     ?_IOCBF3_SetInterruptHandler:	
  2909                           ; 1 bytes @ 0x0
  2910                           
  2911     0035                     ??_SPI1_Initialize:	
  2912                           ; 1 bytes @ 0x0
  2913                           
  2914     0035                     ??_OSCILLATOR_Initialize:	
  2915                           ; 1 bytes @ 0x0
  2916                           
  2917     0035                     ??_WDT_Initialize:	
  2918                           ; 1 bytes @ 0x0
  2919                           
  2920     0035                     ??_FVR_Initialize:	
  2921                           ; 1 bytes @ 0x0
  2922                           
  2923     0035                     ??_TMR2_Initialize:	
  2924                           ; 1 bytes @ 0x0
  2925                           
  2926     0035                     ??_ADC_Initialize:	
  2927                           ; 1 bytes @ 0x0
  2928                           
  2929     0035                     ?_EUSART_SetFramingErrorHandler:	
  2930                           ; 1 bytes @ 0x0
  2931                           
  2932     0035                     ?_EUSART_SetOverrunErrorHandler:	
  2933                           ; 1 bytes @ 0x0
  2934                           
  2935     0035                     ?_EUSART_SetErrorHandler:	
  2936                           ; 1 bytes @ 0x0
  2937                           
  2938     0035                     ?_TMR1_SetInterruptHandler:	
  2939                           ; 1 bytes @ 0x0
  2940                           
  2941     0035                     ?_TMR0_SetInterruptHandler:	
  2942                           ; 1 bytes @ 0x0
  2943                           
  2944     0035                     ??_PWM3_Initialize:	
  2945                           ; 1 bytes @ 0x0
  2946                           
  2947     0035                     ??_CMP2_Initialize:	
  2948                           ; 1 bytes @ 0x0
  2949                           
  2950     0035                     ??_CMP1_Initialize:	
  2951                           ; 1 bytes @ 0x0
  2952                           
  2953     0035                     ??_EUSART_is_rx_ready:	
  2954                           ; 1 bytes @ 0x0
  2955                           
  2956     0035                     ??_EUSART_Read:	
  2957                           ; 1 bytes @ 0x0
  2958                           
  2959     0035                     ??_SPI1_Open:	
  2960                           ; 1 bytes @ 0x0
  2961                           
  2962     0035                     ?_SPI1_ExchangeBlock:	
  2963                           ; 1 bytes @ 0x0
  2964                           
  2965     0035                     ??_isValidFloor:	
  2966                           ; 1 bytes @ 0x0
  2967                           
  2968     0035                     _isValidFloor$1320:	
  2969                           ; 1 bytes @ 0x0
  2970                           
  2971     0035                     IOCBF0_SetInterruptHandler@InterruptHandler:	
  2972                           ; 1 bytes @ 0x0
  2973                           
  2974     0035                     IOCBF3_SetInterruptHandler@InterruptHandler:	
  2975                           ; 2 bytes @ 0x0
  2976                           
  2977     0035                     EUSART_SetFramingErrorHandler@interruptHandler:	
  2978                           ; 2 bytes @ 0x0
  2979                           
  2980     0035                     EUSART_SetOverrunErrorHandler@interruptHandler:	
  2981                           ; 2 bytes @ 0x0
  2982                           
  2983     0035                     EUSART_SetErrorHandler@interruptHandler:	
  2984                           ; 2 bytes @ 0x0
  2985                           
  2986     0035                     SPI1_ExchangeBlock@blockSize:	
  2987                           ; 2 bytes @ 0x0
  2988                           
  2989     0035                     TMR1_SetInterruptHandler@InterruptHandler:	
  2990                           ; 2 bytes @ 0x0
  2991                           
  2992     0035                     TMR0_SetInterruptHandler@InterruptHandler:	
  2993                           ; 2 bytes @ 0x0
  2994                           
  2995                           
  2996                           ; 2 bytes @ 0x0
  2997     0035                     	ds	1
  2998     0036                     isValidFloor@floor:
  2999                           
  3000                           ; 1 bytes @ 0x1
  3001     0036                     	ds	1
  3002     0037                     ??_IOCBF0_SetInterruptHandler:
  3003     0037                     ??_IOCBF3_SetInterruptHandler:	
  3004                           ; 1 bytes @ 0x2
  3005                           
  3006     0037                     ??_TMR0_Initialize:	
  3007                           ; 1 bytes @ 0x2
  3008                           
  3009     0037                     ??_TMR1_Initialize:	
  3010                           ; 1 bytes @ 0x2
  3011                           
  3012     0037                     ??_EUSART_Initialize:	
  3013                           ; 1 bytes @ 0x2
  3014                           
  3015     0037                     ??_EUSART_SetFramingErrorHandler:	
  3016                           ; 1 bytes @ 0x2
  3017                           
  3018     0037                     ??_EUSART_SetOverrunErrorHandler:	
  3019                           ; 1 bytes @ 0x2
  3020                           
  3021     0037                     ??_EUSART_SetErrorHandler:	
  3022                           ; 1 bytes @ 0x2
  3023                           
  3024     0037                     ??_TMR1_SetInterruptHandler:	
  3025                           ; 1 bytes @ 0x2
  3026                           
  3027     0037                     ??_TMR0_SetInterruptHandler:	
  3028                           ; 1 bytes @ 0x2
  3029                           
  3030     0037                     ??_PIN_MANAGER_Initialize:	
  3031                           ; 1 bytes @ 0x2
  3032                           
  3033     0037                     ??_SYSTEM_Initialize:	
  3034                           ; 1 bytes @ 0x2
  3035                           
  3036     0037                     ??_SPI1_ExchangeBlock:	
  3037                           ; 1 bytes @ 0x2
  3038                           
  3039                           
  3040                           ; 1 bytes @ 0x2
  3041     0037                     	ds	1
  3042     0038                     SPI1_Open@spi1UniqueConfiguration:
  3043     0038                     SPI1_ExchangeBlock@block:	
  3044                           ; 1 bytes @ 0x3
  3045                           
  3046                           
  3047                           ; 1 bytes @ 0x3
  3048     0038                     	ds	1
  3049     0039                     SPI1_ExchangeBlock@data:
  3050                           
  3051                           ; 1 bytes @ 0x4
  3052     0039                     	ds	1
  3053     003A                     ?_txSpi:
  3054     003A                     txSpi@dataSize:	
  3055                           ; 1 bytes @ 0x5
  3056                           
  3057                           
  3058                           ; 2 bytes @ 0x5
  3059     003A                     	ds	2
  3060     003C                     ??_txSpi:
  3061     003C                     txSpi@data:	
  3062                           ; 1 bytes @ 0x7
  3063                           
  3064                           
  3065                           ; 1 bytes @ 0x7
  3066     003C                     	ds	1
  3067     003D                     ??_initMatrix:
  3068                           
  3069                           ; 1 bytes @ 0x8
  3070     003D                     	ds	1
  3071     003E                     initMatrix@data:
  3072                           
  3073                           ; 4 bytes @ 0x9
  3074     003E                     	ds	4
  3075     0042                     initMatrix@k:
  3076                           
  3077                           ; 1 bytes @ 0xD
  3078     0042                     	ds	1
  3079     0043                     initMatrix@i:
  3080                           
  3081                           ; 1 bytes @ 0xE
  3082     0043                     	ds	1
  3083     0044                     initMatrix@i_1343:
  3084                           
  3085                           ; 1 bytes @ 0xF
  3086     0044                     	ds	1
  3087     0045                     initMatrix@j:
  3088                           
  3089                           ; 1 bytes @ 0x10
  3090     0045                     	ds	1
  3091     0046                     ??_main:
  3092                           
  3093                           ; 1 bytes @ 0x11
  3094     0046                     	ds	2
  3095                           
  3096                           	psect	maintext
  3097     005D                     __pmaintext:	
  3098 ;;
  3099 ;;Main: autosize = 0, tempsize = 2, incstack = 0, save=0
  3100 ;;
  3101 ;; *************** function _main *****************
  3102 ;; Defined at:
  3103 ;;		line 192 in file "main.c"
  3104 ;; Parameters:    Size  Location     Type
  3105 ;;		None
  3106 ;; Auto vars:     Size  Location     Type
  3107 ;;		None
  3108 ;; Return value:  Size  Location     Type
  3109 ;;                  1    wreg      void 
  3110 ;; Registers used:
  3111 ;;		wreg, fsr0l, fsr0h, fsr1l, fsr1h, status,2, status,0, pclath, cstack
  3112 ;; Tracked objects:
  3113 ;;		On entry : B1F/0
  3114 ;;		On exit  : 0/0
  3115 ;;		Unchanged: 0/0
  3116 ;; Data sizes:     COMMON   BANK0   BANK1   BANK2   BANK3   BANK4
  3117 ;;      Params:         0       0       0       0       0       0
  3118 ;;      Locals:         0       0       0       0       0       0
  3119 ;;      Temps:          0       2       0       0       0       0
  3120 ;;      Totals:         0       2       0       0       0       0
  3121 ;;Total ram usage:        2 bytes
  3122 ;; Hardware stack levels required when called: 10
  3123 ;; This function calls:
  3124 ;;		_EUSART_Read
  3125 ;;		_EUSART_is_rx_ready
  3126 ;;		_IOCBF3_SetInterruptHandler
  3127 ;;		_SPI1_Open
  3128 ;;		_SYSTEM_Initialize
  3129 ;;		_initMatrix
  3130 ;;		_isValidFloor
  3131 ;; This function is called by:
  3132 ;;		Startup code after reset
  3133 ;; This function uses a non-reentrant model
  3134 ;;
  3135                           
  3136     005D                     _main:	
  3137                           ;psect for function _main
  3138                           
  3139     005D                     l2434:	
  3140                           ;incstack = 0
  3141                           ; Regs used in _main: [wreg-fsr1h+status,2+status,0+pclath+cstack]
  3142                           
  3143                           
  3144                           ;main.c: 195:     SYSTEM_Initialize();
  3145     005D  3182  2255  3180   	fcall	_SYSTEM_Initialize
  3146                           
  3147                           ;main.c: 203:     IOCBF3_SetInterruptHandler(chegadaS1);
  3148     0060  30C9               	movlw	low _chegadaS1
  3149     0061  0020               	movlb	0	; select bank0
  3150     0062  00B5               	movwf	IOCBF3_SetInterruptHandler@InterruptHandler
  3151     0063  3002               	movlw	high _chegadaS1
  3152     0064  00B6               	movwf	IOCBF3_SetInterruptHandler@InterruptHandler+1
  3153     0065  3184  2451  3180   	fcall	_IOCBF3_SetInterruptHandler
  3154                           
  3155                           ;main.c: 204:     IOCBF3_SetInterruptHandler(chegadaS2);
  3156     0068  3001               	movlw	low _chegadaS2
  3157     0069  0020               	movlb	0	; select bank0
  3158     006A  00B5               	movwf	IOCBF3_SetInterruptHandler@InterruptHandler
  3159     006B  3002               	movlw	high _chegadaS2
  3160     006C  00B6               	movwf	IOCBF3_SetInterruptHandler@InterruptHandler+1
  3161     006D  3184  2451  3180   	fcall	_IOCBF3_SetInterruptHandler
  3162     0070                     l2436:
  3163     0070  0022               	movlb	2	; select bank2
  3164     0071  148D               	bsf	13,1	;volatile
  3165     0072                     l2438:
  3166                           
  3167                           ;main.c: 209:     SPI1_Open(SPI1_DEFAULT);
  3168     0072  3000               	movlw	0
  3169     0073  3180  20CE  3180   	fcall	_SPI1_Open
  3170     0076                     l2440:
  3171                           
  3172                           ;main.c: 210:     initMatrix();
  3173     0076  3181  2129  3180   	fcall	_initMatrix
  3174     0079                     l2442:
  3175                           
  3176                           ;main.c: 213:     (INTCONbits.GIE = 1);
  3177     0079  178B               	bsf	11,7	;volatile
  3178     007A                     l2444:
  3179                           
  3180                           ;main.c: 216:     (INTCONbits.PEIE = 1);
  3181     007A  170B               	bsf	11,6	;volatile
  3182     007B                     l2446:
  3183                           
  3184                           ;main.c: 225:     {;main.c: 227:         if(EUSART_is_rx_ready()){
  3185     007B  3184  247B  3180   	fcall	_EUSART_is_rx_ready
  3186     007E  3A00               	xorlw	0
  3187     007F  1903               	skipnz
  3188     0080  2882               	goto	u871
  3189     0081  2883               	goto	u870
  3190     0082                     u871:
  3191     0082  287B               	goto	l2446
  3192     0083                     u870:
  3193     0083                     l2448:
  3194                           
  3195                           ;main.c: 228:             rxValue.v = EUSART_Read();
  3196     0083  3183  238E  3180   	fcall	_EUSART_Read
  3197     0086  0020               	movlb	0	; select bank0
  3198     0087  00B4               	movwf	_rxValue
  3199                           
  3200                           ;main.c: 229:             switch(rxValue.v){
  3201     0088  28BC               	goto	l2468
  3202     0089                     l679:	
  3203                           ;main.c: 230:                 case '$':
  3204                           
  3205                           
  3206                           ;main.c: 231:                     waitRX = 1;
  3207     0089  01B3               	clrf	_waitRX
  3208     008A  0AB3               	incf	_waitRX,f
  3209                           
  3210                           ;main.c: 232:                     break;
  3211     008B  287B               	goto	l2446
  3212     008C                     l2450:
  3213                           
  3214                           ;main.c: 234:                     if(RXaccepted){
  3215     008C  0832               	movf	_RXaccepted,w
  3216     008D  1903               	btfsc	3,2
  3217     008E  2890               	goto	u881
  3218     008F  2891               	goto	u880
  3219     0090                     u881:
  3220     0090  2899               	goto	l2454
  3221     0091                     u880:
  3222     0091                     l2452:
  3223                           
  3224                           ;main.c: 235:                         origem = rxValue.o - 0x30;
  3225     0091  0834               	movf	_rxValue,w
  3226     0092  390F               	andlw	15
  3227     0093  3ED0               	addlw	208
  3228     0094  00B1               	movwf	_origem
  3229                           
  3230                           ;main.c: 236:                         destino = rxValue.d - 0x30;
  3231     0095  0E34               	swapf	_rxValue,w
  3232     0096  390F               	andlw	15
  3233     0097  3ED0               	addlw	208
  3234     0098  00B0               	movwf	_destino
  3235     0099                     l2454:
  3236                           
  3237                           ;main.c: 238:                     RXaccepted = 0;
  3238     0099  01B2               	clrf	_RXaccepted
  3239                           
  3240                           ;main.c: 239:                     break;
  3241     009A  287B               	goto	l2446
  3242     009B                     l2456:
  3243                           
  3244                           ;main.c: 241:                     RXaccepted = 0;
  3245     009B  01B2               	clrf	_RXaccepted
  3246     009C                     l2458:
  3247                           
  3248                           ;main.c: 242:                     if(waitRX){
  3249     009C  0833               	movf	_waitRX,w
  3250     009D  1903               	btfsc	3,2
  3251     009E  28A0               	goto	u891
  3252     009F  28A1               	goto	u890
  3253     00A0                     u891:
  3254     00A0  28B9               	goto	l2466
  3255     00A1                     u890:
  3256     00A1                     l2460:
  3257                           
  3258                           ;main.c: 243:                         if(isValidFloor(rxValue.o) && isValidFloor(rxValue
      +                          .d)){
  3259     00A1  0834               	movf	_rxValue,w
  3260     00A2  390F               	andlw	15
  3261     00A3  3183  2337  3180   	fcall	_isValidFloor
  3262     00A6  3A00               	xorlw	0
  3263     00A7  1903               	skipnz
  3264     00A8  28AA               	goto	u901
  3265     00A9  28AB               	goto	u900
  3266     00AA                     u901:
  3267     00AA  28B9               	goto	l2466
  3268     00AB                     u900:
  3269     00AB                     l2462:
  3270     00AB  0020               	movlb	0	; select bank0
  3271     00AC  0E34               	swapf	_rxValue,w
  3272     00AD  390F               	andlw	15
  3273     00AE  3183  2337  3180   	fcall	_isValidFloor
  3274     00B1  3A00               	xorlw	0
  3275     00B2  1903               	skipnz
  3276     00B3  28B5               	goto	u911
  3277     00B4  28B6               	goto	u910
  3278     00B5                     u911:
  3279     00B5  28B9               	goto	l2466
  3280     00B6                     u910:
  3281     00B6                     l2464:
  3282                           
  3283                           ;main.c: 244:                             RXaccepted = 1;
  3284     00B6  0020               	movlb	0	; select bank0
  3285     00B7  01B2               	clrf	_RXaccepted
  3286     00B8  0AB2               	incf	_RXaccepted,f
  3287     00B9                     l2466:
  3288                           
  3289                           ;main.c: 247:                     waitRX = 0;
  3290     00B9  0020               	movlb	0	; select bank0
  3291     00BA  01B3               	clrf	_waitRX
  3292                           
  3293                           ;main.c: 248:             }
  3294     00BB  287B               	goto	l2446
  3295     00BC                     l2468:
  3296     00BC  0834               	movf	_rxValue,w
  3297     00BD  00C6               	movwf	??_main
  3298     00BE  01C7               	clrf	??_main+1
  3299                           
  3300                           ; Switch on 2 bytes has been partitioned into a top level switch of size 1, and 1 sub-sw
      +                          itches
  3301                           ; Switch size 1, requested type "simple"
  3302                           ; Number of cases is 1, Range of values is 0 to 0
  3303                           ; switch strategies available:
  3304                           ; Name         Instructions Cycles
  3305                           ; simple_byte            4     3 (average)
  3306                           ; direct_byte            8     6 (fixed)
  3307                           ; jumptable            260     6 (fixed)
  3308                           ;	Chosen strategy is simple_byte
  3309     00BF  0847               	movf	??_main+1,w
  3310     00C0  3A00               	xorlw	0	; case 0
  3311     00C1  1903               	skipnz
  3312     00C2  28C4               	goto	l2494
  3313     00C3  289B               	goto	l2456
  3314     00C4                     l2494:
  3315                           
  3316                           ; Switch size 1, requested type "simple"
  3317                           ; Number of cases is 2, Range of values is 13 to 36
  3318                           ; switch strategies available:
  3319                           ; Name         Instructions Cycles
  3320                           ; simple_byte            7     4 (average)
  3321                           ; direct_byte           57     9 (fixed)
  3322                           ; jumptable            263     9 (fixed)
  3323                           ;	Chosen strategy is simple_byte
  3324     00C4  0846               	movf	??_main,w
  3325     00C5  3A0D               	xorlw	13	; case 13
  3326     00C6  1903               	skipnz
  3327     00C7  288C               	goto	l2450
  3328     00C8  3A29               	xorlw	41	; case 36
  3329     00C9  1903               	skipnz
  3330     00CA  2889               	goto	l679
  3331     00CB  289B               	goto	l2456
  3332     00CC  3180  2849         	ljmp	start
  3333     00CE                     __end_of_main:
  3334                           
  3335                           	psect	text1
  3336     0337                     __ptext1:	
  3337 ;; *************** function _isValidFloor *****************
  3338 ;; Defined at:
  3339 ;;		line 52 in file "main.c"
  3340 ;; Parameters:    Size  Location     Type
  3341 ;;  floor           1    wreg     unsigned char 
  3342 ;; Auto vars:     Size  Location     Type
  3343 ;;  floor           1    1[BANK0 ] unsigned char 
  3344 ;; Return value:  Size  Location     Type
  3345 ;;                  1    wreg      _Bool 
  3346 ;; Registers used:
  3347 ;;		wreg, status,2
  3348 ;; Tracked objects:
  3349 ;;		On entry : 0/0
  3350 ;;		On exit  : 0/0
  3351 ;;		Unchanged: 0/0
  3352 ;; Data sizes:     COMMON   BANK0   BANK1   BANK2   BANK3   BANK4
  3353 ;;      Params:         0       0       0       0       0       0
  3354 ;;      Locals:         0       2       0       0       0       0
  3355 ;;      Temps:          0       0       0       0       0       0
  3356 ;;      Totals:         0       2       0       0       0       0
  3357 ;;Total ram usage:        2 bytes
  3358 ;; Hardware stack levels used: 1
  3359 ;; Hardware stack levels required when called: 7
  3360 ;; This function calls:
  3361 ;;		Nothing
  3362 ;; This function is called by:
  3363 ;;		_main
  3364 ;; This function uses a non-reentrant model
  3365 ;;
  3366                           
  3367     0337                     _isValidFloor:	
  3368                           ;psect for function _isValidFloor
  3369                           
  3370                           
  3371                           ;incstack = 0
  3372                           ; Regs used in _isValidFloor: [wreg+status,2]
  3373                           ;isValidFloor@floor stored from wreg
  3374     0337  0020               	movlb	0	; select bank0
  3375     0338  00B6               	movwf	isValidFloor@floor
  3376     0339                     l2346:
  3377                           
  3378                           ;main.c: 53:     return floor >= '0' && floor <= '3';
  3379     0339  01B5               	clrf	_isValidFloor$1320
  3380     033A                     l2348:
  3381     033A  3030               	movlw	48
  3382     033B  0236               	subwf	isValidFloor@floor,w
  3383     033C  1C03               	skipc
  3384     033D  2B3F               	goto	u711
  3385     033E  2B40               	goto	u710
  3386     033F                     u711:
  3387     033F  2B48               	goto	l2354
  3388     0340                     u710:
  3389     0340                     l2350:
  3390     0340  3034               	movlw	52
  3391     0341  0236               	subwf	isValidFloor@floor,w
  3392     0342  1803               	skipnc
  3393     0343  2B45               	goto	u721
  3394     0344  2B46               	goto	u720
  3395     0345                     u721:
  3396     0345  2B48               	goto	l2354
  3397     0346                     u720:
  3398     0346                     l2352:
  3399     0346  01B5               	clrf	_isValidFloor$1320
  3400     0347  0AB5               	incf	_isValidFloor$1320,f
  3401     0348                     l2354:
  3402     0348  0835               	movf	_isValidFloor$1320,w
  3403     0349                     l623:
  3404     0349  0008               	return
  3405     034A                     __end_of_isValidFloor:
  3406                           
  3407                           	psect	text2
  3408     0129                     __ptext2:	
  3409 ;; *************** function _initMatrix *****************
  3410 ;; Defined at:
  3411 ;;		line 84 in file "main.c"
  3412 ;; Parameters:    Size  Location     Type
  3413 ;;		None
  3414 ;; Auto vars:     Size  Location     Type
  3415 ;;  j               1   16[BANK0 ] unsigned char 
  3416 ;;  i               1   15[BANK0 ] unsigned char 
  3417 ;;  i               1   14[BANK0 ] unsigned char 
  3418 ;;  data            4    9[BANK0 ] unsigned char [4]
  3419 ;;  k               1   13[BANK0 ] unsigned char 
  3420 ;; Return value:  Size  Location     Type
  3421 ;;                  1    wreg      void 
  3422 ;; Registers used:
  3423 ;;		wreg, fsr0l, fsr0h, fsr1l, fsr1h, status,2, status,0, pclath, cstack
  3424 ;; Tracked objects:
  3425 ;;		On entry : 0/0
  3426 ;;		On exit  : 0/0
  3427 ;;		Unchanged: 0/0
  3428 ;; Data sizes:     COMMON   BANK0   BANK1   BANK2   BANK3   BANK4
  3429 ;;      Params:         0       0       0       0       0       0
  3430 ;;      Locals:         0       8       0       0       0       0
  3431 ;;      Temps:          0       1       0       0       0       0
  3432 ;;      Totals:         0       9       0       0       0       0
  3433 ;;Total ram usage:        9 bytes
  3434 ;; Hardware stack levels used: 1
  3435 ;; Hardware stack levels required when called: 9
  3436 ;; This function calls:
  3437 ;;		_txSpi
  3438 ;; This function is called by:
  3439 ;;		_main
  3440 ;; This function uses a non-reentrant model
  3441 ;;
  3442                           
  3443     0129                     _initMatrix:	
  3444                           ;psect for function _initMatrix
  3445                           
  3446     0129                     l2358:	
  3447                           ;incstack = 0
  3448                           ; Regs used in _initMatrix: [wreg-fsr1h+status,2+status,0+pclath+cstack]
  3449                           
  3450                           
  3451                           ;main.c: 85:     uint8_t data[4];;main.c: 86:     uint8_t k=0;
  3452     0129  0020               	movlb	0	; select bank0
  3453     012A  01C2               	clrf	initMatrix@k
  3454                           
  3455                           ;main.c: 87:    for(uint8_t i =0; i<8; i++){
  3456     012B  01C3               	clrf	initMatrix@i
  3457     012C                     l2364:
  3458                           
  3459                           ;main.c: 88:             MatrixLed[i] = 0;
  3460     012C  0843               	movf	initMatrix@i,w
  3461     012D  3E20               	addlw	(low (_MatrixLed| 0))& (0+255)
  3462     012E  0086               	movwf	6
  3463     012F  0187               	clrf	7
  3464     0130  0181               	clrf	1
  3465     0131                     l2366:
  3466                           
  3467                           ;main.c: 89:         }
  3468     0131  3001               	movlw	1
  3469     0132  00BD               	movwf	??_initMatrix
  3470     0133  083D               	movf	??_initMatrix,w
  3471     0134  07C3               	addwf	initMatrix@i,f
  3472     0135                     l2368:
  3473     0135  3008               	movlw	8
  3474     0136  0243               	subwf	initMatrix@i,w
  3475     0137  1C03               	skipc
  3476     0138  293A               	goto	u731
  3477     0139  293B               	goto	u730
  3478     013A                     u731:
  3479     013A  292C               	goto	l2364
  3480     013B                     u730:
  3481     013B                     l2370:
  3482                           
  3483                           ;main.c: 90:     for(uint8_t i=0;i<6;i++){
  3484     013B  01C4               	clrf	initMatrix@i_1343
  3485     013C                     l2376:
  3486                           
  3487                           ;main.c: 91:         for(uint8_t j=0;j<4;j=j+2){
  3488     013C  01C5               	clrf	initMatrix@j
  3489     013D                     l2382:
  3490                           
  3491                           ;main.c: 92:             data[j]= matrix_conf[k];
  3492     013D  0845               	movf	initMatrix@j,w
  3493     013E  3E3E               	addlw	(low (initMatrix@data| 0))& (0+255)
  3494     013F  0086               	movwf	6
  3495     0140  0187               	clrf	7
  3496     0141  0842               	movf	initMatrix@k,w
  3497     0142  3EF0               	addlw	low (_matrix_conf| (0+32768))
  3498     0143  0084               	movwf	4
  3499     0144  3083               	movlw	high (_matrix_conf| (0+32768))
  3500     0145  1803               	skipnc
  3501     0146  3E01               	addlw	1
  3502     0147  0085               	movwf	5
  3503     0148  0800               	movf	0,w	;code access
  3504     0149  0081               	movwf	1
  3505                           
  3506                           ;main.c: 93:             data[j+1]= matrix_conf[k+1];
  3507     014A  0845               	movf	initMatrix@j,w
  3508     014B  3E01               	addlw	1
  3509     014C  3E3E               	addlw	(low (initMatrix@data| 0))& (0+255)
  3510     014D  0086               	movwf	6
  3511     014E  0187               	clrf	7
  3512     014F  0842               	movf	initMatrix@k,w
  3513     0150  3EF1               	addlw	low ((_matrix_conf+1)| (0+32768))
  3514     0151  0084               	movwf	4
  3515     0152  3083               	movlw	high ((_matrix_conf+1)| (0+32768))
  3516     0153  1803               	skipnc
  3517     0154  3E01               	addlw	1
  3518     0155  0085               	movwf	5
  3519     0156  0800               	movf	0,w	;code access
  3520     0157  0081               	movwf	1
  3521     0158                     l2384:
  3522                           
  3523                           ;main.c: 94:         }
  3524     0158  0845               	movf	initMatrix@j,w
  3525     0159  3E02               	addlw	2
  3526     015A  00C5               	movwf	initMatrix@j
  3527     015B                     l2386:
  3528     015B  3004               	movlw	4
  3529     015C  0245               	subwf	initMatrix@j,w
  3530     015D  1C03               	skipc
  3531     015E  2960               	goto	u741
  3532     015F  2961               	goto	u740
  3533     0160                     u741:
  3534     0160  293D               	goto	l2382
  3535     0161                     u740:
  3536     0161                     l2388:
  3537                           
  3538                           ;main.c: 95:         k=k+2;
  3539     0161  0842               	movf	initMatrix@k,w
  3540     0162  3E02               	addlw	2
  3541     0163  00C2               	movwf	initMatrix@k
  3542     0164                     l2390:
  3543                           
  3544                           ;main.c: 96:         txSpi( data, 4);
  3545     0164  3004               	movlw	4
  3546     0165  00BA               	movwf	txSpi@dataSize
  3547     0166  3000               	movlw	0
  3548     0167  00BB               	movwf	txSpi@dataSize+1
  3549     0168  303E               	movlw	(low (initMatrix@data| 0))& (0+255)
  3550     0169  3183  237E  3181   	fcall	_txSpi
  3551     016C                     l2394:
  3552                           
  3553                           ;main.c: 100:     }
  3554     016C  3001               	movlw	1
  3555     016D  0020               	movlb	0	; select bank0
  3556     016E  00BD               	movwf	??_initMatrix
  3557     016F  083D               	movf	??_initMatrix,w
  3558     0170  07C4               	addwf	initMatrix@i_1343,f
  3559     0171                     l2396:
  3560     0171  3006               	movlw	6
  3561     0172  0244               	subwf	initMatrix@i_1343,w
  3562     0173  1C03               	skipc
  3563     0174  2976               	goto	u751
  3564     0175  2977               	goto	u750
  3565     0176                     u751:
  3566     0176  293C               	goto	l2376
  3567     0177                     u750:
  3568     0177                     l649:
  3569     0177  0008               	return
  3570     0178                     __end_of_initMatrix:
  3571                           
  3572                           	psect	text3
  3573     037E                     __ptext3:	
  3574 ;; *************** function _txSpi *****************
  3575 ;; Defined at:
  3576 ;;		line 56 in file "main.c"
  3577 ;; Parameters:    Size  Location     Type
  3578 ;;  data            1    wreg     PTR unsigned char 
  3579 ;;		 -> initMatrix@data(4), matrixUpdate@data(2), 
  3580 ;;  dataSize        2    5[BANK0 ] unsigned int 
  3581 ;; Auto vars:     Size  Location     Type
  3582 ;;  data            1    7[BANK0 ] PTR unsigned char 
  3583 ;;		 -> initMatrix@data(4), matrixUpdate@data(2), 
  3584 ;; Return value:  Size  Location     Type
  3585 ;;                  1    wreg      void 
  3586 ;; Registers used:
  3587 ;;		wreg, fsr1l, fsr1h, status,2, status,0, pclath, cstack
  3588 ;; Tracked objects:
  3589 ;;		On entry : 0/0
  3590 ;;		On exit  : 0/0
  3591 ;;		Unchanged: 0/0
  3592 ;; Data sizes:     COMMON   BANK0   BANK1   BANK2   BANK3   BANK4
  3593 ;;      Params:         0       2       0       0       0       0
  3594 ;;      Locals:         0       1       0       0       0       0
  3595 ;;      Temps:          0       0       0       0       0       0
  3596 ;;      Totals:         0       3       0       0       0       0
  3597 ;;Total ram usage:        3 bytes
  3598 ;; Hardware stack levels used: 1
  3599 ;; Hardware stack levels required when called: 8
  3600 ;; This function calls:
  3601 ;;		_SPI1_ExchangeBlock
  3602 ;; This function is called by:
  3603 ;;		_initMatrix
  3604 ;; This function uses a non-reentrant model
  3605 ;;
  3606                           
  3607     037E                     _txSpi:	
  3608                           ;psect for function _txSpi
  3609                           
  3610                           
  3611                           ;incstack = 0
  3612                           ; Regs used in _txSpi: [wreg+fsr1l+fsr1h+status,2+status,0+pclath+cstack]
  3613                           ;txSpi@data stored from wreg
  3614     037E  0020               	movlb	0	; select bank0
  3615     037F  00BC               	movwf	txSpi@data
  3616     0380                     l626:	
  3617                           ;main.c: 57:     do { LATBbits.LATB1 = 0; } while(0);
  3618                           
  3619     0380  0022               	movlb	2	; select bank2
  3620     0381  108D               	bcf	13,1	;volatile
  3621     0382                     l2282:
  3622                           
  3623                           ;main.c: 58:     SPI1_ExchangeBlock(data,dataSize);
  3624     0382  0020               	movlb	0	; select bank0
  3625     0383  083B               	movf	txSpi@dataSize+1,w
  3626     0384  00B6               	movwf	SPI1_ExchangeBlock@blockSize+1
  3627     0385  083A               	movf	txSpi@dataSize,w
  3628     0386  00B5               	movwf	SPI1_ExchangeBlock@blockSize
  3629     0387  083C               	movf	txSpi@data,w
  3630     0388  3182  222C  3183   	fcall	_SPI1_ExchangeBlock
  3631     038B                     l2284:
  3632     038B  0022               	movlb	2	; select bank2
  3633     038C  148D               	bsf	13,1	;volatile
  3634     038D                     l630:
  3635     038D  0008               	return
  3636     038E                     __end_of_txSpi:
  3637                           
  3638                           	psect	text4
  3639     022C                     __ptext4:	
  3640 ;; *************** function _SPI1_ExchangeBlock *****************
  3641 ;; Defined at:
  3642 ;;		line 100 in file "mcc_generated_files/spi1.c"
  3643 ;; Parameters:    Size  Location     Type
  3644 ;;  block           1    wreg     PTR void 
  3645 ;;		 -> initMatrix@data(4), matrixUpdate@data(2), 
  3646 ;;  blockSize       2    0[BANK0 ] unsigned int 
  3647 ;; Auto vars:     Size  Location     Type
  3648 ;;  block           1    3[BANK0 ] PTR void 
  3649 ;;		 -> initMatrix@data(4), matrixUpdate@data(2), 
  3650 ;;  data            1    4[BANK0 ] PTR unsigned char 
  3651 ;;		 -> initMatrix@data(4), matrixUpdate@data(2), 
  3652 ;; Return value:  Size  Location     Type
  3653 ;;                  1    wreg      void 
  3654 ;; Registers used:
  3655 ;;		wreg, fsr1l, fsr1h, status,2, status,0
  3656 ;; Tracked objects:
  3657 ;;		On entry : 0/0
  3658 ;;		On exit  : 0/0
  3659 ;;		Unchanged: 0/0
  3660 ;; Data sizes:     COMMON   BANK0   BANK1   BANK2   BANK3   BANK4
  3661 ;;      Params:         0       2       0       0       0       0
  3662 ;;      Locals:         0       2       0       0       0       0
  3663 ;;      Temps:          0       1       0       0       0       0
  3664 ;;      Totals:         0       5       0       0       0       0
  3665 ;;Total ram usage:        5 bytes
  3666 ;; Hardware stack levels used: 1
  3667 ;; Hardware stack levels required when called: 7
  3668 ;; This function calls:
  3669 ;;		Nothing
  3670 ;; This function is called by:
  3671 ;;		_txSpi
  3672 ;; This function uses a non-reentrant model
  3673 ;;
  3674                           
  3675     022C                     _SPI1_ExchangeBlock:	
  3676                           ;psect for function _SPI1_ExchangeBlock
  3677                           
  3678                           
  3679                           ;incstack = 0
  3680                           ; Regs used in _SPI1_ExchangeBlock: [wreg+fsr1l+fsr1h+status,2+status,0]
  3681                           ;SPI1_ExchangeBlock@block stored from wreg
  3682     022C  0020               	movlb	0	; select bank0
  3683     022D  00B8               	movwf	SPI1_ExchangeBlock@block
  3684     022E                     l2024:
  3685                           
  3686                           ;mcc_generated_files/spi1.c: 100: void SPI1_ExchangeBlock(void *block, size_t blockSize)
      +                          ;mcc_generated_files/spi1.c: 101: {;mcc_generated_files/spi1.c: 102:     uint8_t *data =
      +                           block;
  3687     022E  0838               	movf	SPI1_ExchangeBlock@block,w
  3688     022F  00B9               	movwf	SPI1_ExchangeBlock@data
  3689                           
  3690                           ;mcc_generated_files/spi1.c: 103:     while(blockSize--)
  3691     0230  2A48               	goto	l2032
  3692     0231                     l2026:
  3693                           
  3694                           ;mcc_generated_files/spi1.c: 104:     {;mcc_generated_files/spi1.c: 105:         SSP1BUF
      +                           = *data;
  3695     0231  0839               	movf	SPI1_ExchangeBlock@data,w
  3696     0232  0086               	movwf	6
  3697     0233  0187               	clrf	7
  3698     0234  0801               	movf	1,w
  3699     0235  0024               	movlb	4	; select bank4
  3700     0236  0091               	movwf	17	;volatile
  3701     0237                     l388:	
  3702                           ;mcc_generated_files/spi1.c: 106:         while(!PIR1bits.SSP1IF);
  3703                           
  3704     0237  0020               	movlb	0	; select bank0
  3705     0238  1D91               	btfss	17,3	;volatile
  3706     0239  2A3B               	goto	u541
  3707     023A  2A3C               	goto	u540
  3708     023B                     u541:
  3709     023B  2A37               	goto	l388
  3710     023C                     u540:
  3711     023C                     l390:
  3712                           
  3713                           ;mcc_generated_files/spi1.c: 107:         PIR1bits.SSP1IF = 0;
  3714     023C  1191               	bcf	17,3	;volatile
  3715     023D                     l2028:
  3716                           
  3717                           ;mcc_generated_files/spi1.c: 108:         *data++ = SSP1BUF;
  3718     023D  0839               	movf	SPI1_ExchangeBlock@data,w
  3719     023E  0086               	movwf	6
  3720     023F  0187               	clrf	7
  3721     0240  0024               	movlb	4	; select bank4
  3722     0241  0811               	movf	17,w	;volatile
  3723     0242  0081               	movwf	1
  3724     0243                     l2030:
  3725     0243  3001               	movlw	1
  3726     0244  0020               	movlb	0	; select bank0
  3727     0245  00B7               	movwf	??_SPI1_ExchangeBlock
  3728     0246  0837               	movf	??_SPI1_ExchangeBlock,w
  3729     0247  07B9               	addwf	SPI1_ExchangeBlock@data,f
  3730     0248                     l2032:
  3731                           
  3732                           ;mcc_generated_files/spi1.c: 103:     while(blockSize--)
  3733     0248  3001               	movlw	1
  3734     0249  02B5               	subwf	SPI1_ExchangeBlock@blockSize,f
  3735     024A  3000               	movlw	0
  3736     024B  3BB6               	subwfb	SPI1_ExchangeBlock@blockSize+1,f
  3737     024C  0A35               	incf	SPI1_ExchangeBlock@blockSize,w
  3738     024D  1D03               	skipz
  3739     024E  2A53               	goto	u551
  3740     024F  0A36               	incf	SPI1_ExchangeBlock@blockSize+1,w
  3741     0250  1D03               	btfss	3,2
  3742     0251  2A53               	goto	u551
  3743     0252  2A54               	goto	u550
  3744     0253                     u551:
  3745     0253  2A31               	goto	l2026
  3746     0254                     u550:
  3747     0254                     l392:
  3748     0254  0008               	return
  3749     0255                     __end_of_SPI1_ExchangeBlock:
  3750                           
  3751                           	psect	text5
  3752     0255                     __ptext5:	
  3753 ;; *************** function _SYSTEM_Initialize *****************
  3754 ;; Defined at:
  3755 ;;		line 50 in file "mcc_generated_files/mcc.c"
  3756 ;; Parameters:    Size  Location     Type
  3757 ;;		None
  3758 ;; Auto vars:     Size  Location     Type
  3759 ;;		None
  3760 ;; Return value:  Size  Location     Type
  3761 ;;                  1    wreg      void 
  3762 ;; Registers used:
  3763 ;;		wreg, status,2, status,0, pclath, cstack
  3764 ;; Tracked objects:
  3765 ;;		On entry : 0/0
  3766 ;;		On exit  : 0/0
  3767 ;;		Unchanged: 0/0
  3768 ;; Data sizes:     COMMON   BANK0   BANK1   BANK2   BANK3   BANK4
  3769 ;;      Params:         0       0       0       0       0       0
  3770 ;;      Locals:         0       0       0       0       0       0
  3771 ;;      Temps:          0       0       0       0       0       0
  3772 ;;      Totals:         0       0       0       0       0       0
  3773 ;;Total ram usage:        0 bytes
  3774 ;; Hardware stack levels used: 1
  3775 ;; Hardware stack levels required when called: 9
  3776 ;; This function calls:
  3777 ;;		_ADC_Initialize
  3778 ;;		_CMP1_Initialize
  3779 ;;		_CMP2_Initialize
  3780 ;;		_EUSART_Initialize
  3781 ;;		_FVR_Initialize
  3782 ;;		_OSCILLATOR_Initialize
  3783 ;;		_PIN_MANAGER_Initialize
  3784 ;;		_PWM3_Initialize
  3785 ;;		_SPI1_Initialize
  3786 ;;		_TMR0_Initialize
  3787 ;;		_TMR1_Initialize
  3788 ;;		_TMR2_Initialize
  3789 ;;		_WDT_Initialize
  3790 ;; This function is called by:
  3791 ;;		_main
  3792 ;; This function uses a non-reentrant model
  3793 ;;
  3794                           
  3795     0255                     _SYSTEM_Initialize:	
  3796                           ;psect for function _SYSTEM_Initialize
  3797                           
  3798     0255                     l2302:	
  3799                           ;incstack = 0
  3800                           ; Regs used in _SYSTEM_Initialize: [wreg+status,2+status,0+pclath+cstack]
  3801                           
  3802                           
  3803                           ;mcc_generated_files/mcc.c: 53:     SPI1_Initialize();
  3804     0255  3184  2414  3182   	fcall	_SPI1_Initialize
  3805                           
  3806                           ;mcc_generated_files/mcc.c: 54:     PIN_MANAGER_Initialize();
  3807     0258  3181  2178  3182   	fcall	_PIN_MANAGER_Initialize
  3808                           
  3809                           ;mcc_generated_files/mcc.c: 55:     OSCILLATOR_Initialize();
  3810     025B  3184  2438  3182   	fcall	_OSCILLATOR_Initialize
  3811                           
  3812                           ;mcc_generated_files/mcc.c: 56:     WDT_Initialize();
  3813     025E  3184  2484  3182   	fcall	_WDT_Initialize
  3814                           
  3815                           ;mcc_generated_files/mcc.c: 57:     CMP2_Initialize();
  3816     0261  3183  23FC  3182   	fcall	_CMP2_Initialize
  3817                           
  3818                           ;mcc_generated_files/mcc.c: 58:     FVR_Initialize();
  3819     0264  3184  2488  3182   	fcall	_FVR_Initialize
  3820                           
  3821                           ;mcc_generated_files/mcc.c: 59:     TMR2_Initialize();
  3822     0267  3184  2428  3182   	fcall	_TMR2_Initialize
  3823                           
  3824                           ;mcc_generated_files/mcc.c: 60:     TMR0_Initialize();
  3825     026A  3183  234A  3182   	fcall	_TMR0_Initialize
  3826                           
  3827                           ;mcc_generated_files/mcc.c: 61:     CMP1_Initialize();
  3828     026D  3184  2408  3182   	fcall	_CMP1_Initialize
  3829                           
  3830                           ;mcc_generated_files/mcc.c: 62:     ADC_Initialize();
  3831     0270  3184  2430  3182   	fcall	_ADC_Initialize
  3832                           
  3833                           ;mcc_generated_files/mcc.c: 63:     PWM3_Initialize();
  3834     0273  3184  241F  3182   	fcall	_PWM3_Initialize
  3835                           
  3836                           ;mcc_generated_files/mcc.c: 64:     TMR1_Initialize();
  3837     0276  3183  2306  3182   	fcall	_TMR1_Initialize
  3838                           
  3839                           ;mcc_generated_files/mcc.c: 65:     EUSART_Initialize();
  3840     0279  3182  22A4  3182   	fcall	_EUSART_Initialize
  3841     027C                     l207:
  3842     027C  0008               	return
  3843     027D                     __end_of_SYSTEM_Initialize:
  3844                           
  3845                           	psect	text6
  3846     0484                     __ptext6:	
  3847 ;; *************** function _WDT_Initialize *****************
  3848 ;; Defined at:
  3849 ;;		line 78 in file "mcc_generated_files/mcc.c"
  3850 ;; Parameters:    Size  Location     Type
  3851 ;;		None
  3852 ;; Auto vars:     Size  Location     Type
  3853 ;;		None
  3854 ;; Return value:  Size  Location     Type
  3855 ;;                  1    wreg      void 
  3856 ;; Registers used:
  3857 ;;		wreg
  3858 ;; Tracked objects:
  3859 ;;		On entry : 0/0
  3860 ;;		On exit  : 0/0
  3861 ;;		Unchanged: 0/0
  3862 ;; Data sizes:     COMMON   BANK0   BANK1   BANK2   BANK3   BANK4
  3863 ;;      Params:         0       0       0       0       0       0
  3864 ;;      Locals:         0       0       0       0       0       0
  3865 ;;      Temps:          0       0       0       0       0       0
  3866 ;;      Totals:         0       0       0       0       0       0
  3867 ;;Total ram usage:        0 bytes
  3868 ;; Hardware stack levels used: 1
  3869 ;; Hardware stack levels required when called: 7
  3870 ;; This function calls:
  3871 ;;		Nothing
  3872 ;; This function is called by:
  3873 ;;		_SYSTEM_Initialize
  3874 ;; This function uses a non-reentrant model
  3875 ;;
  3876                           
  3877     0484                     _WDT_Initialize:	
  3878                           ;psect for function _WDT_Initialize
  3879                           
  3880     0484                     l2202:	
  3881                           ;incstack = 0
  3882                           ; Regs used in _WDT_Initialize: [wreg]
  3883                           
  3884                           
  3885                           ;mcc_generated_files/mcc.c: 81:     WDTCON = 0x16;
  3886     0484  3016               	movlw	22
  3887     0485  0021               	movlb	1	; select bank1
  3888     0486  0097               	movwf	23	;volatile
  3889     0487                     l213:
  3890     0487  0008               	return
  3891     0488                     __end_of_WDT_Initialize:
  3892                           
  3893                           	psect	text7
  3894     0428                     __ptext7:	
  3895 ;; *************** function _TMR2_Initialize *****************
  3896 ;; Defined at:
  3897 ;;		line 62 in file "mcc_generated_files/tmr2.c"
  3898 ;; Parameters:    Size  Location     Type
  3899 ;;		None
  3900 ;; Auto vars:     Size  Location     Type
  3901 ;;		None
  3902 ;; Return value:  Size  Location     Type
  3903 ;;                  1    wreg      void 
  3904 ;; Registers used:
  3905 ;;		wreg, status,2
  3906 ;; Tracked objects:
  3907 ;;		On entry : 0/0
  3908 ;;		On exit  : 0/0
  3909 ;;		Unchanged: 0/0
  3910 ;; Data sizes:     COMMON   BANK0   BANK1   BANK2   BANK3   BANK4
  3911 ;;      Params:         0       0       0       0       0       0
  3912 ;;      Locals:         0       0       0       0       0       0
  3913 ;;      Temps:          0       0       0       0       0       0
  3914 ;;      Totals:         0       0       0       0       0       0
  3915 ;;Total ram usage:        0 bytes
  3916 ;; Hardware stack levels used: 1
  3917 ;; Hardware stack levels required when called: 7
  3918 ;; This function calls:
  3919 ;;		Nothing
  3920 ;; This function is called by:
  3921 ;;		_SYSTEM_Initialize
  3922 ;; This function uses a non-reentrant model
  3923 ;;
  3924                           
  3925     0428                     _TMR2_Initialize:	
  3926                           ;psect for function _TMR2_Initialize
  3927                           
  3928     0428                     l2206:	
  3929                           ;incstack = 0
  3930                           ; Regs used in _TMR2_Initialize: [wreg+status,2]
  3931                           
  3932                           
  3933                           ;mcc_generated_files/tmr2.c: 67:     PR2 = 0xFF;
  3934     0428  30FF               	movlw	255
  3935     0429  0020               	movlb	0	; select bank0
  3936     042A  009B               	movwf	27	;volatile
  3937     042B                     l2208:
  3938                           
  3939                           ;mcc_generated_files/tmr2.c: 70:     TMR2 = 0x00;
  3940     042B  019A               	clrf	26	;volatile
  3941     042C                     l2210:
  3942                           
  3943                           ;mcc_generated_files/tmr2.c: 73:     PIR1bits.TMR2IF = 0;
  3944     042C  1091               	bcf	17,1	;volatile
  3945     042D                     l2212:
  3946                           
  3947                           ;mcc_generated_files/tmr2.c: 76:     T2CON = 0x04;
  3948     042D  3004               	movlw	4
  3949     042E  009C               	movwf	28	;volatile
  3950     042F                     l519:
  3951     042F  0008               	return
  3952     0430                     __end_of_TMR2_Initialize:
  3953                           
  3954                           	psect	text8
  3955     0306                     __ptext8:	
  3956 ;; *************** function _TMR1_Initialize *****************
  3957 ;; Defined at:
  3958 ;;		line 64 in file "mcc_generated_files/tmr1.c"
  3959 ;; Parameters:    Size  Location     Type
  3960 ;;		None
  3961 ;; Auto vars:     Size  Location     Type
  3962 ;;		None
  3963 ;; Return value:  Size  Location     Type
  3964 ;;                  1    wreg      void 
  3965 ;; Registers used:
  3966 ;;		wreg, status,2, status,0, pclath, cstack
  3967 ;; Tracked objects:
  3968 ;;		On entry : 0/0
  3969 ;;		On exit  : 0/0
  3970 ;;		Unchanged: 0/0
  3971 ;; Data sizes:     COMMON   BANK0   BANK1   BANK2   BANK3   BANK4
  3972 ;;      Params:         0       0       0       0       0       0
  3973 ;;      Locals:         0       0       0       0       0       0
  3974 ;;      Temps:          0       0       0       0       0       0
  3975 ;;      Totals:         0       0       0       0       0       0
  3976 ;;Total ram usage:        0 bytes
  3977 ;; Hardware stack levels used: 1
  3978 ;; Hardware stack levels required when called: 8
  3979 ;; This function calls:
  3980 ;;		_TMR1_SetInterruptHandler
  3981 ;; This function is called by:
  3982 ;;		_SYSTEM_Initialize
  3983 ;; This function uses a non-reentrant model
  3984 ;;
  3985                           
  3986     0306                     _TMR1_Initialize:	
  3987                           ;psect for function _TMR1_Initialize
  3988                           
  3989     0306                     l2232:	
  3990                           ;incstack = 0
  3991                           ; Regs used in _TMR1_Initialize: [wreg+status,2+status,0+pclath+cstack]
  3992                           
  3993                           
  3994                           ;mcc_generated_files/tmr1.c: 69:     T1GCON = 0x00;
  3995     0306  0020               	movlb	0	; select bank0
  3996     0307  0199               	clrf	25	;volatile
  3997     0308                     l2234:
  3998                           
  3999                           ;mcc_generated_files/tmr1.c: 72:     TMR1H = 0x6D;
  4000     0308  306D               	movlw	109
  4001     0309  0097               	movwf	23	;volatile
  4002     030A                     l2236:
  4003                           
  4004                           ;mcc_generated_files/tmr1.c: 75:     TMR1L = 0x84;
  4005     030A  3084               	movlw	132
  4006     030B  0096               	movwf	22	;volatile
  4007     030C                     l2238:
  4008                           
  4009                           ;mcc_generated_files/tmr1.c: 78:     PIR1bits.TMR1IF = 0;
  4010     030C  1011               	bcf	17,0	;volatile
  4011     030D                     l2240:
  4012                           
  4013                           ;mcc_generated_files/tmr1.c: 81:     timer1ReloadVal=(uint16_t)((TMR1H << 8) | TMR1L);
  4014     030D  0817               	movf	23,w	;volatile
  4015     030E  00AB               	movwf	_timer1ReloadVal+1	;volatile
  4016     030F  0816               	movf	22,w	;volatile
  4017     0310  00AA               	movwf	_timer1ReloadVal	;volatile
  4018     0311                     l2242:
  4019                           
  4020                           ;mcc_generated_files/tmr1.c: 84:     PIE1bits.TMR1IE = 1;
  4021     0311  0021               	movlb	1	; select bank1
  4022     0312  1411               	bsf	17,0	;volatile
  4023     0313                     l2244:
  4024                           
  4025                           ;mcc_generated_files/tmr1.c: 87:     TMR1_SetInterruptHandler(TMR1_DefaultInterruptHandl
      +                          er);
  4026     0313  308D               	movlw	low _TMR1_DefaultInterruptHandler
  4027     0314  0020               	movlb	0	; select bank0
  4028     0315  00B5               	movwf	TMR1_SetInterruptHandler@InterruptHandler
  4029     0316  3004               	movlw	high _TMR1_DefaultInterruptHandler
  4030     0317  00B6               	movwf	TMR1_SetInterruptHandler@InterruptHandler+1
  4031     0318  3184  2445  3183   	fcall	_TMR1_SetInterruptHandler
  4032     031B                     l2246:
  4033                           
  4034                           ;mcc_generated_files/tmr1.c: 90:     T1CON = 0x31;
  4035     031B  3031               	movlw	49
  4036     031C  0020               	movlb	0	; select bank0
  4037     031D  0098               	movwf	24	;volatile
  4038     031E                     l470:
  4039     031E  0008               	return
  4040     031F                     __end_of_TMR1_Initialize:
  4041                           
  4042                           	psect	text9
  4043     0445                     __ptext9:	
  4044 ;; *************** function _TMR1_SetInterruptHandler *****************
  4045 ;; Defined at:
  4046 ;;		line 178 in file "mcc_generated_files/tmr1.c"
  4047 ;; Parameters:    Size  Location     Type
  4048 ;;  InterruptHan    2    0[BANK0 ] PTR FTN()void 
  4049 ;;		 -> TMR1_DefaultInterruptHandler(1), 
  4050 ;; Auto vars:     Size  Location     Type
  4051 ;;		None
  4052 ;; Return value:  Size  Location     Type
  4053 ;;                  1    wreg      void 
  4054 ;; Registers used:
  4055 ;;		wreg
  4056 ;; Tracked objects:
  4057 ;;		On entry : 0/0
  4058 ;;		On exit  : 0/0
  4059 ;;		Unchanged: 0/0
  4060 ;; Data sizes:     COMMON   BANK0   BANK1   BANK2   BANK3   BANK4
  4061 ;;      Params:         0       2       0       0       0       0
  4062 ;;      Locals:         0       0       0       0       0       0
  4063 ;;      Temps:          0       0       0       0       0       0
  4064 ;;      Totals:         0       2       0       0       0       0
  4065 ;;Total ram usage:        2 bytes
  4066 ;; Hardware stack levels used: 1
  4067 ;; Hardware stack levels required when called: 7
  4068 ;; This function calls:
  4069 ;;		Nothing
  4070 ;; This function is called by:
  4071 ;;		_TMR1_Initialize
  4072 ;; This function uses a non-reentrant model
  4073 ;;
  4074                           
  4075     0445                     _TMR1_SetInterruptHandler:	
  4076                           ;psect for function _TMR1_SetInterruptHandler
  4077                           
  4078     0445                     l2034:	
  4079                           ;incstack = 0
  4080                           ; Regs used in _TMR1_SetInterruptHandler: [wreg]
  4081                           
  4082                           
  4083                           ;mcc_generated_files/tmr1.c: 179:     TMR1_InterruptHandler = InterruptHandler;
  4084     0445  0020               	movlb	0	; select bank0
  4085     0446  0836               	movf	TMR1_SetInterruptHandler@InterruptHandler+1,w
  4086     0447  00CB               	movwf	_TMR1_InterruptHandler+1
  4087     0448  0835               	movf	TMR1_SetInterruptHandler@InterruptHandler,w
  4088     0449  00CA               	movwf	_TMR1_InterruptHandler
  4089     044A                     l503:
  4090     044A  0008               	return
  4091     044B                     __end_of_TMR1_SetInterruptHandler:
  4092                           
  4093                           	psect	text10
  4094     034A                     __ptext10:	
  4095 ;; *************** function _TMR0_Initialize *****************
  4096 ;; Defined at:
  4097 ;;		line 64 in file "mcc_generated_files/tmr0.c"
  4098 ;; Parameters:    Size  Location     Type
  4099 ;;		None
  4100 ;; Auto vars:     Size  Location     Type
  4101 ;;		None
  4102 ;; Return value:  Size  Location     Type
  4103 ;;                  1    wreg      void 
  4104 ;; Registers used:
  4105 ;;		wreg, status,2, status,0, pclath, cstack
  4106 ;; Tracked objects:
  4107 ;;		On entry : 0/0
  4108 ;;		On exit  : 0/0
  4109 ;;		Unchanged: 0/0
  4110 ;; Data sizes:     COMMON   BANK0   BANK1   BANK2   BANK3   BANK4
  4111 ;;      Params:         0       0       0       0       0       0
  4112 ;;      Locals:         0       0       0       0       0       0
  4113 ;;      Temps:          0       0       0       0       0       0
  4114 ;;      Totals:         0       0       0       0       0       0
  4115 ;;Total ram usage:        0 bytes
  4116 ;; Hardware stack levels used: 1
  4117 ;; Hardware stack levels required when called: 8
  4118 ;; This function calls:
  4119 ;;		_TMR0_SetInterruptHandler
  4120 ;; This function is called by:
  4121 ;;		_SYSTEM_Initialize
  4122 ;; This function uses a non-reentrant model
  4123 ;;
  4124                           
  4125     034A                     _TMR0_Initialize:	
  4126                           ;psect for function _TMR0_Initialize
  4127                           
  4128     034A                     l2214:	
  4129                           ;incstack = 0
  4130                           ; Regs used in _TMR0_Initialize: [wreg+status,2+status,0+pclath+cstack]
  4131                           
  4132                           
  4133                           ;mcc_generated_files/tmr0.c: 69:     OPTION_REG = (uint8_t)((OPTION_REG & 0xC0) | (0xD7 
      +                          & 0x3F));
  4134     034A  0021               	movlb	1	; select bank1
  4135     034B  0815               	movf	21,w	;volatile
  4136     034C  39C0               	andlw	192
  4137     034D  3817               	iorlw	23
  4138     034E  0095               	movwf	21	;volatile
  4139     034F                     l2216:
  4140                           
  4141                           ;mcc_generated_files/tmr0.c: 72:     TMR0 = 0x00;
  4142     034F  0020               	movlb	0	; select bank0
  4143     0350  0195               	clrf	21	;volatile
  4144     0351                     l2218:
  4145                           
  4146                           ;mcc_generated_files/tmr0.c: 75:     timer0ReloadVal= 0;
  4147     0351  01AE               	clrf	_timer0ReloadVal	;volatile
  4148     0352                     l2220:
  4149                           
  4150                           ;mcc_generated_files/tmr0.c: 78:     INTCONbits.TMR0IF = 0;
  4151     0352  110B               	bcf	11,2	;volatile
  4152     0353                     l2222:
  4153                           
  4154                           ;mcc_generated_files/tmr0.c: 81:     INTCONbits.TMR0IE = 1;
  4155     0353  168B               	bsf	11,5	;volatile
  4156     0354                     l2224:
  4157                           
  4158                           ;mcc_generated_files/tmr0.c: 84:     TMR0_SetInterruptHandler(TMR0_DefaultInterruptHandl
      +                          er);
  4159     0354  308E               	movlw	low _TMR0_DefaultInterruptHandler
  4160     0355  00B5               	movwf	TMR0_SetInterruptHandler@InterruptHandler
  4161     0356  3004               	movlw	high _TMR0_DefaultInterruptHandler
  4162     0357  00B6               	movwf	TMR0_SetInterruptHandler@InterruptHandler+1
  4163     0358  3184  244B  3183   	fcall	_TMR0_SetInterruptHandler
  4164     035B                     l557:
  4165     035B  0008               	return
  4166     035C                     __end_of_TMR0_Initialize:
  4167                           
  4168                           	psect	text11
  4169     044B                     __ptext11:	
  4170 ;; *************** function _TMR0_SetInterruptHandler *****************
  4171 ;; Defined at:
  4172 ;;		line 140 in file "mcc_generated_files/tmr0.c"
  4173 ;; Parameters:    Size  Location     Type
  4174 ;;  InterruptHan    2    0[BANK0 ] PTR FTN()void 
  4175 ;;		 -> TMR0_DefaultInterruptHandler(1), 
  4176 ;; Auto vars:     Size  Location     Type
  4177 ;;		None
  4178 ;; Return value:  Size  Location     Type
  4179 ;;                  1    wreg      void 
  4180 ;; Registers used:
  4181 ;;		wreg
  4182 ;; Tracked objects:
  4183 ;;		On entry : 0/0
  4184 ;;		On exit  : 0/0
  4185 ;;		Unchanged: 0/0
  4186 ;; Data sizes:     COMMON   BANK0   BANK1   BANK2   BANK3   BANK4
  4187 ;;      Params:         0       2       0       0       0       0
  4188 ;;      Locals:         0       0       0       0       0       0
  4189 ;;      Temps:          0       0       0       0       0       0
  4190 ;;      Totals:         0       2       0       0       0       0
  4191 ;;Total ram usage:        2 bytes
  4192 ;; Hardware stack levels used: 1
  4193 ;; Hardware stack levels required when called: 7
  4194 ;; This function calls:
  4195 ;;		Nothing
  4196 ;; This function is called by:
  4197 ;;		_TMR0_Initialize
  4198 ;; This function uses a non-reentrant model
  4199 ;;
  4200                           
  4201     044B                     _TMR0_SetInterruptHandler:	
  4202                           ;psect for function _TMR0_SetInterruptHandler
  4203                           
  4204     044B                     l2036:	
  4205                           ;incstack = 0
  4206                           ; Regs used in _TMR0_SetInterruptHandler: [wreg]
  4207                           
  4208                           
  4209                           ;mcc_generated_files/tmr0.c: 141:     TMR0_InterruptHandler = InterruptHandler;
  4210     044B  0020               	movlb	0	; select bank0
  4211     044C  0836               	movf	TMR0_SetInterruptHandler@InterruptHandler+1,w
  4212     044D  00C9               	movwf	_TMR0_InterruptHandler+1
  4213     044E  0835               	movf	TMR0_SetInterruptHandler@InterruptHandler,w
  4214     044F  00C8               	movwf	_TMR0_InterruptHandler
  4215     0450                     l579:
  4216     0450  0008               	return
  4217     0451                     __end_of_TMR0_SetInterruptHandler:
  4218                           
  4219                           	psect	text12
  4220     0414                     __ptext12:	
  4221 ;; *************** function _SPI1_Initialize *****************
  4222 ;; Defined at:
  4223 ;;		line 62 in file "mcc_generated_files/spi1.c"
  4224 ;; Parameters:    Size  Location     Type
  4225 ;;		None
  4226 ;; Auto vars:     Size  Location     Type
  4227 ;;		None
  4228 ;; Return value:  Size  Location     Type
  4229 ;;                  1    wreg      void 
  4230 ;; Registers used:
  4231 ;;		wreg, status,2
  4232 ;; Tracked objects:
  4233 ;;		On entry : 0/0
  4234 ;;		On exit  : 0/0
  4235 ;;		Unchanged: 0/0
  4236 ;; Data sizes:     COMMON   BANK0   BANK1   BANK2   BANK3   BANK4
  4237 ;;      Params:         0       0       0       0       0       0
  4238 ;;      Locals:         0       0       0       0       0       0
  4239 ;;      Temps:          0       0       0       0       0       0
  4240 ;;      Totals:         0       0       0       0       0       0
  4241 ;;Total ram usage:        0 bytes
  4242 ;; Hardware stack levels used: 1
  4243 ;; Hardware stack levels required when called: 7
  4244 ;; This function calls:
  4245 ;;		Nothing
  4246 ;; This function is called by:
  4247 ;;		_SYSTEM_Initialize
  4248 ;; This function uses a non-reentrant model
  4249 ;;
  4250                           
  4251     0414                     _SPI1_Initialize:	
  4252                           ;psect for function _SPI1_Initialize
  4253                           
  4254     0414                     l2186:	
  4255                           ;incstack = 0
  4256                           ; Regs used in _SPI1_Initialize: [wreg+status,2]
  4257                           
  4258                           
  4259                           ;mcc_generated_files/spi1.c: 65:     SSP1STAT = 0x40;
  4260     0414  3040               	movlw	64
  4261     0415  0024               	movlb	4	; select bank4
  4262     0416  0094               	movwf	20	;volatile
  4263     0417                     l2188:
  4264                           
  4265                           ;mcc_generated_files/spi1.c: 66:     SSP1CON1 = 0x00;
  4266     0417  0195               	clrf	21	;volatile
  4267     0418                     l2190:
  4268                           
  4269                           ;mcc_generated_files/spi1.c: 67:     SSP1ADD = 0x01;
  4270     0418  3001               	movlw	1
  4271     0419  0092               	movwf	18	;volatile
  4272     041A                     l2192:
  4273                           
  4274                           ;mcc_generated_files/spi1.c: 68:     TRISBbits.TRISB4 = 0;
  4275     041A  0021               	movlb	1	; select bank1
  4276     041B  120D               	bcf	13,4	;volatile
  4277     041C                     l2194:
  4278                           
  4279                           ;mcc_generated_files/spi1.c: 69:     SSP1CON1bits.SSPEN = 0;
  4280     041C  0024               	movlb	4	; select bank4
  4281     041D  1295               	bcf	21,5	;volatile
  4282     041E                     l370:
  4283     041E  0008               	return
  4284     041F                     __end_of_SPI1_Initialize:
  4285                           
  4286                           	psect	text13
  4287     041F                     __ptext13:	
  4288 ;; *************** function _PWM3_Initialize *****************
  4289 ;; Defined at:
  4290 ;;		line 64 in file "mcc_generated_files/pwm3.c"
  4291 ;; Parameters:    Size  Location     Type
  4292 ;;		None
  4293 ;; Auto vars:     Size  Location     Type
  4294 ;;		None
  4295 ;; Return value:  Size  Location     Type
  4296 ;;                  1    wreg      void 
  4297 ;; Registers used:
  4298 ;;		wreg, status,2, status,0
  4299 ;; Tracked objects:
  4300 ;;		On entry : 0/0
  4301 ;;		On exit  : 0/0
  4302 ;;		Unchanged: 0/0
  4303 ;; Data sizes:     COMMON   BANK0   BANK1   BANK2   BANK3   BANK4
  4304 ;;      Params:         0       0       0       0       0       0
  4305 ;;      Locals:         0       0       0       0       0       0
  4306 ;;      Temps:          0       0       0       0       0       0
  4307 ;;      Totals:         0       0       0       0       0       0
  4308 ;;Total ram usage:        0 bytes
  4309 ;; Hardware stack levels used: 1
  4310 ;; Hardware stack levels required when called: 7
  4311 ;; This function calls:
  4312 ;;		Nothing
  4313 ;; This function is called by:
  4314 ;;		_SYSTEM_Initialize
  4315 ;; This function uses a non-reentrant model
  4316 ;;
  4317                           
  4318     041F                     _PWM3_Initialize:	
  4319                           ;psect for function _PWM3_Initialize
  4320                           
  4321     041F                     l2076:	
  4322                           ;incstack = 0
  4323                           ; Regs used in _PWM3_Initialize: [wreg+status,2+status,0]
  4324                           
  4325                           
  4326                           ;mcc_generated_files/pwm3.c: 69:  CCP3CON = 0x0C;
  4327     041F  300C               	movlw	12
  4328     0420  0026               	movlb	6	; select bank6
  4329     0421  0093               	movwf	19	;volatile
  4330     0422                     l2078:
  4331                           
  4332                           ;mcc_generated_files/pwm3.c: 72:  CCPR3L = 0x00;
  4333     0422  0191               	clrf	17	;volatile
  4334     0423                     l2080:
  4335                           
  4336                           ;mcc_generated_files/pwm3.c: 75:  CCPR3H = 0x00;
  4337     0423  0192               	clrf	18	;volatile
  4338     0424                     l2082:
  4339                           
  4340                           ;mcc_generated_files/pwm3.c: 78:  CCPTMRS0bits.C3TSEL = 0x0;
  4341     0424  30CF               	movlw	-49
  4342     0425  0025               	movlb	5	; select bank5
  4343     0426  059E               	andwf	30,f	;volatile
  4344     0427                     l11:
  4345     0427  0008               	return
  4346     0428                     __end_of_PWM3_Initialize:
  4347                           
  4348                           	psect	text14
  4349     0178                     __ptext14:	
  4350 ;; *************** function _PIN_MANAGER_Initialize *****************
  4351 ;; Defined at:
  4352 ;;		line 58 in file "mcc_generated_files/pin_manager.c"
  4353 ;; Parameters:    Size  Location     Type
  4354 ;;		None
  4355 ;; Auto vars:     Size  Location     Type
  4356 ;;		None
  4357 ;; Return value:  Size  Location     Type
  4358 ;;                  1    wreg      void 
  4359 ;; Registers used:
  4360 ;;		wreg, status,2, status,0, pclath, cstack
  4361 ;; Tracked objects:
  4362 ;;		On entry : 0/0
  4363 ;;		On exit  : 0/0
  4364 ;;		Unchanged: 0/0
  4365 ;; Data sizes:     COMMON   BANK0   BANK1   BANK2   BANK3   BANK4
  4366 ;;      Params:         0       0       0       0       0       0
  4367 ;;      Locals:         0       0       0       0       0       0
  4368 ;;      Temps:          0       0       0       0       0       0
  4369 ;;      Totals:         0       0       0       0       0       0
  4370 ;;Total ram usage:        0 bytes
  4371 ;; Hardware stack levels used: 1
  4372 ;; Hardware stack levels required when called: 8
  4373 ;; This function calls:
  4374 ;;		_IOCBF0_SetInterruptHandler
  4375 ;;		_IOCBF3_SetInterruptHandler
  4376 ;; This function is called by:
  4377 ;;		_SYSTEM_Initialize
  4378 ;; This function uses a non-reentrant model
  4379 ;;
  4380                           
  4381     0178                     _PIN_MANAGER_Initialize:	
  4382                           ;psect for function _PIN_MANAGER_Initialize
  4383                           
  4384     0178                     l2140:	
  4385                           ;incstack = 0
  4386                           ; Regs used in _PIN_MANAGER_Initialize: [wreg+status,2+status,0+pclath+cstack]
  4387                           
  4388                           
  4389                           ;mcc_generated_files/pin_manager.c: 63:     LATA = 0x00;
  4390     0178  0022               	movlb	2	; select bank2
  4391     0179  018C               	clrf	12	;volatile
  4392                           
  4393                           ;mcc_generated_files/pin_manager.c: 64:     LATB = 0x00;
  4394     017A  018D               	clrf	13	;volatile
  4395     017B                     l2142:
  4396                           
  4397                           ;mcc_generated_files/pin_manager.c: 69:     TRISA = 0x37;
  4398     017B  3037               	movlw	55
  4399     017C  0021               	movlb	1	; select bank1
  4400     017D  008C               	movwf	12	;volatile
  4401     017E                     l2144:
  4402                           
  4403                           ;mcc_generated_files/pin_manager.c: 70:     TRISB = 0xED;
  4404     017E  30ED               	movlw	237
  4405     017F  008D               	movwf	13	;volatile
  4406     0180                     l2146:
  4407                           
  4408                           ;mcc_generated_files/pin_manager.c: 75:     ANSELB = 0xC0;
  4409     0180  30C0               	movlw	192
  4410     0181  0023               	movlb	3	; select bank3
  4411     0182  008D               	movwf	13	;volatile
  4412     0183                     l2148:
  4413                           
  4414                           ;mcc_generated_files/pin_manager.c: 76:     ANSELA = 0x0F;
  4415     0183  300F               	movlw	15
  4416     0184  008C               	movwf	12	;volatile
  4417     0185                     l2150:
  4418                           
  4419                           ;mcc_generated_files/pin_manager.c: 81:     WPUB = 0x09;
  4420     0185  3009               	movlw	9
  4421     0186  0024               	movlb	4	; select bank4
  4422     0187  008D               	movwf	13	;volatile
  4423     0188                     l2152:
  4424                           
  4425                           ;mcc_generated_files/pin_manager.c: 82:     WPUA = 0x00;
  4426     0188  018C               	clrf	12	;volatile
  4427     0189                     l2154:
  4428                           
  4429                           ;mcc_generated_files/pin_manager.c: 83:     OPTION_REGbits.nWPUEN = 0;
  4430     0189  0021               	movlb	1	; select bank1
  4431     018A  1395               	bcf	21,7	;volatile
  4432                           
  4433                           ;mcc_generated_files/pin_manager.c: 89:     APFCON0 = 0xC0;
  4434     018B  30C0               	movlw	192
  4435     018C  0022               	movlb	2	; select bank2
  4436     018D  009D               	movwf	29	;volatile
  4437                           
  4438                           ;mcc_generated_files/pin_manager.c: 90:     APFCON1 = 0x01;
  4439     018E  3001               	movlw	1
  4440     018F  009E               	movwf	30	;volatile
  4441     0190                     l2156:
  4442                           
  4443                           ;mcc_generated_files/pin_manager.c: 96:     IOCBFbits.IOCBF0 = 0;
  4444     0190  0027               	movlb	7	; select bank7
  4445     0191  1016               	bcf	22,0	;volatile
  4446     0192                     l2158:
  4447                           
  4448                           ;mcc_generated_files/pin_manager.c: 98:     IOCBFbits.IOCBF3 = 0;
  4449     0192  1196               	bcf	22,3	;volatile
  4450     0193                     l2160:
  4451                           
  4452                           ;mcc_generated_files/pin_manager.c: 100:     IOCBNbits.IOCBN0 = 1;
  4453     0193  1415               	bsf	21,0	;volatile
  4454     0194                     l2162:
  4455                           
  4456                           ;mcc_generated_files/pin_manager.c: 102:     IOCBNbits.IOCBN3 = 1;
  4457     0194  1595               	bsf	21,3	;volatile
  4458     0195                     l2164:
  4459                           
  4460                           ;mcc_generated_files/pin_manager.c: 104:     IOCBPbits.IOCBP0 = 0;
  4461     0195  1014               	bcf	20,0	;volatile
  4462     0196                     l2166:
  4463                           
  4464                           ;mcc_generated_files/pin_manager.c: 106:     IOCBPbits.IOCBP3 = 0;
  4465     0196  1194               	bcf	20,3	;volatile
  4466     0197                     l2168:
  4467                           
  4468                           ;mcc_generated_files/pin_manager.c: 111:     IOCBF0_SetInterruptHandler(IOCBF0_DefaultIn
      +                          terruptHandler);
  4469     0197  3090               	movlw	low _IOCBF0_DefaultInterruptHandler
  4470     0198  0020               	movlb	0	; select bank0
  4471     0199  00B5               	movwf	IOCBF0_SetInterruptHandler@InterruptHandler
  4472     019A  3004               	movlw	high _IOCBF0_DefaultInterruptHandler
  4473     019B  00B6               	movwf	IOCBF0_SetInterruptHandler@InterruptHandler+1
  4474     019C  3184  2457  3181   	fcall	_IOCBF0_SetInterruptHandler
  4475     019F                     l2170:
  4476                           
  4477                           ;mcc_generated_files/pin_manager.c: 112:     IOCBF3_SetInterruptHandler(IOCBF3_DefaultIn
      +                          terruptHandler);
  4478     019F  308F               	movlw	low _IOCBF3_DefaultInterruptHandler
  4479     01A0  0020               	movlb	0	; select bank0
  4480     01A1  00B5               	movwf	IOCBF3_SetInterruptHandler@InterruptHandler
  4481     01A2  3004               	movlw	high _IOCBF3_DefaultInterruptHandler
  4482     01A3  00B6               	movwf	IOCBF3_SetInterruptHandler@InterruptHandler+1
  4483     01A4  3184  2451  3181   	fcall	_IOCBF3_SetInterruptHandler
  4484     01A7                     l2172:
  4485                           
  4486                           ;mcc_generated_files/pin_manager.c: 115:     INTCONbits.IOCIE = 1;
  4487     01A7  158B               	bsf	11,3	;volatile
  4488     01A8                     l145:
  4489     01A8  0008               	return
  4490     01A9                     __end_of_PIN_MANAGER_Initialize:
  4491                           
  4492                           	psect	text15
  4493     0451                     __ptext15:	
  4494 ;; *************** function _IOCBF3_SetInterruptHandler *****************
  4495 ;; Defined at:
  4496 ;;		line 181 in file "mcc_generated_files/pin_manager.c"
  4497 ;; Parameters:    Size  Location     Type
  4498 ;;  InterruptHan    2    0[BANK0 ] PTR FTN()void 
  4499 ;;		 -> chegadaS2(1), chegadaS1(1), IOCBF3_DefaultInterruptHandler(1), 
  4500 ;; Auto vars:     Size  Location     Type
  4501 ;;		None
  4502 ;; Return value:  Size  Location     Type
  4503 ;;                  1    wreg      void 
  4504 ;; Registers used:
  4505 ;;		wreg
  4506 ;; Tracked objects:
  4507 ;;		On entry : 0/0
  4508 ;;		On exit  : 0/0
  4509 ;;		Unchanged: 0/0
  4510 ;; Data sizes:     COMMON   BANK0   BANK1   BANK2   BANK3   BANK4
  4511 ;;      Params:         0       2       0       0       0       0
  4512 ;;      Locals:         0       0       0       0       0       0
  4513 ;;      Temps:          0       0       0       0       0       0
  4514 ;;      Totals:         0       2       0       0       0       0
  4515 ;;Total ram usage:        2 bytes
  4516 ;; Hardware stack levels used: 1
  4517 ;; Hardware stack levels required when called: 7
  4518 ;; This function calls:
  4519 ;;		Nothing
  4520 ;; This function is called by:
  4521 ;;		_PIN_MANAGER_Initialize
  4522 ;;		_main
  4523 ;; This function uses a non-reentrant model
  4524 ;;
  4525                           
  4526     0451                     _IOCBF3_SetInterruptHandler:	
  4527                           ;psect for function _IOCBF3_SetInterruptHandler
  4528                           
  4529     0451                     l2016:	
  4530                           ;incstack = 0
  4531                           ; Regs used in _IOCBF3_SetInterruptHandler: [wreg]
  4532                           
  4533                           
  4534                           ;mcc_generated_files/pin_manager.c: 182:     IOCBF3_InterruptHandler = InterruptHandler;
  4535     0451  0020               	movlb	0	; select bank0
  4536     0452  0836               	movf	IOCBF3_SetInterruptHandler@InterruptHandler+1,w
  4537     0453  00D3               	movwf	_IOCBF3_InterruptHandler+1
  4538     0454  0835               	movf	IOCBF3_SetInterruptHandler@InterruptHandler,w
  4539     0455  00D2               	movwf	_IOCBF3_InterruptHandler
  4540     0456                     l167:
  4541     0456  0008               	return
  4542     0457                     __end_of_IOCBF3_SetInterruptHandler:
  4543                           
  4544                           	psect	text16
  4545     0457                     __ptext16:	
  4546 ;; *************** function _IOCBF0_SetInterruptHandler *****************
  4547 ;; Defined at:
  4548 ;;		line 151 in file "mcc_generated_files/pin_manager.c"
  4549 ;; Parameters:    Size  Location     Type
  4550 ;;  InterruptHan    2    0[BANK0 ] PTR FTN()void 
  4551 ;;		 -> IOCBF0_DefaultInterruptHandler(1), 
  4552 ;; Auto vars:     Size  Location     Type
  4553 ;;		None
  4554 ;; Return value:  Size  Location     Type
  4555 ;;                  1    wreg      void 
  4556 ;; Registers used:
  4557 ;;		wreg
  4558 ;; Tracked objects:
  4559 ;;		On entry : 0/0
  4560 ;;		On exit  : 0/0
  4561 ;;		Unchanged: 0/0
  4562 ;; Data sizes:     COMMON   BANK0   BANK1   BANK2   BANK3   BANK4
  4563 ;;      Params:         0       2       0       0       0       0
  4564 ;;      Locals:         0       0       0       0       0       0
  4565 ;;      Temps:          0       0       0       0       0       0
  4566 ;;      Totals:         0       2       0       0       0       0
  4567 ;;Total ram usage:        2 bytes
  4568 ;; Hardware stack levels used: 1
  4569 ;; Hardware stack levels required when called: 7
  4570 ;; This function calls:
  4571 ;;		Nothing
  4572 ;; This function is called by:
  4573 ;;		_PIN_MANAGER_Initialize
  4574 ;; This function uses a non-reentrant model
  4575 ;;
  4576                           
  4577     0457                     _IOCBF0_SetInterruptHandler:	
  4578                           ;psect for function _IOCBF0_SetInterruptHandler
  4579                           
  4580     0457                     l2014:	
  4581                           ;incstack = 0
  4582                           ; Regs used in _IOCBF0_SetInterruptHandler: [wreg]
  4583                           
  4584                           
  4585                           ;mcc_generated_files/pin_manager.c: 152:     IOCBF0_InterruptHandler = InterruptHandler;
  4586     0457  0020               	movlb	0	; select bank0
  4587     0458  0836               	movf	IOCBF0_SetInterruptHandler@InterruptHandler+1,w
  4588     0459  00D5               	movwf	_IOCBF0_InterruptHandler+1
  4589     045A  0835               	movf	IOCBF0_SetInterruptHandler@InterruptHandler,w
  4590     045B  00D4               	movwf	_IOCBF0_InterruptHandler
  4591     045C                     l157:
  4592     045C  0008               	return
  4593     045D                     __end_of_IOCBF0_SetInterruptHandler:
  4594                           
  4595                           	psect	text17
  4596     0438                     __ptext17:	
  4597 ;; *************** function _OSCILLATOR_Initialize *****************
  4598 ;; Defined at:
  4599 ;;		line 68 in file "mcc_generated_files/mcc.c"
  4600 ;; Parameters:    Size  Location     Type
  4601 ;;		None
  4602 ;; Auto vars:     Size  Location     Type
  4603 ;;		None
  4604 ;; Return value:  Size  Location     Type
  4605 ;;                  1    wreg      void 
  4606 ;; Registers used:
  4607 ;;		wreg, status,2
  4608 ;; Tracked objects:
  4609 ;;		On entry : 0/0
  4610 ;;		On exit  : 0/0
  4611 ;;		Unchanged: 0/0
  4612 ;; Data sizes:     COMMON   BANK0   BANK1   BANK2   BANK3   BANK4
  4613 ;;      Params:         0       0       0       0       0       0
  4614 ;;      Locals:         0       0       0       0       0       0
  4615 ;;      Temps:          0       0       0       0       0       0
  4616 ;;      Totals:         0       0       0       0       0       0
  4617 ;;Total ram usage:        0 bytes
  4618 ;; Hardware stack levels used: 1
  4619 ;; Hardware stack levels required when called: 7
  4620 ;; This function calls:
  4621 ;;		Nothing
  4622 ;; This function is called by:
  4623 ;;		_SYSTEM_Initialize
  4624 ;; This function uses a non-reentrant model
  4625 ;;
  4626                           
  4627     0438                     _OSCILLATOR_Initialize:	
  4628                           ;psect for function _OSCILLATOR_Initialize
  4629                           
  4630     0438                     l2196:	
  4631                           ;incstack = 0
  4632                           ; Regs used in _OSCILLATOR_Initialize: [wreg+status,2]
  4633                           
  4634                           
  4635                           ;mcc_generated_files/mcc.c: 71:     OSCCON = 0x68;
  4636     0438  3068               	movlw	104
  4637     0439  0021               	movlb	1	; select bank1
  4638     043A  0099               	movwf	25	;volatile
  4639     043B                     l2198:
  4640                           
  4641                           ;mcc_generated_files/mcc.c: 73:     OSCTUNE = 0x00;
  4642     043B  0198               	clrf	24	;volatile
  4643     043C                     l2200:
  4644                           
  4645                           ;mcc_generated_files/mcc.c: 75:     BORCON = 0x00;
  4646     043C  0022               	movlb	2	; select bank2
  4647     043D  0196               	clrf	22	;volatile
  4648     043E                     l210:
  4649     043E  0008               	return
  4650     043F                     __end_of_OSCILLATOR_Initialize:
  4651                           
  4652                           	psect	text18
  4653     0488                     __ptext18:	
  4654 ;; *************** function _FVR_Initialize *****************
  4655 ;; Defined at:
  4656 ;;		line 58 in file "mcc_generated_files/fvr.c"
  4657 ;; Parameters:    Size  Location     Type
  4658 ;;		None
  4659 ;; Auto vars:     Size  Location     Type
  4660 ;;		None
  4661 ;; Return value:  Size  Location     Type
  4662 ;;                  1    wreg      void 
  4663 ;; Registers used:
  4664 ;;		wreg
  4665 ;; Tracked objects:
  4666 ;;		On entry : 0/0
  4667 ;;		On exit  : 0/0
  4668 ;;		Unchanged: 0/0
  4669 ;; Data sizes:     COMMON   BANK0   BANK1   BANK2   BANK3   BANK4
  4670 ;;      Params:         0       0       0       0       0       0
  4671 ;;      Locals:         0       0       0       0       0       0
  4672 ;;      Temps:          0       0       0       0       0       0
  4673 ;;      Totals:         0       0       0       0       0       0
  4674 ;;Total ram usage:        0 bytes
  4675 ;; Hardware stack levels used: 1
  4676 ;; Hardware stack levels required when called: 7
  4677 ;; This function calls:
  4678 ;;		Nothing
  4679 ;; This function is called by:
  4680 ;;		_SYSTEM_Initialize
  4681 ;; This function uses a non-reentrant model
  4682 ;;
  4683                           
  4684     0488                     _FVR_Initialize:	
  4685                           ;psect for function _FVR_Initialize
  4686                           
  4687     0488                     l2204:	
  4688                           ;incstack = 0
  4689                           ; Regs used in _FVR_Initialize: [wreg]
  4690                           
  4691                           
  4692                           ;mcc_generated_files/fvr.c: 61:     FVRCON = 0x89;
  4693     0488  3089               	movlw	137
  4694     0489  0022               	movlb	2	; select bank2
  4695     048A  0097               	movwf	23	;volatile
  4696     048B                     l258:
  4697     048B  0008               	return
  4698     048C                     __end_of_FVR_Initialize:
  4699                           
  4700                           	psect	text19
  4701     02A4                     __ptext19:	
  4702 ;; *************** function _EUSART_Initialize *****************
  4703 ;; Defined at:
  4704 ;;		line 66 in file "mcc_generated_files/eusart.c"
  4705 ;; Parameters:    Size  Location     Type
  4706 ;;		None
  4707 ;; Auto vars:     Size  Location     Type
  4708 ;;		None
  4709 ;; Return value:  Size  Location     Type
  4710 ;;                  1    wreg      void 
  4711 ;; Registers used:
  4712 ;;		wreg, status,2, status,0, pclath, cstack
  4713 ;; Tracked objects:
  4714 ;;		On entry : 0/0
  4715 ;;		On exit  : 0/0
  4716 ;;		Unchanged: 0/0
  4717 ;; Data sizes:     COMMON   BANK0   BANK1   BANK2   BANK3   BANK4
  4718 ;;      Params:         0       0       0       0       0       0
  4719 ;;      Locals:         0       0       0       0       0       0
  4720 ;;      Temps:          0       0       0       0       0       0
  4721 ;;      Totals:         0       0       0       0       0       0
  4722 ;;Total ram usage:        0 bytes
  4723 ;; Hardware stack levels used: 1
  4724 ;; Hardware stack levels required when called: 8
  4725 ;; This function calls:
  4726 ;;		_EUSART_SetErrorHandler
  4727 ;;		_EUSART_SetFramingErrorHandler
  4728 ;;		_EUSART_SetOverrunErrorHandler
  4729 ;; This function is called by:
  4730 ;;		_SYSTEM_Initialize
  4731 ;; This function uses a non-reentrant model
  4732 ;;
  4733                           
  4734     02A4                     _EUSART_Initialize:	
  4735                           ;psect for function _EUSART_Initialize
  4736                           
  4737     02A4                     l2248:	
  4738                           ;incstack = 0
  4739                           ; Regs used in _EUSART_Initialize: [wreg+status,2+status,0+pclath+cstack]
  4740                           
  4741                           
  4742                           ;mcc_generated_files/eusart.c: 71:     BAUDCON = 0x08;
  4743     02A4  3008               	movlw	8
  4744     02A5  0023               	movlb	3	; select bank3
  4745     02A6  009F               	movwf	31	;volatile
  4746                           
  4747                           ;mcc_generated_files/eusart.c: 74:     RCSTA = 0x90;
  4748     02A7  3090               	movlw	144
  4749     02A8  009D               	movwf	29	;volatile
  4750                           
  4751                           ;mcc_generated_files/eusart.c: 77:     TXSTA = 0x24;
  4752     02A9  3024               	movlw	36
  4753     02AA  009E               	movwf	30	;volatile
  4754                           
  4755                           ;mcc_generated_files/eusart.c: 80:     SPBRGL = 0x33;
  4756     02AB  3033               	movlw	51
  4757     02AC  009B               	movwf	27	;volatile
  4758     02AD                     l2250:
  4759                           
  4760                           ;mcc_generated_files/eusart.c: 83:     SPBRGH = 0x00;
  4761     02AD  019C               	clrf	28	;volatile
  4762     02AE                     l2252:
  4763                           
  4764                           ;mcc_generated_files/eusart.c: 86:     EUSART_SetFramingErrorHandler(EUSART_DefaultFrami
      +                          ngErrorHandler);
  4765     02AE  3000               	movlw	0
  4766     02AF  0020               	movlb	0	; select bank0
  4767     02B0  00B5               	movwf	EUSART_SetFramingErrorHandler@interruptHandler
  4768     02B1  3000               	movlw	0
  4769     02B2  00B6               	movwf	EUSART_SetFramingErrorHandler@interruptHandler+1
  4770     02B3  3184  2463  3182   	fcall	_EUSART_SetFramingErrorHandler
  4771     02B6                     l2254:
  4772                           
  4773                           ;mcc_generated_files/eusart.c: 87:     EUSART_SetOverrunErrorHandler(EUSART_DefaultOverr
      +                          unErrorHandler);
  4774     02B6  3000               	movlw	0
  4775     02B7  0020               	movlb	0	; select bank0
  4776     02B8  00B5               	movwf	EUSART_SetOverrunErrorHandler@interruptHandler
  4777     02B9  3000               	movlw	0
  4778     02BA  00B6               	movwf	EUSART_SetOverrunErrorHandler@interruptHandler+1
  4779     02BB  3184  245D  3182   	fcall	_EUSART_SetOverrunErrorHandler
  4780     02BE                     l2256:
  4781                           
  4782                           ;mcc_generated_files/eusart.c: 88:     EUSART_SetErrorHandler(EUSART_DefaultErrorHandler
      +                          );
  4783     02BE  3000               	movlw	0
  4784     02BF  0020               	movlb	0	; select bank0
  4785     02C0  00B5               	movwf	EUSART_SetErrorHandler@interruptHandler
  4786     02C1  3000               	movlw	0
  4787     02C2  00B6               	movwf	EUSART_SetErrorHandler@interruptHandler+1
  4788     02C3  3184  2469  3182   	fcall	_EUSART_SetErrorHandler
  4789     02C6                     l2258:
  4790                           
  4791                           ;mcc_generated_files/eusart.c: 90:     eusartRxLastError.status = 0;
  4792     02C6  0020               	movlb	0	; select bank0
  4793     02C7  01AF               	clrf	_eusartRxLastError	;volatile
  4794     02C8                     l304:
  4795     02C8  0008               	return
  4796     02C9                     __end_of_EUSART_Initialize:
  4797                           
  4798                           	psect	text20
  4799     045D                     __ptext20:	
  4800 ;; *************** function _EUSART_SetOverrunErrorHandler *****************
  4801 ;; Defined at:
  4802 ;;		line 161 in file "mcc_generated_files/eusart.c"
  4803 ;; Parameters:    Size  Location     Type
  4804 ;;  interruptHan    2    0[BANK0 ] PTR FTN()void 
  4805 ;;		 -> EUSART_DefaultOverrunErrorHandler(1), 
  4806 ;; Auto vars:     Size  Location     Type
  4807 ;;		None
  4808 ;; Return value:  Size  Location     Type
  4809 ;;                  1    wreg      void 
  4810 ;; Registers used:
  4811 ;;		wreg
  4812 ;; Tracked objects:
  4813 ;;		On entry : 0/0
  4814 ;;		On exit  : 0/0
  4815 ;;		Unchanged: 0/0
  4816 ;; Data sizes:     COMMON   BANK0   BANK1   BANK2   BANK3   BANK4
  4817 ;;      Params:         0       2       0       0       0       0
  4818 ;;      Locals:         0       0       0       0       0       0
  4819 ;;      Temps:          0       0       0       0       0       0
  4820 ;;      Totals:         0       2       0       0       0       0
  4821 ;;Total ram usage:        2 bytes
  4822 ;; Hardware stack levels used: 1
  4823 ;; Hardware stack levels required when called: 7
  4824 ;; This function calls:
  4825 ;;		Nothing
  4826 ;; This function is called by:
  4827 ;;		_EUSART_Initialize
  4828 ;; This function uses a non-reentrant model
  4829 ;;
  4830                           
  4831     045D                     _EUSART_SetOverrunErrorHandler:	
  4832                           ;psect for function _EUSART_SetOverrunErrorHandler
  4833                           
  4834     045D                     l2020:	
  4835                           ;incstack = 0
  4836                           ; Regs used in _EUSART_SetOverrunErrorHandler: [wreg]
  4837                           
  4838                           
  4839                           ;mcc_generated_files/eusart.c: 162:     EUSART_OverrunErrorHandler = interruptHandler;
  4840     045D  0020               	movlb	0	; select bank0
  4841     045E  0836               	movf	EUSART_SetOverrunErrorHandler@interruptHandler+1,w
  4842     045F  00CF               	movwf	_EUSART_OverrunErrorHandler+1
  4843     0460  0835               	movf	EUSART_SetOverrunErrorHandler@interruptHandler,w
  4844     0461  00CE               	movwf	_EUSART_OverrunErrorHandler
  4845     0462                     l346:
  4846     0462  0008               	return
  4847     0463                     __end_of_EUSART_SetOverrunErrorHandler:
  4848                           
  4849                           	psect	text21
  4850     0463                     __ptext21:	
  4851 ;; *************** function _EUSART_SetFramingErrorHandler *****************
  4852 ;; Defined at:
  4853 ;;		line 157 in file "mcc_generated_files/eusart.c"
  4854 ;; Parameters:    Size  Location     Type
  4855 ;;  interruptHan    2    0[BANK0 ] PTR FTN()void 
  4856 ;;		 -> EUSART_DefaultFramingErrorHandler(1), 
  4857 ;; Auto vars:     Size  Location     Type
  4858 ;;		None
  4859 ;; Return value:  Size  Location     Type
  4860 ;;                  1    wreg      void 
  4861 ;; Registers used:
  4862 ;;		wreg
  4863 ;; Tracked objects:
  4864 ;;		On entry : 0/0
  4865 ;;		On exit  : 0/0
  4866 ;;		Unchanged: 0/0
  4867 ;; Data sizes:     COMMON   BANK0   BANK1   BANK2   BANK3   BANK4
  4868 ;;      Params:         0       2       0       0       0       0
  4869 ;;      Locals:         0       0       0       0       0       0
  4870 ;;      Temps:          0       0       0       0       0       0
  4871 ;;      Totals:         0       2       0       0       0       0
  4872 ;;Total ram usage:        2 bytes
  4873 ;; Hardware stack levels used: 1
  4874 ;; Hardware stack levels required when called: 7
  4875 ;; This function calls:
  4876 ;;		Nothing
  4877 ;; This function is called by:
  4878 ;;		_EUSART_Initialize
  4879 ;; This function uses a non-reentrant model
  4880 ;;
  4881                           
  4882     0463                     _EUSART_SetFramingErrorHandler:	
  4883                           ;psect for function _EUSART_SetFramingErrorHandler
  4884                           
  4885     0463                     l2018:	
  4886                           ;incstack = 0
  4887                           ; Regs used in _EUSART_SetFramingErrorHandler: [wreg]
  4888                           
  4889                           
  4890                           ;mcc_generated_files/eusart.c: 158:     EUSART_FramingErrorHandler = interruptHandler;
  4891     0463  0020               	movlb	0	; select bank0
  4892     0464  0836               	movf	EUSART_SetFramingErrorHandler@interruptHandler+1,w
  4893     0465  00D1               	movwf	_EUSART_FramingErrorHandler+1
  4894     0466  0835               	movf	EUSART_SetFramingErrorHandler@interruptHandler,w
  4895     0467  00D0               	movwf	_EUSART_FramingErrorHandler
  4896     0468                     l343:
  4897     0468  0008               	return
  4898     0469                     __end_of_EUSART_SetFramingErrorHandler:
  4899                           
  4900                           	psect	text22
  4901     0469                     __ptext22:	
  4902 ;; *************** function _EUSART_SetErrorHandler *****************
  4903 ;; Defined at:
  4904 ;;		line 165 in file "mcc_generated_files/eusart.c"
  4905 ;; Parameters:    Size  Location     Type
  4906 ;;  interruptHan    2    0[BANK0 ] PTR FTN()void 
  4907 ;;		 -> EUSART_DefaultErrorHandler(1), 
  4908 ;; Auto vars:     Size  Location     Type
  4909 ;;		None
  4910 ;; Return value:  Size  Location     Type
  4911 ;;                  1    wreg      void 
  4912 ;; Registers used:
  4913 ;;		wreg
  4914 ;; Tracked objects:
  4915 ;;		On entry : 0/0
  4916 ;;		On exit  : 0/0
  4917 ;;		Unchanged: 0/0
  4918 ;; Data sizes:     COMMON   BANK0   BANK1   BANK2   BANK3   BANK4
  4919 ;;      Params:         0       2       0       0       0       0
  4920 ;;      Locals:         0       0       0       0       0       0
  4921 ;;      Temps:          0       0       0       0       0       0
  4922 ;;      Totals:         0       2       0       0       0       0
  4923 ;;Total ram usage:        2 bytes
  4924 ;; Hardware stack levels used: 1
  4925 ;; Hardware stack levels required when called: 7
  4926 ;; This function calls:
  4927 ;;		Nothing
  4928 ;; This function is called by:
  4929 ;;		_EUSART_Initialize
  4930 ;; This function uses a non-reentrant model
  4931 ;;
  4932                           
  4933     0469                     _EUSART_SetErrorHandler:	
  4934                           ;psect for function _EUSART_SetErrorHandler
  4935                           
  4936     0469                     l2022:	
  4937                           ;incstack = 0
  4938                           ; Regs used in _EUSART_SetErrorHandler: [wreg]
  4939                           
  4940                           
  4941                           ;mcc_generated_files/eusart.c: 166:     EUSART_ErrorHandler = interruptHandler;
  4942     0469  0020               	movlb	0	; select bank0
  4943     046A  0836               	movf	EUSART_SetErrorHandler@interruptHandler+1,w
  4944     046B  00CD               	movwf	_EUSART_ErrorHandler+1
  4945     046C  0835               	movf	EUSART_SetErrorHandler@interruptHandler,w
  4946     046D  00CC               	movwf	_EUSART_ErrorHandler
  4947     046E                     l349:
  4948     046E  0008               	return
  4949     046F                     __end_of_EUSART_SetErrorHandler:
  4950                           
  4951                           	psect	text23
  4952     03FC                     __ptext23:	
  4953 ;; *************** function _CMP2_Initialize *****************
  4954 ;; Defined at:
  4955 ;;		line 59 in file "mcc_generated_files/cmp2.c"
  4956 ;; Parameters:    Size  Location     Type
  4957 ;;		None
  4958 ;; Auto vars:     Size  Location     Type
  4959 ;;		None
  4960 ;; Return value:  Size  Location     Type
  4961 ;;                  1    wreg      void 
  4962 ;; Registers used:
  4963 ;;		wreg
  4964 ;; Tracked objects:
  4965 ;;		On entry : 0/0
  4966 ;;		On exit  : 0/0
  4967 ;;		Unchanged: 0/0
  4968 ;; Data sizes:     COMMON   BANK0   BANK1   BANK2   BANK3   BANK4
  4969 ;;      Params:         0       0       0       0       0       0
  4970 ;;      Locals:         0       0       0       0       0       0
  4971 ;;      Temps:          0       0       0       0       0       0
  4972 ;;      Totals:         0       0       0       0       0       0
  4973 ;;Total ram usage:        0 bytes
  4974 ;; Hardware stack levels used: 1
  4975 ;; Hardware stack levels required when called: 7
  4976 ;; This function calls:
  4977 ;;		Nothing
  4978 ;; This function is called by:
  4979 ;;		_SYSTEM_Initialize
  4980 ;; This function uses a non-reentrant model
  4981 ;;
  4982                           
  4983     03FC                     _CMP2_Initialize:	
  4984                           ;psect for function _CMP2_Initialize
  4985                           
  4986     03FC                     l2084:	
  4987                           ;incstack = 0
  4988                           ; Regs used in _CMP2_Initialize: [wreg]
  4989                           
  4990                           
  4991                           ;mcc_generated_files/cmp2.c: 66:     PIE2bits.C2IE = 0;
  4992     03FC  0021               	movlb	1	; select bank1
  4993     03FD  1312               	bcf	18,6	;volatile
  4994     03FE                     l2086:
  4995                           
  4996                           ;mcc_generated_files/cmp2.c: 69:     CM2CON0 = 0x84;
  4997     03FE  3084               	movlw	132
  4998     03FF  0022               	movlb	2	; select bank2
  4999     0400  0093               	movwf	19	;volatile
  5000                           
  5001                           ;mcc_generated_files/cmp2.c: 72:     CM2CON1 = 0xA1;
  5002     0401  30A1               	movlw	161
  5003     0402  0094               	movwf	20	;volatile
  5004     0403                     l2088:
  5005                           
  5006                           ;mcc_generated_files/cmp2.c: 75:     PIR2bits.C2IF = 0;
  5007     0403  0020               	movlb	0	; select bank0
  5008     0404  1312               	bcf	18,6	;volatile
  5009     0405                     l2090:
  5010                           
  5011                           ;mcc_generated_files/cmp2.c: 78:     PIE2bits.C2IE = 1;
  5012     0405  0021               	movlb	1	; select bank1
  5013     0406  1712               	bsf	18,6	;volatile
  5014     0407                     l49:
  5015     0407  0008               	return
  5016     0408                     __end_of_CMP2_Initialize:
  5017                           
  5018                           	psect	text24
  5019     0408                     __ptext24:	
  5020 ;; *************** function _CMP1_Initialize *****************
  5021 ;; Defined at:
  5022 ;;		line 59 in file "mcc_generated_files/cmp1.c"
  5023 ;; Parameters:    Size  Location     Type
  5024 ;;		None
  5025 ;; Auto vars:     Size  Location     Type
  5026 ;;		None
  5027 ;; Return value:  Size  Location     Type
  5028 ;;                  1    wreg      void 
  5029 ;; Registers used:
  5030 ;;		wreg
  5031 ;; Tracked objects:
  5032 ;;		On entry : 0/0
  5033 ;;		On exit  : 0/0
  5034 ;;		Unchanged: 0/0
  5035 ;; Data sizes:     COMMON   BANK0   BANK1   BANK2   BANK3   BANK4
  5036 ;;      Params:         0       0       0       0       0       0
  5037 ;;      Locals:         0       0       0       0       0       0
  5038 ;;      Temps:          0       0       0       0       0       0
  5039 ;;      Totals:         0       0       0       0       0       0
  5040 ;;Total ram usage:        0 bytes
  5041 ;; Hardware stack levels used: 1
  5042 ;; Hardware stack levels required when called: 7
  5043 ;; This function calls:
  5044 ;;		Nothing
  5045 ;; This function is called by:
  5046 ;;		_SYSTEM_Initialize
  5047 ;; This function uses a non-reentrant model
  5048 ;;
  5049                           
  5050     0408                     _CMP1_Initialize:	
  5051                           ;psect for function _CMP1_Initialize
  5052                           
  5053     0408                     l2112:	
  5054                           ;incstack = 0
  5055                           ; Regs used in _CMP1_Initialize: [wreg]
  5056                           
  5057                           
  5058                           ;mcc_generated_files/cmp1.c: 66:     PIE2bits.C1IE = 0;
  5059     0408  0021               	movlb	1	; select bank1
  5060     0409  1292               	bcf	18,5	;volatile
  5061     040A                     l2114:
  5062                           
  5063                           ;mcc_generated_files/cmp1.c: 69:     CM1CON0 = 0x84;
  5064     040A  3084               	movlw	132
  5065     040B  0022               	movlb	2	; select bank2
  5066     040C  0091               	movwf	17	;volatile
  5067                           
  5068                           ;mcc_generated_files/cmp1.c: 72:     CM1CON1 = 0xA0;
  5069     040D  30A0               	movlw	160
  5070     040E  0092               	movwf	18	;volatile
  5071     040F                     l2116:
  5072                           
  5073                           ;mcc_generated_files/cmp1.c: 75:     PIR2bits.C1IF = 0;
  5074     040F  0020               	movlb	0	; select bank0
  5075     0410  1292               	bcf	18,5	;volatile
  5076     0411                     l2118:
  5077                           
  5078                           ;mcc_generated_files/cmp1.c: 78:     PIE2bits.C1IE = 1;
  5079     0411  0021               	movlb	1	; select bank1
  5080     0412  1692               	bsf	18,5	;volatile
  5081     0413                     l90:
  5082     0413  0008               	return
  5083     0414                     __end_of_CMP1_Initialize:
  5084                           
  5085                           	psect	text25
  5086     0430                     __ptext25:	
  5087 ;; *************** function _ADC_Initialize *****************
  5088 ;; Defined at:
  5089 ;;		line 67 in file "mcc_generated_files/adc.c"
  5090 ;; Parameters:    Size  Location     Type
  5091 ;;		None
  5092 ;; Auto vars:     Size  Location     Type
  5093 ;;		None
  5094 ;; Return value:  Size  Location     Type
  5095 ;;                  1    wreg      void 
  5096 ;; Registers used:
  5097 ;;		wreg, status,2
  5098 ;; Tracked objects:
  5099 ;;		On entry : 0/0
  5100 ;;		On exit  : 0/0
  5101 ;;		Unchanged: 0/0
  5102 ;; Data sizes:     COMMON   BANK0   BANK1   BANK2   BANK3   BANK4
  5103 ;;      Params:         0       0       0       0       0       0
  5104 ;;      Locals:         0       0       0       0       0       0
  5105 ;;      Temps:          0       0       0       0       0       0
  5106 ;;      Totals:         0       0       0       0       0       0
  5107 ;;Total ram usage:        0 bytes
  5108 ;; Hardware stack levels used: 1
  5109 ;; Hardware stack levels required when called: 7
  5110 ;; This function calls:
  5111 ;;		Nothing
  5112 ;; This function is called by:
  5113 ;;		_SYSTEM_Initialize
  5114 ;; This function uses a non-reentrant model
  5115 ;;
  5116                           
  5117     0430                     _ADC_Initialize:	
  5118                           ;psect for function _ADC_Initialize
  5119                           
  5120     0430                     l2226:	
  5121                           ;incstack = 0
  5122                           ; Regs used in _ADC_Initialize: [wreg+status,2]
  5123                           
  5124                           
  5125                           ;mcc_generated_files/adc.c: 72:     ADCON1 = 0xC3;
  5126     0430  30C3               	movlw	195
  5127     0431  0021               	movlb	1	; select bank1
  5128     0432  009E               	movwf	30	;volatile
  5129     0433                     l2228:
  5130                           
  5131                           ;mcc_generated_files/adc.c: 75:     ADRESL = 0x00;
  5132     0433  019B               	clrf	27	;volatile
  5133     0434                     l2230:
  5134                           
  5135                           ;mcc_generated_files/adc.c: 78:     ADRESH = 0x00;
  5136     0434  019C               	clrf	28	;volatile
  5137                           
  5138                           ;mcc_generated_files/adc.c: 81:     ADCON0 = 0x01;
  5139     0435  3001               	movlw	1
  5140     0436  009D               	movwf	29	;volatile
  5141     0437                     l230:
  5142     0437  0008               	return
  5143     0438                     __end_of_ADC_Initialize:
  5144                           
  5145                           	psect	text26
  5146     00CE                     __ptext26:	
  5147 ;; *************** function _SPI1_Open *****************
  5148 ;; Defined at:
  5149 ;;		line 72 in file "mcc_generated_files/spi1.c"
  5150 ;; Parameters:    Size  Location     Type
  5151 ;;  spi1UniqueCo    1    wreg     enum E358
  5152 ;; Auto vars:     Size  Location     Type
  5153 ;;  spi1UniqueCo    1    3[BANK0 ] enum E358
  5154 ;; Return value:  Size  Location     Type
  5155 ;;                  1    wreg      _Bool 
  5156 ;; Registers used:
  5157 ;;		wreg, fsr0l, fsr0h, status,2, status,0, pclath
  5158 ;; Tracked objects:
  5159 ;;		On entry : 0/0
  5160 ;;		On exit  : 0/0
  5161 ;;		Unchanged: 0/0
  5162 ;; Data sizes:     COMMON   BANK0   BANK1   BANK2   BANK3   BANK4
  5163 ;;      Params:         0       0       0       0       0       0
  5164 ;;      Locals:         0       1       0       0       0       0
  5165 ;;      Temps:          0       3       0       0       0       0
  5166 ;;      Totals:         0       4       0       0       0       0
  5167 ;;Total ram usage:        4 bytes
  5168 ;; Hardware stack levels used: 1
  5169 ;; Hardware stack levels required when called: 7
  5170 ;; This function calls:
  5171 ;;		Nothing
  5172 ;; This function is called by:
  5173 ;;		_main
  5174 ;; This function uses a non-reentrant model
  5175 ;;
  5176                           
  5177     00CE                     _SPI1_Open:	
  5178                           ;psect for function _SPI1_Open
  5179                           
  5180                           
  5181                           ;incstack = 0
  5182                           ; Regs used in _SPI1_Open: [wreg-fsr0h+status,2+status,0+pclath]
  5183                           ;SPI1_Open@spi1UniqueConfiguration stored from wreg
  5184     00CE  0020               	movlb	0	; select bank0
  5185     00CF  00B8               	movwf	SPI1_Open@spi1UniqueConfiguration
  5186     00D0                     l2320:
  5187                           
  5188                           ;mcc_generated_files/spi1.c: 72: _Bool SPI1_Open(spi1_modes_t spi1UniqueConfiguration);m
      +                          cc_generated_files/spi1.c: 73: {;mcc_generated_files/spi1.c: 74:     if(!SSP1CON1bits.SS
      +                          PEN)
  5189     00D0  0024               	movlb	4	; select bank4
  5190     00D1  1A95               	btfsc	21,5	;volatile
  5191     00D2  28D4               	goto	u691
  5192     00D3  28D5               	goto	u690
  5193     00D4                     u691:
  5194     00D4  2928               	goto	l374
  5195     00D5                     u690:
  5196     00D5                     l2322:
  5197                           
  5198                           ;mcc_generated_files/spi1.c: 75:     {;mcc_generated_files/spi1.c: 76:         SSP1STAT 
      +                          = spi1_configuration[spi1UniqueConfiguration].stat;
  5199     00D5  0020               	movlb	0	; select bank0
  5200     00D6  0838               	movf	SPI1_Open@spi1UniqueConfiguration,w
  5201     00D7  00B5               	movwf	??_SPI1_Open
  5202     00D8  01B6               	clrf	??_SPI1_Open+1
  5203     00D9  35B5               	lslf	??_SPI1_Open,f
  5204     00DA  0DB6               	rlf	??_SPI1_Open+1,f
  5205     00DB  35B5               	lslf	??_SPI1_Open,f
  5206     00DC  0DB6               	rlf	??_SPI1_Open+1,f
  5207     00DD  3081               	movlw	low (_spi1_configuration+1)
  5208     00DE  0735               	addwf	??_SPI1_Open,w
  5209     00DF  0084               	movwf	4
  5210     00E0  3004               	movlw	high (_spi1_configuration+1)
  5211     00E1  3D36               	addwfc	??_SPI1_Open+1,w
  5212     00E2  3880               	iorlw	128
  5213     00E3  0085               	movwf	5
  5214     00E4  0800               	movf	0,w	;code access
  5215     00E5  0024               	movlb	4	; select bank4
  5216     00E6  0094               	movwf	20	;volatile
  5217                           
  5218                           ;mcc_generated_files/spi1.c: 77:         SSP1CON1 = spi1_configuration[spi1UniqueConfigu
      +                          ration].con1;
  5219     00E7  0020               	movlb	0	; select bank0
  5220     00E8  0838               	movf	SPI1_Open@spi1UniqueConfiguration,w
  5221     00E9  00B5               	movwf	??_SPI1_Open
  5222     00EA  01B6               	clrf	??_SPI1_Open+1
  5223     00EB  35B5               	lslf	??_SPI1_Open,f
  5224     00EC  0DB6               	rlf	??_SPI1_Open+1,f
  5225     00ED  35B5               	lslf	??_SPI1_Open,f
  5226     00EE  0DB6               	rlf	??_SPI1_Open+1,f
  5227     00EF  3080               	movlw	low _spi1_configuration
  5228     00F0  0735               	addwf	??_SPI1_Open,w
  5229     00F1  0084               	movwf	4
  5230     00F2  3004               	movlw	high _spi1_configuration
  5231     00F3  3D36               	addwfc	??_SPI1_Open+1,w
  5232     00F4  3880               	iorlw	128
  5233     00F5  0085               	movwf	5
  5234     00F6  0800               	movf	0,w	;code access
  5235     00F7  0024               	movlb	4	; select bank4
  5236     00F8  0095               	movwf	21	;volatile
  5237     00F9                     l2324:
  5238                           
  5239                           ;mcc_generated_files/spi1.c: 78:         SSP1CON2 = 0x00;
  5240     00F9  0196               	clrf	22	;volatile
  5241     00FA                     l2326:
  5242                           
  5243                           ;mcc_generated_files/spi1.c: 79:         SSP1ADD = spi1_configuration[spi1UniqueConfigur
      +                          ation].add;
  5244     00FA  0020               	movlb	0	; select bank0
  5245     00FB  0838               	movf	SPI1_Open@spi1UniqueConfiguration,w
  5246     00FC  00B5               	movwf	??_SPI1_Open
  5247     00FD  01B6               	clrf	??_SPI1_Open+1
  5248     00FE  35B5               	lslf	??_SPI1_Open,f
  5249     00FF  0DB6               	rlf	??_SPI1_Open+1,f
  5250     0100  35B5               	lslf	??_SPI1_Open,f
  5251     0101  0DB6               	rlf	??_SPI1_Open+1,f
  5252     0102  3082               	movlw	low (_spi1_configuration+2)
  5253     0103  0735               	addwf	??_SPI1_Open,w
  5254     0104  0084               	movwf	4
  5255     0105  3004               	movlw	high (_spi1_configuration+2)
  5256     0106  3D36               	addwfc	??_SPI1_Open+1,w
  5257     0107  3880               	iorlw	128
  5258     0108  0085               	movwf	5
  5259     0109  0800               	movf	0,w	;code access
  5260     010A  0024               	movlb	4	; select bank4
  5261     010B  0092               	movwf	18	;volatile
  5262     010C                     l2328:
  5263                           
  5264                           ;mcc_generated_files/spi1.c: 80:         TRISBbits.TRISB4 = spi1_configuration[spi1Uniqu
      +                          eConfiguration].operation;
  5265     010C  0020               	movlb	0	; select bank0
  5266     010D  0838               	movf	SPI1_Open@spi1UniqueConfiguration,w
  5267     010E  00B5               	movwf	??_SPI1_Open
  5268     010F  01B6               	clrf	??_SPI1_Open+1
  5269     0110  35B5               	lslf	??_SPI1_Open,f
  5270     0111  0DB6               	rlf	??_SPI1_Open+1,f
  5271     0112  35B5               	lslf	??_SPI1_Open,f
  5272     0113  0DB6               	rlf	??_SPI1_Open+1,f
  5273     0114  3083               	movlw	low (_spi1_configuration+3)
  5274     0115  0735               	addwf	??_SPI1_Open,w
  5275     0116  0084               	movwf	4
  5276     0117  3004               	movlw	high (_spi1_configuration+3)
  5277     0118  3D36               	addwfc	??_SPI1_Open+1,w
  5278     0119  3880               	iorlw	128
  5279     011A  0085               	movwf	5
  5280     011B  0800               	movf	0,w	;code access
  5281     011C  00B7               	movwf	??_SPI1_Open+2
  5282     011D  0EB7               	swapf	??_SPI1_Open+2,f
  5283     011E  0021               	movlb	1	; select bank1
  5284     011F  080D               	movf	13,w	;volatile
  5285     0120  0020               	movlb	0	; select bank0
  5286     0121  0637               	xorwf	??_SPI1_Open+2,w
  5287     0122  39EF               	andlw	-17
  5288     0123  0637               	xorwf	??_SPI1_Open+2,w
  5289     0124  0021               	movlb	1	; select bank1
  5290     0125  008D               	movwf	13	;volatile
  5291     0126                     l2330:
  5292                           
  5293                           ;mcc_generated_files/spi1.c: 81:         SSP1CON1bits.SSPEN = 1;
  5294     0126  0024               	movlb	4	; select bank4
  5295     0127  1695               	bsf	21,5	;volatile
  5296     0128                     l374:
  5297     0128  0008               	return
  5298     0129                     __end_of_SPI1_Open:
  5299                           
  5300                           	psect	text27
  5301     047B                     __ptext27:	
  5302 ;; *************** function _EUSART_is_rx_ready *****************
  5303 ;; Defined at:
  5304 ;;		line 99 in file "mcc_generated_files/eusart.c"
  5305 ;; Parameters:    Size  Location     Type
  5306 ;;		None
  5307 ;; Auto vars:     Size  Location     Type
  5308 ;;		None
  5309 ;; Return value:  Size  Location     Type
  5310 ;;                  1    wreg      _Bool 
  5311 ;; Registers used:
  5312 ;;		wreg, status,2, status,0
  5313 ;; Tracked objects:
  5314 ;;		On entry : 0/0
  5315 ;;		On exit  : 0/0
  5316 ;;		Unchanged: 0/0
  5317 ;; Data sizes:     COMMON   BANK0   BANK1   BANK2   BANK3   BANK4
  5318 ;;      Params:         0       0       0       0       0       0
  5319 ;;      Locals:         0       0       0       0       0       0
  5320 ;;      Temps:          0       0       0       0       0       0
  5321 ;;      Totals:         0       0       0       0       0       0
  5322 ;;Total ram usage:        0 bytes
  5323 ;; Hardware stack levels used: 1
  5324 ;; Hardware stack levels required when called: 7
  5325 ;; This function calls:
  5326 ;;		Nothing
  5327 ;; This function is called by:
  5328 ;;		_main
  5329 ;; This function uses a non-reentrant model
  5330 ;;
  5331                           
  5332     047B                     _EUSART_is_rx_ready:	
  5333                           ;psect for function _EUSART_is_rx_ready
  5334                           
  5335     047B                     l2304:	
  5336                           ;incstack = 0
  5337                           ; Regs used in _EUSART_is_rx_ready: [wreg+status,2+status,0]
  5338                           
  5339                           
  5340                           ;mcc_generated_files/eusart.c: 101:     return (_Bool)(PIR1bits.RCIF);
  5341     047B  0020               	movlb	0	; select bank0
  5342     047C  0E11               	swapf	17,w	;volatile
  5343     047D  0C89               	rrf	9,f
  5344     047E  3901               	andlw	1
  5345     047F                     l312:
  5346     047F  0008               	return
  5347     0480                     __end_of_EUSART_is_rx_ready:
  5348                           
  5349                           	psect	text28
  5350     038E                     __ptext28:	
  5351 ;; *************** function _EUSART_Read *****************
  5352 ;; Defined at:
  5353 ;;		line 113 in file "mcc_generated_files/eusart.c"
  5354 ;; Parameters:    Size  Location     Type
  5355 ;;		None
  5356 ;; Auto vars:     Size  Location     Type
  5357 ;;		None
  5358 ;; Return value:  Size  Location     Type
  5359 ;;                  1    wreg      unsigned char 
  5360 ;; Registers used:
  5361 ;;		wreg, status,2
  5362 ;; Tracked objects:
  5363 ;;		On entry : 0/0
  5364 ;;		On exit  : 0/0
  5365 ;;		Unchanged: 0/0
  5366 ;; Data sizes:     COMMON   BANK0   BANK1   BANK2   BANK3   BANK4
  5367 ;;      Params:         0       0       0       0       0       0
  5368 ;;      Locals:         0       0       0       0       0       0
  5369 ;;      Temps:          0       0       0       0       0       0
  5370 ;;      Totals:         0       0       0       0       0       0
  5371 ;;Total ram usage:        0 bytes
  5372 ;; Hardware stack levels used: 1
  5373 ;; Hardware stack levels required when called: 7
  5374 ;; This function calls:
  5375 ;;		Nothing
  5376 ;; This function is called by:
  5377 ;;		_main
  5378 ;; This function uses a non-reentrant model
  5379 ;;
  5380                           
  5381     038E                     _EUSART_Read:	
  5382                           ;psect for function _EUSART_Read
  5383                           
  5384     038E                     l2308:	
  5385                           ;incstack = 0
  5386                           ; Regs used in _EUSART_Read: [wreg+status,2]
  5387                           
  5388     038E                     l321:	
  5389                           ;mcc_generated_files/eusart.c: 116:     {;mcc_generated_files/eusart.c: 117:     }
  5390                           
  5391                           
  5392                           ;mcc_generated_files/eusart.c: 115:     while(!PIR1bits.RCIF)
  5393     038E  0020               	movlb	0	; select bank0
  5394     038F  1E91               	btfss	17,5	;volatile
  5395     0390  2B92               	goto	u671
  5396     0391  2B93               	goto	u670
  5397     0392                     u671:
  5398     0392  2B8E               	goto	l321
  5399     0393                     u670:
  5400     0393                     l2310:
  5401                           
  5402                           ;mcc_generated_files/eusart.c: 119:     eusartRxLastError.status = 0;
  5403     0393  01AF               	clrf	_eusartRxLastError	;volatile
  5404     0394                     l2312:
  5405                           
  5406                           ;mcc_generated_files/eusart.c: 121:     if(1 == RCSTAbits.OERR)
  5407     0394  0023               	movlb	3	; select bank3
  5408     0395  1C9D               	btfss	29,1	;volatile
  5409     0396  2B98               	goto	u681
  5410     0397  2B99               	goto	u680
  5411     0398                     u681:
  5412     0398  2B9B               	goto	l2316
  5413     0399                     u680:
  5414     0399                     l2314:
  5415                           
  5416                           ;mcc_generated_files/eusart.c: 122:     {;mcc_generated_files/eusart.c: 125:         RCS
      +                          TAbits.CREN = 0;
  5417     0399  121D               	bcf	29,4	;volatile
  5418                           
  5419                           ;mcc_generated_files/eusart.c: 126:         RCSTAbits.CREN = 1;
  5420     039A  161D               	bsf	29,4	;volatile
  5421     039B                     l2316:
  5422                           
  5423                           ;mcc_generated_files/eusart.c: 129:     return RCREG;
  5424     039B  0819               	movf	25,w	;volatile
  5425     039C                     l325:
  5426     039C  0008               	return
  5427     039D                     __end_of_EUSART_Read:
  5428                           
  5429                           	psect	intentry
  5430     0004                     __pintentry:	
  5431 ;; *************** function _INTERRUPT_InterruptManager *****************
  5432 ;; Defined at:
  5433 ;;		line 52 in file "mcc_generated_files/interrupt_manager.c"
  5434 ;; Parameters:    Size  Location     Type
  5435 ;;		None
  5436 ;; Auto vars:     Size  Location     Type
  5437 ;;		None
  5438 ;; Return value:  Size  Location     Type
  5439 ;;                  1    wreg      void 
  5440 ;; Registers used:
  5441 ;;		wreg, fsr1l, fsr1h, status,2, status,0, pclath, cstack
  5442 ;; Tracked objects:
  5443 ;;		On entry : 0/0
  5444 ;;		On exit  : 0/0
  5445 ;;		Unchanged: 0/0
  5446 ;; Data sizes:     COMMON   BANK0   BANK1   BANK2   BANK3   BANK4
  5447 ;;      Params:         0       0       0       0       0       0
  5448 ;;      Locals:         0       0       0       0       0       0
  5449 ;;      Temps:          0       0       0       0       0       0
  5450 ;;      Totals:         0       0       0       0       0       0
  5451 ;;Total ram usage:        0 bytes
  5452 ;; Hardware stack levels used: 1
  5453 ;; Hardware stack levels required when called: 6
  5454 ;; This function calls:
  5455 ;;		_CMP1_ISR
  5456 ;;		_CMP2_ISR
  5457 ;;		_PIN_MANAGER_IOC
  5458 ;;		_TMR0_ISR
  5459 ;;		_TMR1_ISR
  5460 ;; This function is called by:
  5461 ;;		Interrupt level 1
  5462 ;; This function uses a non-reentrant model
  5463 ;;
  5464                           
  5465     0004                     _INTERRUPT_InterruptManager:
  5466                           
  5467                           ;incstack = 0
  5468     0004  147E               	bsf	int$flags,0	;set compiler interrupt flag (level 1)
  5469                           
  5470                           ; Regs used in _INTERRUPT_InterruptManager: [wreg+fsr1l+fsr1h+status,2+status,0+pclath+c
      +                          stack]
  5471     0005  3180               	pagesel	$
  5472     0006                     i1l2398:
  5473                           
  5474                           ;mcc_generated_files/interrupt_manager.c: 55:     if(INTCONbits.TMR0IE == 1 && INTCONbit
      +                          s.TMR0IF == 1)
  5475     0006  1E8B               	btfss	11,5	;volatile
  5476     0007  2809               	goto	u76_21
  5477     0008  280A               	goto	u76_20
  5478     0009                     u76_21:
  5479     0009  2811               	goto	i1l2404
  5480     000A                     u76_20:
  5481     000A                     i1l2400:
  5482     000A  1D0B               	btfss	11,2	;volatile
  5483     000B  280D               	goto	u77_21
  5484     000C  280E               	goto	u77_20
  5485     000D                     u77_21:
  5486     000D  2811               	goto	i1l2404
  5487     000E                     u77_20:
  5488     000E                     i1l2402:
  5489                           
  5490                           ;mcc_generated_files/interrupt_manager.c: 56:     {;mcc_generated_files/interrupt_manage
      +                          r.c: 57:         TMR0_ISR();
  5491     000E  3183  231F  3180   	fcall	_TMR0_ISR
  5492     0011                     i1l2404:
  5493                           
  5494                           ;mcc_generated_files/interrupt_manager.c: 59:     if(INTCONbits.IOCIE == 1 && INTCONbits
      +                          .IOCIF == 1)
  5495     0011  1D8B               	btfss	11,3	;volatile
  5496     0012  2814               	goto	u78_21
  5497     0013  2815               	goto	u78_20
  5498     0014                     u78_21:
  5499     0014  281C               	goto	i1l2410
  5500     0015                     u78_20:
  5501     0015                     i1l2406:
  5502     0015  1C0B               	btfss	11,0	;volatile
  5503     0016  2818               	goto	u79_21
  5504     0017  2819               	goto	u79_20
  5505     0018                     u79_21:
  5506     0018  281C               	goto	i1l2410
  5507     0019                     u79_20:
  5508     0019                     i1l2408:
  5509                           
  5510                           ;mcc_generated_files/interrupt_manager.c: 60:     {;mcc_generated_files/interrupt_manage
      +                          r.c: 61:         PIN_MANAGER_IOC();
  5511     0019  3183  236D  3180   	fcall	_PIN_MANAGER_IOC
  5512     001C                     i1l2410:
  5513                           
  5514                           ;mcc_generated_files/interrupt_manager.c: 63:     if(INTCONbits.PEIE == 1)
  5515     001C  1F0B               	btfss	11,6	;volatile
  5516     001D  281F               	goto	u80_21
  5517     001E  2820               	goto	u80_20
  5518     001F                     u80_21:
  5519     001F  2847               	goto	i1l441
  5520     0020                     u80_20:
  5521     0020                     i1l2412:
  5522                           
  5523                           ;mcc_generated_files/interrupt_manager.c: 64:     {;mcc_generated_files/interrupt_manage
      +                          r.c: 65:         if(PIE2bits.C1IE == 1 && PIR2bits.C1IF == 1)
  5524     0020  0021               	movlb	1	; select bank1
  5525     0021  1E92               	btfss	18,5	;volatile
  5526     0022  2824               	goto	u81_21
  5527     0023  2825               	goto	u81_20
  5528     0024                     u81_21:
  5529     0024  282D               	goto	i1l2418
  5530     0025                     u81_20:
  5531     0025                     i1l2414:
  5532     0025  0020               	movlb	0	; select bank0
  5533     0026  1E92               	btfss	18,5	;volatile
  5534     0027  2829               	goto	u82_21
  5535     0028  282A               	goto	u82_20
  5536     0029                     u82_21:
  5537     0029  282D               	goto	i1l2418
  5538     002A                     u82_20:
  5539     002A                     i1l2416:
  5540                           
  5541                           ;mcc_generated_files/interrupt_manager.c: 66:         {;mcc_generated_files/interrupt_ma
      +                          nager.c: 67:             CMP1_ISR();
  5542     002A  3184  2475  3180   	fcall	_CMP1_ISR
  5543     002D                     i1l2418:
  5544                           
  5545                           ;mcc_generated_files/interrupt_manager.c: 69:         if(PIE2bits.C2IE == 1 && PIR2bits.
      +                          C2IF == 1)
  5546     002D  0021               	movlb	1	; select bank1
  5547     002E  1F12               	btfss	18,6	;volatile
  5548     002F  2831               	goto	u83_21
  5549     0030  2832               	goto	u83_20
  5550     0031                     u83_21:
  5551     0031  283A               	goto	i1l2424
  5552     0032                     u83_20:
  5553     0032                     i1l2420:
  5554     0032  0020               	movlb	0	; select bank0
  5555     0033  1F12               	btfss	18,6	;volatile
  5556     0034  2836               	goto	u84_21
  5557     0035  2837               	goto	u84_20
  5558     0036                     u84_21:
  5559     0036  283A               	goto	i1l2424
  5560     0037                     u84_20:
  5561     0037                     i1l2422:
  5562                           
  5563                           ;mcc_generated_files/interrupt_manager.c: 70:         {;mcc_generated_files/interrupt_ma
      +                          nager.c: 71:             CMP2_ISR();
  5564     0037  3184  246F  3180   	fcall	_CMP2_ISR
  5565     003A                     i1l2424:
  5566                           
  5567                           ;mcc_generated_files/interrupt_manager.c: 73:         if(PIE1bits.TMR1IE == 1 && PIR1bit
      +                          s.TMR1IF == 1)
  5568     003A  0021               	movlb	1	; select bank1
  5569     003B  1C11               	btfss	17,0	;volatile
  5570     003C  283E               	goto	u85_21
  5571     003D  283F               	goto	u85_20
  5572     003E                     u85_21:
  5573     003E  2847               	goto	i1l441
  5574     003F                     u85_20:
  5575     003F                     i1l2426:
  5576     003F  0020               	movlb	0	; select bank0
  5577     0040  1C11               	btfss	17,0	;volatile
  5578     0041  2843               	goto	u86_21
  5579     0042  2844               	goto	u86_20
  5580     0043                     u86_21:
  5581     0043  2847               	goto	i1l441
  5582     0044                     u86_20:
  5583     0044                     i1l2428:
  5584                           
  5585                           ;mcc_generated_files/interrupt_manager.c: 74:         {;mcc_generated_files/interrupt_ma
      +                          nager.c: 75:             TMR1_ISR();
  5586     0044  3183  23C9  3180   	fcall	_TMR1_ISR
  5587     0047                     i1l441:
  5588     0047  107E               	bcf	int$flags,0	;clear compiler interrupt flag (level 1)
  5589     0048  0009               	retfie
  5590     0049                     __end_of_INTERRUPT_InterruptManager:
  5591                           
  5592                           	psect	text30
  5593     03C9                     __ptext30:	
  5594 ;; *************** function _TMR1_ISR *****************
  5595 ;; Defined at:
  5596 ;;		line 157 in file "mcc_generated_files/tmr1.c"
  5597 ;; Parameters:    Size  Location     Type
  5598 ;;		None
  5599 ;; Auto vars:     Size  Location     Type
  5600 ;;		None
  5601 ;; Return value:  Size  Location     Type
  5602 ;;                  1    wreg      void 
  5603 ;; Registers used:
  5604 ;;		wreg, status,2, status,0, pclath, cstack
  5605 ;; Tracked objects:
  5606 ;;		On entry : 0/0
  5607 ;;		On exit  : 0/0
  5608 ;;		Unchanged: 0/0
  5609 ;; Data sizes:     COMMON   BANK0   BANK1   BANK2   BANK3   BANK4
  5610 ;;      Params:         0       0       0       0       0       0
  5611 ;;      Locals:         0       0       0       0       0       0
  5612 ;;      Temps:          0       0       0       0       0       0
  5613 ;;      Totals:         0       0       0       0       0       0
  5614 ;;Total ram usage:        0 bytes
  5615 ;; Hardware stack levels used: 1
  5616 ;; Hardware stack levels required when called: 2
  5617 ;; This function calls:
  5618 ;;		_TMR1_CallBack
  5619 ;;		_TMR1_WriteTimer
  5620 ;; This function is called by:
  5621 ;;		_INTERRUPT_InterruptManager
  5622 ;; This function uses a non-reentrant model
  5623 ;;
  5624                           
  5625     03C9                     _TMR1_ISR:	
  5626                           ;psect for function _TMR1_ISR
  5627                           
  5628     03C9                     i1l2342:	
  5629                           ;incstack = 0
  5630                           ; Regs used in _TMR1_ISR: [wreg+status,2+status,0+pclath+cstack]
  5631                           
  5632                           
  5633                           ;mcc_generated_files/tmr1.c: 161:     PIR1bits.TMR1IF = 0;
  5634     03C9  0020               	movlb	0	; select bank0
  5635     03CA  1011               	bcf	17,0	;volatile
  5636     03CB                     i1l2344:
  5637                           
  5638                           ;mcc_generated_files/tmr1.c: 162:     TMR1_WriteTimer(timer1ReloadVal);
  5639     03CB  082B               	movf	_timer1ReloadVal+1,w	;volatile
  5640     03CC  00F1               	movwf	TMR1_WriteTimer@timerVal+1
  5641     03CD  082A               	movf	_timer1ReloadVal,w	;volatile
  5642     03CE  00F0               	movwf	TMR1_WriteTimer@timerVal
  5643     03CF  3183  235C  3183   	fcall	_TMR1_WriteTimer
  5644                           
  5645                           ;mcc_generated_files/tmr1.c: 166:     TMR1_CallBack();
  5646     03D2  3183  23D6  3183   	fcall	_TMR1_CallBack
  5647     03D5                     i1l496:
  5648     03D5  0008               	return
  5649     03D6                     __end_of_TMR1_ISR:
  5650                           
  5651                           	psect	text31
  5652     035C                     __ptext31:	
  5653 ;; *************** function _TMR1_WriteTimer *****************
  5654 ;; Defined at:
  5655 ;;		line 120 in file "mcc_generated_files/tmr1.c"
  5656 ;; Parameters:    Size  Location     Type
  5657 ;;  timerVal        2    0[COMMON] unsigned short 
  5658 ;; Auto vars:     Size  Location     Type
  5659 ;;		None
  5660 ;; Return value:  Size  Location     Type
  5661 ;;                  1    wreg      void 
  5662 ;; Registers used:
  5663 ;;		wreg, status,2
  5664 ;; Tracked objects:
  5665 ;;		On entry : 0/0
  5666 ;;		On exit  : 0/0
  5667 ;;		Unchanged: 0/0
  5668 ;; Data sizes:     COMMON   BANK0   BANK1   BANK2   BANK3   BANK4
  5669 ;;      Params:         2       0       0       0       0       0
  5670 ;;      Locals:         0       0       0       0       0       0
  5671 ;;      Temps:          0       0       0       0       0       0
  5672 ;;      Totals:         2       0       0       0       0       0
  5673 ;;Total ram usage:        2 bytes
  5674 ;; Hardware stack levels used: 1
  5675 ;; This function calls:
  5676 ;;		Nothing
  5677 ;; This function is called by:
  5678 ;;		_TMR1_ISR
  5679 ;;		_TMR1_Reload
  5680 ;; This function uses a non-reentrant model
  5681 ;;
  5682                           
  5683     035C                     _TMR1_WriteTimer:	
  5684                           ;psect for function _TMR1_WriteTimer
  5685                           
  5686     035C                     i1l2260:	
  5687                           ;incstack = 0
  5688                           ; Regs used in _TMR1_WriteTimer: [wreg+status,2]
  5689                           
  5690                           
  5691                           ;mcc_generated_files/tmr1.c: 120: void TMR1_WriteTimer(uint16_t timerVal);mcc_generated_
      +                          files/tmr1.c: 121: {;mcc_generated_files/tmr1.c: 122:     if (T1CONbits.nT1SYNC == 1)
  5692     035C  0020               	movlb	0	; select bank0
  5693     035D  1D18               	btfss	24,2	;volatile
  5694     035E  2B60               	goto	u62_21
  5695     035F  2B61               	goto	u62_20
  5696     0360                     u62_21:
  5697     0360  2B68               	goto	i1l2270
  5698     0361                     u62_20:
  5699     0361                     i1l2262:
  5700                           
  5701                           ;mcc_generated_files/tmr1.c: 123:     {;mcc_generated_files/tmr1.c: 125:         T1CONbi
      +                          ts.TMR1ON = 0;
  5702     0361  1018               	bcf	24,0	;volatile
  5703     0362                     i1l2264:
  5704                           
  5705                           ;mcc_generated_files/tmr1.c: 128:         TMR1H = (uint8_t)(timerVal >> 8);
  5706     0362  0871               	movf	TMR1_WriteTimer@timerVal+1,w
  5707     0363  0097               	movwf	23	;volatile
  5708     0364                     i1l2266:
  5709                           
  5710                           ;mcc_generated_files/tmr1.c: 129:         TMR1L = (uint8_t)timerVal;
  5711     0364  0870               	movf	TMR1_WriteTimer@timerVal,w
  5712     0365  0096               	movwf	22	;volatile
  5713     0366                     i1l2268:
  5714                           
  5715                           ;mcc_generated_files/tmr1.c: 132:         T1CONbits.TMR1ON =1;
  5716     0366  1418               	bsf	24,0	;volatile
  5717                           
  5718                           ;mcc_generated_files/tmr1.c: 133:     }
  5719     0367  2B6C               	goto	i1l484
  5720     0368                     i1l2270:
  5721                           
  5722                           ;mcc_generated_files/tmr1.c: 135:     {;mcc_generated_files/tmr1.c: 137:         TMR1H =
      +                           (uint8_t)(timerVal >> 8);
  5723     0368  0871               	movf	TMR1_WriteTimer@timerVal+1,w
  5724     0369  0097               	movwf	23	;volatile
  5725     036A                     i1l2272:
  5726                           
  5727                           ;mcc_generated_files/tmr1.c: 138:         TMR1L = (uint8_t)timerVal;
  5728     036A  0870               	movf	TMR1_WriteTimer@timerVal,w
  5729     036B  0096               	movwf	22	;volatile
  5730     036C                     i1l484:
  5731     036C  0008               	return
  5732     036D                     __end_of_TMR1_WriteTimer:
  5733                           
  5734                           	psect	text32
  5735     03D6                     __ptext32:	
  5736 ;; *************** function _TMR1_CallBack *****************
  5737 ;; Defined at:
  5738 ;;		line 169 in file "mcc_generated_files/tmr1.c"
  5739 ;; Parameters:    Size  Location     Type
  5740 ;;		None
  5741 ;; Auto vars:     Size  Location     Type
  5742 ;;		None
  5743 ;; Return value:  Size  Location     Type
  5744 ;;                  1    wreg      void 
  5745 ;; Registers used:
  5746 ;;		wreg, status,2, status,0, pclath, cstack
  5747 ;; Tracked objects:
  5748 ;;		On entry : 0/0
  5749 ;;		On exit  : 0/0
  5750 ;;		Unchanged: 0/0
  5751 ;; Data sizes:     COMMON   BANK0   BANK1   BANK2   BANK3   BANK4
  5752 ;;      Params:         0       0       0       0       0       0
  5753 ;;      Locals:         0       0       0       0       0       0
  5754 ;;      Temps:          0       0       0       0       0       0
  5755 ;;      Totals:         0       0       0       0       0       0
  5756 ;;Total ram usage:        0 bytes
  5757 ;; Hardware stack levels used: 1
  5758 ;; Hardware stack levels required when called: 1
  5759 ;; This function calls:
  5760 ;;		NULL
  5761 ;;		_TMR1_DefaultInterruptHandler
  5762 ;; This function is called by:
  5763 ;;		_TMR1_ISR
  5764 ;; This function uses a non-reentrant model
  5765 ;;
  5766                           
  5767     03D6                     _TMR1_CallBack:	
  5768                           ;psect for function _TMR1_CallBack
  5769                           
  5770     03D6                     i1l2274:	
  5771                           ;incstack = 0
  5772                           ; Regs used in _TMR1_CallBack: [wreg+status,2+status,0+pclath+cstack]
  5773                           
  5774                           
  5775                           ;mcc_generated_files/tmr1.c: 172:     if(TMR1_InterruptHandler)
  5776     03D6  0020               	movlb	0	; select bank0
  5777     03D7  084A               	movf	_TMR1_InterruptHandler,w
  5778     03D8  044B               	iorwf	_TMR1_InterruptHandler+1,w
  5779     03D9  1903               	btfsc	3,2
  5780     03DA  2BDC               	goto	u63_21
  5781     03DB  2BDD               	goto	u63_20
  5782     03DC                     u63_21:
  5783     03DC  2BE2               	goto	i1l500
  5784     03DD                     u63_20:
  5785     03DD                     i1l2276:
  5786                           
  5787                           ;mcc_generated_files/tmr1.c: 173:     {;mcc_generated_files/tmr1.c: 174:         TMR1_In
      +                          terruptHandler();
  5788     03DD  084B               	movf	_TMR1_InterruptHandler+1,w
  5789     03DE  008A               	movwf	10
  5790     03DF  084A               	movf	_TMR1_InterruptHandler,w
  5791     03E0  000A               	callw
  5792     03E1  3183               	pagesel	$
  5793     03E2                     i1l500:
  5794     03E2  0008               	return
  5795     03E3                     __end_of_TMR1_CallBack:
  5796                           
  5797                           	psect	text33
  5798     048D                     __ptext33:	
  5799 ;; *************** function _TMR1_DefaultInterruptHandler *****************
  5800 ;; Defined at:
  5801 ;;		line 182 in file "mcc_generated_files/tmr1.c"
  5802 ;; Parameters:    Size  Location     Type
  5803 ;;		None
  5804 ;; Auto vars:     Size  Location     Type
  5805 ;;		None
  5806 ;; Return value:  Size  Location     Type
  5807 ;;                  1    wreg      void 
  5808 ;; Registers used:
  5809 ;;		None
  5810 ;; Tracked objects:
  5811 ;;		On entry : 0/0
  5812 ;;		On exit  : 0/0
  5813 ;;		Unchanged: 0/0
  5814 ;; Data sizes:     COMMON   BANK0   BANK1   BANK2   BANK3   BANK4
  5815 ;;      Params:         0       0       0       0       0       0
  5816 ;;      Locals:         0       0       0       0       0       0
  5817 ;;      Temps:          0       0       0       0       0       0
  5818 ;;      Totals:         0       0       0       0       0       0
  5819 ;;Total ram usage:        0 bytes
  5820 ;; Hardware stack levels used: 1
  5821 ;; This function calls:
  5822 ;;		Nothing
  5823 ;; This function is called by:
  5824 ;;		_TMR1_Initialize
  5825 ;;		_TMR1_CallBack
  5826 ;; This function uses a non-reentrant model
  5827 ;;
  5828                           
  5829     048D                     _TMR1_DefaultInterruptHandler:	
  5830                           ;psect for function _TMR1_DefaultInterruptHandler
  5831                           
  5832     048D                     i1l506:	
  5833                           ;incstack = 0
  5834                           ; Regs used in _TMR1_DefaultInterruptHandler: []
  5835                           
  5836     048D  0008               	return
  5837     048E                     __end_of_TMR1_DefaultInterruptHandler:
  5838                           
  5839                           	psect	text34
  5840     031F                     __ptext34:	
  5841 ;; *************** function _TMR0_ISR *****************
  5842 ;; Defined at:
  5843 ;;		line 108 in file "mcc_generated_files/tmr0.c"
  5844 ;; Parameters:    Size  Location     Type
  5845 ;;		None
  5846 ;; Auto vars:     Size  Location     Type
  5847 ;;		None
  5848 ;; Return value:  Size  Location     Type
  5849 ;;                  1    wreg      void 
  5850 ;; Registers used:
  5851 ;;		wreg, status,2, status,0, pclath, cstack
  5852 ;; Tracked objects:
  5853 ;;		On entry : 0/0
  5854 ;;		On exit  : 0/0
  5855 ;;		Unchanged: 0/0
  5856 ;; Data sizes:     COMMON   BANK0   BANK1   BANK2   BANK3   BANK4
  5857 ;;      Params:         0       0       0       0       0       0
  5858 ;;      Locals:         0       0       0       0       0       0
  5859 ;;      Temps:          0       0       0       0       0       0
  5860 ;;      Totals:         0       0       0       0       0       0
  5861 ;;Total ram usage:        0 bytes
  5862 ;; Hardware stack levels used: 1
  5863 ;; Hardware stack levels required when called: 2
  5864 ;; This function calls:
  5865 ;;		_TMR0_CallBack
  5866 ;; This function is called by:
  5867 ;;		_INTERRUPT_InterruptManager
  5868 ;; This function uses a non-reentrant model
  5869 ;;
  5870                           
  5871     031F                     _TMR0_ISR:	
  5872                           ;psect for function _TMR0_ISR
  5873                           
  5874     031F                     i1l2334:	
  5875                           ;incstack = 0
  5876                           ; Regs used in _TMR0_ISR: [wreg+status,2+status,0+pclath+cstack]
  5877                           
  5878                           
  5879                           ;mcc_generated_files/tmr0.c: 110:     static volatile uint16_t CountCallBack = 0;;mcc_ge
      +                          nerated_files/tmr0.c: 113:     INTCONbits.TMR0IF = 0;
  5880     031F  110B               	bcf	11,2	;volatile
  5881     0320                     i1l2336:
  5882                           
  5883                           ;mcc_generated_files/tmr0.c: 115:     TMR0 = timer0ReloadVal;
  5884     0320  0020               	movlb	0	; select bank0
  5885     0321  082E               	movf	_timer0ReloadVal,w	;volatile
  5886     0322  0095               	movwf	21	;volatile
  5887                           
  5888                           ;mcc_generated_files/tmr0.c: 118:     if (++CountCallBack >= 32)
  5889     0323  3001               	movlw	1
  5890     0324  07A8               	addwf	TMR0_ISR@CountCallBack,f	;volatile
  5891     0325  3000               	movlw	0
  5892     0326  3DA9               	addwfc	TMR0_ISR@CountCallBack+1,f	;volatile
  5893     0327  3000               	movlw	0
  5894     0328  0229               	subwf	TMR0_ISR@CountCallBack+1,w	;volatile
  5895     0329  3020               	movlw	32
  5896     032A  1903               	skipnz
  5897     032B  0228               	subwf	TMR0_ISR@CountCallBack,w	;volatile
  5898     032C  1C03               	skipc
  5899     032D  2B2F               	goto	u70_21
  5900     032E  2B30               	goto	u70_20
  5901     032F                     u70_21:
  5902     032F  2B36               	goto	i1l572
  5903     0330                     u70_20:
  5904     0330                     i1l2338:
  5905                           
  5906                           ;mcc_generated_files/tmr0.c: 119:     {;mcc_generated_files/tmr0.c: 121:         TMR0_Ca
      +                          llBack();
  5907     0330  3183  23E3  3183   	fcall	_TMR0_CallBack
  5908     0333                     i1l2340:
  5909                           
  5910                           ;mcc_generated_files/tmr0.c: 124:         CountCallBack = 0;
  5911     0333  0020               	movlb	0	; select bank0
  5912     0334  01A8               	clrf	TMR0_ISR@CountCallBack	;volatile
  5913     0335  01A9               	clrf	TMR0_ISR@CountCallBack+1	;volatile
  5914     0336                     i1l572:
  5915     0336  0008               	return
  5916     0337                     __end_of_TMR0_ISR:
  5917                           
  5918                           	psect	text35
  5919     03E3                     __ptext35:	
  5920 ;; *************** function _TMR0_CallBack *****************
  5921 ;; Defined at:
  5922 ;;		line 130 in file "mcc_generated_files/tmr0.c"
  5923 ;; Parameters:    Size  Location     Type
  5924 ;;		None
  5925 ;; Auto vars:     Size  Location     Type
  5926 ;;		None
  5927 ;; Return value:  Size  Location     Type
  5928 ;;                  1    wreg      void 
  5929 ;; Registers used:
  5930 ;;		wreg, status,2, status,0, pclath, cstack
  5931 ;; Tracked objects:
  5932 ;;		On entry : 0/0
  5933 ;;		On exit  : 0/0
  5934 ;;		Unchanged: 0/0
  5935 ;; Data sizes:     COMMON   BANK0   BANK1   BANK2   BANK3   BANK4
  5936 ;;      Params:         0       0       0       0       0       0
  5937 ;;      Locals:         0       0       0       0       0       0
  5938 ;;      Temps:          0       0       0       0       0       0
  5939 ;;      Totals:         0       0       0       0       0       0
  5940 ;;Total ram usage:        0 bytes
  5941 ;; Hardware stack levels used: 1
  5942 ;; Hardware stack levels required when called: 1
  5943 ;; This function calls:
  5944 ;;		NULL
  5945 ;;		_TMR0_DefaultInterruptHandler
  5946 ;; This function is called by:
  5947 ;;		_TMR0_ISR
  5948 ;; This function uses a non-reentrant model
  5949 ;;
  5950                           
  5951     03E3                     _TMR0_CallBack:	
  5952                           ;psect for function _TMR0_CallBack
  5953                           
  5954     03E3                     i1l2278:	
  5955                           ;incstack = 0
  5956                           ; Regs used in _TMR0_CallBack: [wreg+status,2+status,0+pclath+cstack]
  5957                           
  5958                           
  5959                           ;mcc_generated_files/tmr0.c: 134:     if(TMR0_InterruptHandler)
  5960     03E3  0020               	movlb	0	; select bank0
  5961     03E4  0848               	movf	_TMR0_InterruptHandler,w
  5962     03E5  0449               	iorwf	_TMR0_InterruptHandler+1,w
  5963     03E6  1903               	btfsc	3,2
  5964     03E7  2BE9               	goto	u64_21
  5965     03E8  2BEA               	goto	u64_20
  5966     03E9                     u64_21:
  5967     03E9  2BEF               	goto	i1l576
  5968     03EA                     u64_20:
  5969     03EA                     i1l2280:
  5970                           
  5971                           ;mcc_generated_files/tmr0.c: 135:     {;mcc_generated_files/tmr0.c: 136:         TMR0_In
      +                          terruptHandler();
  5972     03EA  0849               	movf	_TMR0_InterruptHandler+1,w
  5973     03EB  008A               	movwf	10
  5974     03EC  0848               	movf	_TMR0_InterruptHandler,w
  5975     03ED  000A               	callw
  5976     03EE  3183               	pagesel	$
  5977     03EF                     i1l576:
  5978     03EF  0008               	return
  5979     03F0                     __end_of_TMR0_CallBack:
  5980                           
  5981                           	psect	text36
  5982     048E                     __ptext36:	
  5983 ;; *************** function _TMR0_DefaultInterruptHandler *****************
  5984 ;; Defined at:
  5985 ;;		line 144 in file "mcc_generated_files/tmr0.c"
  5986 ;; Parameters:    Size  Location     Type
  5987 ;;		None
  5988 ;; Auto vars:     Size  Location     Type
  5989 ;;		None
  5990 ;; Return value:  Size  Location     Type
  5991 ;;                  1    wreg      void 
  5992 ;; Registers used:
  5993 ;;		None
  5994 ;; Tracked objects:
  5995 ;;		On entry : 0/0
  5996 ;;		On exit  : 0/0
  5997 ;;		Unchanged: 0/0
  5998 ;; Data sizes:     COMMON   BANK0   BANK1   BANK2   BANK3   BANK4
  5999 ;;      Params:         0       0       0       0       0       0
  6000 ;;      Locals:         0       0       0       0       0       0
  6001 ;;      Temps:          0       0       0       0       0       0
  6002 ;;      Totals:         0       0       0       0       0       0
  6003 ;;Total ram usage:        0 bytes
  6004 ;; Hardware stack levels used: 1
  6005 ;; This function calls:
  6006 ;;		Nothing
  6007 ;; This function is called by:
  6008 ;;		_TMR0_Initialize
  6009 ;;		_TMR0_CallBack
  6010 ;; This function uses a non-reentrant model
  6011 ;;
  6012                           
  6013     048E                     _TMR0_DefaultInterruptHandler:	
  6014                           ;psect for function _TMR0_DefaultInterruptHandler
  6015                           
  6016     048E                     i1l582:	
  6017                           ;incstack = 0
  6018                           ; Regs used in _TMR0_DefaultInterruptHandler: []
  6019                           
  6020     048E  0008               	return
  6021     048F                     __end_of_TMR0_DefaultInterruptHandler:
  6022                           
  6023                           	psect	text37
  6024     036D                     __ptext37:	
  6025 ;; *************** function _PIN_MANAGER_IOC *****************
  6026 ;; Defined at:
  6027 ;;		line 119 in file "mcc_generated_files/pin_manager.c"
  6028 ;; Parameters:    Size  Location     Type
  6029 ;;		None
  6030 ;; Auto vars:     Size  Location     Type
  6031 ;;		None
  6032 ;; Return value:  Size  Location     Type
  6033 ;;                  1    wreg      void 
  6034 ;; Registers used:
  6035 ;;		wreg, fsr1l, fsr1h, status,2, status,0, pclath, cstack
  6036 ;; Tracked objects:
  6037 ;;		On entry : 0/0
  6038 ;;		On exit  : 0/0
  6039 ;;		Unchanged: 0/0
  6040 ;; Data sizes:     COMMON   BANK0   BANK1   BANK2   BANK3   BANK4
  6041 ;;      Params:         0       0       0       0       0       0
  6042 ;;      Locals:         0       0       0       0       0       0
  6043 ;;      Temps:          0       0       0       0       0       0
  6044 ;;      Totals:         0       0       0       0       0       0
  6045 ;;Total ram usage:        0 bytes
  6046 ;; Hardware stack levels used: 1
  6047 ;; Hardware stack levels required when called: 5
  6048 ;; This function calls:
  6049 ;;		_IOCBF0_ISR
  6050 ;;		_IOCBF3_ISR
  6051 ;; This function is called by:
  6052 ;;		_INTERRUPT_InterruptManager
  6053 ;; This function uses a non-reentrant model
  6054 ;;
  6055                           
  6056     036D                     _PIN_MANAGER_IOC:	
  6057                           ;psect for function _PIN_MANAGER_IOC
  6058                           
  6059     036D                     i1l2294:	
  6060                           ;incstack = 0
  6061                           ; Regs used in _PIN_MANAGER_IOC: [wreg+fsr1l+fsr1h+status,2+status,0+pclath+cstack]
  6062                           
  6063                           
  6064                           ;mcc_generated_files/pin_manager.c: 122:     if(IOCBFbits.IOCBF0 == 1)
  6065     036D  0027               	movlb	7	; select bank7
  6066     036E  1C16               	btfss	22,0	;volatile
  6067     036F  2B71               	goto	u65_21
  6068     0370  2B72               	goto	u65_20
  6069     0371                     u65_21:
  6070     0371  2B75               	goto	i1l2298
  6071     0372                     u65_20:
  6072     0372                     i1l2296:
  6073                           
  6074                           ;mcc_generated_files/pin_manager.c: 123:     {;mcc_generated_files/pin_manager.c: 124:  
      +                                 IOCBF0_ISR();
  6075     0372  3183  23AC  3183   	fcall	_IOCBF0_ISR
  6076     0375                     i1l2298:
  6077                           
  6078                           ;mcc_generated_files/pin_manager.c: 127:     if(IOCBFbits.IOCBF3 == 1)
  6079     0375  0027               	movlb	7	; select bank7
  6080     0376  1D96               	btfss	22,3	;volatile
  6081     0377  2B79               	goto	u66_21
  6082     0378  2B7A               	goto	u66_20
  6083     0379                     u66_21:
  6084     0379  2B7D               	goto	i1l150
  6085     037A                     u66_20:
  6086     037A                     i1l2300:
  6087                           
  6088                           ;mcc_generated_files/pin_manager.c: 128:     {;mcc_generated_files/pin_manager.c: 129:  
      +                                 IOCBF3_ISR();
  6089     037A  3183  239D  3183   	fcall	_IOCBF3_ISR
  6090     037D                     i1l150:
  6091     037D  0008               	return
  6092     037E                     __end_of_PIN_MANAGER_IOC:
  6093                           
  6094                           	psect	text38
  6095     039D                     __ptext38:	
  6096 ;; *************** function _IOCBF3_ISR *****************
  6097 ;; Defined at:
  6098 ;;		line 166 in file "mcc_generated_files/pin_manager.c"
  6099 ;; Parameters:    Size  Location     Type
  6100 ;;		None
  6101 ;; Auto vars:     Size  Location     Type
  6102 ;;		None
  6103 ;; Return value:  Size  Location     Type
  6104 ;;                  1    wreg      void 
  6105 ;; Registers used:
  6106 ;;		wreg, fsr1l, fsr1h, status,2, status,0, pclath, cstack
  6107 ;; Tracked objects:
  6108 ;;		On entry : 0/0
  6109 ;;		On exit  : 0/0
  6110 ;;		Unchanged: 0/0
  6111 ;; Data sizes:     COMMON   BANK0   BANK1   BANK2   BANK3   BANK4
  6112 ;;      Params:         0       0       0       0       0       0
  6113 ;;      Locals:         0       0       0       0       0       0
  6114 ;;      Temps:          0       0       0       0       0       0
  6115 ;;      Totals:         0       0       0       0       0       0
  6116 ;;Total ram usage:        0 bytes
  6117 ;; Hardware stack levels used: 1
  6118 ;; Hardware stack levels required when called: 4
  6119 ;; This function calls:
  6120 ;;		NULL
  6121 ;;		_IOCBF3_DefaultInterruptHandler
  6122 ;;		_chegadaS1
  6123 ;;		_chegadaS2
  6124 ;; This function is called by:
  6125 ;;		_PIN_MANAGER_IOC
  6126 ;; This function uses a non-reentrant model
  6127 ;;
  6128                           
  6129     039D                     _IOCBF3_ISR:	
  6130                           ;psect for function _IOCBF3_ISR
  6131                           
  6132     039D                     i1l2180:	
  6133                           ;incstack = 0
  6134                           ; Regs used in _IOCBF3_ISR: [wreg+fsr1l+fsr1h+status,2+status,0+pclath+cstack]
  6135                           
  6136                           
  6137                           ;mcc_generated_files/pin_manager.c: 171:     if(IOCBF3_InterruptHandler)
  6138     039D  0020               	movlb	0	; select bank0
  6139     039E  0852               	movf	_IOCBF3_InterruptHandler,w
  6140     039F  0453               	iorwf	_IOCBF3_InterruptHandler+1,w
  6141     03A0  1903               	btfsc	3,2
  6142     03A1  2BA3               	goto	u61_21
  6143     03A2  2BA4               	goto	u61_20
  6144     03A3                     u61_21:
  6145     03A3  2BA9               	goto	i1l2184
  6146     03A4                     u61_20:
  6147     03A4                     i1l2182:
  6148                           
  6149                           ;mcc_generated_files/pin_manager.c: 172:     {;mcc_generated_files/pin_manager.c: 173:  
      +                                 IOCBF3_InterruptHandler();
  6150     03A4  0853               	movf	_IOCBF3_InterruptHandler+1,w
  6151     03A5  008A               	movwf	10
  6152     03A6  0852               	movf	_IOCBF3_InterruptHandler,w
  6153     03A7  000A               	callw
  6154     03A8  3183               	pagesel	$
  6155     03A9                     i1l2184:
  6156                           
  6157                           ;mcc_generated_files/pin_manager.c: 175:     IOCBFbits.IOCBF3 = 0;
  6158     03A9  0027               	movlb	7	; select bank7
  6159     03AA  1196               	bcf	22,3	;volatile
  6160     03AB                     i1l164:
  6161     03AB  0008               	return
  6162     03AC                     __end_of_IOCBF3_ISR:
  6163                           
  6164                           	psect	text39
  6165     02C9                     __ptext39:	
  6166 ;; *************** function _chegadaS1 *****************
  6167 ;; Defined at:
  6168 ;;		line 103 in file "main.c"
  6169 ;; Parameters:    Size  Location     Type
  6170 ;;		None
  6171 ;; Auto vars:     Size  Location     Type
  6172 ;;		None
  6173 ;; Return value:  Size  Location     Type
  6174 ;;                  1    wreg      void 
  6175 ;; Registers used:
  6176 ;;		wreg, fsr1l, fsr1h, status,2, status,0, pclath, cstack
  6177 ;; Tracked objects:
  6178 ;;		On entry : 0/0
  6179 ;;		On exit  : 0/0
  6180 ;;		Unchanged: 0/0
  6181 ;; Data sizes:     COMMON   BANK0   BANK1   BANK2   BANK3   BANK4
  6182 ;;      Params:         0       0       0       0       0       0
  6183 ;;      Locals:         0       0       0       0       0       0
  6184 ;;      Temps:          0       0       0       0       0       0
  6185 ;;      Totals:         0       0       0       0       0       0
  6186 ;;Total ram usage:        0 bytes
  6187 ;; Hardware stack levels used: 1
  6188 ;; Hardware stack levels required when called: 3
  6189 ;; This function calls:
  6190 ;;		_matrixUpdate
  6191 ;; This function is called by:
  6192 ;;		_main
  6193 ;;		_IOCBF3_ISR
  6194 ;; This function uses a non-reentrant model
  6195 ;;
  6196                           
  6197     02C9                     _chegadaS1:	
  6198                           ;psect for function _chegadaS1
  6199                           
  6200     02C9                     i1l2038:	
  6201                           ;incstack = 0
  6202                           ; Regs used in _chegadaS1: [wreg+fsr1l+fsr1h+status,2+status,0+pclath+cstack]
  6203                           
  6204                           
  6205                           ;main.c: 105:     MatrixLed[0] = 0b01111110;
  6206     02C9  307E               	movlw	126
  6207     02CA  0020               	movlb	0	; select bank0
  6208     02CB  00A0               	movwf	_MatrixLed
  6209                           
  6210                           ;main.c: 106:     MatrixLed[1] = 0b10000001;
  6211     02CC  3081               	movlw	129
  6212     02CD  00A1               	movwf	_MatrixLed+1
  6213                           
  6214                           ;main.c: 107:     MatrixLed[2] = 0b10000001;
  6215     02CE  3081               	movlw	129
  6216     02CF  00A2               	movwf	_MatrixLed+2
  6217                           
  6218                           ;main.c: 108:     MatrixLed[3] = 0b01111110;
  6219     02D0  307E               	movlw	126
  6220     02D1  00A3               	movwf	_MatrixLed+3
  6221     02D2                     i1l2040:
  6222                           
  6223                           ;main.c: 109:     MatrixLed[4] = 0;
  6224     02D2  01A4               	clrf	_MatrixLed+4
  6225     02D3                     i1l2042:
  6226                           
  6227                           ;main.c: 110:     if(subindo){
  6228     02D3  087D               	movf	_subindo,w
  6229     02D4  1903               	btfsc	3,2
  6230     02D5  2AD7               	goto	u56_21
  6231     02D6  2AD8               	goto	u56_20
  6232     02D7                     u56_21:
  6233     02D7  2ADF               	goto	i1l2046
  6234     02D8                     u56_20:
  6235     02D8                     i1l2044:
  6236                           
  6237                           ;main.c: 111:         MatrixLed[5] = 0b01100000;
  6238     02D8  3060               	movlw	96
  6239     02D9  00A5               	movwf	_MatrixLed+5
  6240                           
  6241                           ;main.c: 112:         MatrixLed[6] = 0b11000000;
  6242     02DA  30C0               	movlw	192
  6243     02DB  00A6               	movwf	_MatrixLed+6
  6244                           
  6245                           ;main.c: 113:         MatrixLed[7] = 0b01100000;
  6246     02DC  3060               	movlw	96
  6247     02DD  00A7               	movwf	_MatrixLed+7
  6248                           
  6249                           ;main.c: 114:     }else{
  6250     02DE  2AE8               	goto	i1l2050
  6251     02DF                     i1l2046:
  6252                           
  6253                           ;main.c: 115:         MatrixLed[5] = 0b11000000;
  6254     02DF  30C0               	movlw	192
  6255     02E0  00A5               	movwf	_MatrixLed+5
  6256                           
  6257                           ;main.c: 116:         MatrixLed[6] = 0b01100000;
  6258     02E1  3060               	movlw	96
  6259     02E2  00A6               	movwf	_MatrixLed+6
  6260                           
  6261                           ;main.c: 117:         MatrixLed[7] = 0b11000000;
  6262     02E3  30C0               	movlw	192
  6263     02E4  00A7               	movwf	_MatrixLed+7
  6264     02E5                     i1l2048:
  6265                           
  6266                           ;main.c: 118:         destinoDesc = destinoDesc & 0b11111110;
  6267     02E5  087B               	movf	_destinoDesc,w
  6268     02E6  39FE               	andlw	254
  6269     02E7  00FB               	movwf	_destinoDesc
  6270     02E8                     i1l2050:
  6271                           
  6272                           ;main.c: 120:     matrixUpdate();
  6273     02E8  3182  22EC  3182   	fcall	_matrixUpdate
  6274     02EB                     i1l654:
  6275     02EB  0008               	return
  6276     02EC                     __end_of_chegadaS1:
  6277                           
  6278                           	psect	text40
  6279     048F                     __ptext40:	
  6280 ;; *************** function _IOCBF3_DefaultInterruptHandler *****************
  6281 ;; Defined at:
  6282 ;;		line 188 in file "mcc_generated_files/pin_manager.c"
  6283 ;; Parameters:    Size  Location     Type
  6284 ;;		None
  6285 ;; Auto vars:     Size  Location     Type
  6286 ;;		None
  6287 ;; Return value:  Size  Location     Type
  6288 ;;                  1    wreg      void 
  6289 ;; Registers used:
  6290 ;;		None
  6291 ;; Tracked objects:
  6292 ;;		On entry : 0/0
  6293 ;;		On exit  : 0/0
  6294 ;;		Unchanged: 0/0
  6295 ;; Data sizes:     COMMON   BANK0   BANK1   BANK2   BANK3   BANK4
  6296 ;;      Params:         0       0       0       0       0       0
  6297 ;;      Locals:         0       0       0       0       0       0
  6298 ;;      Temps:          0       0       0       0       0       0
  6299 ;;      Totals:         0       0       0       0       0       0
  6300 ;;Total ram usage:        0 bytes
  6301 ;; Hardware stack levels used: 1
  6302 ;; This function calls:
  6303 ;;		Nothing
  6304 ;; This function is called by:
  6305 ;;		_PIN_MANAGER_Initialize
  6306 ;;		_IOCBF3_ISR
  6307 ;; This function uses a non-reentrant model
  6308 ;;
  6309                           
  6310     048F                     _IOCBF3_DefaultInterruptHandler:	
  6311                           ;psect for function _IOCBF3_DefaultInterruptHandler
  6312                           
  6313     048F                     i1l170:	
  6314                           ;incstack = 0
  6315                           ; Regs used in _IOCBF3_DefaultInterruptHandler: []
  6316                           
  6317     048F  0008               	return
  6318     0490                     __end_of_IOCBF3_DefaultInterruptHandler:
  6319                           
  6320                           	psect	text41
  6321     0201                     __ptext41:	
  6322 ;; *************** function _chegadaS2 *****************
  6323 ;; Defined at:
  6324 ;;		line 123 in file "main.c"
  6325 ;; Parameters:    Size  Location     Type
  6326 ;;		None
  6327 ;; Auto vars:     Size  Location     Type
  6328 ;;		None
  6329 ;; Return value:  Size  Location     Type
  6330 ;;                  1    wreg      void 
  6331 ;; Registers used:
  6332 ;;		wreg, fsr1l, fsr1h, status,2, status,0, pclath, cstack
  6333 ;; Tracked objects:
  6334 ;;		On entry : 0/0
  6335 ;;		On exit  : 0/0
  6336 ;;		Unchanged: 0/0
  6337 ;; Data sizes:     COMMON   BANK0   BANK1   BANK2   BANK3   BANK4
  6338 ;;      Params:         0       0       0       0       0       0
  6339 ;;      Locals:         0       0       0       0       0       0
  6340 ;;      Temps:          0       0       0       0       0       0
  6341 ;;      Totals:         0       0       0       0       0       0
  6342 ;;Total ram usage:        0 bytes
  6343 ;; Hardware stack levels used: 1
  6344 ;; Hardware stack levels required when called: 3
  6345 ;; This function calls:
  6346 ;;		_matrixUpdate
  6347 ;; This function is called by:
  6348 ;;		_main
  6349 ;;		_IOCBF3_ISR
  6350 ;; This function uses a non-reentrant model
  6351 ;;
  6352                           
  6353     0201                     _chegadaS2:	
  6354                           ;psect for function _chegadaS2
  6355                           
  6356     0201                     i1l2052:	
  6357                           ;incstack = 0
  6358                           ; Regs used in _chegadaS2: [wreg+fsr1l+fsr1h+status,2+status,0+pclath+cstack]
  6359                           
  6360                           
  6361                           ;main.c: 125:     MatrixLed[0] = 0b00000000;
  6362     0201  0020               	movlb	0	; select bank0
  6363     0202  01A0               	clrf	_MatrixLed
  6364     0203                     i1l2054:
  6365                           
  6366                           ;main.c: 126:     MatrixLed[1] = 0b01000001;
  6367     0203  3041               	movlw	65
  6368     0204  00A1               	movwf	_MatrixLed+1
  6369     0205                     i1l2056:
  6370                           
  6371                           ;main.c: 127:     MatrixLed[2] = 0b11111111;
  6372     0205  30FF               	movlw	255
  6373     0206  00A2               	movwf	_MatrixLed+2
  6374     0207                     i1l2058:
  6375                           
  6376                           ;main.c: 128:     MatrixLed[3] = 0b00000001;
  6377     0207  01A3               	clrf	_MatrixLed+3
  6378     0208  0AA3               	incf	_MatrixLed+3,f
  6379                           
  6380                           ;main.c: 129:     MatrixLed[4] = 0;
  6381     0209  01A4               	clrf	_MatrixLed+4
  6382     020A                     i1l2060:
  6383                           
  6384                           ;main.c: 130:     if(subindo){
  6385     020A  087D               	movf	_subindo,w
  6386     020B  1903               	btfsc	3,2
  6387     020C  2A0E               	goto	u57_21
  6388     020D  2A0F               	goto	u57_20
  6389     020E                     u57_21:
  6390     020E  2A19               	goto	i1l2066
  6391     020F                     u57_20:
  6392     020F                     i1l2062:
  6393                           
  6394                           ;main.c: 131:         MatrixLed[5] = 0b01100000;
  6395     020F  3060               	movlw	96
  6396     0210  00A5               	movwf	_MatrixLed+5
  6397                           
  6398                           ;main.c: 132:         MatrixLed[6] = 0b11000000;
  6399     0211  30C0               	movlw	192
  6400     0212  00A6               	movwf	_MatrixLed+6
  6401                           
  6402                           ;main.c: 133:         MatrixLed[7] = 0b01100000;
  6403     0213  3060               	movlw	96
  6404     0214  00A7               	movwf	_MatrixLed+7
  6405     0215                     i1l2064:
  6406                           
  6407                           ;main.c: 134:         destinoSub = destinoSub & 0b11111101;
  6408     0215  087C               	movf	_destinoSub,w
  6409     0216  39FD               	andlw	253
  6410     0217  00FC               	movwf	_destinoSub
  6411                           
  6412                           ;main.c: 135:     }else{
  6413     0218  2A22               	goto	i1l2070
  6414     0219                     i1l2066:
  6415                           
  6416                           ;main.c: 136:         MatrixLed[5] = 0b11000000;
  6417     0219  30C0               	movlw	192
  6418     021A  00A5               	movwf	_MatrixLed+5
  6419                           
  6420                           ;main.c: 137:         MatrixLed[6] = 0b01100000;
  6421     021B  3060               	movlw	96
  6422     021C  00A6               	movwf	_MatrixLed+6
  6423                           
  6424                           ;main.c: 138:         MatrixLed[7] = 0b11000000;
  6425     021D  30C0               	movlw	192
  6426     021E  00A7               	movwf	_MatrixLed+7
  6427     021F                     i1l2068:
  6428                           
  6429                           ;main.c: 139:         destinoDesc = destinoDesc & 0b11111101;
  6430     021F  087B               	movf	_destinoDesc,w
  6431     0220  39FD               	andlw	253
  6432     0221  00FB               	movwf	_destinoDesc
  6433     0222                     i1l2070:
  6434                           
  6435                           ;main.c: 141:     MatrixLed[7] = MatrixLed[7] | destinoSub;
  6436     0222  0827               	movf	_MatrixLed+7,w
  6437     0223  047C               	iorwf	_destinoSub,w
  6438     0224  00A7               	movwf	_MatrixLed+7
  6439     0225                     i1l2072:
  6440                           
  6441                           ;main.c: 142:     MatrixLed[6] = MatrixLed[6] | destinoDesc;
  6442     0225  0826               	movf	_MatrixLed+6,w
  6443     0226  047B               	iorwf	_destinoDesc,w
  6444     0227  00A6               	movwf	_MatrixLed+6
  6445     0228                     i1l2074:
  6446                           
  6447                           ;main.c: 143:     matrixUpdate();
  6448     0228  3182  22EC  3182   	fcall	_matrixUpdate
  6449     022B                     i1l659:
  6450     022B  0008               	return
  6451     022C                     __end_of_chegadaS2:
  6452                           
  6453                           	psect	text42
  6454     03AC                     __ptext42:	
  6455 ;; *************** function _IOCBF0_ISR *****************
  6456 ;; Defined at:
  6457 ;;		line 136 in file "mcc_generated_files/pin_manager.c"
  6458 ;; Parameters:    Size  Location     Type
  6459 ;;		None
  6460 ;; Auto vars:     Size  Location     Type
  6461 ;;		None
  6462 ;; Return value:  Size  Location     Type
  6463 ;;                  1    wreg      void 
  6464 ;; Registers used:
  6465 ;;		wreg, status,2, status,0, pclath, cstack
  6466 ;; Tracked objects:
  6467 ;;		On entry : 0/0
  6468 ;;		On exit  : 0/0
  6469 ;;		Unchanged: 0/0
  6470 ;; Data sizes:     COMMON   BANK0   BANK1   BANK2   BANK3   BANK4
  6471 ;;      Params:         0       0       0       0       0       0
  6472 ;;      Locals:         0       0       0       0       0       0
  6473 ;;      Temps:          0       0       0       0       0       0
  6474 ;;      Totals:         0       0       0       0       0       0
  6475 ;;Total ram usage:        0 bytes
  6476 ;; Hardware stack levels used: 1
  6477 ;; Hardware stack levels required when called: 1
  6478 ;; This function calls:
  6479 ;;		NULL
  6480 ;;		_IOCBF0_DefaultInterruptHandler
  6481 ;; This function is called by:
  6482 ;;		_PIN_MANAGER_IOC
  6483 ;; This function uses a non-reentrant model
  6484 ;;
  6485                           
  6486     03AC                     _IOCBF0_ISR:	
  6487                           ;psect for function _IOCBF0_ISR
  6488                           
  6489     03AC                     i1l2174:	
  6490                           ;incstack = 0
  6491                           ; Regs used in _IOCBF0_ISR: [wreg+status,2+status,0+pclath+cstack]
  6492                           
  6493                           
  6494                           ;mcc_generated_files/pin_manager.c: 141:     if(IOCBF0_InterruptHandler)
  6495     03AC  0020               	movlb	0	; select bank0
  6496     03AD  0854               	movf	_IOCBF0_InterruptHandler,w
  6497     03AE  0455               	iorwf	_IOCBF0_InterruptHandler+1,w
  6498     03AF  1903               	btfsc	3,2
  6499     03B0  2BB2               	goto	u60_21
  6500     03B1  2BB3               	goto	u60_20
  6501     03B2                     u60_21:
  6502     03B2  2BB8               	goto	i1l2178
  6503     03B3                     u60_20:
  6504     03B3                     i1l2176:
  6505                           
  6506                           ;mcc_generated_files/pin_manager.c: 142:     {;mcc_generated_files/pin_manager.c: 143:  
      +                                 IOCBF0_InterruptHandler();
  6507     03B3  0855               	movf	_IOCBF0_InterruptHandler+1,w
  6508     03B4  008A               	movwf	10
  6509     03B5  0854               	movf	_IOCBF0_InterruptHandler,w
  6510     03B6  000A               	callw
  6511     03B7  3183               	pagesel	$
  6512     03B8                     i1l2178:
  6513                           
  6514                           ;mcc_generated_files/pin_manager.c: 145:     IOCBFbits.IOCBF0 = 0;
  6515     03B8  0027               	movlb	7	; select bank7
  6516     03B9  1016               	bcf	22,0	;volatile
  6517     03BA                     i1l154:
  6518     03BA  0008               	return
  6519     03BB                     __end_of_IOCBF0_ISR:
  6520                           
  6521                           	psect	text43
  6522     0490                     __ptext43:	
  6523 ;; *************** function _IOCBF0_DefaultInterruptHandler *****************
  6524 ;; Defined at:
  6525 ;;		line 158 in file "mcc_generated_files/pin_manager.c"
  6526 ;; Parameters:    Size  Location     Type
  6527 ;;		None
  6528 ;; Auto vars:     Size  Location     Type
  6529 ;;		None
  6530 ;; Return value:  Size  Location     Type
  6531 ;;                  1    wreg      void 
  6532 ;; Registers used:
  6533 ;;		None
  6534 ;; Tracked objects:
  6535 ;;		On entry : 0/0
  6536 ;;		On exit  : 0/0
  6537 ;;		Unchanged: 0/0
  6538 ;; Data sizes:     COMMON   BANK0   BANK1   BANK2   BANK3   BANK4
  6539 ;;      Params:         0       0       0       0       0       0
  6540 ;;      Locals:         0       0       0       0       0       0
  6541 ;;      Temps:          0       0       0       0       0       0
  6542 ;;      Totals:         0       0       0       0       0       0
  6543 ;;Total ram usage:        0 bytes
  6544 ;; Hardware stack levels used: 1
  6545 ;; This function calls:
  6546 ;;		Nothing
  6547 ;; This function is called by:
  6548 ;;		_PIN_MANAGER_Initialize
  6549 ;;		_IOCBF0_ISR
  6550 ;; This function uses a non-reentrant model
  6551 ;;
  6552                           
  6553     0490                     _IOCBF0_DefaultInterruptHandler:	
  6554                           ;psect for function _IOCBF0_DefaultInterruptHandler
  6555                           
  6556     0490                     i1l160:	
  6557                           ;incstack = 0
  6558                           ; Regs used in _IOCBF0_DefaultInterruptHandler: []
  6559                           
  6560     0490  0008               	return
  6561     0491                     __end_of_IOCBF0_DefaultInterruptHandler:
  6562                           
  6563                           	psect	text44
  6564     046F                     __ptext44:	
  6565 ;; *************** function _CMP2_ISR *****************
  6566 ;; Defined at:
  6567 ;;		line 86 in file "mcc_generated_files/cmp2.c"
  6568 ;; Parameters:    Size  Location     Type
  6569 ;;		None
  6570 ;; Auto vars:     Size  Location     Type
  6571 ;;		None
  6572 ;; Return value:  Size  Location     Type
  6573 ;;                  1    wreg      void 
  6574 ;; Registers used:
  6575 ;;		wreg, fsr1l, fsr1h, status,2, status,0, pclath, cstack
  6576 ;; Tracked objects:
  6577 ;;		On entry : 0/0
  6578 ;;		On exit  : 0/0
  6579 ;;		Unchanged: 0/0
  6580 ;; Data sizes:     COMMON   BANK0   BANK1   BANK2   BANK3   BANK4
  6581 ;;      Params:         0       0       0       0       0       0
  6582 ;;      Locals:         0       0       0       0       0       0
  6583 ;;      Temps:          0       0       0       0       0       0
  6584 ;;      Totals:         0       0       0       0       0       0
  6585 ;;Total ram usage:        0 bytes
  6586 ;; Hardware stack levels used: 1
  6587 ;; Hardware stack levels required when called: 4
  6588 ;; This function calls:
  6589 ;;		_chegadaS4
  6590 ;; This function is called by:
  6591 ;;		_INTERRUPT_InterruptManager
  6592 ;; This function uses a non-reentrant model
  6593 ;;
  6594                           
  6595     046F                     _CMP2_ISR:	
  6596                           ;psect for function _CMP2_ISR
  6597                           
  6598     046F                     i1l2286:	
  6599                           ;incstack = 0
  6600                           ; Regs used in _CMP2_ISR: [wreg+fsr1l+fsr1h+status,2+status,0+pclath+cstack]
  6601                           
  6602                           
  6603                           ;mcc_generated_files/cmp2.c: 89:     PIR2bits.C2IF = 0;
  6604     046F  0020               	movlb	0	; select bank0
  6605     0470  1312               	bcf	18,6	;volatile
  6606     0471                     i1l2288:
  6607                           
  6608                           ;mcc_generated_files/cmp2.c: 90:     chegadaS4();
  6609     0471  3181  21A9  3184   	fcall	_chegadaS4
  6610     0474                     i1l55:
  6611     0474  0008               	return
  6612     0475                     __end_of_CMP2_ISR:
  6613                           
  6614                           	psect	text45
  6615     01A9                     __ptext45:	
  6616 ;; *************** function _chegadaS4 *****************
  6617 ;; Defined at:
  6618 ;;		line 169 in file "main.c"
  6619 ;; Parameters:    Size  Location     Type
  6620 ;;		None
  6621 ;; Auto vars:     Size  Location     Type
  6622 ;;		None
  6623 ;; Return value:  Size  Location     Type
  6624 ;;                  1    wreg      void 
  6625 ;; Registers used:
  6626 ;;		wreg, fsr1l, fsr1h, status,2, status,0, pclath, cstack
  6627 ;; Tracked objects:
  6628 ;;		On entry : 0/0
  6629 ;;		On exit  : 0/0
  6630 ;;		Unchanged: 0/0
  6631 ;; Data sizes:     COMMON   BANK0   BANK1   BANK2   BANK3   BANK4
  6632 ;;      Params:         0       0       0       0       0       0
  6633 ;;      Locals:         0       0       0       0       0       0
  6634 ;;      Temps:          0       0       0       0       0       0
  6635 ;;      Totals:         0       0       0       0       0       0
  6636 ;;Total ram usage:        0 bytes
  6637 ;; Hardware stack levels used: 1
  6638 ;; Hardware stack levels required when called: 3
  6639 ;; This function calls:
  6640 ;;		_matrixUpdate
  6641 ;; This function is called by:
  6642 ;;		_CMP2_ISR
  6643 ;; This function uses a non-reentrant model
  6644 ;;
  6645                           
  6646     01A9                     _chegadaS4:	
  6647                           ;psect for function _chegadaS4
  6648                           
  6649     01A9                     i1l2092:	
  6650                           ;incstack = 0
  6651                           ; Regs used in _chegadaS4: [wreg+fsr1l+fsr1h+status,2+status,0+pclath+cstack]
  6652                           
  6653                           
  6654                           ;main.c: 171:     MatrixLed[0] = 0b10000001;
  6655     01A9  3081               	movlw	129
  6656     01AA  0020               	movlb	0	; select bank0
  6657     01AB  00A0               	movwf	_MatrixLed
  6658                           
  6659                           ;main.c: 172:     MatrixLed[1] = 0b10010001;
  6660     01AC  3091               	movlw	145
  6661     01AD  00A1               	movwf	_MatrixLed+1
  6662                           
  6663                           ;main.c: 173:     MatrixLed[2] = 0b10010001;
  6664     01AE  3091               	movlw	145
  6665     01AF  00A2               	movwf	_MatrixLed+2
  6666                           
  6667                           ;main.c: 174:     MatrixLed[3] = 0b01101110;
  6668     01B0  306E               	movlw	110
  6669     01B1  00A3               	movwf	_MatrixLed+3
  6670     01B2                     i1l2094:
  6671                           
  6672                           ;main.c: 175:     MatrixLed[4] = 0;
  6673     01B2  01A4               	clrf	_MatrixLed+4
  6674     01B3                     i1l2096:
  6675                           
  6676                           ;main.c: 176:     if(subindo){
  6677     01B3  087D               	movf	_subindo,w
  6678     01B4  1903               	btfsc	3,2
  6679     01B5  29B7               	goto	u58_21
  6680     01B6  29B8               	goto	u58_20
  6681     01B7                     u58_21:
  6682     01B7  29C2               	goto	i1l2102
  6683     01B8                     u58_20:
  6684     01B8                     i1l2098:
  6685                           
  6686                           ;main.c: 177:         MatrixLed[5] = 0b01100000;
  6687     01B8  3060               	movlw	96
  6688     01B9  00A5               	movwf	_MatrixLed+5
  6689                           
  6690                           ;main.c: 178:         MatrixLed[6] = 0b11000000;
  6691     01BA  30C0               	movlw	192
  6692     01BB  00A6               	movwf	_MatrixLed+6
  6693                           
  6694                           ;main.c: 179:         MatrixLed[7] = 0b01100000;
  6695     01BC  3060               	movlw	96
  6696     01BD  00A7               	movwf	_MatrixLed+7
  6697     01BE                     i1l2100:
  6698                           
  6699                           ;main.c: 180:         destinoSub = destinoSub & 0b11110111;
  6700     01BE  087C               	movf	_destinoSub,w
  6701     01BF  39F7               	andlw	247
  6702     01C0  00FC               	movwf	_destinoSub
  6703                           
  6704                           ;main.c: 181:     }else{
  6705     01C1  29CB               	goto	i1l2106
  6706     01C2                     i1l2102:
  6707                           
  6708                           ;main.c: 182:         MatrixLed[5] = 0b11000000;
  6709     01C2  30C0               	movlw	192
  6710     01C3  00A5               	movwf	_MatrixLed+5
  6711                           
  6712                           ;main.c: 183:         MatrixLed[6] = 0b01100000;
  6713     01C4  3060               	movlw	96
  6714     01C5  00A6               	movwf	_MatrixLed+6
  6715                           
  6716                           ;main.c: 184:         MatrixLed[7] = 0b11000000;
  6717     01C6  30C0               	movlw	192
  6718     01C7  00A7               	movwf	_MatrixLed+7
  6719     01C8                     i1l2104:
  6720                           
  6721                           ;main.c: 185:         destinoDesc = destinoDesc & 0b11110111;
  6722     01C8  087B               	movf	_destinoDesc,w
  6723     01C9  39F7               	andlw	247
  6724     01CA  00FB               	movwf	_destinoDesc
  6725     01CB                     i1l2106:
  6726                           
  6727                           ;main.c: 187:     MatrixLed[7] = MatrixLed[7] | destinoSub;
  6728     01CB  0827               	movf	_MatrixLed+7,w
  6729     01CC  047C               	iorwf	_destinoSub,w
  6730     01CD  00A7               	movwf	_MatrixLed+7
  6731     01CE                     i1l2108:
  6732                           
  6733                           ;main.c: 188:     MatrixLed[6] = MatrixLed[6] | destinoDesc;
  6734     01CE  0826               	movf	_MatrixLed+6,w
  6735     01CF  047B               	iorwf	_destinoDesc,w
  6736     01D0  00A6               	movwf	_MatrixLed+6
  6737     01D1                     i1l2110:
  6738                           
  6739                           ;main.c: 189:     matrixUpdate();
  6740     01D1  3182  22EC  3181   	fcall	_matrixUpdate
  6741     01D4                     i1l669:
  6742     01D4  0008               	return
  6743     01D5                     __end_of_chegadaS4:
  6744                           
  6745                           	psect	text46
  6746     0475                     __ptext46:	
  6747 ;; *************** function _CMP1_ISR *****************
  6748 ;; Defined at:
  6749 ;;		line 86 in file "mcc_generated_files/cmp1.c"
  6750 ;; Parameters:    Size  Location     Type
  6751 ;;		None
  6752 ;; Auto vars:     Size  Location     Type
  6753 ;;		None
  6754 ;; Return value:  Size  Location     Type
  6755 ;;                  1    wreg      void 
  6756 ;; Registers used:
  6757 ;;		wreg, fsr1l, fsr1h, status,2, status,0, pclath, cstack
  6758 ;; Tracked objects:
  6759 ;;		On entry : 0/0
  6760 ;;		On exit  : 0/0
  6761 ;;		Unchanged: 0/0
  6762 ;; Data sizes:     COMMON   BANK0   BANK1   BANK2   BANK3   BANK4
  6763 ;;      Params:         0       0       0       0       0       0
  6764 ;;      Locals:         0       0       0       0       0       0
  6765 ;;      Temps:          0       0       0       0       0       0
  6766 ;;      Totals:         0       0       0       0       0       0
  6767 ;;Total ram usage:        0 bytes
  6768 ;; Hardware stack levels used: 1
  6769 ;; Hardware stack levels required when called: 4
  6770 ;; This function calls:
  6771 ;;		_chegadaS3
  6772 ;; This function is called by:
  6773 ;;		_INTERRUPT_InterruptManager
  6774 ;; This function uses a non-reentrant model
  6775 ;;
  6776                           
  6777     0475                     _CMP1_ISR:	
  6778                           ;psect for function _CMP1_ISR
  6779                           
  6780     0475                     i1l2290:	
  6781                           ;incstack = 0
  6782                           ; Regs used in _CMP1_ISR: [wreg+fsr1l+fsr1h+status,2+status,0+pclath+cstack]
  6783                           
  6784                           
  6785                           ;mcc_generated_files/cmp1.c: 89:     PIR2bits.C1IF = 0;
  6786     0475  0020               	movlb	0	; select bank0
  6787     0476  1292               	bcf	18,5	;volatile
  6788     0477                     i1l2292:
  6789                           
  6790                           ;mcc_generated_files/cmp1.c: 90:     chegadaS3();
  6791     0477  3181  21D5  3184   	fcall	_chegadaS3
  6792     047A                     i1l96:
  6793     047A  0008               	return
  6794     047B                     __end_of_CMP1_ISR:
  6795                           
  6796                           	psect	text47
  6797     01D5                     __ptext47:	
  6798 ;; *************** function _chegadaS3 *****************
  6799 ;; Defined at:
  6800 ;;		line 146 in file "main.c"
  6801 ;; Parameters:    Size  Location     Type
  6802 ;;		None
  6803 ;; Auto vars:     Size  Location     Type
  6804 ;;		None
  6805 ;; Return value:  Size  Location     Type
  6806 ;;                  1    wreg      void 
  6807 ;; Registers used:
  6808 ;;		wreg, fsr1l, fsr1h, status,2, status,0, pclath, cstack
  6809 ;; Tracked objects:
  6810 ;;		On entry : 0/0
  6811 ;;		On exit  : 0/0
  6812 ;;		Unchanged: 0/0
  6813 ;; Data sizes:     COMMON   BANK0   BANK1   BANK2   BANK3   BANK4
  6814 ;;      Params:         0       0       0       0       0       0
  6815 ;;      Locals:         0       0       0       0       0       0
  6816 ;;      Temps:          0       0       0       0       0       0
  6817 ;;      Totals:         0       0       0       0       0       0
  6818 ;;Total ram usage:        0 bytes
  6819 ;; Hardware stack levels used: 1
  6820 ;; Hardware stack levels required when called: 3
  6821 ;; This function calls:
  6822 ;;		_matrixUpdate
  6823 ;; This function is called by:
  6824 ;;		_CMP1_ISR
  6825 ;; This function uses a non-reentrant model
  6826 ;;
  6827                           
  6828     01D5                     _chegadaS3:	
  6829                           ;psect for function _chegadaS3
  6830                           
  6831     01D5                     i1l2120:	
  6832                           ;incstack = 0
  6833                           ; Regs used in _chegadaS3: [wreg+fsr1l+fsr1h+status,2+status,0+pclath+cstack]
  6834                           
  6835                           
  6836                           ;main.c: 148:     MatrixLed[0] = 0b01000011;
  6837     01D5  3043               	movlw	67
  6838     01D6  0020               	movlb	0	; select bank0
  6839     01D7  00A0               	movwf	_MatrixLed
  6840                           
  6841                           ;main.c: 149:     MatrixLed[1] = 0b10000101;
  6842     01D8  3085               	movlw	133
  6843     01D9  00A1               	movwf	_MatrixLed+1
  6844                           
  6845                           ;main.c: 150:     MatrixLed[2] = 0b10001001;
  6846     01DA  3089               	movlw	137
  6847     01DB  00A2               	movwf	_MatrixLed+2
  6848                           
  6849                           ;main.c: 151:     MatrixLed[3] = 0b01110001;
  6850     01DC  3071               	movlw	113
  6851     01DD  00A3               	movwf	_MatrixLed+3
  6852     01DE                     i1l2122:
  6853                           
  6854                           ;main.c: 152:     MatrixLed[4] = 0;
  6855     01DE  01A4               	clrf	_MatrixLed+4
  6856     01DF                     i1l2124:
  6857                           
  6858                           ;main.c: 153:     if(subindo){
  6859     01DF  087D               	movf	_subindo,w
  6860     01E0  1903               	btfsc	3,2
  6861     01E1  29E3               	goto	u59_21
  6862     01E2  29E4               	goto	u59_20
  6863     01E3                     u59_21:
  6864     01E3  29EE               	goto	i1l2130
  6865     01E4                     u59_20:
  6866     01E4                     i1l2126:
  6867                           
  6868                           ;main.c: 154:         MatrixLed[5] = 0b01100000;
  6869     01E4  3060               	movlw	96
  6870     01E5  00A5               	movwf	_MatrixLed+5
  6871                           
  6872                           ;main.c: 155:         MatrixLed[6] = 0b11000000;
  6873     01E6  30C0               	movlw	192
  6874     01E7  00A6               	movwf	_MatrixLed+6
  6875                           
  6876                           ;main.c: 156:         MatrixLed[7] = 0b01100000;
  6877     01E8  3060               	movlw	96
  6878     01E9  00A7               	movwf	_MatrixLed+7
  6879     01EA                     i1l2128:
  6880                           
  6881                           ;main.c: 157:         destinoSub = destinoSub & 0b11111011;
  6882     01EA  087C               	movf	_destinoSub,w
  6883     01EB  39FB               	andlw	251
  6884     01EC  00FC               	movwf	_destinoSub
  6885                           
  6886                           ;main.c: 158:     }else{
  6887     01ED  29F7               	goto	i1l2134
  6888     01EE                     i1l2130:
  6889                           
  6890                           ;main.c: 159:         MatrixLed[5] = 0b11000000;
  6891     01EE  30C0               	movlw	192
  6892     01EF  00A5               	movwf	_MatrixLed+5
  6893                           
  6894                           ;main.c: 160:         MatrixLed[6] = 0b01100000;
  6895     01F0  3060               	movlw	96
  6896     01F1  00A6               	movwf	_MatrixLed+6
  6897                           
  6898                           ;main.c: 161:         MatrixLed[7] = 0b11000000;
  6899     01F2  30C0               	movlw	192
  6900     01F3  00A7               	movwf	_MatrixLed+7
  6901     01F4                     i1l2132:
  6902                           
  6903                           ;main.c: 162:         destinoDesc = destinoDesc & 0b11111011;
  6904     01F4  087B               	movf	_destinoDesc,w
  6905     01F5  39FB               	andlw	251
  6906     01F6  00FB               	movwf	_destinoDesc
  6907     01F7                     i1l2134:
  6908                           
  6909                           ;main.c: 164:     MatrixLed[7] = MatrixLed[7] | destinoSub;
  6910     01F7  0827               	movf	_MatrixLed+7,w
  6911     01F8  047C               	iorwf	_destinoSub,w
  6912     01F9  00A7               	movwf	_MatrixLed+7
  6913     01FA                     i1l2136:
  6914                           
  6915                           ;main.c: 165:     MatrixLed[6] = MatrixLed[6] | destinoDesc;
  6916     01FA  0826               	movf	_MatrixLed+6,w
  6917     01FB  047B               	iorwf	_destinoDesc,w
  6918     01FC  00A6               	movwf	_MatrixLed+6
  6919     01FD                     i1l2138:
  6920                           
  6921                           ;main.c: 166:     matrixUpdate();
  6922     01FD  3182  22EC  3181   	fcall	_matrixUpdate
  6923     0200                     i1l664:
  6924     0200  0008               	return
  6925     0201                     __end_of_chegadaS3:
  6926                           
  6927                           	psect	text48
  6928     02EC                     __ptext48:	
  6929 ;; *************** function _matrixUpdate *****************
  6930 ;; Defined at:
  6931 ;;		line 64 in file "main.c"
  6932 ;; Parameters:    Size  Location     Type
  6933 ;;		None
  6934 ;; Auto vars:     Size  Location     Type
  6935 ;;  i               1    0        unsigned char 
  6936 ;;  i               1   10[COMMON] unsigned char 
  6937 ;;  index           1    0        unsigned char 
  6938 ;;  data            2    8[COMMON] unsigned char [2]
  6939 ;; Return value:  Size  Location     Type
  6940 ;;                  1    wreg      void 
  6941 ;; Registers used:
  6942 ;;		wreg, fsr1l, fsr1h, status,2, status,0, pclath, cstack
  6943 ;; Tracked objects:
  6944 ;;		On entry : 0/0
  6945 ;;		On exit  : 0/0
  6946 ;;		Unchanged: 0/0
  6947 ;; Data sizes:     COMMON   BANK0   BANK1   BANK2   BANK3   BANK4
  6948 ;;      Params:         0       0       0       0       0       0
  6949 ;;      Locals:         3       0       0       0       0       0
  6950 ;;      Temps:          0       0       0       0       0       0
  6951 ;;      Totals:         3       0       0       0       0       0
  6952 ;;Total ram usage:        3 bytes
  6953 ;; Hardware stack levels used: 1
  6954 ;; Hardware stack levels required when called: 2
  6955 ;; This function calls:
  6956 ;;		i1_txSpi
  6957 ;; This function is called by:
  6958 ;;		_chegadaS1
  6959 ;;		_chegadaS2
  6960 ;;		_chegadaS3
  6961 ;;		_chegadaS4
  6962 ;; This function uses a non-reentrant model
  6963 ;;
  6964                           
  6965     02EC                     _matrixUpdate:	
  6966                           ;psect for function _matrixUpdate
  6967                           
  6968     02EC                     i1l1980:	
  6969                           ;incstack = 0
  6970                           ; Regs used in _matrixUpdate: [wreg+fsr1l+fsr1h+status,2+status,0+pclath+cstack]
  6971                           
  6972                           
  6973                           ;main.c: 67:         for(uint8_t i=8;i>0;i--){
  6974     02EC  3008               	movlw	8
  6975     02ED  00FA               	movwf	matrixUpdate@i
  6976     02EE                     i1l1986:
  6977                           
  6978                           ;main.c: 68:             data[0] = i;
  6979     02EE  087A               	movf	matrixUpdate@i,w
  6980     02EF  00F8               	movwf	matrixUpdate@data
  6981     02F0                     i1l1988:
  6982                           
  6983                           ;main.c: 69:             data[1] = MatrixLed[i-1];
  6984     02F0  087A               	movf	matrixUpdate@i,w
  6985     02F1  3E1F               	addlw	(low ((_MatrixLed| 0+255)))& (0+255)
  6986     02F2  0086               	movwf	6
  6987     02F3  0187               	clrf	7
  6988     02F4  0801               	movf	1,w
  6989     02F5  00F9               	movwf	matrixUpdate@data+1
  6990     02F6                     i1l1990:
  6991                           
  6992                           ;main.c: 70:             txSpi(data, 2);
  6993     02F6  3002               	movlw	2
  6994     02F7  00F5               	movwf	i1txSpi@dataSize
  6995     02F8  3000               	movlw	0
  6996     02F9  00F6               	movwf	i1txSpi@dataSize+1
  6997     02FA  3078               	movlw	(low (matrixUpdate@data| 0))& (0+255)
  6998     02FB  3183  23BB  3182   	fcall	i1_txSpi
  6999     02FE                     i1l1992:
  7000                           
  7001                           ;main.c: 71:         }
  7002     02FE  3001               	movlw	1
  7003     02FF  02FA               	subwf	matrixUpdate@i,f
  7004     0300                     i1l1994:
  7005     0300  087A               	movf	matrixUpdate@i,w
  7006     0301  1D03               	btfss	3,2
  7007     0302  2B04               	goto	u53_21
  7008     0303  2B05               	goto	u53_20
  7009     0304                     u53_21:
  7010     0304  2AEE               	goto	i1l1986
  7011     0305                     u53_20:
  7012     0305                     i1l639:
  7013     0305  0008               	return
  7014     0306                     __end_of_matrixUpdate:
  7015                           
  7016                           	psect	text49
  7017     03BB                     __ptext49:	
  7018 ;; *************** function i1_txSpi *****************
  7019 ;; Defined at:
  7020 ;;		line 56 in file "main.c"
  7021 ;; Parameters:    Size  Location     Type
  7022 ;;  data            1    wreg     PTR unsigned char 
  7023 ;;		 -> initMatrix@data(4), matrixUpdate@data(2), 
  7024 ;;  dataSize        2    5[COMMON] unsigned int 
  7025 ;; Auto vars:     Size  Location     Type
  7026 ;;  data            1    7[COMMON] PTR unsigned char 
  7027 ;;		 -> initMatrix@data(4), matrixUpdate@data(2), 
  7028 ;; Return value:  Size  Location     Type
  7029 ;;                  1    wreg      void 
  7030 ;; Registers used:
  7031 ;;		wreg, fsr1l, fsr1h, status,2, status,0, pclath, cstack
  7032 ;; Tracked objects:
  7033 ;;		On entry : 0/0
  7034 ;;		On exit  : 0/0
  7035 ;;		Unchanged: 0/0
  7036 ;; Data sizes:     COMMON   BANK0   BANK1   BANK2   BANK3   BANK4
  7037 ;;      Params:         2       0       0       0       0       0
  7038 ;;      Locals:         1       0       0       0       0       0
  7039 ;;      Temps:          0       0       0       0       0       0
  7040 ;;      Totals:         3       0       0       0       0       0
  7041 ;;Total ram usage:        3 bytes
  7042 ;; Hardware stack levels used: 1
  7043 ;; Hardware stack levels required when called: 1
  7044 ;; This function calls:
  7045 ;;		i1_SPI1_ExchangeBlock
  7046 ;; This function is called by:
  7047 ;;		_matrixUpdate
  7048 ;; This function uses a non-reentrant model
  7049 ;;
  7050                           
  7051     03BB                     i1_txSpi:	
  7052                           ;psect for function i1_txSpi
  7053                           
  7054                           
  7055                           ;incstack = 0
  7056                           ; Regs used in i1_txSpi: [wreg+fsr1l+fsr1h+status,2+status,0+pclath+cstack]
  7057                           ;i1txSpi@data stored from wreg
  7058     03BB  00F7               	movwf	i1txSpi@data
  7059     03BC                     i1l626:	
  7060                           ;main.c: 57:     do { LATBbits.LATB1 = 0; } while(0);
  7061                           
  7062     03BC  0022               	movlb	2	; select bank2
  7063     03BD  108D               	bcf	13,1	;volatile
  7064     03BE                     i1l1976:
  7065                           
  7066                           ;main.c: 58:     SPI1_ExchangeBlock(data,dataSize);
  7067     03BE  0876               	movf	i1txSpi@dataSize+1,w
  7068     03BF  00F1               	movwf	i1SPI1_ExchangeBlock@blockSize+1
  7069     03C0  0875               	movf	i1txSpi@dataSize,w
  7070     03C1  00F0               	movwf	i1SPI1_ExchangeBlock@blockSize
  7071     03C2  0877               	movf	i1txSpi@data,w
  7072     03C3  3182  227D  3183   	fcall	i1_SPI1_ExchangeBlock
  7073     03C6                     i1l1978:
  7074     03C6  0022               	movlb	2	; select bank2
  7075     03C7  148D               	bsf	13,1	;volatile
  7076     03C8                     i1l630:
  7077     03C8  0008               	return
  7078     03C9                     __end_ofi1_txSpi:
  7079                           
  7080                           	psect	text50
  7081     027D                     __ptext50:	
  7082 ;; *************** function i1_SPI1_ExchangeBlock *****************
  7083 ;; Defined at:
  7084 ;;		line 100 in file "mcc_generated_files/spi1.c"
  7085 ;; Parameters:    Size  Location     Type
  7086 ;;  block           1    wreg     PTR void 
  7087 ;;		 -> initMatrix@data(4), matrixUpdate@data(2), 
  7088 ;;  blockSize       2    0[COMMON] unsigned int 
  7089 ;; Auto vars:     Size  Location     Type
  7090 ;;  block           1    3[COMMON] PTR void 
  7091 ;;		 -> initMatrix@data(4), matrixUpdate@data(2), 
  7092 ;;  data            1    4[COMMON] PTR unsigned char 
  7093 ;;		 -> initMatrix@data(4), matrixUpdate@data(2), 
  7094 ;; Return value:  Size  Location     Type
  7095 ;;                  1    wreg      void 
  7096 ;; Registers used:
  7097 ;;		wreg, fsr1l, fsr1h, status,2, status,0
  7098 ;; Tracked objects:
  7099 ;;		On entry : 0/0
  7100 ;;		On exit  : 0/0
  7101 ;;		Unchanged: 0/0
  7102 ;; Data sizes:     COMMON   BANK0   BANK1   BANK2   BANK3   BANK4
  7103 ;;      Params:         2       0       0       0       0       0
  7104 ;;      Locals:         2       0       0       0       0       0
  7105 ;;      Temps:          1       0       0       0       0       0
  7106 ;;      Totals:         5       0       0       0       0       0
  7107 ;;Total ram usage:        5 bytes
  7108 ;; Hardware stack levels used: 1
  7109 ;; This function calls:
  7110 ;;		Nothing
  7111 ;; This function is called by:
  7112 ;;		i1_txSpi
  7113 ;; This function uses a non-reentrant model
  7114 ;;
  7115                           
  7116     027D                     i1_SPI1_ExchangeBlock:	
  7117                           ;psect for function i1_SPI1_ExchangeBlock
  7118                           
  7119                           
  7120                           ;incstack = 0
  7121                           ; Regs used in i1_SPI1_ExchangeBlock: [wreg+fsr1l+fsr1h+status,2+status,0]
  7122                           ;i1SPI1_ExchangeBlock@block stored from wreg
  7123     027D  00F3               	movwf	i1SPI1_ExchangeBlock@block
  7124     027E                     i1l1966:
  7125                           
  7126                           ;mcc_generated_files/spi1.c: 100: void SPI1_ExchangeBlock(void *block, size_t blockSize)
      +                          ;mcc_generated_files/spi1.c: 101: {;mcc_generated_files/spi1.c: 102:     uint8_t *data =
      +                           block;
  7127     027E  0873               	movf	i1SPI1_ExchangeBlock@block,w
  7128     027F  00F4               	movwf	i1SPI1_ExchangeBlock@data
  7129                           
  7130                           ;mcc_generated_files/spi1.c: 103:     while(blockSize--)
  7131     0280  2A97               	goto	i1l1974
  7132     0281                     i1l1968:
  7133                           
  7134                           ;mcc_generated_files/spi1.c: 104:     {;mcc_generated_files/spi1.c: 105:         SSP1BUF
      +                           = *data;
  7135     0281  0874               	movf	i1SPI1_ExchangeBlock@data,w
  7136     0282  0086               	movwf	6
  7137     0283  0187               	clrf	7
  7138     0284  0801               	movf	1,w
  7139     0285  0024               	movlb	4	; select bank4
  7140     0286  0091               	movwf	17	;volatile
  7141     0287                     i1l388:	
  7142                           ;mcc_generated_files/spi1.c: 106:         while(!PIR1bits.SSP1IF);
  7143                           
  7144     0287  0020               	movlb	0	; select bank0
  7145     0288  1D91               	btfss	17,3	;volatile
  7146     0289  2A8B               	goto	u51_21
  7147     028A  2A8C               	goto	u51_20
  7148     028B                     u51_21:
  7149     028B  2A87               	goto	i1l388
  7150     028C                     u51_20:
  7151     028C                     i1l390:
  7152                           
  7153                           ;mcc_generated_files/spi1.c: 107:         PIR1bits.SSP1IF = 0;
  7154     028C  1191               	bcf	17,3	;volatile
  7155     028D                     i1l1970:
  7156                           
  7157                           ;mcc_generated_files/spi1.c: 108:         *data++ = SSP1BUF;
  7158     028D  0874               	movf	i1SPI1_ExchangeBlock@data,w
  7159     028E  0086               	movwf	6
  7160     028F  0187               	clrf	7
  7161     0290  0024               	movlb	4	; select bank4
  7162     0291  0811               	movf	17,w	;volatile
  7163     0292  0081               	movwf	1
  7164     0293                     i1l1972:
  7165     0293  3001               	movlw	1
  7166     0294  00F2               	movwf	??i1_SPI1_ExchangeBlock
  7167     0295  0872               	movf	??i1_SPI1_ExchangeBlock,w
  7168     0296  07F4               	addwf	i1SPI1_ExchangeBlock@data,f
  7169     0297                     i1l1974:
  7170                           
  7171                           ;mcc_generated_files/spi1.c: 103:     while(blockSize--)
  7172     0297  3001               	movlw	1
  7173     0298  02F0               	subwf	i1SPI1_ExchangeBlock@blockSize,f
  7174     0299  3000               	movlw	0
  7175     029A  3BF1               	subwfb	i1SPI1_ExchangeBlock@blockSize+1,f
  7176     029B  0A70               	incf	i1SPI1_ExchangeBlock@blockSize,w
  7177     029C  1D03               	skipz
  7178     029D  2AA2               	goto	u52_21
  7179     029E  0A71               	incf	i1SPI1_ExchangeBlock@blockSize+1,w
  7180     029F  1D03               	btfss	3,2
  7181     02A0  2AA2               	goto	u52_21
  7182     02A1  2AA3               	goto	u52_20
  7183     02A2                     u52_21:
  7184     02A2  2A81               	goto	i1l1968
  7185     02A3                     u52_20:
  7186     02A3                     i1l392:
  7187     02A3  0008               	return
  7188     02A4                     __end_ofi1_SPI1_ExchangeBlock:
  7189     007E                     btemp	set	126	;btemp
  7190     007E                     int$flags	set	126
  7191     007E                     wtemp0	set	126
  7192                           
  7193                           	psect	idloc
  7194                           
  7195                           ;Config register IDLOC0 @ 0x8000
  7196                           ;	unspecified, using default values
  7197     8000                     	org	32768
  7198     8000  3FFF               	dw	16383
  7199                           
  7200                           ;Config register IDLOC1 @ 0x8001
  7201                           ;	unspecified, using default values
  7202     8001                     	org	32769
  7203     8001  3FFF               	dw	16383
  7204                           
  7205                           ;Config register IDLOC2 @ 0x8002
  7206                           ;	unspecified, using default values
  7207     8002                     	org	32770
  7208     8002  3FFF               	dw	16383
  7209                           
  7210                           ;Config register IDLOC3 @ 0x8003
  7211                           ;	unspecified, using default values
  7212     8003                     	org	32771
  7213     8003  3FFF               	dw	16383
  7214                           
  7215                           	psect	config
  7216                           
  7217                           ;Config register CONFIG1 @ 0x8007
  7218                           ;	Oscillator Selection
  7219                           ;	FOSC = INTOSC, INTOSC oscillator: I/O function on CLKIN pin
  7220                           ;	Watchdog Timer Enable
  7221                           ;	WDTE = OFF, WDT disabled
  7222                           ;	Power-up Timer Enable
  7223                           ;	PWRTE = OFF, PWRT disabled
  7224                           ;	MCLR Pin Function Select
  7225                           ;	MCLRE = ON, MCLR/VPP pin function is MCLR
  7226                           ;	Flash Program Memory Code Protection
  7227                           ;	CP = OFF, Program memory code protection is disabled
  7228                           ;	Data Memory Code Protection
  7229                           ;	CPD = OFF, Data memory code protection is disabled
  7230                           ;	Brown-out Reset Enable
  7231                           ;	BOREN = ON, Brown-out Reset enabled
  7232                           ;	Clock Out Enable
  7233                           ;	CLKOUTEN = OFF, CLKOUT function is disabled. I/O or oscillator function on the CLKOUT 
      +                          pin
  7234                           ;	Internal/External Switchover
  7235                           ;	IESO = ON, Internal/External Switchover mode is enabled
  7236                           ;	Fail-Safe Clock Monitor Enable
  7237                           ;	FCMEN = ON, Fail-Safe Clock Monitor is enabled
  7238     8007                     	org	32775
  7239     8007  3FE4               	dw	16356
  7240                           
  7241                           ;Config register CONFIG2 @ 0x8008
  7242                           ;	Flash Memory Self-Write Protection
  7243                           ;	WRT = OFF, Write protection off
  7244                           ;	PLL Enable
  7245                           ;	PLLEN = OFF, 4x PLL disabled
  7246                           ;	Stack Overflow/Underflow Reset Enable
  7247                           ;	STVREN = ON, Stack Overflow or Underflow will cause a Reset
  7248                           ;	Brown-out Reset Voltage Selection
  7249                           ;	BORV = LO, Brown-out Reset Voltage (Vbor), low trip point selected.
  7250                           ;	Low-Voltage Programming Enable
  7251                           ;	LVP = ON, Low-voltage programming enabled
  7252     8008                     	org	32776
  7253     8008  3EFF               	dw	16127

Data Sizes:
    Strings     0
    Constant    16
    Data        1
    BSS         23
    Persistent  46
    Stack       0

Auto Spaces:
    Space          Size  Autos    Used
    COMMON           14     11      14
    BANK0            80     19      54
    BANK1            80      0       0
    BANK2            80      0       0
    BANK3            80      0       0
    BANK4            48      0       0

Pointer List with Targets:

    ADC_InterruptHandler	PTR FTN()void  size(2) Largest target is 1
		 -> NULL(), 

    txSpi@data	PTR unsigned char  size(1) Largest target is 4
		 -> initMatrix@data(BANK0[4]), matrixUpdate@data(COMMON[2]), 

    TMR0_SetInterruptHandler@InterruptHandler	PTR FTN()void  size(2) Largest target is 1
		 -> TMR0_DefaultInterruptHandler(), 

    TMR0_InterruptHandler	PTR FTN()void  size(2) Largest target is 1
		 -> TMR0_DefaultInterruptHandler(), NULL(), 

    TMR1_SetInterruptHandler@InterruptHandler	PTR FTN()void  size(2) Largest target is 1
		 -> TMR1_DefaultInterruptHandler(), 

    TMR1_InterruptHandler	PTR FTN()void  size(2) Largest target is 1
		 -> TMR1_DefaultInterruptHandler(), NULL(), 

    SPI1_ExchangeBlock@block	PTR void  size(1) Largest target is 4
		 -> initMatrix@data(BANK0[4]), matrixUpdate@data(COMMON[2]), 

    SPI1_ExchangeBlock@data	PTR unsigned char  size(1) Largest target is 4
		 -> initMatrix@data(BANK0[4]), matrixUpdate@data(COMMON[2]), 

    EUSART_SetErrorHandler@interruptHandler	PTR FTN()void  size(2) Largest target is 1
		 -> EUSART_DefaultErrorHandler(), 

    EUSART_ErrorHandler	PTR FTN()void  size(2) Largest target is 1
		 -> EUSART_DefaultErrorHandler(), NULL(), 

    EUSART_SetOverrunErrorHandler@interruptHandler	PTR FTN()void  size(2) Largest target is 1
		 -> EUSART_DefaultOverrunErrorHandler(), 

    EUSART_OverrunErrorHandler	PTR FTN()void  size(2) Largest target is 1
		 -> EUSART_DefaultOverrunErrorHandler(), NULL(), 

    EUSART_SetFramingErrorHandler@interruptHandler	PTR FTN()void  size(2) Largest target is 1
		 -> EUSART_DefaultFramingErrorHandler(), 

    EUSART_FramingErrorHandler	PTR FTN()void  size(2) Largest target is 1
		 -> EUSART_DefaultFramingErrorHandler(), NULL(), 

    IOCBF3_SetInterruptHandler@InterruptHandler	PTR FTN()void  size(2) Largest target is 1
		 -> chegadaS2(), chegadaS1(), IOCBF3_DefaultInterruptHandler(), 

    IOCBF3_InterruptHandler	PTR FTN()void  size(2) Largest target is 1
		 -> chegadaS2(), chegadaS1(), NULL(), IOCBF3_DefaultInterruptHandler(), 

    IOCBF0_SetInterruptHandler@InterruptHandler	PTR FTN()void  size(2) Largest target is 1
		 -> IOCBF0_DefaultInterruptHandler(), 

    IOCBF0_InterruptHandler	PTR FTN()void  size(2) Largest target is 1
		 -> NULL(), IOCBF0_DefaultInterruptHandler(), 


Critical Paths under _main in COMMON

    None.

Critical Paths under _INTERRUPT_InterruptManager in COMMON

    _TMR1_ISR->_TMR1_WriteTimer
    _chegadaS2->_matrixUpdate
    _chegadaS1->_matrixUpdate
    _chegadaS4->_matrixUpdate
    _chegadaS3->_matrixUpdate
    _matrixUpdate->i1_txSpi
    i1_txSpi->i1_SPI1_ExchangeBlock

Critical Paths under _main in BANK0

    _main->_initMatrix
    _initMatrix->_txSpi
    _txSpi->_SPI1_ExchangeBlock
    _TMR1_Initialize->_TMR1_SetInterruptHandler
    _TMR0_Initialize->_TMR0_SetInterruptHandler
    _PIN_MANAGER_Initialize->_IOCBF0_SetInterruptHandler
    _PIN_MANAGER_Initialize->_IOCBF3_SetInterruptHandler
    _EUSART_Initialize->_EUSART_SetErrorHandler
    _EUSART_Initialize->_EUSART_SetFramingErrorHandler
    _EUSART_Initialize->_EUSART_SetOverrunErrorHandler

Critical Paths under _INTERRUPT_InterruptManager in BANK0

    None.

Critical Paths under _main in BANK1

    None.

Critical Paths under _INTERRUPT_InterruptManager in BANK1

    None.

Critical Paths under _main in BANK2

    None.

Critical Paths under _INTERRUPT_InterruptManager in BANK2

    None.

Critical Paths under _main in BANK3

    None.

Critical Paths under _INTERRUPT_InterruptManager in BANK3

    None.

Critical Paths under _main in BANK4

    None.

Critical Paths under _INTERRUPT_InterruptManager in BANK4

    None.

Call Graph Tables:

 ---------------------------------------------------------------------------------
 (Depth) Function   	        Calls       Base Space   Used Autos Params    Refs
 ---------------------------------------------------------------------------------
 (0) _main                                                 2     2      0    2154
                                             17 BANK0      2     2      0
                        _EUSART_Read
                 _EUSART_is_rx_ready
         _IOCBF3_SetInterruptHandler
                          _SPI1_Open
                  _SYSTEM_Initialize
                         _initMatrix
                       _isValidFloor
 ---------------------------------------------------------------------------------
 (1) _isValidFloor                                         2     2      0      68
                                              0 BANK0      2     2      0
 ---------------------------------------------------------------------------------
 (1) _initMatrix                                           9     9      0     910
                                              8 BANK0      9     9      0
                              _txSpi
 ---------------------------------------------------------------------------------
 (2) _txSpi                                                3     1      2     518
                                              5 BANK0      3     1      2
                 _SPI1_ExchangeBlock
 ---------------------------------------------------------------------------------
 (3) _SPI1_ExchangeBlock                                   5     3      2     199
                                              0 BANK0      5     3      2
 ---------------------------------------------------------------------------------
 (1) _SYSTEM_Initialize                                    0     0      0     838
                     _ADC_Initialize
                    _CMP1_Initialize
                    _CMP2_Initialize
                  _EUSART_Initialize
                     _FVR_Initialize
              _OSCILLATOR_Initialize
             _PIN_MANAGER_Initialize
                    _PWM3_Initialize
                    _SPI1_Initialize
                    _TMR0_Initialize
                    _TMR1_Initialize
                    _TMR2_Initialize
                     _WDT_Initialize
 ---------------------------------------------------------------------------------
 (2) _WDT_Initialize                                       0     0      0       0
 ---------------------------------------------------------------------------------
 (2) _TMR2_Initialize                                      0     0      0       0
 ---------------------------------------------------------------------------------
 (2) _TMR1_Initialize                                      0     0      0      98
           _TMR1_SetInterruptHandler
 ---------------------------------------------------------------------------------
 (3) _TMR1_SetInterruptHandler                             2     0      2      98
                                              0 BANK0      2     0      2
 ---------------------------------------------------------------------------------
 (2) _TMR0_Initialize                                      0     0      0      98
           _TMR0_SetInterruptHandler
 ---------------------------------------------------------------------------------
 (3) _TMR0_SetInterruptHandler                             2     0      2      98
                                              0 BANK0      2     0      2
 ---------------------------------------------------------------------------------
 (2) _SPI1_Initialize                                      0     0      0       0
 ---------------------------------------------------------------------------------
 (2) _PWM3_Initialize                                      0     0      0       0
 ---------------------------------------------------------------------------------
 (2) _PIN_MANAGER_Initialize                               0     0      0     348
         _IOCBF0_SetInterruptHandler
         _IOCBF3_SetInterruptHandler
 ---------------------------------------------------------------------------------
 (3) _IOCBF3_SetInterruptHandler                           2     0      2     250
                                              0 BANK0      2     0      2
 ---------------------------------------------------------------------------------
 (3) _IOCBF0_SetInterruptHandler                           2     0      2      98
                                              0 BANK0      2     0      2
 ---------------------------------------------------------------------------------
 (2) _OSCILLATOR_Initialize                                0     0      0       0
 ---------------------------------------------------------------------------------
 (2) _FVR_Initialize                                       0     0      0       0
 ---------------------------------------------------------------------------------
 (2) _EUSART_Initialize                                    0     0      0     294
             _EUSART_SetErrorHandler
      _EUSART_SetFramingErrorHandler
      _EUSART_SetOverrunErrorHandler
 ---------------------------------------------------------------------------------
 (3) _EUSART_SetOverrunErrorHandler                        2     0      2      98
                                              0 BANK0      2     0      2
 ---------------------------------------------------------------------------------
 (3) _EUSART_SetFramingErrorHandler                        2     0      2      98
                                              0 BANK0      2     0      2
 ---------------------------------------------------------------------------------
 (3) _EUSART_SetErrorHandler                               2     0      2      98
                                              0 BANK0      2     0      2
 ---------------------------------------------------------------------------------
 (2) _CMP2_Initialize                                      0     0      0       0
 ---------------------------------------------------------------------------------
 (2) _CMP1_Initialize                                      0     0      0       0
 ---------------------------------------------------------------------------------
 (2) _ADC_Initialize                                       0     0      0       0
 ---------------------------------------------------------------------------------
 (1) _SPI1_Open                                            4     4      0      88
                                              0 BANK0      4     4      0
 ---------------------------------------------------------------------------------
 (1) _EUSART_is_rx_ready                                   0     0      0       0
 ---------------------------------------------------------------------------------
 (1) _EUSART_Read                                          0     0      0       0
 ---------------------------------------------------------------------------------
 Estimated maximum stack depth 3
 ---------------------------------------------------------------------------------
 (Depth) Function   	        Calls       Base Space   Used Autos Params    Refs
 ---------------------------------------------------------------------------------
 (4) _INTERRUPT_InterruptManager                           0     0      0    2216
                           _CMP1_ISR
                           _CMP2_ISR
                    _PIN_MANAGER_IOC
                           _TMR0_ISR
                           _TMR1_ISR
 ---------------------------------------------------------------------------------
 (5) _TMR1_ISR                                             0     0      0     240
                      _TMR1_CallBack
                    _TMR1_WriteTimer
 ---------------------------------------------------------------------------------
 (6) _TMR1_WriteTimer                                      2     0      2     240
                                              0 COMMON     2     0      2
 ---------------------------------------------------------------------------------
 (6) _TMR1_CallBack                                        0     0      0       0
                                NULL *
       _TMR1_DefaultInterruptHandler *
 ---------------------------------------------------------------------------------
 (7) _TMR1_DefaultInterruptHandler                         0     0      0       0
 ---------------------------------------------------------------------------------
 (5) _TMR0_ISR                                             0     0      0       0
                      _TMR0_CallBack
 ---------------------------------------------------------------------------------
 (6) _TMR0_CallBack                                        0     0      0       0
                                NULL *
       _TMR0_DefaultInterruptHandler *
 ---------------------------------------------------------------------------------
 (7) _TMR0_DefaultInterruptHandler                         0     0      0       0
 ---------------------------------------------------------------------------------
 (5) _PIN_MANAGER_IOC                                      0     0      0     988
                         _IOCBF0_ISR
                         _IOCBF3_ISR
 ---------------------------------------------------------------------------------
 (6) _IOCBF3_ISR                                           0     0      0     988
                                NULL *
     _IOCBF3_DefaultInterruptHandler *
                          _chegadaS1 *
                          _chegadaS2 *
 ---------------------------------------------------------------------------------
 (7) _chegadaS2                                            0     0      0     494
                       _matrixUpdate
 ---------------------------------------------------------------------------------
 (7) _chegadaS1                                            0     0      0     494
                       _matrixUpdate
 ---------------------------------------------------------------------------------
 (7) _IOCBF3_DefaultInterruptHandler                       0     0      0       0
 ---------------------------------------------------------------------------------
 (6) _IOCBF0_ISR                                           0     0      0       0
                                NULL *
     _IOCBF0_DefaultInterruptHandler *
 ---------------------------------------------------------------------------------
 (7) _IOCBF0_DefaultInterruptHandler                       0     0      0       0
 ---------------------------------------------------------------------------------
 (7) NULL(Fake)                                            0     0      0       0
 ---------------------------------------------------------------------------------
 (5) _CMP2_ISR                                             0     0      0     494
                          _chegadaS4
 ---------------------------------------------------------------------------------
 (6) _chegadaS4                                            0     0      0     494
                       _matrixUpdate
 ---------------------------------------------------------------------------------
 (5) _CMP1_ISR                                             0     0      0     494
                          _chegadaS3
 ---------------------------------------------------------------------------------
 (6) _chegadaS3                                            0     0      0     494
                       _matrixUpdate
 ---------------------------------------------------------------------------------
 (8) _matrixUpdate                                         5     5      0     494
                                              8 COMMON     3     3      0
                            i1_txSpi
 ---------------------------------------------------------------------------------
 (9) i1_txSpi                                              3     1      2     212
                                              5 COMMON     3     1      2
               i1_SPI1_ExchangeBlock
 ---------------------------------------------------------------------------------
 (10) i1_SPI1_ExchangeBlock                                5     3      2     116
                                              0 COMMON     5     3      2
 ---------------------------------------------------------------------------------
 Estimated maximum stack depth 10
 ---------------------------------------------------------------------------------

 Call Graph Graphs:

 _main (ROOT)
   _EUSART_Read
   _EUSART_is_rx_ready
   _IOCBF3_SetInterruptHandler
   _SPI1_Open
   _SYSTEM_Initialize
     _ADC_Initialize
     _CMP1_Initialize
     _CMP2_Initialize
     _EUSART_Initialize
       _EUSART_SetErrorHandler
       _EUSART_SetFramingErrorHandler
       _EUSART_SetOverrunErrorHandler
     _FVR_Initialize
     _OSCILLATOR_Initialize
     _PIN_MANAGER_Initialize
       _IOCBF0_SetInterruptHandler
       _IOCBF3_SetInterruptHandler
     _PWM3_Initialize
     _SPI1_Initialize
     _TMR0_Initialize
       _TMR0_SetInterruptHandler
     _TMR1_Initialize
       _TMR1_SetInterruptHandler
     _TMR2_Initialize
     _WDT_Initialize
   _initMatrix
     _txSpi
       _SPI1_ExchangeBlock
   _isValidFloor

 _INTERRUPT_InterruptManager (ROOT)
   _CMP1_ISR
     _chegadaS3
       _matrixUpdate
         i1_txSpi
           i1_SPI1_ExchangeBlock
   _CMP2_ISR
     _chegadaS4
       _matrixUpdate
   _PIN_MANAGER_IOC
     _IOCBF0_ISR
       NULL(Fake) *
       _IOCBF0_DefaultInterruptHandler *
     _IOCBF3_ISR
       NULL(Fake) *
       _IOCBF3_DefaultInterruptHandler *
       _chegadaS1 *
         _matrixUpdate
       _chegadaS2 *
         _matrixUpdate
   _TMR0_ISR
     _TMR0_CallBack
       NULL(Fake) *
       _TMR0_DefaultInterruptHandler *
   _TMR1_ISR
     _TMR1_CallBack
       NULL(Fake) *
       _TMR1_DefaultInterruptHandler *
     _TMR1_WriteTimer

 Address spaces:
Name               Size   Autos  Total    Cost      Usage
BIGRAM             170      0       0       0        0.0%
EEDATA             100      0       0       0        0.0%
NULL                 0      0       0       0        0.0%
CODE                 0      0       0       0        0.0%
BITCOMMON            E      0       0       1        0.0%
BITSFR0              0      0       0       1        0.0%
SFR0                 0      0       0       1        0.0%
COMMON               E      B       E       2      100.0%
BITSFR1              0      0       0       2        0.0%
SFR1                 0      0       0       2        0.0%
BITSFR2              0      0       0       3        0.0%
SFR2                 0      0       0       3        0.0%
STACK                0      0       0       3        0.0%
BITSFR3              0      0       0       4        0.0%
SFR3                 0      0       0       4        0.0%
ABS                  0      0      44       4        0.0%
BITBANK0            50      0       0       5        0.0%
BITSFR4              0      0       0       5        0.0%
SFR4                 0      0       0       5        0.0%
BANK0               50     13      36       6       67.5%
BITSFR5              0      0       0       6        0.0%
SFR5                 0      0       0       6        0.0%
BITBANK1            50      0       0       7        0.0%
BITSFR6              0      0       0       7        0.0%
SFR6                 0      0       0       7        0.0%
BANK1               50      0       0       8        0.0%
BITSFR7              0      0       0       8        0.0%
SFR7                 0      0       0       8        0.0%
BITBANK2            50      0       0       9        0.0%
BITSFR8              0      0       0       9        0.0%
SFR8                 0      0       0       9        0.0%
BANK2               50      0       0      10        0.0%
BITSFR9              0      0       0      10        0.0%
SFR9                 0      0       0      10        0.0%
BITBANK3            50      0       0      11        0.0%
BITSFR10             0      0       0      11        0.0%
SFR10                0      0       0      11        0.0%
BANK3               50      0       0      12        0.0%
BITSFR11             0      0       0      12        0.0%
SFR11                0      0       0      12        0.0%
BITBANK4            30      0       0      13        0.0%
BITSFR12             0      0       0      13        0.0%
SFR12                0      0       0      13        0.0%
BANK4               30      0       0      14        0.0%
BITSFR13             0      0       0      14        0.0%
SFR13                0      0       0      14        0.0%
BITSFR14             0      0       0      15        0.0%
SFR14                0      0       0      15        0.0%
DATA                 0      0      44      15        0.0%
BITSFR15             0      0       0      16        0.0%
SFR15                0      0       0      16        0.0%
BITSFR16             0      0       0      17        0.0%
SFR16                0      0       0      17        0.0%
BITSFR17             0      0       0      18        0.0%
SFR17                0      0       0      18        0.0%
BITSFR18             0      0       0      19        0.0%
SFR18                0      0       0      19        0.0%
BITSFR19             0      0       0      20        0.0%
SFR19                0      0       0      20        0.0%
BITSFR20             0      0       0      21        0.0%
SFR20                0      0       0      21        0.0%
BITSFR21             0      0       0      22        0.0%
SFR21                0      0       0      22        0.0%
BITSFR22             0      0       0      23        0.0%
SFR22                0      0       0      23        0.0%
BITSFR23             0      0       0      24        0.0%
SFR23                0      0       0      24        0.0%
BITSFR24             0      0       0      25        0.0%
SFR24                0      0       0      25        0.0%
BITSFR25             0      0       0      26        0.0%
SFR25                0      0       0      26        0.0%
BITSFR26             0      0       0      27        0.0%
SFR26                0      0       0      27        0.0%
BITSFR27             0      0       0      28        0.0%
SFR27                0      0       0      28        0.0%
BITSFR28             0      0       0      29        0.0%
SFR28                0      0       0      29        0.0%
BITSFR29             0      0       0      30        0.0%
SFR29                0      0       0      30        0.0%
BITSFR30             0      0       0      31        0.0%
SFR30                0      0       0      31        0.0%
BITSFR31             0      0       0      32        0.0%
SFR31                0      0       0      32        0.0%


Microchip Technology PIC Macro Assembler V2.41 build 20230208172133 
Symbol Table                                                                                   Fri Jul 14 11:06:22 2023

             ??_IOCBF3_DefaultInterruptHandler 0070                ?_IOCBF3_DefaultInterruptHandler 0070  
                           _SPI1_ExchangeBlock 022C                                             l11 0427  
                                           l49 0407                                             l90 0413  
                            ??_CMP1_Initialize 0035                         __end_of_FVR_Initialize 048C  
                              _timer0ReloadVal 002E                                            l210 043E  
                                          l213 0487                                            l230 0437  
                                          l207 027C                                            l312 047F  
                                          l304 02C8                                            l321 038E  
                                          l145 01A8                                            l325 039C  
                                          l157 045C                                            l343 0468  
                                          l167 0456                                            l503 044A  
                                          l346 0462                                            l258 048B  
                                          l370 041E                                            l349 046E  
                                          l374 0128                                            l470 031E  
                                          l390 023C                                            l630 038D  
                                          l519 042F                                            l623 0349  
                                          l392 0254                                            l626 0380  
                                          l388 0237                                            l557 035B  
                                          l649 0177                                            l579 0450  
                                          l679 0089                                            _PR2 001B  
                                          u540 023C                                            u541 023B  
                                          u550 0254                                            u710 0340  
                                          u551 0253                                            u711 033F  
                                          u720 0346                                            u721 0345  
                                          u730 013B                                            u731 013A  
                                          u740 0161                                            u900 00AB  
                                          u741 0160                                            u901 00AA  
                                          u670 0393                                            u750 0177  
                                          u910 00B6                                            u671 0392  
                                          u751 0176                                            u911 00B5  
                                          u680 0399                                            u681 0398  
                                          u690 00D5                                            u691 00D4  
                                          u870 0083                                            u871 0082  
                                          u880 0091                                            u881 0090  
                                          u890 00A1                                            u891 00A0  
                          ?_SPI1_ExchangeBlock 0035                                _timer1ReloadVal 002A  
               ?_EUSART_SetFramingErrorHandler 0035                                _TMR2_Initialize 0428  
                                          wreg 0009                        SPI1_ExchangeBlock@block 0038  
                                 ?_EUSART_Read 0070                                           l2020 045D  
                                         l2022 0469                                           l2014 0457  
                                         l2030 0243                                           l2112 0408  
                                         l2200 043C                                           l2016 0451  
                                         l2032 0248                                           l2024 022E  
                                         l2114 040A                                           l2018 0463  
                                         l2034 0445                                           l2210 042C  
                                         l2202 0484                                           l2026 0231  
                                         l2116 040F                                           l2204 0488  
                                         l2140 0178                                           l2036 044B  
                                         l2220 0352                                           l2212 042D  
                                         l2028 023D                                           l2310 0393  
                                         l2230 0434                                           l2118 0411  
                                         l2150 0185                                           l2142 017B  
                                         l2222 0353                                           l2214 034A  
                                         l2206 0428                                           l2302 0255  
                                         l2312 0394                                           l2304 047B  
                                         l2320 00D0                                           l2160 0193  
                                         l2152 0188                                           l2144 017E  
                                         l2080 0423                                           l2224 0354  
                                         l2216 034F                                           l2240 030D  
                                         l2232 0306                                           l2208 042B  
                                         l2314 0399                                           l2330 0126  
                                         l2322 00D5                                           l2226 0430  
                                         l2090 0405                                           l2250 02AD  
                                         l2170 019F                                           l2162 0194  
                                         l2154 0189                                           l2146 0180  
                                         l2082 0424                                           l2218 0351  
                                         l2242 0311                                           l2234 0308  
                                         l2316 039B                                           l2308 038E  
                                         l2324 00F9                                           l2228 0433  
                                         l2084 03FC                                           l2252 02AE  
                                         l2172 01A7                                           l2164 0195  
                                         l2156 0190                                           l2148 0183  
                                         l2076 041F                                           l2244 0313  
                                         l2236 030A                                           l2326 00FA  
                                         l2086 03FE                                           l2254 02B6  
                                         l2166 0196                                           l2158 0192  
                                         l2078 0422                                           l2190 0418  
                                         l2246 031B                                           l2238 030C  
                                         l2350 0340                                           l2328 010C  
                                         l2088 0403                                           l2256 02BE  
                                         l2248 02A4                                           l2168 0197  
                                         l2192 041A                                           l2352 0346  
                                         l2440 0076                                           l2258 02C6  
                                         l2194 041C                                           l2186 0414  
                                         l2282 0382                                           l2370 013B  
                                         l2354 0348                                           l2346 0339  
                                         l2450 008C                                           l2442 0079  
                                         l2434 005D                                           l2196 0438  
                                         l2188 0417                                           l2284 038B  
                                         l2364 012C                                           l2348 033A  
                                         l2460 00A1                                           l2452 0091  
                                         l2444 007A                                           l2436 0070  
                                         l2198 043B                                           l2390 0164  
                                         l2382 013D                                           l2366 0131  
                                         l2358 0129                                           l2462 00AB  
                                         l2454 0099                                           l2446 007B  
                                         l2438 0072                                           l2384 0158  
                                         l2376 013C                                           l2368 0135  
                                         l2464 00B6                                           l2456 009B  
                                         l2448 0083                                           l2394 016C  
                                         l2386 015B                                           l2466 00B9  
                                         l2458 009C                                           l2396 0171  
                                         l2388 0161                                           l2468 00BC  
                                         l2494 00C4                                  ?_isValidFloor 0070  
                                         _LATA 010C                                           _LATB 010D  
                            ??_CMP2_Initialize 0035                                           i1l55 0474  
                                         i1l96 047A                                           _TMR0 0015  
                                         _TMR2 001A                                           _WPUA 020C  
                                         _WPUB 020D                                           _main 005D  
                                         fsr0h 0005                                           fsr1h 0007  
                                         indf0 0000                                           fsr0l 0004  
                                         indf1 0001                                           fsr1l 0006  
                                         btemp 007E                           ??_SPI1_ExchangeBlock 0037  
                    i1SPI1_ExchangeBlock@block 0073                                           start 0049  
                              __end_ofi1_txSpi 03C9                               __end_of_CMP1_ISR 047B  
                             __end_of_CMP2_ISR 0475                     ??_TMR1_SetInterruptHandler 0037  
                      __end_of_TMR0_Initialize 035C                 ??_TMR0_DefaultInterruptHandler 0070  
                              ?_FVR_Initialize 0070                  __end_of_OSCILLATOR_Initialize 043F  
                            isValidFloor@floor 0036                                          ?_main 0070  
             SPI1_Open@spi1UniqueConfiguration 0038                                          _T1CON 0018  
                                        _T2CON 001C                                          i1l150 037D  
                                        i1l160 0490                                          i1l154 03BA  
                                        i1l170 048F                                          i1l164 03AB  
                                        i1l500 03E2                                          i1l441 0047  
                                        i1l506 048D                                          i1l390 028C  
                                        i1l630 03C8                                          i1l392 02A3  
                                        i1l626 03BC                                          i1l388 0287  
                                        i1l572 0336                                          i1l484 036C  
                                        i1l654 02EB                                          i1l582 048E  
                                        i1l639 0305                                          i1l664 0200  
                                        i1l576 03EF                                          i1l496 03D5  
                                        i1l659 022B                                          i1l669 01D4  
                                        _RCREG 0199                                          _RCSTA 019D  
                                        _TMR1H 0017                                          _TMR1L 0016  
                                   _RXaccepted 0032                                          u51_20 028C  
                                        u51_21 028B                                          u52_20 02A3  
                                        u60_20 03B3                                          u52_21 02A2  
                                        u60_21 03B2                                          u53_20 0305  
                                        u61_20 03A4                                          u53_21 0304  
                                        u61_21 03A3                                          u70_20 0330  
                                        u62_20 0361                                          u70_21 032F  
                                        u62_21 0360                                          u63_20 03DD  
                                        u63_21 03DC                                          u56_20 02D8  
                                        u64_20 03EA                                          u80_20 0020  
                                        u56_21 02D7                                          u64_21 03E9  
                                        u80_21 001F                                          u57_20 020F  
                                        u65_20 0372                                          u81_20 0025  
                                        u57_21 020E                                          u65_21 0371  
                                        u81_21 0024                                          _TRISA 008C  
                                        _TRISB 008D                                          u58_20 01B8  
                                        u66_20 037A                                          u82_20 002A  
                                        u58_21 01B7                                          u66_21 0379  
                                        u82_21 0029                                          u59_20 01E4  
                                        u83_20 0032                                          u59_21 01E3  
                                        u83_21 0031                                          u84_20 0037  
                                        u76_20 000A                                          u84_21 0036  
                                        u76_21 0009                                          u85_20 003F  
                                        u77_20 000E                                          u85_21 003E  
                                        u77_21 000D                                          u86_20 0044  
                                        u78_20 0015                                          u86_21 0043  
                                        u78_21 0014                                          u79_20 0019  
                                        u79_21 0018                                          _TXREG 019A  
                                        _TXSTA 019E                      ?_TMR0_SetInterruptHandler 0035  
                             __end_of_TMR0_ISR 0337                               __end_of_TMR1_ISR 03D6  
                      __end_of_PIN_MANAGER_IOC 037E                                 _WDT_Initialize 0484  
                               ??_isValidFloor 0035                                          _txSpi 037E  
                      __end_of_PWM3_Initialize 0428                        __end_of_TMR1_Initialize 031F  
                                        pclath 000A                                          status 0003  
                                        wtemp0 007E                                _TMR1_WriteTimer 035C  
                                txSpi@dataSize 003A                                __initialization 004B  
                                 __end_of_main 00CE                        __end_of_TMR2_Initialize 0430  
                  ?_INTERRUPT_InterruptManager 0070                                         ??_main 0046  
                      _IOCBF0_InterruptHandler 0054                         __end_of_WDT_Initialize 0488  
            _EUSART_DefaultFramingErrorHandler 0000                                         _ADCON0 009D  
                                       _ADCON1 009E                     _EUSART_OverrunErrorHandler 004E  
                                       _ADRESH 009C                                         _ADRESL 009B  
                                       _CCPR3H 0312                                         _CCPR3L 0311  
                                       ?_txSpi 003A                                         _ANSELA 018C  
                                       _ANSELB 018D                     __end_of_EUSART_is_rx_ready 0480  
                                       _BORCON 0116                                         _T1GCON 0019  
                      TMR1_WriteTimer@timerVal 0070                                         i1l2100 01BE  
                                       i1l2110 01D1                                         i1l2102 01C2  
                                       i1l2120 01D5                                         i1l2104 01C8  
                                       i1l2040 02D2                                         i1l2130 01EE  
                                       i1l2122 01DE                                         i1l2106 01CB  
                                       i1l2050 02E8                                         i1l2042 02D3  
                                       i1l2132 01F4                                         i1l2124 01DF  
                                       i1l2108 01CE                                         i1l2060 020A  
                                       i1l2052 0201                                         i1l2044 02D8  
                                       i1l2300 037A                                         i1l2134 01F7  
                                       i1l2126 01E4                                         i1l2070 0222  
                                       i1l2062 020F                                         i1l2054 0203  
                                       i1l2046 02DF                                         i1l2038 02C9  
                                       i1l2136 01FA                                         i1l2128 01EA  
                                       i1l2072 0225                                         i1l2064 0215  
                                       i1l2056 0205                                         i1l2048 02E5  
                                       i1l2400 000A                                         i1l2138 01FD  
                                       i1l2074 0228                                         i1l2066 0219  
                                       i1l2058 0207                                         i1l2410 001C  
                                       i1l2402 000E                                         i1l2092 01A9  
                                       i1l2068 021F                                         i1l2180 039D  
                                       i1l2340 0333                                         i1l2260 035C  
                                       i1l2420 0032                                         i1l2412 0020  
                                       i1l2404 0011                                         i1l2094 01B2  
                                       i1l2174 03AC                                         i1l2182 03A4  
                                       i1l2334 031F                                         i1l2262 0361  
                                       i1l2270 0368                                         i1l2342 03C9  
                                       i1l2422 0037                                         i1l2414 0025  
                                       i1l2406 0015                                         i1l2096 01B3  
                                       i1l2176 03B3                                         i1l2184 03A9  
                                       i1l2280 03EA                                         i1l2336 0320  
                                       i1l2272 036A                                         i1l2264 0362  
                                       i1l2344 03CB                                         i1l2424 003A  
                                       i1l2416 002A                                         i1l2408 0019  
                                       i1l2290 0475                                         i1l2098 01B8  
                                       i1l2178 03B8                                         i1l2338 0330  
                                       i1l2274 03D6                                         i1l2266 0364  
                                       i1l2426 003F                                         i1l2418 002D  
                                       i1l2292 0477                                         i1l2276 03DD  
                                       i1l2268 0366                                         i1l2428 0044  
                                       i1l2286 046F                                         i1l2294 036D  
                                       i1l2278 03E3                                         i1l2288 0471  
                                       i1l2296 0372                                         i1l2298 0375  
                                       i1l2398 0006                                         i1l1970 028D  
                                       i1l1972 0293                                         i1l1980 02EC  
                                       i1l1974 0297                                         i1l1966 027E  
                                       i1l1990 02F6                                         i1l1968 0281  
                                       i1l1976 03BE                                         i1l1992 02FE  
                                       i1l1978 03C6                                         i1l1994 0300  
                                       i1l1986 02EE                                         i1l1988 02F0  
                                  initMatrix@i 0043                                    initMatrix@j 0045  
                                  initMatrix@k 0042                                         _FVRCON 0117  
                                       _OSCCON 0099                                      ??i1_txSpi 0077  
                                       _SPBRGH 019C                                         _SPBRGL 019B  
                                       _WDTCON 0097                              __end_of_SPI1_Open 0129  
         __end_of_TMR1_DefaultInterruptHandler 048E                   _TMR1_DefaultInterruptHandler 048D  
                                 _CCPTMRS0bits 029E                                  ?_matrixUpdate 0070  
                             ?_TMR0_Initialize 0070                                         _waitRX 0033  
                                       _origem 0031                                   __pdataCOMMON 007D  
                              ?_WDT_Initialize 0070                       i1SPI1_ExchangeBlock@data 0074  
                                    ?_CMP1_ISR 0070                          __end_of_TMR0_CallBack 03F0  
                                    ?_CMP2_ISR 0070       TMR0_SetInterruptHandler@InterruptHandler 0035  
     TMR1_SetInterruptHandler@InterruptHandler 0035     IOCBF3_SetInterruptHandler@InterruptHandler 0035  
   IOCBF0_SetInterruptHandler@InterruptHandler 0035                               ?_PIN_MANAGER_IOC 0070  
                      __end_of_TMR1_WriteTimer 036D                                   ??_IOCBF0_ISR 0070  
                                 ??_IOCBF3_ISR 007B                          __end_of_TMR1_CallBack 03E3  
                             ?_PWM3_Initialize 0070                               ?_TMR1_Initialize 0070  
                            _SYSTEM_Initialize 0255                        __end_of__initialization 0059  
                              _CMP1_Initialize 0408                             ?_SYSTEM_Initialize 0070  
                                  i1txSpi@data 0077                                 __pcstackCOMMON 0070  
                          ??_SYSTEM_Initialize 0037                                      ?_TMR0_ISR 0070  
                              i1txSpi@dataSize 0075                                 ??_matrixUpdate 0078  
                                    ?_TMR1_ISR 0070                  ?_TMR1_DefaultInterruptHandler 0070  
                         __end_of_isValidFloor 034A                              ??_SPI1_Initialize 0035  
       __end_of_IOCBF0_DefaultInterruptHandler 0491                 _IOCBF0_DefaultInterruptHandler 0490  
                                __end_of_txSpi 038E                               ?_TMR2_Initialize 0070  
                           __end_of_IOCBF0_ISR 03BB                             __end_of_IOCBF3_ISR 03AC  
                              _CMP2_Initialize 03FC                             _spi1_configuration 0480  
                               _OPTION_REGbits 0095                          TMR0_ISR@CountCallBack 0028  
              ??_EUSART_SetOverrunErrorHandler 0037         __end_of_IOCBF3_DefaultInterruptHandler 0490  
               _IOCBF3_DefaultInterruptHandler 048F                                     ??_CMP1_ISR 007B  
                                   ??_CMP2_ISR 007B                      __end_of_SYSTEM_Initialize 027D  
                                      ??_txSpi 003C                                     __pbssBANK0 0020  
                             ??_FVR_Initialize 0035                                     __pmaintext 005D  
             __end_of_TMR0_SetInterruptHandler 0451                                     ??_TMR0_ISR 0070  
                                   ??_TMR1_ISR 0072                                     __pintentry 0004  
                                      _CM1CON0 0111                                        _CM1CON1 0112  
                                      _CM2CON0 0113                                        _CM2CON1 0114  
                                      _CCP3CON 0313                                        _BAUDCON 019F  
                                      _APFCON0 011D                                        _APFCON1 011E  
                                   _destinoSub 007C                              _isValidFloor$1320 0035  
                                      _OSCTUNE 0098                                        _SSP1ADD 0212  
                                      _SSP1BUF 0211                        __end_of_CMP1_Initialize 0414  
                     ??_EUSART_SetErrorHandler 0037                              __end_of_chegadaS1 02EC  
                            __end_of_chegadaS2 022C                              __end_of_chegadaS3 0201  
                            __end_of_chegadaS4 01D5                               ?_TMR1_WriteTimer 0070  
                                      i1_txSpi 03BB                           _ADC_InterruptHandler 002C  
                                   _initMatrix 0129                        __end_of_CMP2_Initialize 0408  
                                      __ptext1 0337                                        __ptext2 0129  
                                      __ptext3 037E                                        __ptext4 022C  
                                      __ptext5 0255                                        __ptext6 0484  
                                      __ptext7 0428                                        __ptext8 0306  
                                      __ptext9 0445                                        _destino 0030  
               ??_TMR1_DefaultInterruptHandler 0070                                      _T1CONbits 0018  
                        _OSCILLATOR_Initialize 0438                                      _T2CONbits 001C  
                                    _CMOUTbits 0115                       ??_PIN_MANAGER_Initialize 0037  
                    ?_TMR1_SetInterruptHandler 0035                                      _IOCBFbits 0396  
                                    _IOCBNbits 0395                                      _IOCBPbits 0394  
                                      _rxValue 0034                                        _subindo 007D  
                                      clrloop0 0440                           end_of_initialization 0059  
                         __end_of_matrixUpdate 0306                                 initMatrix@data 003E  
        __end_of_EUSART_SetOverrunErrorHandler 0463                  _EUSART_SetOverrunErrorHandler 045D  
                            _EUSART_Initialize 02A4                             ?_EUSART_Initialize 0070  
                                    _RCSTAbits 019D                             _EUSART_is_rx_ready 047B  
                                    _SPI1_Open 00CE                            ??_EUSART_Initialize 0037  
                             ??_WDT_Initialize 0035                       _TMR0_SetInterruptHandler 044B  
                          ?_EUSART_is_rx_ready 0070                                      _TRISBbits 008D  
                 ??_IOCBF0_SetInterruptHandler 0037                   ??_IOCBF3_SetInterruptHandler 0037  
                             ?_CMP1_Initialize 0070                                   _isValidFloor 0337  
                       SPI1_ExchangeBlock@data 0039                      __end_of_EUSART_Initialize 02C9  
                         ??_EUSART_is_rx_ready 0035                                _SPI1_Initialize 0414  
                                    _TXSTAbits 019E                                    ?_initMatrix 0070  
                             ?_CMP2_Initialize 0070                                     ?_SPI1_Open 0070  
                   _EUSART_DefaultErrorHandler 0000                                  __pidataCOMMON 048C  
                               _ADC_Initialize 0430                         ?_OSCILLATOR_Initialize 0070  
                          start_initialization 004B                   __end_ofi1_SPI1_ExchangeBlock 02A4  
                                ??_EUSART_Read 0035                                      _MatrixLed 0020  
               ?_EUSART_SetOverrunErrorHandler 0035                     _EUSART_FramingErrorHandler 0050  
                       _EUSART_SetErrorHandler 0469                         __end_of_ADC_Initialize 0438  
                                  __pbssCOMMON 007B                                      ___latbits 0001  
                                __pcstackBANK0 0035                        __end_of_SPI1_Initialize 041F  
                                     ?i1_txSpi 0075                                      _chegadaS1 02C9  
                                    _chegadaS2 0201                                      _chegadaS3 01D5  
                                    _chegadaS4 01A9                            __end_of_EUSART_Read 039D  
                        _TMR0_InterruptHandler 0048                                      __pnvBANK0 0048  
                      _IOCBF3_InterruptHandler 0052                         _PIN_MANAGER_Initialize 0178  
             __end_of_TMR1_SetInterruptHandler 044B                                    ??_SPI1_Open 0035  
                              ?_ADC_Initialize 0070                                   _matrixUpdate 02EC  
                 ??_INTERRUPT_InterruptManager 007B             __end_of_IOCBF0_SetInterruptHandler 045D  
                   _IOCBF0_SetInterruptHandler 0457             __end_of_IOCBF3_SetInterruptHandler 0457  
                   _IOCBF3_SetInterruptHandler 0451                                       _CMP1_ISR 0475  
                                     _CMP2_ISR 046F                                  _TMR0_CallBack 03E3  
                   __end_of_SPI1_ExchangeBlock 0255                                  _TMR1_CallBack 03D6  
                            ??_TMR0_Initialize 0037                                    _destinoDesc 007B  
       EUSART_SetErrorHandler@interruptHandler 0035                                       _LATBbits 010D  
                                   ?_chegadaS1 0070                                     ?_chegadaS2 0070  
                                   ?_chegadaS3 0070                                     ?_chegadaS4 0070  
                          __end_of_matrix_conf 03FC                                      clear_ram0 043F  
                                     _PIE1bits 0091                                       _PIE2bits 0092  
                            _eusartRxLastError 002F                     ??_TMR0_SetInterruptHandler 0037  
                                     _PIR1bits 0011                ??_EUSART_SetFramingErrorHandler 0037  
                                     _PIR2bits 0012                                       _SSP1CON1 0215  
                                     _SSP1CON2 0216                           i1_SPI1_ExchangeBlock 027D  
                                     _TMR0_ISR 031F              _EUSART_DefaultOverrunErrorHandler 0000  
                                     _TMR1_ISR 03C9                                       _SSP1STAT 0214  
                            ??_PIN_MANAGER_IOC 007B                              ??_TMR1_Initialize 0037  
                            ??_PWM3_Initialize 0035                                     _ADCON0bits 009D  
                               ?_TMR0_CallBack 0070                               initMatrix@i_1343 0044  
                                  _EUSART_Read 038E                               ?_SPI1_Initialize 0070  
                               ?_TMR1_CallBack 0070                              ??_TMR2_Initialize 0035  
                                 ??_initMatrix 003D                          ?i1_SPI1_ExchangeBlock 0070  
                      ??_OSCILLATOR_Initialize 0035                            _EUSART_ErrorHandler 004C  
                     _TMR1_SetInterruptHandler 0445                          _TMR1_InterruptHandler 004A  
                                     __ptext10 034A                                       __ptext11 044B  
                                     __ptext20 045D                                       __ptext12 0414  
                                     __ptext21 0463                                       __ptext13 041F  
                                   _T1GCONbits 0019                                       __ptext30 03C9  
                                     __ptext22 0469                                       __ptext14 0178  
                                     __ptext31 035C                                       __ptext23 03FC  
                                     __ptext15 0451                                       __ptext40 048F  
                                     __ptext32 03D6                                       __ptext24 0408  
                                     __ptext16 0457                                       __ptext41 0201  
                                     __ptext33 048D                                       __ptext25 0430  
                                     __ptext17 0438                                       __ptext50 027D  
                                     __ptext42 03AC                                       __ptext34 031F  
                                     __ptext26 00CE                                       __ptext18 0488  
                                     __ptext43 0490                                       __ptext35 03E3  
                                     __ptext27 047B                                       __ptext19 02A4  
                                     __ptext44 046F                                       __ptext36 048E  
                                     __ptext28 038E                                       __ptext45 01A9  
                                     __ptext37 036D                                       __ptext46 0475  
                                     __ptext38 039D                                       __ptext47 01D5  
                                     __ptext39 02C9                                       __ptext48 02EC  
                                     __ptext49 03BB                                   _SSP1CON1bits 0215  
                                  _matrix_conf 03F0                             __end_of_initMatrix 0178  
                                   _IOCBF0_ISR 03AC                                     _IOCBF3_ISR 039D  
                                  ??_chegadaS1 007B                                    ??_chegadaS2 007B  
                                  ??_chegadaS3 007B                                    ??_chegadaS4 007B  
         __end_of_TMR0_DefaultInterruptHandler 048F                   _TMR0_DefaultInterruptHandler 048E  
                      ?_EUSART_SetErrorHandler 0035                  i1SPI1_ExchangeBlock@blockSize 0070  
EUSART_SetOverrunErrorHandler@interruptHandler 0035                                       int$flags 007E  
           __end_of_INTERRUPT_InterruptManager 0049                     _INTERRUPT_InterruptManager 0004  
        __end_of_EUSART_SetFramingErrorHandler 0469                  _EUSART_SetFramingErrorHandler 0463  
                            ??_TMR1_WriteTimer 0072                                      txSpi@data 003C  
                  SPI1_ExchangeBlock@blockSize 0035                               matrixUpdate@data 0078  
                                   _INTCONbits 000B                                ??_TMR0_CallBack 0070  
                                   _FVRCONbits 0117                                ??_TMR1_CallBack 0070  
                                     intlevel1 0000                        ?_PIN_MANAGER_Initialize 0070  
               __end_of_EUSART_SetErrorHandler 046F                               ??_ADC_Initialize 0035  
                       ??i1_SPI1_ExchangeBlock 0072                  ?_TMR0_DefaultInterruptHandler 0070  
EUSART_SetFramingErrorHandler@interruptHandler 0035                                  __pstringtext1 03F0  
                                __pstringtext2 0480                                 _FVR_Initialize 0488  
                                   _OPTION_REG 0095                                _TMR0_Initialize 034A  
                  ?_IOCBF0_SetInterruptHandler 0035                    ?_IOCBF3_SetInterruptHandler 0035  
                                  ?_IOCBF0_ISR 0070                                    ?_IOCBF3_ISR 0070  
               __end_of_PIN_MANAGER_Initialize 01A9               ??_IOCBF0_DefaultInterruptHandler 0070  
              ?_IOCBF0_DefaultInterruptHandler 0070                                  matrixUpdate@i 007A  
                              _PIN_MANAGER_IOC 036D                                _TMR1_Initialize 0306  
                              _PWM3_Initialize 041F                     __end_of_spi1_configuration 0484  
