

Microchip MPLAB XC8 Assembler V2.36 build 20220127204148 
                                                                                               Sun Jul 16 17:43:58 2023

Microchip MPLAB XC8 C Compiler v2.36 (Free license) build 20220127204148 Og1 
     1                           	processor	16F1827
     2                           	pagewidth 120
     3                           	opt	flic
     4                           	psect	idataBANK0,global,class=CODE,delta=2,noexec
     5                           	psect	stringtext1,global,class=STRCODE,delta=2,noexec
     6                           	psect	stringtext2,global,class=STRCODE,delta=2,noexec
     7                           	psect	nvBANK0,global,class=BANK0,space=1,delta=1,noexec
     8                           	psect	cinit,global,class=CODE,merge=1,delta=2
     9                           	psect	bssCOMMON,global,class=COMMON,space=1,delta=1,noexec
    10                           	psect	bssBANK0,global,class=BANK0,space=1,delta=1,noexec
    11                           	psect	dataBANK0,global,class=BANK0,space=1,delta=1,noexec
    12                           	psect	clrtext,global,class=CODE,delta=2
    13                           	psect	cstackCOMMON,global,class=COMMON,space=1,delta=1,noexec
    14                           	psect	cstackBANK0,global,class=BANK0,space=1,delta=1,noexec
    15                           	psect	maintext,global,class=CODE,merge=1,split=1,delta=2
    16                           	psect	text1,local,class=CODE,merge=1,delta=2
    17                           	psect	text2,local,class=CODE,merge=1,delta=2
    18                           	psect	text3,local,class=CODE,merge=1,delta=2
    19                           	psect	text4,local,class=CODE,merge=1,delta=2
    20                           	psect	text5,local,class=CODE,merge=1,delta=2
    21                           	psect	text6,local,class=CODE,merge=1,delta=2
    22                           	psect	text7,local,class=CODE,merge=1,delta=2
    23                           	psect	text8,local,class=CODE,merge=1,delta=2
    24                           	psect	text9,local,class=CODE,merge=1,delta=2
    25                           	psect	text10,local,class=CODE,merge=1,delta=2
    26                           	psect	text11,local,class=CODE,merge=1,delta=2
    27                           	psect	text12,local,class=CODE,merge=1,delta=2
    28                           	psect	text13,local,class=CODE,merge=1,delta=2
    29                           	psect	text14,local,class=CODE,merge=1,delta=2
    30                           	psect	text15,local,class=CODE,merge=1,delta=2
    31                           	psect	text16,local,class=CODE,merge=1,delta=2
    32                           	psect	text17,local,class=CODE,merge=1,delta=2
    33                           	psect	text18,local,class=CODE,merge=1,delta=2
    34                           	psect	text19,local,class=CODE,merge=1,delta=2
    35                           	psect	text20,local,class=CODE,merge=1,delta=2
    36                           	psect	text21,local,class=CODE,merge=1,delta=2
    37                           	psect	text22,local,class=CODE,merge=1,delta=2
    38                           	psect	text23,local,class=CODE,merge=1,delta=2
    39                           	psect	text24,local,class=CODE,merge=1,delta=2
    40                           	psect	text25,local,class=CODE,merge=1,delta=2
    41                           	psect	text26,local,class=CODE,merge=1,delta=2
    42                           	psect	text27,local,class=CODE,merge=1,delta=2
    43                           	psect	text28,local,class=CODE,merge=1,delta=2
    44                           	psect	text29,local,class=CODE,merge=1,delta=2
    45                           	psect	intentry,global,class=CODE,delta=2
    46                           	psect	text31,local,class=CODE,merge=1,delta=2
    47                           	psect	text32,local,class=CODE,merge=1,delta=2
    48                           	psect	text33,local,class=CODE,merge=1,delta=2
    49                           	psect	text34,local,class=CODE,merge=1,delta=2
    50                           	psect	text35,local,class=CODE,merge=1,delta=2
    51                           	psect	text36,local,class=CODE,merge=1,delta=2
    52                           	psect	text37,local,class=CODE,merge=1,delta=2
    53                           	psect	text38,local,class=CODE,merge=1,delta=2
    54                           	psect	text39,local,class=CODE,merge=1,delta=2
    55                           	psect	text40,local,class=CODE,merge=1,delta=2
    56                           	psect	text41,local,class=CODE,merge=1,delta=2
    57                           	psect	text42,local,class=CODE,merge=1,delta=2
    58                           	psect	text43,local,class=CODE,merge=1,delta=2
    59                           	psect	text44,local,class=CODE,merge=1,delta=2
    60                           	psect	text45,local,class=CODE,merge=1,delta=2
    61                           	psect	text46,local,class=CODE,merge=1,delta=2
    62                           	psect	text47,local,class=CODE,merge=1,delta=2
    63                           	psect	text48,local,class=CODE,merge=1,delta=2
    64                           	psect	text49,local,class=CODE,merge=1,delta=2
    65                           	psect	text50,local,class=CODE,merge=1,delta=2
    66                           	psect	text51,local,class=CODE,merge=1,delta=2
    67                           	psect	text52,local,class=CODE,merge=1,delta=2
    68                           	psect	text53,local,class=CODE,merge=1,delta=2
    69                           	psect	text54,local,class=CODE,merge=1,delta=2
    70                           	psect	text55,local,class=CODE,merge=1,delta=2
    71                           	psect	text56,local,class=CODE,merge=1,delta=2
    72                           	psect	idloc,global,abs,ovrld,class=IDLOC,space=5,delta=2,noexec
    73                           	psect	config,global,abs,ovrld,class=CONFIG,space=4,delta=2,noexec
    74                           	dabs	1,0x7E,2
    75  0000                     
    76                           ; Version 2.40
    77                           ; Generated 17/11/2021 GMT
    78                           ; 
    79                           ; Copyright © 2021, Microchip Technology Inc. and its subsidiaries ("Microchip")
    80                           ; All rights reserved.
    81                           ; 
    82                           ; This software is developed by Microchip Technology Inc. and its subsidiaries ("Microch
      +                          ip").
    83                           ; 
    84                           ; Redistribution and use in source and binary forms, with or without modification, are
    85                           ; permitted provided that the following conditions are met:
    86                           ; 
    87                           ;     1. Redistributions of source code must retain the above copyright notice, this lis
      +                          t of
    88                           ;        conditions and the following disclaimer.
    89                           ; 
    90                           ;     2. Redistributions in binary form must reproduce the above copyright notice, this 
      +                          list
    91                           ;        of conditions and the following disclaimer in the documentation and/or other
    92                           ;        materials provided with the distribution. Publication is not required when
    93                           ;        this file is used in an embedded application.
    94                           ; 
    95                           ;     3. Microchip's name may not be used to endorse or promote products derived from th
      +                          is
    96                           ;        software without specific prior written permission.
    97                           ; 
    98                           ; THIS SOFTWARE IS PROVIDED BY MICROCHIP "AS IS" AND ANY EXPRESS OR IMPLIED WARRANTIES,
    99                           ; INCLUDING, BUT NOT LIMITED TO, THE IMPLIED WARRANTIES OF MERCHANTABILITY AND FITNESS F
      +                          OR
   100                           ; PURPOSE ARE DISCLAIMED.  IN NO EVENT SHALL MICROCHIP BE LIABLE FOR ANY DIRECT, INDIREC
      +                          T,
   101                           ; INCIDENTAL, SPECIAL, EXEMPLARY, OR CONSEQUENTIAL DAMAGES (INCLUDING BUT NOT LIMITED TO
   102                           ; PROCUREMENT OF SUBSTITUTE GOODS OR SERVICES; LOSS OF USE, DATA OR PROFITS; OR BUSINESS
   103                           ; INTERRUPTION) HOWSOEVER CAUSED AND ON ANY THEORY OF LIABILITY, WHETHER IN CONTRACT, ST
      +                          RICT
   104                           ; LIABILITY, OR TORT (INCLUDING NEGLIGENCE OR OTHERWISE) ARISING IN ANY WAY OUT OF THE U
      +                          SE OF
   105                           ; THIS SOFTWARE, EVEN IF ADVISED OF THE POSSIBILITY OF SUCH DAMAGE.
   106                           ; 
   107                           ; 
   108                           ; Code-generator required, PIC16F1827 Definitions
   109                           ; 
   110                           ; SFR Addresses
   111  0000                     	;# 
   112  0001                     	;# 
   113  0002                     	;# 
   114  0003                     	;# 
   115  0004                     	;# 
   116  0005                     	;# 
   117  0006                     	;# 
   118  0007                     	;# 
   119  0008                     	;# 
   120  0009                     	;# 
   121  000A                     	;# 
   122  000B                     	;# 
   123  000C                     	;# 
   124  000D                     	;# 
   125  0011                     	;# 
   126  0012                     	;# 
   127  0013                     	;# 
   128  0014                     	;# 
   129  0015                     	;# 
   130  0016                     	;# 
   131  0016                     	;# 
   132  0017                     	;# 
   133  0018                     	;# 
   134  0019                     	;# 
   135  001A                     	;# 
   136  001B                     	;# 
   137  001C                     	;# 
   138  001E                     	;# 
   139  001F                     	;# 
   140  008C                     	;# 
   141  008D                     	;# 
   142  0091                     	;# 
   143  0092                     	;# 
   144  0093                     	;# 
   145  0094                     	;# 
   146  0095                     	;# 
   147  0096                     	;# 
   148  0097                     	;# 
   149  0098                     	;# 
   150  0099                     	;# 
   151  009A                     	;# 
   152  009B                     	;# 
   153  009B                     	;# 
   154  009C                     	;# 
   155  009D                     	;# 
   156  009E                     	;# 
   157  010C                     	;# 
   158  010D                     	;# 
   159  0111                     	;# 
   160  0112                     	;# 
   161  0113                     	;# 
   162  0114                     	;# 
   163  0115                     	;# 
   164  0116                     	;# 
   165  0117                     	;# 
   166  0118                     	;# 
   167  0119                     	;# 
   168  011A                     	;# 
   169  011B                     	;# 
   170  011D                     	;# 
   171  011E                     	;# 
   172  018C                     	;# 
   173  018D                     	;# 
   174  0191                     	;# 
   175  0191                     	;# 
   176  0192                     	;# 
   177  0193                     	;# 
   178  0193                     	;# 
   179  0193                     	;# 
   180  0194                     	;# 
   181  0195                     	;# 
   182  0196                     	;# 
   183  0199                     	;# 
   184  019A                     	;# 
   185  019B                     	;# 
   186  019B                     	;# 
   187  019B                     	;# 
   188  019B                     	;# 
   189  019C                     	;# 
   190  019C                     	;# 
   191  019D                     	;# 
   192  019E                     	;# 
   193  019F                     	;# 
   194  020C                     	;# 
   195  020D                     	;# 
   196  0211                     	;# 
   197  0211                     	;# 
   198  0212                     	;# 
   199  0212                     	;# 
   200  0213                     	;# 
   201  0213                     	;# 
   202  0214                     	;# 
   203  0214                     	;# 
   204  0215                     	;# 
   205  0215                     	;# 
   206  0215                     	;# 
   207  0216                     	;# 
   208  0216                     	;# 
   209  0217                     	;# 
   210  0217                     	;# 
   211  0219                     	;# 
   212  021A                     	;# 
   213  021B                     	;# 
   214  021C                     	;# 
   215  021D                     	;# 
   216  021E                     	;# 
   217  021F                     	;# 
   218  0291                     	;# 
   219  0291                     	;# 
   220  0292                     	;# 
   221  0293                     	;# 
   222  0294                     	;# 
   223  0295                     	;# 
   224  0295                     	;# 
   225  0296                     	;# 
   226  0298                     	;# 
   227  0298                     	;# 
   228  0299                     	;# 
   229  029A                     	;# 
   230  029B                     	;# 
   231  029C                     	;# 
   232  029C                     	;# 
   233  029D                     	;# 
   234  029E                     	;# 
   235  029E                     	;# 
   236  0311                     	;# 
   237  0311                     	;# 
   238  0312                     	;# 
   239  0313                     	;# 
   240  0318                     	;# 
   241  0318                     	;# 
   242  0319                     	;# 
   243  031A                     	;# 
   244  0394                     	;# 
   245  0395                     	;# 
   246  0396                     	;# 
   247  039A                     	;# 
   248  039C                     	;# 
   249  039D                     	;# 
   250  039E                     	;# 
   251  039F                     	;# 
   252  0415                     	;# 
   253  0416                     	;# 
   254  0417                     	;# 
   255  041C                     	;# 
   256  041D                     	;# 
   257  041E                     	;# 
   258  0FE4                     	;# 
   259  0FE5                     	;# 
   260  0FE6                     	;# 
   261  0FE7                     	;# 
   262  0FE8                     	;# 
   263  0FE9                     	;# 
   264  0FEA                     	;# 
   265  0FEB                     	;# 
   266  0FED                     	;# 
   267  0FEE                     	;# 
   268  0FEF                     	;# 
   269  0000                     	;# 
   270  0001                     	;# 
   271  0002                     	;# 
   272  0003                     	;# 
   273  0004                     	;# 
   274  0005                     	;# 
   275  0006                     	;# 
   276  0007                     	;# 
   277  0008                     	;# 
   278  0009                     	;# 
   279  000A                     	;# 
   280  000B                     	;# 
   281  000C                     	;# 
   282  000D                     	;# 
   283  0011                     	;# 
   284  0012                     	;# 
   285  0013                     	;# 
   286  0014                     	;# 
   287  0015                     	;# 
   288  0016                     	;# 
   289  0016                     	;# 
   290  0017                     	;# 
   291  0018                     	;# 
   292  0019                     	;# 
   293  001A                     	;# 
   294  001B                     	;# 
   295  001C                     	;# 
   296  001E                     	;# 
   297  001F                     	;# 
   298  008C                     	;# 
   299  008D                     	;# 
   300  0091                     	;# 
   301  0092                     	;# 
   302  0093                     	;# 
   303  0094                     	;# 
   304  0095                     	;# 
   305  0096                     	;# 
   306  0097                     	;# 
   307  0098                     	;# 
   308  0099                     	;# 
   309  009A                     	;# 
   310  009B                     	;# 
   311  009B                     	;# 
   312  009C                     	;# 
   313  009D                     	;# 
   314  009E                     	;# 
   315  010C                     	;# 
   316  010D                     	;# 
   317  0111                     	;# 
   318  0112                     	;# 
   319  0113                     	;# 
   320  0114                     	;# 
   321  0115                     	;# 
   322  0116                     	;# 
   323  0117                     	;# 
   324  0118                     	;# 
   325  0119                     	;# 
   326  011A                     	;# 
   327  011B                     	;# 
   328  011D                     	;# 
   329  011E                     	;# 
   330  018C                     	;# 
   331  018D                     	;# 
   332  0191                     	;# 
   333  0191                     	;# 
   334  0192                     	;# 
   335  0193                     	;# 
   336  0193                     	;# 
   337  0193                     	;# 
   338  0194                     	;# 
   339  0195                     	;# 
   340  0196                     	;# 
   341  0199                     	;# 
   342  019A                     	;# 
   343  019B                     	;# 
   344  019B                     	;# 
   345  019B                     	;# 
   346  019B                     	;# 
   347  019C                     	;# 
   348  019C                     	;# 
   349  019D                     	;# 
   350  019E                     	;# 
   351  019F                     	;# 
   352  020C                     	;# 
   353  020D                     	;# 
   354  0211                     	;# 
   355  0211                     	;# 
   356  0212                     	;# 
   357  0212                     	;# 
   358  0213                     	;# 
   359  0213                     	;# 
   360  0214                     	;# 
   361  0214                     	;# 
   362  0215                     	;# 
   363  0215                     	;# 
   364  0215                     	;# 
   365  0216                     	;# 
   366  0216                     	;# 
   367  0217                     	;# 
   368  0217                     	;# 
   369  0219                     	;# 
   370  021A                     	;# 
   371  021B                     	;# 
   372  021C                     	;# 
   373  021D                     	;# 
   374  021E                     	;# 
   375  021F                     	;# 
   376  0291                     	;# 
   377  0291                     	;# 
   378  0292                     	;# 
   379  0293                     	;# 
   380  0294                     	;# 
   381  0295                     	;# 
   382  0295                     	;# 
   383  0296                     	;# 
   384  0298                     	;# 
   385  0298                     	;# 
   386  0299                     	;# 
   387  029A                     	;# 
   388  029B                     	;# 
   389  029C                     	;# 
   390  029C                     	;# 
   391  029D                     	;# 
   392  029E                     	;# 
   393  029E                     	;# 
   394  0311                     	;# 
   395  0311                     	;# 
   396  0312                     	;# 
   397  0313                     	;# 
   398  0318                     	;# 
   399  0318                     	;# 
   400  0319                     	;# 
   401  031A                     	;# 
   402  0394                     	;# 
   403  0395                     	;# 
   404  0396                     	;# 
   405  039A                     	;# 
   406  039C                     	;# 
   407  039D                     	;# 
   408  039E                     	;# 
   409  039F                     	;# 
   410  0415                     	;# 
   411  0416                     	;# 
   412  0417                     	;# 
   413  041C                     	;# 
   414  041D                     	;# 
   415  041E                     	;# 
   416  0FE4                     	;# 
   417  0FE5                     	;# 
   418  0FE6                     	;# 
   419  0FE7                     	;# 
   420  0FE8                     	;# 
   421  0FE9                     	;# 
   422  0FEA                     	;# 
   423  0FEB                     	;# 
   424  0FED                     	;# 
   425  0FEE                     	;# 
   426  0FEF                     	;# 
   427  0000                     	;# 
   428  0001                     	;# 
   429  0002                     	;# 
   430  0003                     	;# 
   431  0004                     	;# 
   432  0005                     	;# 
   433  0006                     	;# 
   434  0007                     	;# 
   435  0008                     	;# 
   436  0009                     	;# 
   437  000A                     	;# 
   438  000B                     	;# 
   439  000C                     	;# 
   440  000D                     	;# 
   441  0011                     	;# 
   442  0012                     	;# 
   443  0013                     	;# 
   444  0014                     	;# 
   445  0015                     	;# 
   446  0016                     	;# 
   447  0016                     	;# 
   448  0017                     	;# 
   449  0018                     	;# 
   450  0019                     	;# 
   451  001A                     	;# 
   452  001B                     	;# 
   453  001C                     	;# 
   454  001E                     	;# 
   455  001F                     	;# 
   456  008C                     	;# 
   457  008D                     	;# 
   458  0091                     	;# 
   459  0092                     	;# 
   460  0093                     	;# 
   461  0094                     	;# 
   462  0095                     	;# 
   463  0096                     	;# 
   464  0097                     	;# 
   465  0098                     	;# 
   466  0099                     	;# 
   467  009A                     	;# 
   468  009B                     	;# 
   469  009B                     	;# 
   470  009C                     	;# 
   471  009D                     	;# 
   472  009E                     	;# 
   473  010C                     	;# 
   474  010D                     	;# 
   475  0111                     	;# 
   476  0112                     	;# 
   477  0113                     	;# 
   478  0114                     	;# 
   479  0115                     	;# 
   480  0116                     	;# 
   481  0117                     	;# 
   482  0118                     	;# 
   483  0119                     	;# 
   484  011A                     	;# 
   485  011B                     	;# 
   486  011D                     	;# 
   487  011E                     	;# 
   488  018C                     	;# 
   489  018D                     	;# 
   490  0191                     	;# 
   491  0191                     	;# 
   492  0192                     	;# 
   493  0193                     	;# 
   494  0193                     	;# 
   495  0193                     	;# 
   496  0194                     	;# 
   497  0195                     	;# 
   498  0196                     	;# 
   499  0199                     	;# 
   500  019A                     	;# 
   501  019B                     	;# 
   502  019B                     	;# 
   503  019B                     	;# 
   504  019B                     	;# 
   505  019C                     	;# 
   506  019C                     	;# 
   507  019D                     	;# 
   508  019E                     	;# 
   509  019F                     	;# 
   510  020C                     	;# 
   511  020D                     	;# 
   512  0211                     	;# 
   513  0211                     	;# 
   514  0212                     	;# 
   515  0212                     	;# 
   516  0213                     	;# 
   517  0213                     	;# 
   518  0214                     	;# 
   519  0214                     	;# 
   520  0215                     	;# 
   521  0215                     	;# 
   522  0215                     	;# 
   523  0216                     	;# 
   524  0216                     	;# 
   525  0217                     	;# 
   526  0217                     	;# 
   527  0219                     	;# 
   528  021A                     	;# 
   529  021B                     	;# 
   530  021C                     	;# 
   531  021D                     	;# 
   532  021E                     	;# 
   533  021F                     	;# 
   534  0291                     	;# 
   535  0291                     	;# 
   536  0292                     	;# 
   537  0293                     	;# 
   538  0294                     	;# 
   539  0295                     	;# 
   540  0295                     	;# 
   541  0296                     	;# 
   542  0298                     	;# 
   543  0298                     	;# 
   544  0299                     	;# 
   545  029A                     	;# 
   546  029B                     	;# 
   547  029C                     	;# 
   548  029C                     	;# 
   549  029D                     	;# 
   550  029E                     	;# 
   551  029E                     	;# 
   552  0311                     	;# 
   553  0311                     	;# 
   554  0312                     	;# 
   555  0313                     	;# 
   556  0318                     	;# 
   557  0318                     	;# 
   558  0319                     	;# 
   559  031A                     	;# 
   560  0394                     	;# 
   561  0395                     	;# 
   562  0396                     	;# 
   563  039A                     	;# 
   564  039C                     	;# 
   565  039D                     	;# 
   566  039E                     	;# 
   567  039F                     	;# 
   568  0415                     	;# 
   569  0416                     	;# 
   570  0417                     	;# 
   571  041C                     	;# 
   572  041D                     	;# 
   573  041E                     	;# 
   574  0FE4                     	;# 
   575  0FE5                     	;# 
   576  0FE6                     	;# 
   577  0FE7                     	;# 
   578  0FE8                     	;# 
   579  0FE9                     	;# 
   580  0FEA                     	;# 
   581  0FEB                     	;# 
   582  0FED                     	;# 
   583  0FEE                     	;# 
   584  0FEF                     	;# 
   585  0000                     	;# 
   586  0001                     	;# 
   587  0002                     	;# 
   588  0003                     	;# 
   589  0004                     	;# 
   590  0005                     	;# 
   591  0006                     	;# 
   592  0007                     	;# 
   593  0008                     	;# 
   594  0009                     	;# 
   595  000A                     	;# 
   596  000B                     	;# 
   597  000C                     	;# 
   598  000D                     	;# 
   599  0011                     	;# 
   600  0012                     	;# 
   601  0013                     	;# 
   602  0014                     	;# 
   603  0015                     	;# 
   604  0016                     	;# 
   605  0016                     	;# 
   606  0017                     	;# 
   607  0018                     	;# 
   608  0019                     	;# 
   609  001A                     	;# 
   610  001B                     	;# 
   611  001C                     	;# 
   612  001E                     	;# 
   613  001F                     	;# 
   614  008C                     	;# 
   615  008D                     	;# 
   616  0091                     	;# 
   617  0092                     	;# 
   618  0093                     	;# 
   619  0094                     	;# 
   620  0095                     	;# 
   621  0096                     	;# 
   622  0097                     	;# 
   623  0098                     	;# 
   624  0099                     	;# 
   625  009A                     	;# 
   626  009B                     	;# 
   627  009B                     	;# 
   628  009C                     	;# 
   629  009D                     	;# 
   630  009E                     	;# 
   631  010C                     	;# 
   632  010D                     	;# 
   633  0111                     	;# 
   634  0112                     	;# 
   635  0113                     	;# 
   636  0114                     	;# 
   637  0115                     	;# 
   638  0116                     	;# 
   639  0117                     	;# 
   640  0118                     	;# 
   641  0119                     	;# 
   642  011A                     	;# 
   643  011B                     	;# 
   644  011D                     	;# 
   645  011E                     	;# 
   646  018C                     	;# 
   647  018D                     	;# 
   648  0191                     	;# 
   649  0191                     	;# 
   650  0192                     	;# 
   651  0193                     	;# 
   652  0193                     	;# 
   653  0193                     	;# 
   654  0194                     	;# 
   655  0195                     	;# 
   656  0196                     	;# 
   657  0199                     	;# 
   658  019A                     	;# 
   659  019B                     	;# 
   660  019B                     	;# 
   661  019B                     	;# 
   662  019B                     	;# 
   663  019C                     	;# 
   664  019C                     	;# 
   665  019D                     	;# 
   666  019E                     	;# 
   667  019F                     	;# 
   668  020C                     	;# 
   669  020D                     	;# 
   670  0211                     	;# 
   671  0211                     	;# 
   672  0212                     	;# 
   673  0212                     	;# 
   674  0213                     	;# 
   675  0213                     	;# 
   676  0214                     	;# 
   677  0214                     	;# 
   678  0215                     	;# 
   679  0215                     	;# 
   680  0215                     	;# 
   681  0216                     	;# 
   682  0216                     	;# 
   683  0217                     	;# 
   684  0217                     	;# 
   685  0219                     	;# 
   686  021A                     	;# 
   687  021B                     	;# 
   688  021C                     	;# 
   689  021D                     	;# 
   690  021E                     	;# 
   691  021F                     	;# 
   692  0291                     	;# 
   693  0291                     	;# 
   694  0292                     	;# 
   695  0293                     	;# 
   696  0294                     	;# 
   697  0295                     	;# 
   698  0295                     	;# 
   699  0296                     	;# 
   700  0298                     	;# 
   701  0298                     	;# 
   702  0299                     	;# 
   703  029A                     	;# 
   704  029B                     	;# 
   705  029C                     	;# 
   706  029C                     	;# 
   707  029D                     	;# 
   708  029E                     	;# 
   709  029E                     	;# 
   710  0311                     	;# 
   711  0311                     	;# 
   712  0312                     	;# 
   713  0313                     	;# 
   714  0318                     	;# 
   715  0318                     	;# 
   716  0319                     	;# 
   717  031A                     	;# 
   718  0394                     	;# 
   719  0395                     	;# 
   720  0396                     	;# 
   721  039A                     	;# 
   722  039C                     	;# 
   723  039D                     	;# 
   724  039E                     	;# 
   725  039F                     	;# 
   726  0415                     	;# 
   727  0416                     	;# 
   728  0417                     	;# 
   729  041C                     	;# 
   730  041D                     	;# 
   731  041E                     	;# 
   732  0FE4                     	;# 
   733  0FE5                     	;# 
   734  0FE6                     	;# 
   735  0FE7                     	;# 
   736  0FE8                     	;# 
   737  0FE9                     	;# 
   738  0FEA                     	;# 
   739  0FEB                     	;# 
   740  0FED                     	;# 
   741  0FEE                     	;# 
   742  0FEF                     	;# 
   743  0000                     	;# 
   744  0001                     	;# 
   745  0002                     	;# 
   746  0003                     	;# 
   747  0004                     	;# 
   748  0005                     	;# 
   749  0006                     	;# 
   750  0007                     	;# 
   751  0008                     	;# 
   752  0009                     	;# 
   753  000A                     	;# 
   754  000B                     	;# 
   755  000C                     	;# 
   756  000D                     	;# 
   757  0011                     	;# 
   758  0012                     	;# 
   759  0013                     	;# 
   760  0014                     	;# 
   761  0015                     	;# 
   762  0016                     	;# 
   763  0016                     	;# 
   764  0017                     	;# 
   765  0018                     	;# 
   766  0019                     	;# 
   767  001A                     	;# 
   768  001B                     	;# 
   769  001C                     	;# 
   770  001E                     	;# 
   771  001F                     	;# 
   772  008C                     	;# 
   773  008D                     	;# 
   774  0091                     	;# 
   775  0092                     	;# 
   776  0093                     	;# 
   777  0094                     	;# 
   778  0095                     	;# 
   779  0096                     	;# 
   780  0097                     	;# 
   781  0098                     	;# 
   782  0099                     	;# 
   783  009A                     	;# 
   784  009B                     	;# 
   785  009B                     	;# 
   786  009C                     	;# 
   787  009D                     	;# 
   788  009E                     	;# 
   789  010C                     	;# 
   790  010D                     	;# 
   791  0111                     	;# 
   792  0112                     	;# 
   793  0113                     	;# 
   794  0114                     	;# 
   795  0115                     	;# 
   796  0116                     	;# 
   797  0117                     	;# 
   798  0118                     	;# 
   799  0119                     	;# 
   800  011A                     	;# 
   801  011B                     	;# 
   802  011D                     	;# 
   803  011E                     	;# 
   804  018C                     	;# 
   805  018D                     	;# 
   806  0191                     	;# 
   807  0191                     	;# 
   808  0192                     	;# 
   809  0193                     	;# 
   810  0193                     	;# 
   811  0193                     	;# 
   812  0194                     	;# 
   813  0195                     	;# 
   814  0196                     	;# 
   815  0199                     	;# 
   816  019A                     	;# 
   817  019B                     	;# 
   818  019B                     	;# 
   819  019B                     	;# 
   820  019B                     	;# 
   821  019C                     	;# 
   822  019C                     	;# 
   823  019D                     	;# 
   824  019E                     	;# 
   825  019F                     	;# 
   826  020C                     	;# 
   827  020D                     	;# 
   828  0211                     	;# 
   829  0211                     	;# 
   830  0212                     	;# 
   831  0212                     	;# 
   832  0213                     	;# 
   833  0213                     	;# 
   834  0214                     	;# 
   835  0214                     	;# 
   836  0215                     	;# 
   837  0215                     	;# 
   838  0215                     	;# 
   839  0216                     	;# 
   840  0216                     	;# 
   841  0217                     	;# 
   842  0217                     	;# 
   843  0219                     	;# 
   844  021A                     	;# 
   845  021B                     	;# 
   846  021C                     	;# 
   847  021D                     	;# 
   848  021E                     	;# 
   849  021F                     	;# 
   850  0291                     	;# 
   851  0291                     	;# 
   852  0292                     	;# 
   853  0293                     	;# 
   854  0294                     	;# 
   855  0295                     	;# 
   856  0295                     	;# 
   857  0296                     	;# 
   858  0298                     	;# 
   859  0298                     	;# 
   860  0299                     	;# 
   861  029A                     	;# 
   862  029B                     	;# 
   863  029C                     	;# 
   864  029C                     	;# 
   865  029D                     	;# 
   866  029E                     	;# 
   867  029E                     	;# 
   868  0311                     	;# 
   869  0311                     	;# 
   870  0312                     	;# 
   871  0313                     	;# 
   872  0318                     	;# 
   873  0318                     	;# 
   874  0319                     	;# 
   875  031A                     	;# 
   876  0394                     	;# 
   877  0395                     	;# 
   878  0396                     	;# 
   879  039A                     	;# 
   880  039C                     	;# 
   881  039D                     	;# 
   882  039E                     	;# 
   883  039F                     	;# 
   884  0415                     	;# 
   885  0416                     	;# 
   886  0417                     	;# 
   887  041C                     	;# 
   888  041D                     	;# 
   889  041E                     	;# 
   890  0FE4                     	;# 
   891  0FE5                     	;# 
   892  0FE6                     	;# 
   893  0FE7                     	;# 
   894  0FE8                     	;# 
   895  0FE9                     	;# 
   896  0FEA                     	;# 
   897  0FEB                     	;# 
   898  0FED                     	;# 
   899  0FEE                     	;# 
   900  0FEF                     	;# 
   901  0000                     	;# 
   902  0001                     	;# 
   903  0002                     	;# 
   904  0003                     	;# 
   905  0004                     	;# 
   906  0005                     	;# 
   907  0006                     	;# 
   908  0007                     	;# 
   909  0008                     	;# 
   910  0009                     	;# 
   911  000A                     	;# 
   912  000B                     	;# 
   913  000C                     	;# 
   914  000D                     	;# 
   915  0011                     	;# 
   916  0012                     	;# 
   917  0013                     	;# 
   918  0014                     	;# 
   919  0015                     	;# 
   920  0016                     	;# 
   921  0016                     	;# 
   922  0017                     	;# 
   923  0018                     	;# 
   924  0019                     	;# 
   925  001A                     	;# 
   926  001B                     	;# 
   927  001C                     	;# 
   928  001E                     	;# 
   929  001F                     	;# 
   930  008C                     	;# 
   931  008D                     	;# 
   932  0091                     	;# 
   933  0092                     	;# 
   934  0093                     	;# 
   935  0094                     	;# 
   936  0095                     	;# 
   937  0096                     	;# 
   938  0097                     	;# 
   939  0098                     	;# 
   940  0099                     	;# 
   941  009A                     	;# 
   942  009B                     	;# 
   943  009B                     	;# 
   944  009C                     	;# 
   945  009D                     	;# 
   946  009E                     	;# 
   947  010C                     	;# 
   948  010D                     	;# 
   949  0111                     	;# 
   950  0112                     	;# 
   951  0113                     	;# 
   952  0114                     	;# 
   953  0115                     	;# 
   954  0116                     	;# 
   955  0117                     	;# 
   956  0118                     	;# 
   957  0119                     	;# 
   958  011A                     	;# 
   959  011B                     	;# 
   960  011D                     	;# 
   961  011E                     	;# 
   962  018C                     	;# 
   963  018D                     	;# 
   964  0191                     	;# 
   965  0191                     	;# 
   966  0192                     	;# 
   967  0193                     	;# 
   968  0193                     	;# 
   969  0193                     	;# 
   970  0194                     	;# 
   971  0195                     	;# 
   972  0196                     	;# 
   973  0199                     	;# 
   974  019A                     	;# 
   975  019B                     	;# 
   976  019B                     	;# 
   977  019B                     	;# 
   978  019B                     	;# 
   979  019C                     	;# 
   980  019C                     	;# 
   981  019D                     	;# 
   982  019E                     	;# 
   983  019F                     	;# 
   984  020C                     	;# 
   985  020D                     	;# 
   986  0211                     	;# 
   987  0211                     	;# 
   988  0212                     	;# 
   989  0212                     	;# 
   990  0213                     	;# 
   991  0213                     	;# 
   992  0214                     	;# 
   993  0214                     	;# 
   994  0215                     	;# 
   995  0215                     	;# 
   996  0215                     	;# 
   997  0216                     	;# 
   998  0216                     	;# 
   999  0217                     	;# 
  1000  0217                     	;# 
  1001  0219                     	;# 
  1002  021A                     	;# 
  1003  021B                     	;# 
  1004  021C                     	;# 
  1005  021D                     	;# 
  1006  021E                     	;# 
  1007  021F                     	;# 
  1008  0291                     	;# 
  1009  0291                     	;# 
  1010  0292                     	;# 
  1011  0293                     	;# 
  1012  0294                     	;# 
  1013  0295                     	;# 
  1014  0295                     	;# 
  1015  0296                     	;# 
  1016  0298                     	;# 
  1017  0298                     	;# 
  1018  0299                     	;# 
  1019  029A                     	;# 
  1020  029B                     	;# 
  1021  029C                     	;# 
  1022  029C                     	;# 
  1023  029D                     	;# 
  1024  029E                     	;# 
  1025  029E                     	;# 
  1026  0311                     	;# 
  1027  0311                     	;# 
  1028  0312                     	;# 
  1029  0313                     	;# 
  1030  0318                     	;# 
  1031  0318                     	;# 
  1032  0319                     	;# 
  1033  031A                     	;# 
  1034  0394                     	;# 
  1035  0395                     	;# 
  1036  0396                     	;# 
  1037  039A                     	;# 
  1038  039C                     	;# 
  1039  039D                     	;# 
  1040  039E                     	;# 
  1041  039F                     	;# 
  1042  0415                     	;# 
  1043  0416                     	;# 
  1044  0417                     	;# 
  1045  041C                     	;# 
  1046  041D                     	;# 
  1047  041E                     	;# 
  1048  0FE4                     	;# 
  1049  0FE5                     	;# 
  1050  0FE6                     	;# 
  1051  0FE7                     	;# 
  1052  0FE8                     	;# 
  1053  0FE9                     	;# 
  1054  0FEA                     	;# 
  1055  0FEB                     	;# 
  1056  0FED                     	;# 
  1057  0FEE                     	;# 
  1058  0FEF                     	;# 
  1059  0000                     	;# 
  1060  0001                     	;# 
  1061  0002                     	;# 
  1062  0003                     	;# 
  1063  0004                     	;# 
  1064  0005                     	;# 
  1065  0006                     	;# 
  1066  0007                     	;# 
  1067  0008                     	;# 
  1068  0009                     	;# 
  1069  000A                     	;# 
  1070  000B                     	;# 
  1071  000C                     	;# 
  1072  000D                     	;# 
  1073  0011                     	;# 
  1074  0012                     	;# 
  1075  0013                     	;# 
  1076  0014                     	;# 
  1077  0015                     	;# 
  1078  0016                     	;# 
  1079  0016                     	;# 
  1080  0017                     	;# 
  1081  0018                     	;# 
  1082  0019                     	;# 
  1083  001A                     	;# 
  1084  001B                     	;# 
  1085  001C                     	;# 
  1086  001E                     	;# 
  1087  001F                     	;# 
  1088  008C                     	;# 
  1089  008D                     	;# 
  1090  0091                     	;# 
  1091  0092                     	;# 
  1092  0093                     	;# 
  1093  0094                     	;# 
  1094  0095                     	;# 
  1095  0096                     	;# 
  1096  0097                     	;# 
  1097  0098                     	;# 
  1098  0099                     	;# 
  1099  009A                     	;# 
  1100  009B                     	;# 
  1101  009B                     	;# 
  1102  009C                     	;# 
  1103  009D                     	;# 
  1104  009E                     	;# 
  1105  010C                     	;# 
  1106  010D                     	;# 
  1107  0111                     	;# 
  1108  0112                     	;# 
  1109  0113                     	;# 
  1110  0114                     	;# 
  1111  0115                     	;# 
  1112  0116                     	;# 
  1113  0117                     	;# 
  1114  0118                     	;# 
  1115  0119                     	;# 
  1116  011A                     	;# 
  1117  011B                     	;# 
  1118  011D                     	;# 
  1119  011E                     	;# 
  1120  018C                     	;# 
  1121  018D                     	;# 
  1122  0191                     	;# 
  1123  0191                     	;# 
  1124  0192                     	;# 
  1125  0193                     	;# 
  1126  0193                     	;# 
  1127  0193                     	;# 
  1128  0194                     	;# 
  1129  0195                     	;# 
  1130  0196                     	;# 
  1131  0199                     	;# 
  1132  019A                     	;# 
  1133  019B                     	;# 
  1134  019B                     	;# 
  1135  019B                     	;# 
  1136  019B                     	;# 
  1137  019C                     	;# 
  1138  019C                     	;# 
  1139  019D                     	;# 
  1140  019E                     	;# 
  1141  019F                     	;# 
  1142  020C                     	;# 
  1143  020D                     	;# 
  1144  0211                     	;# 
  1145  0211                     	;# 
  1146  0212                     	;# 
  1147  0212                     	;# 
  1148  0213                     	;# 
  1149  0213                     	;# 
  1150  0214                     	;# 
  1151  0214                     	;# 
  1152  0215                     	;# 
  1153  0215                     	;# 
  1154  0215                     	;# 
  1155  0216                     	;# 
  1156  0216                     	;# 
  1157  0217                     	;# 
  1158  0217                     	;# 
  1159  0219                     	;# 
  1160  021A                     	;# 
  1161  021B                     	;# 
  1162  021C                     	;# 
  1163  021D                     	;# 
  1164  021E                     	;# 
  1165  021F                     	;# 
  1166  0291                     	;# 
  1167  0291                     	;# 
  1168  0292                     	;# 
  1169  0293                     	;# 
  1170  0294                     	;# 
  1171  0295                     	;# 
  1172  0295                     	;# 
  1173  0296                     	;# 
  1174  0298                     	;# 
  1175  0298                     	;# 
  1176  0299                     	;# 
  1177  029A                     	;# 
  1178  029B                     	;# 
  1179  029C                     	;# 
  1180  029C                     	;# 
  1181  029D                     	;# 
  1182  029E                     	;# 
  1183  029E                     	;# 
  1184  0311                     	;# 
  1185  0311                     	;# 
  1186  0312                     	;# 
  1187  0313                     	;# 
  1188  0318                     	;# 
  1189  0318                     	;# 
  1190  0319                     	;# 
  1191  031A                     	;# 
  1192  0394                     	;# 
  1193  0395                     	;# 
  1194  0396                     	;# 
  1195  039A                     	;# 
  1196  039C                     	;# 
  1197  039D                     	;# 
  1198  039E                     	;# 
  1199  039F                     	;# 
  1200  0415                     	;# 
  1201  0416                     	;# 
  1202  0417                     	;# 
  1203  041C                     	;# 
  1204  041D                     	;# 
  1205  041E                     	;# 
  1206  0FE4                     	;# 
  1207  0FE5                     	;# 
  1208  0FE6                     	;# 
  1209  0FE7                     	;# 
  1210  0FE8                     	;# 
  1211  0FE9                     	;# 
  1212  0FEA                     	;# 
  1213  0FEB                     	;# 
  1214  0FED                     	;# 
  1215  0FEE                     	;# 
  1216  0FEF                     	;# 
  1217  0000                     	;# 
  1218  0001                     	;# 
  1219  0002                     	;# 
  1220  0003                     	;# 
  1221  0004                     	;# 
  1222  0005                     	;# 
  1223  0006                     	;# 
  1224  0007                     	;# 
  1225  0008                     	;# 
  1226  0009                     	;# 
  1227  000A                     	;# 
  1228  000B                     	;# 
  1229  000C                     	;# 
  1230  000D                     	;# 
  1231  0011                     	;# 
  1232  0012                     	;# 
  1233  0013                     	;# 
  1234  0014                     	;# 
  1235  0015                     	;# 
  1236  0016                     	;# 
  1237  0016                     	;# 
  1238  0017                     	;# 
  1239  0018                     	;# 
  1240  0019                     	;# 
  1241  001A                     	;# 
  1242  001B                     	;# 
  1243  001C                     	;# 
  1244  001E                     	;# 
  1245  001F                     	;# 
  1246  008C                     	;# 
  1247  008D                     	;# 
  1248  0091                     	;# 
  1249  0092                     	;# 
  1250  0093                     	;# 
  1251  0094                     	;# 
  1252  0095                     	;# 
  1253  0096                     	;# 
  1254  0097                     	;# 
  1255  0098                     	;# 
  1256  0099                     	;# 
  1257  009A                     	;# 
  1258  009B                     	;# 
  1259  009B                     	;# 
  1260  009C                     	;# 
  1261  009D                     	;# 
  1262  009E                     	;# 
  1263  010C                     	;# 
  1264  010D                     	;# 
  1265  0111                     	;# 
  1266  0112                     	;# 
  1267  0113                     	;# 
  1268  0114                     	;# 
  1269  0115                     	;# 
  1270  0116                     	;# 
  1271  0117                     	;# 
  1272  0118                     	;# 
  1273  0119                     	;# 
  1274  011A                     	;# 
  1275  011B                     	;# 
  1276  011D                     	;# 
  1277  011E                     	;# 
  1278  018C                     	;# 
  1279  018D                     	;# 
  1280  0191                     	;# 
  1281  0191                     	;# 
  1282  0192                     	;# 
  1283  0193                     	;# 
  1284  0193                     	;# 
  1285  0193                     	;# 
  1286  0194                     	;# 
  1287  0195                     	;# 
  1288  0196                     	;# 
  1289  0199                     	;# 
  1290  019A                     	;# 
  1291  019B                     	;# 
  1292  019B                     	;# 
  1293  019B                     	;# 
  1294  019B                     	;# 
  1295  019C                     	;# 
  1296  019C                     	;# 
  1297  019D                     	;# 
  1298  019E                     	;# 
  1299  019F                     	;# 
  1300  020C                     	;# 
  1301  020D                     	;# 
  1302  0211                     	;# 
  1303  0211                     	;# 
  1304  0212                     	;# 
  1305  0212                     	;# 
  1306  0213                     	;# 
  1307  0213                     	;# 
  1308  0214                     	;# 
  1309  0214                     	;# 
  1310  0215                     	;# 
  1311  0215                     	;# 
  1312  0215                     	;# 
  1313  0216                     	;# 
  1314  0216                     	;# 
  1315  0217                     	;# 
  1316  0217                     	;# 
  1317  0219                     	;# 
  1318  021A                     	;# 
  1319  021B                     	;# 
  1320  021C                     	;# 
  1321  021D                     	;# 
  1322  021E                     	;# 
  1323  021F                     	;# 
  1324  0291                     	;# 
  1325  0291                     	;# 
  1326  0292                     	;# 
  1327  0293                     	;# 
  1328  0294                     	;# 
  1329  0295                     	;# 
  1330  0295                     	;# 
  1331  0296                     	;# 
  1332  0298                     	;# 
  1333  0298                     	;# 
  1334  0299                     	;# 
  1335  029A                     	;# 
  1336  029B                     	;# 
  1337  029C                     	;# 
  1338  029C                     	;# 
  1339  029D                     	;# 
  1340  029E                     	;# 
  1341  029E                     	;# 
  1342  0311                     	;# 
  1343  0311                     	;# 
  1344  0312                     	;# 
  1345  0313                     	;# 
  1346  0318                     	;# 
  1347  0318                     	;# 
  1348  0319                     	;# 
  1349  031A                     	;# 
  1350  0394                     	;# 
  1351  0395                     	;# 
  1352  0396                     	;# 
  1353  039A                     	;# 
  1354  039C                     	;# 
  1355  039D                     	;# 
  1356  039E                     	;# 
  1357  039F                     	;# 
  1358  0415                     	;# 
  1359  0416                     	;# 
  1360  0417                     	;# 
  1361  041C                     	;# 
  1362  041D                     	;# 
  1363  041E                     	;# 
  1364  0FE4                     	;# 
  1365  0FE5                     	;# 
  1366  0FE6                     	;# 
  1367  0FE7                     	;# 
  1368  0FE8                     	;# 
  1369  0FE9                     	;# 
  1370  0FEA                     	;# 
  1371  0FEB                     	;# 
  1372  0FED                     	;# 
  1373  0FEE                     	;# 
  1374  0FEF                     	;# 
  1375  0000                     	;# 
  1376  0001                     	;# 
  1377  0002                     	;# 
  1378  0003                     	;# 
  1379  0004                     	;# 
  1380  0005                     	;# 
  1381  0006                     	;# 
  1382  0007                     	;# 
  1383  0008                     	;# 
  1384  0009                     	;# 
  1385  000A                     	;# 
  1386  000B                     	;# 
  1387  000C                     	;# 
  1388  000D                     	;# 
  1389  0011                     	;# 
  1390  0012                     	;# 
  1391  0013                     	;# 
  1392  0014                     	;# 
  1393  0015                     	;# 
  1394  0016                     	;# 
  1395  0016                     	;# 
  1396  0017                     	;# 
  1397  0018                     	;# 
  1398  0019                     	;# 
  1399  001A                     	;# 
  1400  001B                     	;# 
  1401  001C                     	;# 
  1402  001E                     	;# 
  1403  001F                     	;# 
  1404  008C                     	;# 
  1405  008D                     	;# 
  1406  0091                     	;# 
  1407  0092                     	;# 
  1408  0093                     	;# 
  1409  0094                     	;# 
  1410  0095                     	;# 
  1411  0096                     	;# 
  1412  0097                     	;# 
  1413  0098                     	;# 
  1414  0099                     	;# 
  1415  009A                     	;# 
  1416  009B                     	;# 
  1417  009B                     	;# 
  1418  009C                     	;# 
  1419  009D                     	;# 
  1420  009E                     	;# 
  1421  010C                     	;# 
  1422  010D                     	;# 
  1423  0111                     	;# 
  1424  0112                     	;# 
  1425  0113                     	;# 
  1426  0114                     	;# 
  1427  0115                     	;# 
  1428  0116                     	;# 
  1429  0117                     	;# 
  1430  0118                     	;# 
  1431  0119                     	;# 
  1432  011A                     	;# 
  1433  011B                     	;# 
  1434  011D                     	;# 
  1435  011E                     	;# 
  1436  018C                     	;# 
  1437  018D                     	;# 
  1438  0191                     	;# 
  1439  0191                     	;# 
  1440  0192                     	;# 
  1441  0193                     	;# 
  1442  0193                     	;# 
  1443  0193                     	;# 
  1444  0194                     	;# 
  1445  0195                     	;# 
  1446  0196                     	;# 
  1447  0199                     	;# 
  1448  019A                     	;# 
  1449  019B                     	;# 
  1450  019B                     	;# 
  1451  019B                     	;# 
  1452  019B                     	;# 
  1453  019C                     	;# 
  1454  019C                     	;# 
  1455  019D                     	;# 
  1456  019E                     	;# 
  1457  019F                     	;# 
  1458  020C                     	;# 
  1459  020D                     	;# 
  1460  0211                     	;# 
  1461  0211                     	;# 
  1462  0212                     	;# 
  1463  0212                     	;# 
  1464  0213                     	;# 
  1465  0213                     	;# 
  1466  0214                     	;# 
  1467  0214                     	;# 
  1468  0215                     	;# 
  1469  0215                     	;# 
  1470  0215                     	;# 
  1471  0216                     	;# 
  1472  0216                     	;# 
  1473  0217                     	;# 
  1474  0217                     	;# 
  1475  0219                     	;# 
  1476  021A                     	;# 
  1477  021B                     	;# 
  1478  021C                     	;# 
  1479  021D                     	;# 
  1480  021E                     	;# 
  1481  021F                     	;# 
  1482  0291                     	;# 
  1483  0291                     	;# 
  1484  0292                     	;# 
  1485  0293                     	;# 
  1486  0294                     	;# 
  1487  0295                     	;# 
  1488  0295                     	;# 
  1489  0296                     	;# 
  1490  0298                     	;# 
  1491  0298                     	;# 
  1492  0299                     	;# 
  1493  029A                     	;# 
  1494  029B                     	;# 
  1495  029C                     	;# 
  1496  029C                     	;# 
  1497  029D                     	;# 
  1498  029E                     	;# 
  1499  029E                     	;# 
  1500  0311                     	;# 
  1501  0311                     	;# 
  1502  0312                     	;# 
  1503  0313                     	;# 
  1504  0318                     	;# 
  1505  0318                     	;# 
  1506  0319                     	;# 
  1507  031A                     	;# 
  1508  0394                     	;# 
  1509  0395                     	;# 
  1510  0396                     	;# 
  1511  039A                     	;# 
  1512  039C                     	;# 
  1513  039D                     	;# 
  1514  039E                     	;# 
  1515  039F                     	;# 
  1516  0415                     	;# 
  1517  0416                     	;# 
  1518  0417                     	;# 
  1519  041C                     	;# 
  1520  041D                     	;# 
  1521  041E                     	;# 
  1522  0FE4                     	;# 
  1523  0FE5                     	;# 
  1524  0FE6                     	;# 
  1525  0FE7                     	;# 
  1526  0FE8                     	;# 
  1527  0FE9                     	;# 
  1528  0FEA                     	;# 
  1529  0FEB                     	;# 
  1530  0FED                     	;# 
  1531  0FEE                     	;# 
  1532  0FEF                     	;# 
  1533  0000                     	;# 
  1534  0001                     	;# 
  1535  0002                     	;# 
  1536  0003                     	;# 
  1537  0004                     	;# 
  1538  0005                     	;# 
  1539  0006                     	;# 
  1540  0007                     	;# 
  1541  0008                     	;# 
  1542  0009                     	;# 
  1543  000A                     	;# 
  1544  000B                     	;# 
  1545  000C                     	;# 
  1546  000D                     	;# 
  1547  0011                     	;# 
  1548  0012                     	;# 
  1549  0013                     	;# 
  1550  0014                     	;# 
  1551  0015                     	;# 
  1552  0016                     	;# 
  1553  0016                     	;# 
  1554  0017                     	;# 
  1555  0018                     	;# 
  1556  0019                     	;# 
  1557  001A                     	;# 
  1558  001B                     	;# 
  1559  001C                     	;# 
  1560  001E                     	;# 
  1561  001F                     	;# 
  1562  008C                     	;# 
  1563  008D                     	;# 
  1564  0091                     	;# 
  1565  0092                     	;# 
  1566  0093                     	;# 
  1567  0094                     	;# 
  1568  0095                     	;# 
  1569  0096                     	;# 
  1570  0097                     	;# 
  1571  0098                     	;# 
  1572  0099                     	;# 
  1573  009A                     	;# 
  1574  009B                     	;# 
  1575  009B                     	;# 
  1576  009C                     	;# 
  1577  009D                     	;# 
  1578  009E                     	;# 
  1579  010C                     	;# 
  1580  010D                     	;# 
  1581  0111                     	;# 
  1582  0112                     	;# 
  1583  0113                     	;# 
  1584  0114                     	;# 
  1585  0115                     	;# 
  1586  0116                     	;# 
  1587  0117                     	;# 
  1588  0118                     	;# 
  1589  0119                     	;# 
  1590  011A                     	;# 
  1591  011B                     	;# 
  1592  011D                     	;# 
  1593  011E                     	;# 
  1594  018C                     	;# 
  1595  018D                     	;# 
  1596  0191                     	;# 
  1597  0191                     	;# 
  1598  0192                     	;# 
  1599  0193                     	;# 
  1600  0193                     	;# 
  1601  0193                     	;# 
  1602  0194                     	;# 
  1603  0195                     	;# 
  1604  0196                     	;# 
  1605  0199                     	;# 
  1606  019A                     	;# 
  1607  019B                     	;# 
  1608  019B                     	;# 
  1609  019B                     	;# 
  1610  019B                     	;# 
  1611  019C                     	;# 
  1612  019C                     	;# 
  1613  019D                     	;# 
  1614  019E                     	;# 
  1615  019F                     	;# 
  1616  020C                     	;# 
  1617  020D                     	;# 
  1618  0211                     	;# 
  1619  0211                     	;# 
  1620  0212                     	;# 
  1621  0212                     	;# 
  1622  0213                     	;# 
  1623  0213                     	;# 
  1624  0214                     	;# 
  1625  0214                     	;# 
  1626  0215                     	;# 
  1627  0215                     	;# 
  1628  0215                     	;# 
  1629  0216                     	;# 
  1630  0216                     	;# 
  1631  0217                     	;# 
  1632  0217                     	;# 
  1633  0219                     	;# 
  1634  021A                     	;# 
  1635  021B                     	;# 
  1636  021C                     	;# 
  1637  021D                     	;# 
  1638  021E                     	;# 
  1639  021F                     	;# 
  1640  0291                     	;# 
  1641  0291                     	;# 
  1642  0292                     	;# 
  1643  0293                     	;# 
  1644  0294                     	;# 
  1645  0295                     	;# 
  1646  0295                     	;# 
  1647  0296                     	;# 
  1648  0298                     	;# 
  1649  0298                     	;# 
  1650  0299                     	;# 
  1651  029A                     	;# 
  1652  029B                     	;# 
  1653  029C                     	;# 
  1654  029C                     	;# 
  1655  029D                     	;# 
  1656  029E                     	;# 
  1657  029E                     	;# 
  1658  0311                     	;# 
  1659  0311                     	;# 
  1660  0312                     	;# 
  1661  0313                     	;# 
  1662  0318                     	;# 
  1663  0318                     	;# 
  1664  0319                     	;# 
  1665  031A                     	;# 
  1666  0394                     	;# 
  1667  0395                     	;# 
  1668  0396                     	;# 
  1669  039A                     	;# 
  1670  039C                     	;# 
  1671  039D                     	;# 
  1672  039E                     	;# 
  1673  039F                     	;# 
  1674  0415                     	;# 
  1675  0416                     	;# 
  1676  0417                     	;# 
  1677  041C                     	;# 
  1678  041D                     	;# 
  1679  041E                     	;# 
  1680  0FE4                     	;# 
  1681  0FE5                     	;# 
  1682  0FE6                     	;# 
  1683  0FE7                     	;# 
  1684  0FE8                     	;# 
  1685  0FE9                     	;# 
  1686  0FEA                     	;# 
  1687  0FEB                     	;# 
  1688  0FED                     	;# 
  1689  0FEE                     	;# 
  1690  0FEF                     	;# 
  1691  0000                     	;# 
  1692  0001                     	;# 
  1693  0002                     	;# 
  1694  0003                     	;# 
  1695  0004                     	;# 
  1696  0005                     	;# 
  1697  0006                     	;# 
  1698  0007                     	;# 
  1699  0008                     	;# 
  1700  0009                     	;# 
  1701  000A                     	;# 
  1702  000B                     	;# 
  1703  000C                     	;# 
  1704  000D                     	;# 
  1705  0011                     	;# 
  1706  0012                     	;# 
  1707  0013                     	;# 
  1708  0014                     	;# 
  1709  0015                     	;# 
  1710  0016                     	;# 
  1711  0016                     	;# 
  1712  0017                     	;# 
  1713  0018                     	;# 
  1714  0019                     	;# 
  1715  001A                     	;# 
  1716  001B                     	;# 
  1717  001C                     	;# 
  1718  001E                     	;# 
  1719  001F                     	;# 
  1720  008C                     	;# 
  1721  008D                     	;# 
  1722  0091                     	;# 
  1723  0092                     	;# 
  1724  0093                     	;# 
  1725  0094                     	;# 
  1726  0095                     	;# 
  1727  0096                     	;# 
  1728  0097                     	;# 
  1729  0098                     	;# 
  1730  0099                     	;# 
  1731  009A                     	;# 
  1732  009B                     	;# 
  1733  009B                     	;# 
  1734  009C                     	;# 
  1735  009D                     	;# 
  1736  009E                     	;# 
  1737  010C                     	;# 
  1738  010D                     	;# 
  1739  0111                     	;# 
  1740  0112                     	;# 
  1741  0113                     	;# 
  1742  0114                     	;# 
  1743  0115                     	;# 
  1744  0116                     	;# 
  1745  0117                     	;# 
  1746  0118                     	;# 
  1747  0119                     	;# 
  1748  011A                     	;# 
  1749  011B                     	;# 
  1750  011D                     	;# 
  1751  011E                     	;# 
  1752  018C                     	;# 
  1753  018D                     	;# 
  1754  0191                     	;# 
  1755  0191                     	;# 
  1756  0192                     	;# 
  1757  0193                     	;# 
  1758  0193                     	;# 
  1759  0193                     	;# 
  1760  0194                     	;# 
  1761  0195                     	;# 
  1762  0196                     	;# 
  1763  0199                     	;# 
  1764  019A                     	;# 
  1765  019B                     	;# 
  1766  019B                     	;# 
  1767  019B                     	;# 
  1768  019B                     	;# 
  1769  019C                     	;# 
  1770  019C                     	;# 
  1771  019D                     	;# 
  1772  019E                     	;# 
  1773  019F                     	;# 
  1774  020C                     	;# 
  1775  020D                     	;# 
  1776  0211                     	;# 
  1777  0211                     	;# 
  1778  0212                     	;# 
  1779  0212                     	;# 
  1780  0213                     	;# 
  1781  0213                     	;# 
  1782  0214                     	;# 
  1783  0214                     	;# 
  1784  0215                     	;# 
  1785  0215                     	;# 
  1786  0215                     	;# 
  1787  0216                     	;# 
  1788  0216                     	;# 
  1789  0217                     	;# 
  1790  0217                     	;# 
  1791  0219                     	;# 
  1792  021A                     	;# 
  1793  021B                     	;# 
  1794  021C                     	;# 
  1795  021D                     	;# 
  1796  021E                     	;# 
  1797  021F                     	;# 
  1798  0291                     	;# 
  1799  0291                     	;# 
  1800  0292                     	;# 
  1801  0293                     	;# 
  1802  0294                     	;# 
  1803  0295                     	;# 
  1804  0295                     	;# 
  1805  0296                     	;# 
  1806  0298                     	;# 
  1807  0298                     	;# 
  1808  0299                     	;# 
  1809  029A                     	;# 
  1810  029B                     	;# 
  1811  029C                     	;# 
  1812  029C                     	;# 
  1813  029D                     	;# 
  1814  029E                     	;# 
  1815  029E                     	;# 
  1816  0311                     	;# 
  1817  0311                     	;# 
  1818  0312                     	;# 
  1819  0313                     	;# 
  1820  0318                     	;# 
  1821  0318                     	;# 
  1822  0319                     	;# 
  1823  031A                     	;# 
  1824  0394                     	;# 
  1825  0395                     	;# 
  1826  0396                     	;# 
  1827  039A                     	;# 
  1828  039C                     	;# 
  1829  039D                     	;# 
  1830  039E                     	;# 
  1831  039F                     	;# 
  1832  0415                     	;# 
  1833  0416                     	;# 
  1834  0417                     	;# 
  1835  041C                     	;# 
  1836  041D                     	;# 
  1837  041E                     	;# 
  1838  0FE4                     	;# 
  1839  0FE5                     	;# 
  1840  0FE6                     	;# 
  1841  0FE7                     	;# 
  1842  0FE8                     	;# 
  1843  0FE9                     	;# 
  1844  0FEA                     	;# 
  1845  0FEB                     	;# 
  1846  0FED                     	;# 
  1847  0FEE                     	;# 
  1848  0FEF                     	;# 
  1849  0000                     	;# 
  1850  0001                     	;# 
  1851  0002                     	;# 
  1852  0003                     	;# 
  1853  0004                     	;# 
  1854  0005                     	;# 
  1855  0006                     	;# 
  1856  0007                     	;# 
  1857  0008                     	;# 
  1858  0009                     	;# 
  1859  000A                     	;# 
  1860  000B                     	;# 
  1861  000C                     	;# 
  1862  000D                     	;# 
  1863  0011                     	;# 
  1864  0012                     	;# 
  1865  0013                     	;# 
  1866  0014                     	;# 
  1867  0015                     	;# 
  1868  0016                     	;# 
  1869  0016                     	;# 
  1870  0017                     	;# 
  1871  0018                     	;# 
  1872  0019                     	;# 
  1873  001A                     	;# 
  1874  001B                     	;# 
  1875  001C                     	;# 
  1876  001E                     	;# 
  1877  001F                     	;# 
  1878  008C                     	;# 
  1879  008D                     	;# 
  1880  0091                     	;# 
  1881  0092                     	;# 
  1882  0093                     	;# 
  1883  0094                     	;# 
  1884  0095                     	;# 
  1885  0096                     	;# 
  1886  0097                     	;# 
  1887  0098                     	;# 
  1888  0099                     	;# 
  1889  009A                     	;# 
  1890  009B                     	;# 
  1891  009B                     	;# 
  1892  009C                     	;# 
  1893  009D                     	;# 
  1894  009E                     	;# 
  1895  010C                     	;# 
  1896  010D                     	;# 
  1897  0111                     	;# 
  1898  0112                     	;# 
  1899  0113                     	;# 
  1900  0114                     	;# 
  1901  0115                     	;# 
  1902  0116                     	;# 
  1903  0117                     	;# 
  1904  0118                     	;# 
  1905  0119                     	;# 
  1906  011A                     	;# 
  1907  011B                     	;# 
  1908  011D                     	;# 
  1909  011E                     	;# 
  1910  018C                     	;# 
  1911  018D                     	;# 
  1912  0191                     	;# 
  1913  0191                     	;# 
  1914  0192                     	;# 
  1915  0193                     	;# 
  1916  0193                     	;# 
  1917  0193                     	;# 
  1918  0194                     	;# 
  1919  0195                     	;# 
  1920  0196                     	;# 
  1921  0199                     	;# 
  1922  019A                     	;# 
  1923  019B                     	;# 
  1924  019B                     	;# 
  1925  019B                     	;# 
  1926  019B                     	;# 
  1927  019C                     	;# 
  1928  019C                     	;# 
  1929  019D                     	;# 
  1930  019E                     	;# 
  1931  019F                     	;# 
  1932  020C                     	;# 
  1933  020D                     	;# 
  1934  0211                     	;# 
  1935  0211                     	;# 
  1936  0212                     	;# 
  1937  0212                     	;# 
  1938  0213                     	;# 
  1939  0213                     	;# 
  1940  0214                     	;# 
  1941  0214                     	;# 
  1942  0215                     	;# 
  1943  0215                     	;# 
  1944  0215                     	;# 
  1945  0216                     	;# 
  1946  0216                     	;# 
  1947  0217                     	;# 
  1948  0217                     	;# 
  1949  0219                     	;# 
  1950  021A                     	;# 
  1951  021B                     	;# 
  1952  021C                     	;# 
  1953  021D                     	;# 
  1954  021E                     	;# 
  1955  021F                     	;# 
  1956  0291                     	;# 
  1957  0291                     	;# 
  1958  0292                     	;# 
  1959  0293                     	;# 
  1960  0294                     	;# 
  1961  0295                     	;# 
  1962  0295                     	;# 
  1963  0296                     	;# 
  1964  0298                     	;# 
  1965  0298                     	;# 
  1966  0299                     	;# 
  1967  029A                     	;# 
  1968  029B                     	;# 
  1969  029C                     	;# 
  1970  029C                     	;# 
  1971  029D                     	;# 
  1972  029E                     	;# 
  1973  029E                     	;# 
  1974  0311                     	;# 
  1975  0311                     	;# 
  1976  0312                     	;# 
  1977  0313                     	;# 
  1978  0318                     	;# 
  1979  0318                     	;# 
  1980  0319                     	;# 
  1981  031A                     	;# 
  1982  0394                     	;# 
  1983  0395                     	;# 
  1984  0396                     	;# 
  1985  039A                     	;# 
  1986  039C                     	;# 
  1987  039D                     	;# 
  1988  039E                     	;# 
  1989  039F                     	;# 
  1990  0415                     	;# 
  1991  0416                     	;# 
  1992  0417                     	;# 
  1993  041C                     	;# 
  1994  041D                     	;# 
  1995  041E                     	;# 
  1996  0FE4                     	;# 
  1997  0FE5                     	;# 
  1998  0FE6                     	;# 
  1999  0FE7                     	;# 
  2000  0FE8                     	;# 
  2001  0FE9                     	;# 
  2002  0FEA                     	;# 
  2003  0FEB                     	;# 
  2004  0FED                     	;# 
  2005  0FEE                     	;# 
  2006  0FEF                     	;# 
  2007  0000                     	;# 
  2008  0001                     	;# 
  2009  0002                     	;# 
  2010  0003                     	;# 
  2011  0004                     	;# 
  2012  0005                     	;# 
  2013  0006                     	;# 
  2014  0007                     	;# 
  2015  0008                     	;# 
  2016  0009                     	;# 
  2017  000A                     	;# 
  2018  000B                     	;# 
  2019  000C                     	;# 
  2020  000D                     	;# 
  2021  0011                     	;# 
  2022  0012                     	;# 
  2023  0013                     	;# 
  2024  0014                     	;# 
  2025  0015                     	;# 
  2026  0016                     	;# 
  2027  0016                     	;# 
  2028  0017                     	;# 
  2029  0018                     	;# 
  2030  0019                     	;# 
  2031  001A                     	;# 
  2032  001B                     	;# 
  2033  001C                     	;# 
  2034  001E                     	;# 
  2035  001F                     	;# 
  2036  008C                     	;# 
  2037  008D                     	;# 
  2038  0091                     	;# 
  2039  0092                     	;# 
  2040  0093                     	;# 
  2041  0094                     	;# 
  2042  0095                     	;# 
  2043  0096                     	;# 
  2044  0097                     	;# 
  2045  0098                     	;# 
  2046  0099                     	;# 
  2047  009A                     	;# 
  2048  009B                     	;# 
  2049  009B                     	;# 
  2050  009C                     	;# 
  2051  009D                     	;# 
  2052  009E                     	;# 
  2053  010C                     	;# 
  2054  010D                     	;# 
  2055  0111                     	;# 
  2056  0112                     	;# 
  2057  0113                     	;# 
  2058  0114                     	;# 
  2059  0115                     	;# 
  2060  0116                     	;# 
  2061  0117                     	;# 
  2062  0118                     	;# 
  2063  0119                     	;# 
  2064  011A                     	;# 
  2065  011B                     	;# 
  2066  011D                     	;# 
  2067  011E                     	;# 
  2068  018C                     	;# 
  2069  018D                     	;# 
  2070  0191                     	;# 
  2071  0191                     	;# 
  2072  0192                     	;# 
  2073  0193                     	;# 
  2074  0193                     	;# 
  2075  0193                     	;# 
  2076  0194                     	;# 
  2077  0195                     	;# 
  2078  0196                     	;# 
  2079  0199                     	;# 
  2080  019A                     	;# 
  2081  019B                     	;# 
  2082  019B                     	;# 
  2083  019B                     	;# 
  2084  019B                     	;# 
  2085  019C                     	;# 
  2086  019C                     	;# 
  2087  019D                     	;# 
  2088  019E                     	;# 
  2089  019F                     	;# 
  2090  020C                     	;# 
  2091  020D                     	;# 
  2092  0211                     	;# 
  2093  0211                     	;# 
  2094  0212                     	;# 
  2095  0212                     	;# 
  2096  0213                     	;# 
  2097  0213                     	;# 
  2098  0214                     	;# 
  2099  0214                     	;# 
  2100  0215                     	;# 
  2101  0215                     	;# 
  2102  0215                     	;# 
  2103  0216                     	;# 
  2104  0216                     	;# 
  2105  0217                     	;# 
  2106  0217                     	;# 
  2107  0219                     	;# 
  2108  021A                     	;# 
  2109  021B                     	;# 
  2110  021C                     	;# 
  2111  021D                     	;# 
  2112  021E                     	;# 
  2113  021F                     	;# 
  2114  0291                     	;# 
  2115  0291                     	;# 
  2116  0292                     	;# 
  2117  0293                     	;# 
  2118  0294                     	;# 
  2119  0295                     	;# 
  2120  0295                     	;# 
  2121  0296                     	;# 
  2122  0298                     	;# 
  2123  0298                     	;# 
  2124  0299                     	;# 
  2125  029A                     	;# 
  2126  029B                     	;# 
  2127  029C                     	;# 
  2128  029C                     	;# 
  2129  029D                     	;# 
  2130  029E                     	;# 
  2131  029E                     	;# 
  2132  0311                     	;# 
  2133  0311                     	;# 
  2134  0312                     	;# 
  2135  0313                     	;# 
  2136  0318                     	;# 
  2137  0318                     	;# 
  2138  0319                     	;# 
  2139  031A                     	;# 
  2140  0394                     	;# 
  2141  0395                     	;# 
  2142  0396                     	;# 
  2143  039A                     	;# 
  2144  039C                     	;# 
  2145  039D                     	;# 
  2146  039E                     	;# 
  2147  039F                     	;# 
  2148  0415                     	;# 
  2149  0416                     	;# 
  2150  0417                     	;# 
  2151  041C                     	;# 
  2152  041D                     	;# 
  2153  041E                     	;# 
  2154  0FE4                     	;# 
  2155  0FE5                     	;# 
  2156  0FE6                     	;# 
  2157  0FE7                     	;# 
  2158  0FE8                     	;# 
  2159  0FE9                     	;# 
  2160  0FEA                     	;# 
  2161  0FEB                     	;# 
  2162  0FED                     	;# 
  2163  0FEE                     	;# 
  2164  0FEF                     	;# 
  2165  0000                     	;# 
  2166  0001                     	;# 
  2167  0002                     	;# 
  2168  0003                     	;# 
  2169  0004                     	;# 
  2170  0005                     	;# 
  2171  0006                     	;# 
  2172  0007                     	;# 
  2173  0008                     	;# 
  2174  0009                     	;# 
  2175  000A                     	;# 
  2176  000B                     	;# 
  2177  000C                     	;# 
  2178  000D                     	;# 
  2179  0011                     	;# 
  2180  0012                     	;# 
  2181  0013                     	;# 
  2182  0014                     	;# 
  2183  0015                     	;# 
  2184  0016                     	;# 
  2185  0016                     	;# 
  2186  0017                     	;# 
  2187  0018                     	;# 
  2188  0019                     	;# 
  2189  001A                     	;# 
  2190  001B                     	;# 
  2191  001C                     	;# 
  2192  001E                     	;# 
  2193  001F                     	;# 
  2194  008C                     	;# 
  2195  008D                     	;# 
  2196  0091                     	;# 
  2197  0092                     	;# 
  2198  0093                     	;# 
  2199  0094                     	;# 
  2200  0095                     	;# 
  2201  0096                     	;# 
  2202  0097                     	;# 
  2203  0098                     	;# 
  2204  0099                     	;# 
  2205  009A                     	;# 
  2206  009B                     	;# 
  2207  009B                     	;# 
  2208  009C                     	;# 
  2209  009D                     	;# 
  2210  009E                     	;# 
  2211  010C                     	;# 
  2212  010D                     	;# 
  2213  0111                     	;# 
  2214  0112                     	;# 
  2215  0113                     	;# 
  2216  0114                     	;# 
  2217  0115                     	;# 
  2218  0116                     	;# 
  2219  0117                     	;# 
  2220  0118                     	;# 
  2221  0119                     	;# 
  2222  011A                     	;# 
  2223  011B                     	;# 
  2224  011D                     	;# 
  2225  011E                     	;# 
  2226  018C                     	;# 
  2227  018D                     	;# 
  2228  0191                     	;# 
  2229  0191                     	;# 
  2230  0192                     	;# 
  2231  0193                     	;# 
  2232  0193                     	;# 
  2233  0193                     	;# 
  2234  0194                     	;# 
  2235  0195                     	;# 
  2236  0196                     	;# 
  2237  0199                     	;# 
  2238  019A                     	;# 
  2239  019B                     	;# 
  2240  019B                     	;# 
  2241  019B                     	;# 
  2242  019B                     	;# 
  2243  019C                     	;# 
  2244  019C                     	;# 
  2245  019D                     	;# 
  2246  019E                     	;# 
  2247  019F                     	;# 
  2248  020C                     	;# 
  2249  020D                     	;# 
  2250  0211                     	;# 
  2251  0211                     	;# 
  2252  0212                     	;# 
  2253  0212                     	;# 
  2254  0213                     	;# 
  2255  0213                     	;# 
  2256  0214                     	;# 
  2257  0214                     	;# 
  2258  0215                     	;# 
  2259  0215                     	;# 
  2260  0215                     	;# 
  2261  0216                     	;# 
  2262  0216                     	;# 
  2263  0217                     	;# 
  2264  0217                     	;# 
  2265  0219                     	;# 
  2266  021A                     	;# 
  2267  021B                     	;# 
  2268  021C                     	;# 
  2269  021D                     	;# 
  2270  021E                     	;# 
  2271  021F                     	;# 
  2272  0291                     	;# 
  2273  0291                     	;# 
  2274  0292                     	;# 
  2275  0293                     	;# 
  2276  0294                     	;# 
  2277  0295                     	;# 
  2278  0295                     	;# 
  2279  0296                     	;# 
  2280  0298                     	;# 
  2281  0298                     	;# 
  2282  0299                     	;# 
  2283  029A                     	;# 
  2284  029B                     	;# 
  2285  029C                     	;# 
  2286  029C                     	;# 
  2287  029D                     	;# 
  2288  029E                     	;# 
  2289  029E                     	;# 
  2290  0311                     	;# 
  2291  0311                     	;# 
  2292  0312                     	;# 
  2293  0313                     	;# 
  2294  0318                     	;# 
  2295  0318                     	;# 
  2296  0319                     	;# 
  2297  031A                     	;# 
  2298  0394                     	;# 
  2299  0395                     	;# 
  2300  0396                     	;# 
  2301  039A                     	;# 
  2302  039C                     	;# 
  2303  039D                     	;# 
  2304  039E                     	;# 
  2305  039F                     	;# 
  2306  0415                     	;# 
  2307  0416                     	;# 
  2308  0417                     	;# 
  2309  041C                     	;# 
  2310  041D                     	;# 
  2311  041E                     	;# 
  2312  0FE4                     	;# 
  2313  0FE5                     	;# 
  2314  0FE6                     	;# 
  2315  0FE7                     	;# 
  2316  0FE8                     	;# 
  2317  0FE9                     	;# 
  2318  0FEA                     	;# 
  2319  0FEB                     	;# 
  2320  0FED                     	;# 
  2321  0FEE                     	;# 
  2322  0FEF                     	;# 
  2323  0000                     	;# 
  2324  0001                     	;# 
  2325  0002                     	;# 
  2326  0003                     	;# 
  2327  0004                     	;# 
  2328  0005                     	;# 
  2329  0006                     	;# 
  2330  0007                     	;# 
  2331  0008                     	;# 
  2332  0009                     	;# 
  2333  000A                     	;# 
  2334  000B                     	;# 
  2335  000C                     	;# 
  2336  000D                     	;# 
  2337  0011                     	;# 
  2338  0012                     	;# 
  2339  0013                     	;# 
  2340  0014                     	;# 
  2341  0015                     	;# 
  2342  0016                     	;# 
  2343  0016                     	;# 
  2344  0017                     	;# 
  2345  0018                     	;# 
  2346  0019                     	;# 
  2347  001A                     	;# 
  2348  001B                     	;# 
  2349  001C                     	;# 
  2350  001E                     	;# 
  2351  001F                     	;# 
  2352  008C                     	;# 
  2353  008D                     	;# 
  2354  0091                     	;# 
  2355  0092                     	;# 
  2356  0093                     	;# 
  2357  0094                     	;# 
  2358  0095                     	;# 
  2359  0096                     	;# 
  2360  0097                     	;# 
  2361  0098                     	;# 
  2362  0099                     	;# 
  2363  009A                     	;# 
  2364  009B                     	;# 
  2365  009B                     	;# 
  2366  009C                     	;# 
  2367  009D                     	;# 
  2368  009E                     	;# 
  2369  010C                     	;# 
  2370  010D                     	;# 
  2371  0111                     	;# 
  2372  0112                     	;# 
  2373  0113                     	;# 
  2374  0114                     	;# 
  2375  0115                     	;# 
  2376  0116                     	;# 
  2377  0117                     	;# 
  2378  0118                     	;# 
  2379  0119                     	;# 
  2380  011A                     	;# 
  2381  011B                     	;# 
  2382  011D                     	;# 
  2383  011E                     	;# 
  2384  018C                     	;# 
  2385  018D                     	;# 
  2386  0191                     	;# 
  2387  0191                     	;# 
  2388  0192                     	;# 
  2389  0193                     	;# 
  2390  0193                     	;# 
  2391  0193                     	;# 
  2392  0194                     	;# 
  2393  0195                     	;# 
  2394  0196                     	;# 
  2395  0199                     	;# 
  2396  019A                     	;# 
  2397  019B                     	;# 
  2398  019B                     	;# 
  2399  019B                     	;# 
  2400  019B                     	;# 
  2401  019C                     	;# 
  2402  019C                     	;# 
  2403  019D                     	;# 
  2404  019E                     	;# 
  2405  019F                     	;# 
  2406  020C                     	;# 
  2407  020D                     	;# 
  2408  0211                     	;# 
  2409  0211                     	;# 
  2410  0212                     	;# 
  2411  0212                     	;# 
  2412  0213                     	;# 
  2413  0213                     	;# 
  2414  0214                     	;# 
  2415  0214                     	;# 
  2416  0215                     	;# 
  2417  0215                     	;# 
  2418  0215                     	;# 
  2419  0216                     	;# 
  2420  0216                     	;# 
  2421  0217                     	;# 
  2422  0217                     	;# 
  2423  0219                     	;# 
  2424  021A                     	;# 
  2425  021B                     	;# 
  2426  021C                     	;# 
  2427  021D                     	;# 
  2428  021E                     	;# 
  2429  021F                     	;# 
  2430  0291                     	;# 
  2431  0291                     	;# 
  2432  0292                     	;# 
  2433  0293                     	;# 
  2434  0294                     	;# 
  2435  0295                     	;# 
  2436  0295                     	;# 
  2437  0296                     	;# 
  2438  0298                     	;# 
  2439  0298                     	;# 
  2440  0299                     	;# 
  2441  029A                     	;# 
  2442  029B                     	;# 
  2443  029C                     	;# 
  2444  029C                     	;# 
  2445  029D                     	;# 
  2446  029E                     	;# 
  2447  029E                     	;# 
  2448  0311                     	;# 
  2449  0311                     	;# 
  2450  0312                     	;# 
  2451  0313                     	;# 
  2452  0318                     	;# 
  2453  0318                     	;# 
  2454  0319                     	;# 
  2455  031A                     	;# 
  2456  0394                     	;# 
  2457  0395                     	;# 
  2458  0396                     	;# 
  2459  039A                     	;# 
  2460  039C                     	;# 
  2461  039D                     	;# 
  2462  039E                     	;# 
  2463  039F                     	;# 
  2464  0415                     	;# 
  2465  0416                     	;# 
  2466  0417                     	;# 
  2467  041C                     	;# 
  2468  041D                     	;# 
  2469  041E                     	;# 
  2470  0FE4                     	;# 
  2471  0FE5                     	;# 
  2472  0FE6                     	;# 
  2473  0FE7                     	;# 
  2474  0FE8                     	;# 
  2475  0FE9                     	;# 
  2476  0FEA                     	;# 
  2477  0FEB                     	;# 
  2478  0FED                     	;# 
  2479  0FEE                     	;# 
  2480  0FEF                     	;# 
  2481  0000                     	;# 
  2482  0001                     	;# 
  2483  0002                     	;# 
  2484  0003                     	;# 
  2485  0004                     	;# 
  2486  0005                     	;# 
  2487  0006                     	;# 
  2488  0007                     	;# 
  2489  0008                     	;# 
  2490  0009                     	;# 
  2491  000A                     	;# 
  2492  000B                     	;# 
  2493  000C                     	;# 
  2494  000D                     	;# 
  2495  0011                     	;# 
  2496  0012                     	;# 
  2497  0013                     	;# 
  2498  0014                     	;# 
  2499  0015                     	;# 
  2500  0016                     	;# 
  2501  0016                     	;# 
  2502  0017                     	;# 
  2503  0018                     	;# 
  2504  0019                     	;# 
  2505  001A                     	;# 
  2506  001B                     	;# 
  2507  001C                     	;# 
  2508  001E                     	;# 
  2509  001F                     	;# 
  2510  008C                     	;# 
  2511  008D                     	;# 
  2512  0091                     	;# 
  2513  0092                     	;# 
  2514  0093                     	;# 
  2515  0094                     	;# 
  2516  0095                     	;# 
  2517  0096                     	;# 
  2518  0097                     	;# 
  2519  0098                     	;# 
  2520  0099                     	;# 
  2521  009A                     	;# 
  2522  009B                     	;# 
  2523  009B                     	;# 
  2524  009C                     	;# 
  2525  009D                     	;# 
  2526  009E                     	;# 
  2527  010C                     	;# 
  2528  010D                     	;# 
  2529  0111                     	;# 
  2530  0112                     	;# 
  2531  0113                     	;# 
  2532  0114                     	;# 
  2533  0115                     	;# 
  2534  0116                     	;# 
  2535  0117                     	;# 
  2536  0118                     	;# 
  2537  0119                     	;# 
  2538  011A                     	;# 
  2539  011B                     	;# 
  2540  011D                     	;# 
  2541  011E                     	;# 
  2542  018C                     	;# 
  2543  018D                     	;# 
  2544  0191                     	;# 
  2545  0191                     	;# 
  2546  0192                     	;# 
  2547  0193                     	;# 
  2548  0193                     	;# 
  2549  0193                     	;# 
  2550  0194                     	;# 
  2551  0195                     	;# 
  2552  0196                     	;# 
  2553  0199                     	;# 
  2554  019A                     	;# 
  2555  019B                     	;# 
  2556  019B                     	;# 
  2557  019B                     	;# 
  2558  019B                     	;# 
  2559  019C                     	;# 
  2560  019C                     	;# 
  2561  019D                     	;# 
  2562  019E                     	;# 
  2563  019F                     	;# 
  2564  020C                     	;# 
  2565  020D                     	;# 
  2566  0211                     	;# 
  2567  0211                     	;# 
  2568  0212                     	;# 
  2569  0212                     	;# 
  2570  0213                     	;# 
  2571  0213                     	;# 
  2572  0214                     	;# 
  2573  0214                     	;# 
  2574  0215                     	;# 
  2575  0215                     	;# 
  2576  0215                     	;# 
  2577  0216                     	;# 
  2578  0216                     	;# 
  2579  0217                     	;# 
  2580  0217                     	;# 
  2581  0219                     	;# 
  2582  021A                     	;# 
  2583  021B                     	;# 
  2584  021C                     	;# 
  2585  021D                     	;# 
  2586  021E                     	;# 
  2587  021F                     	;# 
  2588  0291                     	;# 
  2589  0291                     	;# 
  2590  0292                     	;# 
  2591  0293                     	;# 
  2592  0294                     	;# 
  2593  0295                     	;# 
  2594  0295                     	;# 
  2595  0296                     	;# 
  2596  0298                     	;# 
  2597  0298                     	;# 
  2598  0299                     	;# 
  2599  029A                     	;# 
  2600  029B                     	;# 
  2601  029C                     	;# 
  2602  029C                     	;# 
  2603  029D                     	;# 
  2604  029E                     	;# 
  2605  029E                     	;# 
  2606  0311                     	;# 
  2607  0311                     	;# 
  2608  0312                     	;# 
  2609  0313                     	;# 
  2610  0318                     	;# 
  2611  0318                     	;# 
  2612  0319                     	;# 
  2613  031A                     	;# 
  2614  0394                     	;# 
  2615  0395                     	;# 
  2616  0396                     	;# 
  2617  039A                     	;# 
  2618  039C                     	;# 
  2619  039D                     	;# 
  2620  039E                     	;# 
  2621  039F                     	;# 
  2622  0415                     	;# 
  2623  0416                     	;# 
  2624  0417                     	;# 
  2625  041C                     	;# 
  2626  041D                     	;# 
  2627  041E                     	;# 
  2628  0FE4                     	;# 
  2629  0FE5                     	;# 
  2630  0FE6                     	;# 
  2631  0FE7                     	;# 
  2632  0FE8                     	;# 
  2633  0FE9                     	;# 
  2634  0FEA                     	;# 
  2635  0FEB                     	;# 
  2636  0FED                     	;# 
  2637  0FEE                     	;# 
  2638  0FEF                     	;# 
  2639  0000                     	;# 
  2640  0001                     	;# 
  2641  0002                     	;# 
  2642  0003                     	;# 
  2643  0004                     	;# 
  2644  0005                     	;# 
  2645  0006                     	;# 
  2646  0007                     	;# 
  2647  0008                     	;# 
  2648  0009                     	;# 
  2649  000A                     	;# 
  2650  000B                     	;# 
  2651  000C                     	;# 
  2652  000D                     	;# 
  2653  0011                     	;# 
  2654  0012                     	;# 
  2655  0013                     	;# 
  2656  0014                     	;# 
  2657  0015                     	;# 
  2658  0016                     	;# 
  2659  0016                     	;# 
  2660  0017                     	;# 
  2661  0018                     	;# 
  2662  0019                     	;# 
  2663  001A                     	;# 
  2664  001B                     	;# 
  2665  001C                     	;# 
  2666  001E                     	;# 
  2667  001F                     	;# 
  2668  008C                     	;# 
  2669  008D                     	;# 
  2670  0091                     	;# 
  2671  0092                     	;# 
  2672  0093                     	;# 
  2673  0094                     	;# 
  2674  0095                     	;# 
  2675  0096                     	;# 
  2676  0097                     	;# 
  2677  0098                     	;# 
  2678  0099                     	;# 
  2679  009A                     	;# 
  2680  009B                     	;# 
  2681  009B                     	;# 
  2682  009C                     	;# 
  2683  009D                     	;# 
  2684  009E                     	;# 
  2685  010C                     	;# 
  2686  010D                     	;# 
  2687  0111                     	;# 
  2688  0112                     	;# 
  2689  0113                     	;# 
  2690  0114                     	;# 
  2691  0115                     	;# 
  2692  0116                     	;# 
  2693  0117                     	;# 
  2694  0118                     	;# 
  2695  0119                     	;# 
  2696  011A                     	;# 
  2697  011B                     	;# 
  2698  011D                     	;# 
  2699  011E                     	;# 
  2700  018C                     	;# 
  2701  018D                     	;# 
  2702  0191                     	;# 
  2703  0191                     	;# 
  2704  0192                     	;# 
  2705  0193                     	;# 
  2706  0193                     	;# 
  2707  0193                     	;# 
  2708  0194                     	;# 
  2709  0195                     	;# 
  2710  0196                     	;# 
  2711  0199                     	;# 
  2712  019A                     	;# 
  2713  019B                     	;# 
  2714  019B                     	;# 
  2715  019B                     	;# 
  2716  019B                     	;# 
  2717  019C                     	;# 
  2718  019C                     	;# 
  2719  019D                     	;# 
  2720  019E                     	;# 
  2721  019F                     	;# 
  2722  020C                     	;# 
  2723  020D                     	;# 
  2724  0211                     	;# 
  2725  0211                     	;# 
  2726  0212                     	;# 
  2727  0212                     	;# 
  2728  0213                     	;# 
  2729  0213                     	;# 
  2730  0214                     	;# 
  2731  0214                     	;# 
  2732  0215                     	;# 
  2733  0215                     	;# 
  2734  0215                     	;# 
  2735  0216                     	;# 
  2736  0216                     	;# 
  2737  0217                     	;# 
  2738  0217                     	;# 
  2739  0219                     	;# 
  2740  021A                     	;# 
  2741  021B                     	;# 
  2742  021C                     	;# 
  2743  021D                     	;# 
  2744  021E                     	;# 
  2745  021F                     	;# 
  2746  0291                     	;# 
  2747  0291                     	;# 
  2748  0292                     	;# 
  2749  0293                     	;# 
  2750  0294                     	;# 
  2751  0295                     	;# 
  2752  0295                     	;# 
  2753  0296                     	;# 
  2754  0298                     	;# 
  2755  0298                     	;# 
  2756  0299                     	;# 
  2757  029A                     	;# 
  2758  029B                     	;# 
  2759  029C                     	;# 
  2760  029C                     	;# 
  2761  029D                     	;# 
  2762  029E                     	;# 
  2763  029E                     	;# 
  2764  0311                     	;# 
  2765  0311                     	;# 
  2766  0312                     	;# 
  2767  0313                     	;# 
  2768  0318                     	;# 
  2769  0318                     	;# 
  2770  0319                     	;# 
  2771  031A                     	;# 
  2772  0394                     	;# 
  2773  0395                     	;# 
  2774  0396                     	;# 
  2775  039A                     	;# 
  2776  039C                     	;# 
  2777  039D                     	;# 
  2778  039E                     	;# 
  2779  039F                     	;# 
  2780  0415                     	;# 
  2781  0416                     	;# 
  2782  0417                     	;# 
  2783  041C                     	;# 
  2784  041D                     	;# 
  2785  041E                     	;# 
  2786  0FE4                     	;# 
  2787  0FE5                     	;# 
  2788  0FE6                     	;# 
  2789  0FE7                     	;# 
  2790  0FE8                     	;# 
  2791  0FE9                     	;# 
  2792  0FEA                     	;# 
  2793  0FEB                     	;# 
  2794  0FED                     	;# 
  2795  0FEE                     	;# 
  2796  0FEF                     	;# 
  2797                           
  2798 ;; Function _EUSART_DefaultFramingErrorHandler is unused but had its address taken
  2799  0000                     
  2800 ;; Function _EUSART_DefaultOverrunErrorHandler is unused but had its address taken
  2801  0000                     
  2802 ;; Function _EUSART_DefaultErrorHandler is unused but had its address taken
  2803  0000                     
  2804                           	psect	idataBANK0
  2805  05BB                     __pidataBANK0:
  2806                           
  2807                           ;initializer for _subindo
  2808  05BB  3401               	retlw	1
  2809                           
  2810                           	psect	stringtext1
  2811  0515                     __pstringtext1:
  2812  0515                     _matrix_conf:
  2813  0515  3409               	retlw	9
  2814  0516  3400               	retlw	0
  2815  0517  340A               	retlw	10
  2816  0518  3400               	retlw	0
  2817  0519  340B               	retlw	11
  2818  051A  3407               	retlw	7
  2819  051B  340C               	retlw	12
  2820  051C  3401               	retlw	1
  2821  051D  340F               	retlw	15
  2822  051E  3401               	retlw	1
  2823  051F  340F               	retlw	15
  2824  0520  3400               	retlw	0
  2825  0521                     __end_of_matrix_conf:
  2826                           
  2827                           	psect	stringtext2
  2828  05A6                     __pstringtext2:
  2829  05A6                     _spi1_configuration:
  2830  05A6  3400               	retlw	0
  2831  05A7  3440               	retlw	64
  2832  05A8  3401               	retlw	1
  2833  05A9  3400               	retlw	0
  2834  05AA                     __end_of_spi1_configuration:
  2835                           
  2836                           	psect	nvBANK0
  2837  0020                     __pnvBANK0:
  2838  0020                     _TMR4_InterruptHandler:
  2839  0020                     	ds	2
  2840  0022                     _CCP4_CallBack:
  2841  0022                     	ds	2
  2842  0024                     _TMR0_InterruptHandler:
  2843  0024                     	ds	2
  2844  0026                     _timer1ReloadVal:
  2845  0026                     	ds	2
  2846  0028                     _EUSART_ErrorHandler:
  2847  0028                     	ds	2
  2848  002A                     _EUSART_OverrunErrorHandler:
  2849  002A                     	ds	2
  2850  002C                     _EUSART_FramingErrorHandler:
  2851  002C                     	ds	2
  2852  002E                     _IOCBF3_InterruptHandler:
  2853  002E                     	ds	2
  2854  0030                     _IOCBF0_InterruptHandler:
  2855  0030                     	ds	2
  2856  0032                     _timer0ReloadVal:
  2857  0032                     	ds	1
  2858  0015                     _TMR0	set	21
  2859  001C                     _T2CONbits	set	28
  2860  001C                     _T2CON	set	28
  2861  001A                     _TMR2	set	26
  2862  001B                     _PR2	set	27
  2863  0019                     _T1GCONbits	set	25
  2864  0018                     _T1CONbits	set	24
  2865  0018                     _T1CON	set	24
  2866  0016                     _TMR1L	set	22
  2867  0017                     _TMR1H	set	23
  2868  0019                     _T1GCON	set	25
  2869  0013                     _PIR3bits	set	19
  2870  0011                     _PIR1bits	set	17
  2871  000B                     _INTCONbits	set	11
  2872  0012                     _PIR2bits	set	18
  2873  0095                     _OPTION_REG	set	149
  2874  0093                     _PIE3bits	set	147
  2875  008D                     _TRISBbits	set	141
  2876  009D                     _ADCON0bits	set	157
  2877  009D                     _ADCON0	set	157
  2878  009C                     _ADRESH	set	156
  2879  009B                     _ADRESL	set	155
  2880  009E                     _ADCON1	set	158
  2881  0097                     _WDTCON	set	151
  2882  0098                     _OSCTUNE	set	152
  2883  0099                     _OSCCON	set	153
  2884  0095                     _OPTION_REGbits	set	149
  2885  008D                     _TRISB	set	141
  2886  008C                     _TRISA	set	140
  2887  0092                     _PIE2bits	set	146
  2888  010D                     _LATBbits	set	269
  2889  0117                     _FVRCONbits	set	279
  2890  0117                     _FVRCON	set	279
  2891  0116                     _BORCON	set	278
  2892  011E                     _APFCON1	set	286
  2893  011D                     _APFCON0	set	285
  2894  010D                     _LATB	set	269
  2895  010C                     _LATA	set	268
  2896  0112                     _CM1CON1	set	274
  2897  0111                     _CM1CON0	set	273
  2898  0115                     _CMOUTbits	set	277
  2899  0114                     _CM2CON1	set	276
  2900  0113                     _CM2CON0	set	275
  2901  019A                     _TXREG	set	410
  2902  0199                     _RCREG	set	409
  2903  019D                     _RCSTAbits	set	413
  2904  019E                     _TXSTAbits	set	414
  2905  019C                     _SPBRGH	set	412
  2906  019B                     _SPBRGL	set	411
  2907  019E                     _TXSTA	set	414
  2908  019D                     _RCSTA	set	413
  2909  019F                     _BAUDCON	set	415
  2910  018C                     _ANSELA	set	396
  2911  018D                     _ANSELB	set	397
  2912  0211                     _SSP1BUF	set	529
  2913  0216                     _SSP1CON2	set	534
  2914  0215                     _SSP1CON1bits	set	533
  2915  0212                     _SSP1ADD	set	530
  2916  0215                     _SSP1CON1	set	533
  2917  0214                     _SSP1STAT	set	532
  2918  020C                     _WPUA	set	524
  2919  020D                     _WPUB	set	525
  2920  029E                     _CCPTMRS0bits	set	670
  2921  0319                     _CCPR4H	set	793
  2922  0318                     _CCPR4L	set	792
  2923  031A                     _CCP4CON	set	794
  2924  0312                     _CCPR3H	set	786
  2925  0311                     _CCPR3L	set	785
  2926  0313                     _CCP3CON	set	787
  2927  0394                     _IOCBPbits	set	916
  2928  0395                     _IOCBNbits	set	917
  2929  0396                     _IOCBFbits	set	918
  2930  0417                     _T4CONbits	set	1047
  2931  0417                     _T4CON	set	1047
  2932  0415                     _TMR4	set	1045
  2933  0416                     _PR4	set	1046
  2934                           
  2935                           	psect	cinit
  2936  0058                     start_initialization:	
  2937                           ; #config settings
  2938                           
  2939  0058                     __initialization:
  2940                           
  2941                           ; Initialize objects allocated to BANK0
  2942  0058  3185  25BB  3180   	fcall	__pidataBANK0	;fetch initializer
  2943  005B  00D6               	movwf	__pdataBANK0& (0+127)
  2944                           
  2945                           ; Clear objects allocated to COMMON
  2946  005C  01FD               	clrf	__pbssCOMMON& (0+127)
  2947                           
  2948                           ; Clear objects allocated to BANK0
  2949  005D  3033               	movlw	low __pbssBANK0
  2950  005E  0084               	movwf	4
  2951  005F  3000               	movlw	high __pbssBANK0
  2952  0060  0085               	movwf	5
  2953  0061  3012               	movlw	18
  2954  0062  3185  2564  3180   	fcall	clear_ram0
  2955  0065                     end_of_initialization:	
  2956                           ;End of C runtime variable initialization code
  2957                           
  2958  0065                     __end_of__initialization:
  2959  0065  107E               	bcf	int$flags,0	;clear compiler interrupt flag (level 1)
  2960  0066  0020               	movlb	0
  2961  0067  3183  2B6D         	ljmp	_main	;jump to C main() function
  2962                           
  2963                           	psect	bssCOMMON
  2964  007D                     __pbssCOMMON:
  2965  007D                     _destinoDesc:
  2966  007D                     	ds	1
  2967                           
  2968                           	psect	bssBANK0
  2969  0033                     __pbssBANK0:
  2970  0033                     _MatrixLed:
  2971  0033                     	ds	8
  2972  003B                     TMR4_ISR@CountCallBack:
  2973  003B                     	ds	2
  2974  003D                     TMR0_ISR@CountCallBack:
  2975  003D                     	ds	2
  2976  003F                     _ADC_InterruptHandler:
  2977  003F                     	ds	2
  2978  0041                     controleMovimento@cont:
  2979  0041                     	ds	1
  2980  0042                     _eusartRxLastError:
  2981  0042                     	ds	1
  2982  0043                     _mov:
  2983  0043                     	ds	1
  2984  0044                     _destinoSub:
  2985  0044                     	ds	1
  2986                           
  2987                           	psect	dataBANK0
  2988  0056                     __pdataBANK0:
  2989  0056                     _subindo:
  2990  0056                     	ds	1
  2991                           
  2992                           	psect	clrtext
  2993  0564                     clear_ram0:	
  2994                           ;	Called with FSR0 containing the base address, and
  2995                           ;	WREG with the size to clear
  2996                           
  2997  0564  0064               	clrwdt	;clear the watchdog before getting into this loop
  2998  0565                     clrloop0:
  2999  0565  0180               	clrf	0	;clear RAM location pointed to by FSR
  3000  0566  3101               	addfsr 0,1
  3001  0567  0B89               	decfsz	9,f	;Have we reached the end of clearing yet?
  3002  0568  2D65               	goto	clrloop0	;have we reached the end yet?
  3003  0569  3400               	retlw	0	;all done for this memory range, return
  3004                           
  3005                           	psect	cstackCOMMON
  3006  0070                     __pcstackCOMMON:
  3007  0070                     ?_chegadaS4:
  3008  0070                     ?_chegadaS3:	
  3009                           ; 1 bytes @ 0x0
  3010                           
  3011  0070                     ?_IOCBF0_DefaultInterruptHandler:	
  3012                           ; 1 bytes @ 0x0
  3013                           
  3014  0070                     ??_IOCBF0_DefaultInterruptHandler:	
  3015                           ; 1 bytes @ 0x0
  3016                           
  3017  0070                     ?_IOCBF3_DefaultInterruptHandler:	
  3018                           ; 1 bytes @ 0x0
  3019                           
  3020  0070                     ??_IOCBF3_DefaultInterruptHandler:	
  3021                           ; 1 bytes @ 0x0
  3022                           
  3023  0070                     ?_IOCBF0_ISR:	
  3024                           ; 1 bytes @ 0x0
  3025                           
  3026  0070                     ??_IOCBF0_ISR:	
  3027                           ; 1 bytes @ 0x0
  3028                           
  3029  0070                     ?_IOCBF3_ISR:	
  3030                           ; 1 bytes @ 0x0
  3031                           
  3032  0070                     ?_SPI1_Initialize:	
  3033                           ; 1 bytes @ 0x0
  3034                           
  3035  0070                     ?_OSCILLATOR_Initialize:	
  3036                           ; 1 bytes @ 0x0
  3037                           
  3038  0070                     ?_WDT_Initialize:	
  3039                           ; 1 bytes @ 0x0
  3040                           
  3041  0070                     ?_FVR_Initialize:	
  3042                           ; 1 bytes @ 0x0
  3043                           
  3044  0070                     ?_TMR4_Initialize:	
  3045                           ; 1 bytes @ 0x0
  3046                           
  3047  0070                     ?_TMR2_Initialize:	
  3048                           ; 1 bytes @ 0x0
  3049                           
  3050  0070                     ?_TMR0_Initialize:	
  3051                           ; 1 bytes @ 0x0
  3052                           
  3053  0070                     ?_ADC_Initialize:	
  3054                           ; 1 bytes @ 0x0
  3055                           
  3056  0070                     ?_CCP4_Initialize:	
  3057                           ; 1 bytes @ 0x0
  3058                           
  3059  0070                     ?_TMR1_Initialize:	
  3060                           ; 1 bytes @ 0x0
  3061                           
  3062  0070                     ?_EUSART_Initialize:	
  3063                           ; 1 bytes @ 0x0
  3064                           
  3065  0070                     ?_TMR0_ISR:	
  3066                           ; 1 bytes @ 0x0
  3067                           
  3068  0070                     ??_TMR0_ISR:	
  3069                           ; 1 bytes @ 0x0
  3070                           
  3071  0070                     ?_CCP4_CaptureISR:	
  3072                           ; 1 bytes @ 0x0
  3073                           
  3074  0070                     ?_TMR4_ISR:	
  3075                           ; 1 bytes @ 0x0
  3076                           
  3077  0070                     ?_TMR0_DefaultInterruptHandler:	
  3078                           ; 1 bytes @ 0x0
  3079                           
  3080  0070                     ??_TMR0_DefaultInterruptHandler:	
  3081                           ; 1 bytes @ 0x0
  3082                           
  3083  0070                     ?_TMR0_CallBack:	
  3084                           ; 1 bytes @ 0x0
  3085                           
  3086  0070                     ??_TMR0_CallBack:	
  3087                           ; 1 bytes @ 0x0
  3088                           
  3089  0070                     ?_TMR4_ReadTimer:	
  3090                           ; 1 bytes @ 0x0
  3091                           
  3092  0070                     ??_TMR4_ReadTimer:	
  3093                           ; 1 bytes @ 0x0
  3094                           
  3095  0070                     ?_TMR4_StartTimer:	
  3096                           ; 1 bytes @ 0x0
  3097                           
  3098  0070                     ??_TMR4_StartTimer:	
  3099                           ; 1 bytes @ 0x0
  3100                           
  3101  0070                     ?_TMR4_DefaultInterruptHandler:	
  3102                           ; 1 bytes @ 0x0
  3103                           
  3104  0070                     ??_TMR4_DefaultInterruptHandler:	
  3105                           ; 1 bytes @ 0x0
  3106                           
  3107  0070                     ?_TMR4_CallBack:	
  3108                           ; 1 bytes @ 0x0
  3109                           
  3110  0070                     ?_PWM3_Initialize:	
  3111                           ; 1 bytes @ 0x0
  3112                           
  3113  0070                     ?_PWM3_LoadDutyValue:	
  3114                           ; 1 bytes @ 0x0
  3115                           
  3116  0070                     ?_CMP2_Initialize:	
  3117                           ; 1 bytes @ 0x0
  3118                           
  3119  0070                     ?_CMP2_ISR:	
  3120                           ; 1 bytes @ 0x0
  3121                           
  3122  0070                     ?_CMP1_Initialize:	
  3123                           ; 1 bytes @ 0x0
  3124                           
  3125  0070                     ?_CMP1_ISR:	
  3126                           ; 1 bytes @ 0x0
  3127                           
  3128  0070                     ?_PIN_MANAGER_Initialize:	
  3129                           ; 1 bytes @ 0x0
  3130                           
  3131  0070                     ?_PIN_MANAGER_IOC:	
  3132                           ; 1 bytes @ 0x0
  3133                           
  3134  0070                     ?_SYSTEM_Initialize:	
  3135                           ; 1 bytes @ 0x0
  3136                           
  3137  0070                     ?_SPI1_Open:	
  3138                           ; 1 bytes @ 0x0
  3139                           
  3140  0070                     ?_INTERRUPT_InterruptManager:	
  3141                           ; 1 bytes @ 0x0
  3142                           
  3143  0070                     ?_TMR1_StopTimer:	
  3144                           ; 1 bytes @ 0x0
  3145                           
  3146  0070                     ?_matrixUpdate:	
  3147                           ; 1 bytes @ 0x0
  3148                           
  3149  0070                     ?_initMatrix:	
  3150                           ; 1 bytes @ 0x0
  3151                           
  3152  0070                     ?_controleMovimento:	
  3153                           ; 1 bytes @ 0x0
  3154                           
  3155  0070                     ?_chegadaS1:	
  3156                           ; 1 bytes @ 0x0
  3157                           
  3158  0070                     ?_chegadaS2:	
  3159                           ; 1 bytes @ 0x0
  3160                           
  3161  0070                     ?_main:	
  3162                           ; 1 bytes @ 0x0
  3163                           
  3164  0070                     ?_CCP4_DefaultCallBack:	
  3165                           ; 1 bytes @ 0x0
  3166                           
  3167  0070                     ?i1_SPI1_ExchangeBlock:	
  3168                           ; 1 bytes @ 0x0
  3169                           
  3170  0070                     PWM3_LoadDutyValue@dutyValue:	
  3171                           ; 1 bytes @ 0x0
  3172                           
  3173  0070                     CCP4_DefaultCallBack@capturedValue:	
  3174                           ; 2 bytes @ 0x0
  3175                           
  3176  0070                     i1SPI1_ExchangeBlock@blockSize:	
  3177                           ; 2 bytes @ 0x0
  3178                           
  3179                           
  3180                           ; 2 bytes @ 0x0
  3181  0070                     	ds	2
  3182  0072                     ??_CCP4_CaptureISR:
  3183  0072                     ??_PWM3_LoadDutyValue:	
  3184                           ; 1 bytes @ 0x2
  3185                           
  3186  0072                     ??_CCP4_DefaultCallBack:	
  3187                           ; 1 bytes @ 0x2
  3188                           
  3189  0072                     ??i1_SPI1_ExchangeBlock:	
  3190                           ; 1 bytes @ 0x2
  3191                           
  3192                           
  3193                           ; 1 bytes @ 0x2
  3194  0072                     	ds	1
  3195  0073                     i1SPI1_ExchangeBlock@block:
  3196  0073                     CCP4_CaptureISR@module:	
  3197                           ; 1 bytes @ 0x3
  3198                           
  3199                           
  3200                           ; 2 bytes @ 0x3
  3201  0073                     	ds	1
  3202  0074                     ??_controleMovimento:
  3203  0074                     i1SPI1_ExchangeBlock@data:	
  3204                           ; 1 bytes @ 0x4
  3205                           
  3206                           
  3207                           ; 1 bytes @ 0x4
  3208  0074                     	ds	1
  3209  0075                     ?i1_txSpi:
  3210  0075                     i1txSpi@dataSize:	
  3211                           ; 1 bytes @ 0x5
  3212                           
  3213                           
  3214                           ; 2 bytes @ 0x5
  3215  0075                     	ds	1
  3216  0076                     ??_TMR4_ISR:
  3217  0076                     ??_TMR4_CallBack:	
  3218                           ; 1 bytes @ 0x6
  3219                           
  3220                           
  3221                           ; 1 bytes @ 0x6
  3222  0076                     	ds	1
  3223  0077                     ??i1_txSpi:
  3224  0077                     i1txSpi@data:	
  3225                           ; 1 bytes @ 0x7
  3226                           
  3227                           
  3228                           ; 1 bytes @ 0x7
  3229  0077                     	ds	1
  3230  0078                     ??_matrixUpdate:
  3231                           
  3232                           ; 1 bytes @ 0x8
  3233  0078                     	ds	1
  3234  0079                     matrixUpdate@data:
  3235                           
  3236                           ; 2 bytes @ 0x9
  3237  0079                     	ds	2
  3238  007B                     matrixUpdate@i:
  3239                           
  3240                           ; 1 bytes @ 0xB
  3241  007B                     	ds	1
  3242  007C                     ??_chegadaS4:
  3243  007C                     ??_chegadaS3:	
  3244                           ; 1 bytes @ 0xC
  3245                           
  3246  007C                     ??_chegadaS1:	
  3247                           ; 1 bytes @ 0xC
  3248                           
  3249  007C                     ??_chegadaS2:	
  3250                           ; 1 bytes @ 0xC
  3251                           
  3252                           
  3253                           ; 1 bytes @ 0xC
  3254  007C                     	ds	1
  3255  007D                     ??_IOCBF3_ISR:
  3256  007D                     ??_CMP2_ISR:	
  3257                           ; 1 bytes @ 0xD
  3258                           
  3259  007D                     ??_CMP1_ISR:	
  3260                           ; 1 bytes @ 0xD
  3261                           
  3262  007D                     ??_PIN_MANAGER_IOC:	
  3263                           ; 1 bytes @ 0xD
  3264                           
  3265  007D                     ??_INTERRUPT_InterruptManager:	
  3266                           ; 1 bytes @ 0xD
  3267                           
  3268                           
  3269                           	psect	cstackBANK0
  3270  0045                     __pcstackBANK0:	
  3271                           ; 1 bytes @ 0xD
  3272                           
  3273  0045                     ?_IOCBF0_SetInterruptHandler:
  3274  0045                     ?_IOCBF3_SetInterruptHandler:	
  3275                           ; 1 bytes @ 0x0
  3276                           
  3277  0045                     ??_SPI1_Initialize:	
  3278                           ; 1 bytes @ 0x0
  3279                           
  3280  0045                     ??_OSCILLATOR_Initialize:	
  3281                           ; 1 bytes @ 0x0
  3282                           
  3283  0045                     ??_WDT_Initialize:	
  3284                           ; 1 bytes @ 0x0
  3285                           
  3286  0045                     ??_FVR_Initialize:	
  3287                           ; 1 bytes @ 0x0
  3288                           
  3289  0045                     ??_TMR2_Initialize:	
  3290                           ; 1 bytes @ 0x0
  3291                           
  3292  0045                     ??_ADC_Initialize:	
  3293                           ; 1 bytes @ 0x0
  3294                           
  3295  0045                     ??_TMR1_Initialize:	
  3296                           ; 1 bytes @ 0x0
  3297                           
  3298  0045                     ?_EUSART_SetFramingErrorHandler:	
  3299                           ; 1 bytes @ 0x0
  3300                           
  3301  0045                     ?_EUSART_SetOverrunErrorHandler:	
  3302                           ; 1 bytes @ 0x0
  3303                           
  3304  0045                     ?_EUSART_SetErrorHandler:	
  3305                           ; 1 bytes @ 0x0
  3306                           
  3307  0045                     ?_TMR0_SetInterruptHandler:	
  3308                           ; 1 bytes @ 0x0
  3309                           
  3310  0045                     ?_TMR4_SetInterruptHandler:	
  3311                           ; 1 bytes @ 0x0
  3312                           
  3313  0045                     ?_CCP4_SetCallBack:	
  3314                           ; 1 bytes @ 0x0
  3315                           
  3316  0045                     ??_PWM3_Initialize:	
  3317                           ; 1 bytes @ 0x0
  3318                           
  3319  0045                     ??_CMP2_Initialize:	
  3320                           ; 1 bytes @ 0x0
  3321                           
  3322  0045                     ??_CMP1_Initialize:	
  3323                           ; 1 bytes @ 0x0
  3324                           
  3325  0045                     ??_SPI1_Open:	
  3326                           ; 1 bytes @ 0x0
  3327                           
  3328  0045                     ?_SPI1_ExchangeBlock:	
  3329                           ; 1 bytes @ 0x0
  3330                           
  3331  0045                     ??_TMR1_StopTimer:	
  3332                           ; 1 bytes @ 0x0
  3333                           
  3334  0045                     IOCBF0_SetInterruptHandler@InterruptHandler:	
  3335                           ; 1 bytes @ 0x0
  3336                           
  3337  0045                     IOCBF3_SetInterruptHandler@InterruptHandler:	
  3338                           ; 2 bytes @ 0x0
  3339                           
  3340  0045                     EUSART_SetFramingErrorHandler@interruptHandler:	
  3341                           ; 2 bytes @ 0x0
  3342                           
  3343  0045                     EUSART_SetOverrunErrorHandler@interruptHandler:	
  3344                           ; 2 bytes @ 0x0
  3345                           
  3346  0045                     EUSART_SetErrorHandler@interruptHandler:	
  3347                           ; 2 bytes @ 0x0
  3348                           
  3349  0045                     SPI1_ExchangeBlock@blockSize:	
  3350                           ; 2 bytes @ 0x0
  3351                           
  3352  0045                     TMR0_SetInterruptHandler@InterruptHandler:	
  3353                           ; 2 bytes @ 0x0
  3354                           
  3355  0045                     CCP4_SetCallBack@customCallBack:	
  3356                           ; 2 bytes @ 0x0
  3357                           
  3358  0045                     TMR4_SetInterruptHandler@InterruptHandler:	
  3359                           ; 2 bytes @ 0x0
  3360                           
  3361                           
  3362                           ; 2 bytes @ 0x0
  3363  0045                     	ds	2
  3364  0047                     ??_IOCBF0_SetInterruptHandler:
  3365  0047                     ??_IOCBF3_SetInterruptHandler:	
  3366                           ; 1 bytes @ 0x2
  3367                           
  3368  0047                     ??_TMR4_Initialize:	
  3369                           ; 1 bytes @ 0x2
  3370                           
  3371  0047                     ??_TMR0_Initialize:	
  3372                           ; 1 bytes @ 0x2
  3373                           
  3374  0047                     ??_CCP4_Initialize:	
  3375                           ; 1 bytes @ 0x2
  3376                           
  3377  0047                     ??_EUSART_Initialize:	
  3378                           ; 1 bytes @ 0x2
  3379                           
  3380  0047                     ??_EUSART_SetFramingErrorHandler:	
  3381                           ; 1 bytes @ 0x2
  3382                           
  3383  0047                     ??_EUSART_SetOverrunErrorHandler:	
  3384                           ; 1 bytes @ 0x2
  3385                           
  3386  0047                     ??_EUSART_SetErrorHandler:	
  3387                           ; 1 bytes @ 0x2
  3388                           
  3389  0047                     ??_TMR0_SetInterruptHandler:	
  3390                           ; 1 bytes @ 0x2
  3391                           
  3392  0047                     ??_TMR4_SetInterruptHandler:	
  3393                           ; 1 bytes @ 0x2
  3394                           
  3395  0047                     ??_CCP4_SetCallBack:	
  3396                           ; 1 bytes @ 0x2
  3397                           
  3398  0047                     ??_PIN_MANAGER_Initialize:	
  3399                           ; 1 bytes @ 0x2
  3400                           
  3401  0047                     ??_SPI1_ExchangeBlock:	
  3402                           ; 1 bytes @ 0x2
  3403                           
  3404                           
  3405                           ; 1 bytes @ 0x2
  3406  0047                     	ds	1
  3407  0048                     ??_SYSTEM_Initialize:
  3408  0048                     SPI1_Open@spi1UniqueConfiguration:	
  3409                           ; 1 bytes @ 0x3
  3410                           
  3411  0048                     SPI1_ExchangeBlock@block:	
  3412                           ; 1 bytes @ 0x3
  3413                           
  3414                           
  3415                           ; 1 bytes @ 0x3
  3416  0048                     	ds	1
  3417  0049                     SPI1_ExchangeBlock@data:
  3418                           
  3419                           ; 1 bytes @ 0x4
  3420  0049                     	ds	1
  3421  004A                     ?_txSpi:
  3422  004A                     txSpi@dataSize:	
  3423                           ; 1 bytes @ 0x5
  3424                           
  3425                           
  3426                           ; 2 bytes @ 0x5
  3427  004A                     	ds	2
  3428  004C                     ??_txSpi:
  3429  004C                     txSpi@data:	
  3430                           ; 1 bytes @ 0x7
  3431                           
  3432                           
  3433                           ; 1 bytes @ 0x7
  3434  004C                     	ds	1
  3435  004D                     ??_initMatrix:
  3436                           
  3437                           ; 1 bytes @ 0x8
  3438  004D                     	ds	1
  3439  004E                     initMatrix@data:
  3440                           
  3441                           ; 4 bytes @ 0x9
  3442  004E                     	ds	4
  3443  0052                     initMatrix@k:
  3444                           
  3445                           ; 1 bytes @ 0xD
  3446  0052                     	ds	1
  3447  0053                     initMatrix@i:
  3448                           
  3449                           ; 1 bytes @ 0xE
  3450  0053                     	ds	1
  3451  0054                     initMatrix@i_1317:
  3452                           
  3453                           ; 1 bytes @ 0xF
  3454  0054                     	ds	1
  3455  0055                     initMatrix@j:
  3456                           
  3457                           ; 1 bytes @ 0x10
  3458  0055                     	ds	1
  3459  0056                     ??_main:
  3460                           
  3461                           	psect	maintext
  3462  036D                     __pmaintext:	
  3463                           ; 1 bytes @ 0x11
  3464 ;;
  3465 ;;Main: autosize = 0, tempsize = 0, incstack = 0, save=0
  3466 ;;
  3467 ;; *************** function _main *****************
  3468 ;; Defined at:
  3469 ;;		line 281 in file "main.c"
  3470 ;; Parameters:    Size  Location     Type
  3471 ;;		None
  3472 ;; Auto vars:     Size  Location     Type
  3473 ;;		None
  3474 ;; Return value:  Size  Location     Type
  3475 ;;                  1    wreg      void 
  3476 ;; Registers used:
  3477 ;;		wreg, fsr0l, fsr0h, fsr1l, fsr1h, status,2, status,0, pclath, cstack
  3478 ;; Tracked objects:
  3479 ;;		On entry : B1F/0
  3480 ;;		On exit  : 0/0
  3481 ;;		Unchanged: 0/0
  3482 ;; Data sizes:     COMMON   BANK0   BANK1   BANK2   BANK3   BANK4
  3483 ;;      Params:         0       0       0       0       0       0
  3484 ;;      Locals:         0       0       0       0       0       0
  3485 ;;      Temps:          0       0       0       0       0       0
  3486 ;;      Totals:         0       0       0       0       0       0
  3487 ;;Total ram usage:        0 bytes
  3488 ;; Hardware stack levels required when called: 10
  3489 ;; This function calls:
  3490 ;;		_IOCBF3_SetInterruptHandler
  3491 ;;		_SPI1_Open
  3492 ;;		_SYSTEM_Initialize
  3493 ;;		_TMR1_StopTimer
  3494 ;;		_TMR4_SetInterruptHandler
  3495 ;;		_initMatrix
  3496 ;; This function is called by:
  3497 ;;		Startup code after reset
  3498 ;; This function uses a non-reentrant model
  3499 ;;
  3500                           
  3501  036D                     _main:	
  3502                           ;psect for function _main
  3503                           
  3504  036D                     l2708:	
  3505                           ;incstack = 0
  3506                           ; Regs used in _main: [wreg-fsr1h+status,2+status,0+pclath+cstack]
  3507                           
  3508                           
  3509                           ;main.c: 284:     SYSTEM_Initialize();
  3510  036D  3183  2312  3183   	fcall	_SYSTEM_Initialize
  3511                           
  3512                           ;main.c: 292:     IOCBF3_SetInterruptHandler(chegadaS1);
  3513  0370  30A1               	movlw	low _chegadaS1
  3514  0371  0020               	movlb	0	; select bank0
  3515  0372  00C5               	movwf	IOCBF3_SetInterruptHandler@InterruptHandler
  3516  0373  3002               	movlw	high _chegadaS1
  3517  0374  00C6               	movwf	IOCBF3_SetInterruptHandler@InterruptHandler+1
  3518  0375  3185  2576  3183   	fcall	_IOCBF3_SetInterruptHandler
  3519                           
  3520                           ;main.c: 293:     IOCBF3_SetInterruptHandler(chegadaS2);
  3521  0378  3041               	movlw	low _chegadaS2
  3522  0379  0020               	movlb	0	; select bank0
  3523  037A  00C5               	movwf	IOCBF3_SetInterruptHandler@InterruptHandler
  3524  037B  3001               	movlw	high _chegadaS2
  3525  037C  00C6               	movwf	IOCBF3_SetInterruptHandler@InterruptHandler+1
  3526  037D  3185  2576  3183   	fcall	_IOCBF3_SetInterruptHandler
  3527                           
  3528                           ;main.c: 294:     TMR4_SetInterruptHandler(controleMovimento);
  3529  0380  3054               	movlw	low _controleMovimento
  3530  0381  0020               	movlb	0	; select bank0
  3531  0382  00C5               	movwf	TMR4_SetInterruptHandler@InterruptHandler
  3532  0383  3002               	movlw	high _controleMovimento
  3533  0384  00C6               	movwf	TMR4_SetInterruptHandler@InterruptHandler+1
  3534  0385  3185  256A  3183   	fcall	_TMR4_SetInterruptHandler
  3535  0388                     l2710:
  3536                           
  3537                           ;main.c: 296:     TMR1_StopTimer();
  3538  0388  3185  25B2  3183   	fcall	_TMR1_StopTimer
  3539  038B                     l2712:
  3540  038B  0022               	movlb	2	; select bank2
  3541  038C  148D               	bsf	13,1	;volatile
  3542  038D                     l2714:
  3543                           
  3544                           ;main.c: 299:     SPI1_Open(SPI1_DEFAULT);
  3545  038D  3000               	movlw	0
  3546  038E  3181  21FD  3183   	fcall	_SPI1_Open
  3547  0391                     l2716:
  3548                           
  3549                           ;main.c: 300:     initMatrix();
  3550  0391  3181  21A6  3183   	fcall	_initMatrix
  3551  0394                     l2718:
  3552                           
  3553                           ;main.c: 303:     (INTCONbits.GIE = 1);
  3554  0394  178B               	bsf	11,7	;volatile
  3555  0395                     l2720:
  3556                           
  3557                           ;main.c: 306:     (INTCONbits.PEIE = 1);
  3558  0395  170B               	bsf	11,6	;volatile
  3559  0396                     l667:	
  3560                           ;main.c: 314:     while (1)
  3561                           
  3562  0396                     l668:	
  3563                           ;main.c: 315:     {;main.c: 317:     }
  3564                           
  3565  0396  2B96               	goto	l667
  3566  0397  3180  2856         	ljmp	start
  3567  0399                     __end_of_main:
  3568                           
  3569                           	psect	text1
  3570  01A6                     __ptext1:	
  3571 ;; *************** function _initMatrix *****************
  3572 ;; Defined at:
  3573 ;;		line 82 in file "main.c"
  3574 ;; Parameters:    Size  Location     Type
  3575 ;;		None
  3576 ;; Auto vars:     Size  Location     Type
  3577 ;;  j               1   16[BANK0 ] unsigned char 
  3578 ;;  i               1   15[BANK0 ] unsigned char 
  3579 ;;  i               1   14[BANK0 ] unsigned char 
  3580 ;;  data            4    9[BANK0 ] unsigned char [4]
  3581 ;;  k               1   13[BANK0 ] unsigned char 
  3582 ;; Return value:  Size  Location     Type
  3583 ;;                  1    wreg      void 
  3584 ;; Registers used:
  3585 ;;		wreg, fsr0l, fsr0h, fsr1l, fsr1h, status,2, status,0, pclath, cstack
  3586 ;; Tracked objects:
  3587 ;;		On entry : 0/0
  3588 ;;		On exit  : 0/0
  3589 ;;		Unchanged: 0/0
  3590 ;; Data sizes:     COMMON   BANK0   BANK1   BANK2   BANK3   BANK4
  3591 ;;      Params:         0       0       0       0       0       0
  3592 ;;      Locals:         0       8       0       0       0       0
  3593 ;;      Temps:          0       1       0       0       0       0
  3594 ;;      Totals:         0       9       0       0       0       0
  3595 ;;Total ram usage:        9 bytes
  3596 ;; Hardware stack levels used: 1
  3597 ;; Hardware stack levels required when called: 9
  3598 ;; This function calls:
  3599 ;;		_txSpi
  3600 ;; This function is called by:
  3601 ;;		_main
  3602 ;; This function uses a non-reentrant model
  3603 ;;
  3604                           
  3605  01A6                     _initMatrix:	
  3606                           ;psect for function _initMatrix
  3607                           
  3608  01A6                     l2614:	
  3609                           ;incstack = 0
  3610                           ; Regs used in _initMatrix: [wreg-fsr1h+status,2+status,0+pclath+cstack]
  3611                           
  3612                           
  3613                           ;main.c: 83:     uint8_t data[4];;main.c: 84:     uint8_t k=0;
  3614  01A6  0020               	movlb	0	; select bank0
  3615  01A7  01D2               	clrf	initMatrix@k
  3616                           
  3617                           ;main.c: 85:    for(uint8_t i =0; i<8; i++){
  3618  01A8  01D3               	clrf	initMatrix@i
  3619  01A9                     l2620:
  3620                           
  3621                           ;main.c: 86:             MatrixLed[i] = 0;
  3622  01A9  0853               	movf	initMatrix@i,w
  3623  01AA  3E33               	addlw	(low (_MatrixLed| 0))& (0+255)
  3624  01AB  0086               	movwf	6
  3625  01AC  0187               	clrf	7
  3626  01AD  0181               	clrf	1
  3627  01AE                     l2622:
  3628                           
  3629                           ;main.c: 87:         }
  3630  01AE  3001               	movlw	1
  3631  01AF  00CD               	movwf	??_initMatrix
  3632  01B0  084D               	movf	??_initMatrix,w
  3633  01B1  07D3               	addwf	initMatrix@i,f
  3634  01B2                     l2624:
  3635  01B2  3008               	movlw	8
  3636  01B3  0253               	subwf	initMatrix@i,w
  3637  01B4  1C03               	skipc
  3638  01B5  29B7               	goto	u951
  3639  01B6  29B8               	goto	u950
  3640  01B7                     u951:
  3641  01B7  29A9               	goto	l2620
  3642  01B8                     u950:
  3643  01B8                     l2626:
  3644                           
  3645                           ;main.c: 88:     for(uint8_t i=0;i<6;i++){
  3646  01B8  01D4               	clrf	initMatrix@i_1317
  3647  01B9                     l2632:
  3648                           
  3649                           ;main.c: 89:         for(uint8_t j=0;j<4;j=j+2){
  3650  01B9  01D5               	clrf	initMatrix@j
  3651  01BA                     l2638:
  3652                           
  3653                           ;main.c: 90:             data[j]= matrix_conf[k];
  3654  01BA  0852               	movf	initMatrix@k,w
  3655  01BB  3E15               	addlw	low (_matrix_conf| (0+32768))
  3656  01BC  0084               	movwf	4
  3657  01BD  3085               	movlw	high (_matrix_conf| (0+32768))
  3658  01BE  1803               	skipnc
  3659  01BF  3E01               	addlw	1
  3660  01C0  0085               	movwf	5
  3661  01C1  0800               	movf	0,w	;code access
  3662  01C2  00CD               	movwf	??_initMatrix
  3663  01C3  0855               	movf	initMatrix@j,w
  3664  01C4  3E4E               	addlw	(low (initMatrix@data| 0))& (0+255)
  3665  01C5  0086               	movwf	6
  3666  01C6  0187               	clrf	7
  3667  01C7  084D               	movf	??_initMatrix,w
  3668  01C8  0081               	movwf	1
  3669                           
  3670                           ;main.c: 91:             data[j+1]= matrix_conf[k+1];
  3671  01C9  0852               	movf	initMatrix@k,w
  3672  01CA  3E16               	addlw	low ((_matrix_conf+1)| (0+32768))
  3673  01CB  0084               	movwf	4
  3674  01CC  3085               	movlw	high ((_matrix_conf+1)| (0+32768))
  3675  01CD  1803               	skipnc
  3676  01CE  3E01               	addlw	1
  3677  01CF  0085               	movwf	5
  3678  01D0  0800               	movf	0,w	;code access
  3679  01D1  00CD               	movwf	??_initMatrix
  3680  01D2  0855               	movf	initMatrix@j,w
  3681  01D3  3E01               	addlw	1
  3682  01D4  3E4E               	addlw	(low (initMatrix@data| 0))& (0+255)
  3683  01D5  0086               	movwf	6
  3684  01D6  0187               	clrf	7
  3685  01D7  084D               	movf	??_initMatrix,w
  3686  01D8  0081               	movwf	1
  3687  01D9                     l2640:
  3688                           
  3689                           ;main.c: 92:         }
  3690  01D9  0855               	movf	initMatrix@j,w
  3691  01DA  3E02               	addlw	2
  3692  01DB  00CD               	movwf	??_initMatrix
  3693  01DC  084D               	movf	??_initMatrix,w
  3694  01DD  00D5               	movwf	initMatrix@j
  3695  01DE                     l2642:
  3696  01DE  3004               	movlw	4
  3697  01DF  0255               	subwf	initMatrix@j,w
  3698  01E0  1C03               	skipc
  3699  01E1  29E3               	goto	u961
  3700  01E2  29E4               	goto	u960
  3701  01E3                     u961:
  3702  01E3  29BA               	goto	l2638
  3703  01E4                     u960:
  3704  01E4                     l2644:
  3705                           
  3706                           ;main.c: 93:         k=k+2;
  3707  01E4  0852               	movf	initMatrix@k,w
  3708  01E5  3E02               	addlw	2
  3709  01E6  00CD               	movwf	??_initMatrix
  3710  01E7  084D               	movf	??_initMatrix,w
  3711  01E8  00D2               	movwf	initMatrix@k
  3712  01E9                     l2646:
  3713                           
  3714                           ;main.c: 94:         txSpi( data, 4);
  3715  01E9  3004               	movlw	4
  3716  01EA  00CA               	movwf	txSpi@dataSize
  3717  01EB  3000               	movlw	0
  3718  01EC  00CB               	movwf	txSpi@dataSize+1
  3719  01ED  304E               	movlw	(low (initMatrix@data| 0))& (0+255)
  3720  01EE  3184  24B1  3181   	fcall	_txSpi
  3721  01F1                     l2650:
  3722                           
  3723                           ;main.c: 98:     }
  3724  01F1  3001               	movlw	1
  3725  01F2  0020               	movlb	0	; select bank0
  3726  01F3  00CD               	movwf	??_initMatrix
  3727  01F4  084D               	movf	??_initMatrix,w
  3728  01F5  07D4               	addwf	initMatrix@i_1317,f
  3729  01F6                     l2652:
  3730  01F6  3006               	movlw	6
  3731  01F7  0254               	subwf	initMatrix@i_1317,w
  3732  01F8  1C03               	skipc
  3733  01F9  29FB               	goto	u971
  3734  01FA  29FC               	goto	u970
  3735  01FB                     u971:
  3736  01FB  29B9               	goto	l2632
  3737  01FC                     u970:
  3738  01FC                     l613:
  3739  01FC  0008               	return
  3740  01FD                     __end_of_initMatrix:
  3741                           
  3742                           	psect	text2
  3743  04B1                     __ptext2:	
  3744 ;; *************** function _txSpi *****************
  3745 ;; Defined at:
  3746 ;;		line 54 in file "main.c"
  3747 ;; Parameters:    Size  Location     Type
  3748 ;;  data            1    wreg     PTR unsigned char 
  3749 ;;		 -> initMatrix@data(4), matrixUpdate@data(2), 
  3750 ;;  dataSize        2    5[BANK0 ] unsigned int 
  3751 ;; Auto vars:     Size  Location     Type
  3752 ;;  data            1    7[BANK0 ] PTR unsigned char 
  3753 ;;		 -> initMatrix@data(4), matrixUpdate@data(2), 
  3754 ;; Return value:  Size  Location     Type
  3755 ;;                  1    wreg      void 
  3756 ;; Registers used:
  3757 ;;		wreg, fsr1l, fsr1h, status,2, status,0, pclath, cstack
  3758 ;; Tracked objects:
  3759 ;;		On entry : 0/0
  3760 ;;		On exit  : 0/0
  3761 ;;		Unchanged: 0/0
  3762 ;; Data sizes:     COMMON   BANK0   BANK1   BANK2   BANK3   BANK4
  3763 ;;      Params:         0       2       0       0       0       0
  3764 ;;      Locals:         0       1       0       0       0       0
  3765 ;;      Temps:          0       0       0       0       0       0
  3766 ;;      Totals:         0       3       0       0       0       0
  3767 ;;Total ram usage:        3 bytes
  3768 ;; Hardware stack levels used: 1
  3769 ;; Hardware stack levels required when called: 8
  3770 ;; This function calls:
  3771 ;;		_SPI1_ExchangeBlock
  3772 ;; This function is called by:
  3773 ;;		_initMatrix
  3774 ;; This function uses a non-reentrant model
  3775 ;;
  3776                           
  3777  04B1                     _txSpi:	
  3778                           ;psect for function _txSpi
  3779                           
  3780                           
  3781                           ;incstack = 0
  3782                           ; Regs used in _txSpi: [wreg+fsr1l+fsr1h+status,2+status,0+pclath+cstack]
  3783                           ;txSpi@data stored from wreg
  3784  04B1  0020               	movlb	0	; select bank0
  3785  04B2  00CC               	movwf	txSpi@data
  3786  04B3                     l590:	
  3787                           ;main.c: 55:     do { LATBbits.LATB1 = 0; } while(0);
  3788                           
  3789  04B3  0022               	movlb	2	; select bank2
  3790  04B4  108D               	bcf	13,1	;volatile
  3791  04B5                     l2536:
  3792                           
  3793                           ;main.c: 56:     SPI1_ExchangeBlock(data,dataSize);
  3794  04B5  0020               	movlb	0	; select bank0
  3795  04B6  084B               	movf	txSpi@dataSize+1,w
  3796  04B7  00C6               	movwf	SPI1_ExchangeBlock@blockSize+1
  3797  04B8  084A               	movf	txSpi@dataSize,w
  3798  04B9  00C5               	movwf	SPI1_ExchangeBlock@blockSize
  3799  04BA  084C               	movf	txSpi@data,w
  3800  04BB  3183  2340  3184   	fcall	_SPI1_ExchangeBlock
  3801  04BE                     l2538:
  3802  04BE  0022               	movlb	2	; select bank2
  3803  04BF  148D               	bsf	13,1	;volatile
  3804  04C0                     l594:
  3805  04C0  0008               	return
  3806  04C1                     __end_of_txSpi:
  3807                           
  3808                           	psect	text3
  3809  0340                     __ptext3:	
  3810 ;; *************** function _SPI1_ExchangeBlock *****************
  3811 ;; Defined at:
  3812 ;;		line 100 in file "mcc_generated_files/spi1.c"
  3813 ;; Parameters:    Size  Location     Type
  3814 ;;  block           1    wreg     PTR void 
  3815 ;;		 -> initMatrix@data(4), matrixUpdate@data(2), 
  3816 ;;  blockSize       2    0[BANK0 ] unsigned int 
  3817 ;; Auto vars:     Size  Location     Type
  3818 ;;  block           1    3[BANK0 ] PTR void 
  3819 ;;		 -> initMatrix@data(4), matrixUpdate@data(2), 
  3820 ;;  data            1    4[BANK0 ] PTR unsigned char 
  3821 ;;		 -> initMatrix@data(4), matrixUpdate@data(2), 
  3822 ;; Return value:  Size  Location     Type
  3823 ;;                  1    wreg      void 
  3824 ;; Registers used:
  3825 ;;		wreg, fsr1l, fsr1h, status,2, status,0
  3826 ;; Tracked objects:
  3827 ;;		On entry : 0/0
  3828 ;;		On exit  : 0/0
  3829 ;;		Unchanged: 0/0
  3830 ;; Data sizes:     COMMON   BANK0   BANK1   BANK2   BANK3   BANK4
  3831 ;;      Params:         0       2       0       0       0       0
  3832 ;;      Locals:         0       2       0       0       0       0
  3833 ;;      Temps:          0       1       0       0       0       0
  3834 ;;      Totals:         0       5       0       0       0       0
  3835 ;;Total ram usage:        5 bytes
  3836 ;; Hardware stack levels used: 1
  3837 ;; Hardware stack levels required when called: 7
  3838 ;; This function calls:
  3839 ;;		Nothing
  3840 ;; This function is called by:
  3841 ;;		_txSpi
  3842 ;; This function uses a non-reentrant model
  3843 ;;
  3844                           
  3845  0340                     _SPI1_ExchangeBlock:	
  3846                           ;psect for function _SPI1_ExchangeBlock
  3847                           
  3848                           
  3849                           ;incstack = 0
  3850                           ; Regs used in _SPI1_ExchangeBlock: [wreg+fsr1l+fsr1h+status,2+status,0]
  3851                           ;SPI1_ExchangeBlock@block stored from wreg
  3852  0340  0020               	movlb	0	; select bank0
  3853  0341  00C8               	movwf	SPI1_ExchangeBlock@block
  3854  0342                     l2186:
  3855                           
  3856                           ;mcc_generated_files/spi1.c: 100: void SPI1_ExchangeBlock(void *block, size_t blockSize)
      +                          ;mcc_generated_files/spi1.c: 101: {;mcc_generated_files/spi1.c: 102:     uint8_t *data =
      +                           block;
  3857  0342  0848               	movf	SPI1_ExchangeBlock@block,w
  3858  0343  00C7               	movwf	??_SPI1_ExchangeBlock
  3859  0344  0847               	movf	??_SPI1_ExchangeBlock,w
  3860  0345  00C9               	movwf	SPI1_ExchangeBlock@data
  3861                           
  3862                           ;mcc_generated_files/spi1.c: 103:     while(blockSize--)
  3863  0346  2B60               	goto	l2194
  3864  0347                     l2188:
  3865                           
  3866                           ;mcc_generated_files/spi1.c: 104:     {;mcc_generated_files/spi1.c: 105:         SSP1BUF
      +                           = *data;
  3867  0347  0849               	movf	SPI1_ExchangeBlock@data,w
  3868  0348  0086               	movwf	6
  3869  0349  0187               	clrf	7
  3870  034A  0801               	movf	1,w
  3871  034B  0024               	movlb	4	; select bank4
  3872  034C  0091               	movwf	17	;volatile
  3873  034D                     l376:	
  3874                           ;mcc_generated_files/spi1.c: 106:         while(!PIR1bits.SSP1IF);
  3875                           
  3876  034D  0020               	movlb	0	; select bank0
  3877  034E  1D91               	btfss	17,3	;volatile
  3878  034F  2B51               	goto	u651
  3879  0350  2B52               	goto	u650
  3880  0351                     u651:
  3881  0351  2B4D               	goto	l376
  3882  0352                     u650:
  3883  0352                     l378:
  3884                           
  3885                           ;mcc_generated_files/spi1.c: 107:         PIR1bits.SSP1IF = 0;
  3886  0352  1191               	bcf	17,3	;volatile
  3887  0353                     l2190:
  3888                           
  3889                           ;mcc_generated_files/spi1.c: 108:         *data++ = SSP1BUF;
  3890  0353  0024               	movlb	4	; select bank4
  3891  0354  0811               	movf	17,w	;volatile
  3892  0355  0020               	movlb	0	; select bank0
  3893  0356  00C7               	movwf	??_SPI1_ExchangeBlock
  3894  0357  0849               	movf	SPI1_ExchangeBlock@data,w
  3895  0358  0086               	movwf	6
  3896  0359  0187               	clrf	7
  3897  035A  0847               	movf	??_SPI1_ExchangeBlock,w
  3898  035B  0081               	movwf	1
  3899  035C                     l2192:
  3900  035C  3001               	movlw	1
  3901  035D  00C7               	movwf	??_SPI1_ExchangeBlock
  3902  035E  0847               	movf	??_SPI1_ExchangeBlock,w
  3903  035F  07C9               	addwf	SPI1_ExchangeBlock@data,f
  3904  0360                     l2194:
  3905                           
  3906                           ;mcc_generated_files/spi1.c: 103:     while(blockSize--)
  3907  0360  3001               	movlw	1
  3908  0361  02C5               	subwf	SPI1_ExchangeBlock@blockSize,f
  3909  0362  3000               	movlw	0
  3910  0363  3BC6               	subwfb	SPI1_ExchangeBlock@blockSize+1,f
  3911  0364  0A45               	incf	SPI1_ExchangeBlock@blockSize,w
  3912  0365  1D03               	skipz
  3913  0366  2B6B               	goto	u661
  3914  0367  0A46               	incf	SPI1_ExchangeBlock@blockSize+1,w
  3915  0368  1D03               	btfss	3,2
  3916  0369  2B6B               	goto	u661
  3917  036A  2B6C               	goto	u660
  3918  036B                     u661:
  3919  036B  2B47               	goto	l2188
  3920  036C                     u660:
  3921  036C                     l380:
  3922  036C  0008               	return
  3923  036D                     __end_of_SPI1_ExchangeBlock:
  3924                           
  3925                           	psect	text4
  3926  05B2                     __ptext4:	
  3927 ;; *************** function _TMR1_StopTimer *****************
  3928 ;; Defined at:
  3929 ;;		line 92 in file "mcc_generated_files/tmr1.c"
  3930 ;; Parameters:    Size  Location     Type
  3931 ;;		None
  3932 ;; Auto vars:     Size  Location     Type
  3933 ;;		None
  3934 ;; Return value:  Size  Location     Type
  3935 ;;                  1    wreg      void 
  3936 ;; Registers used:
  3937 ;;		None
  3938 ;; Tracked objects:
  3939 ;;		On entry : 0/0
  3940 ;;		On exit  : 0/0
  3941 ;;		Unchanged: 0/0
  3942 ;; Data sizes:     COMMON   BANK0   BANK1   BANK2   BANK3   BANK4
  3943 ;;      Params:         0       0       0       0       0       0
  3944 ;;      Locals:         0       0       0       0       0       0
  3945 ;;      Temps:          0       0       0       0       0       0
  3946 ;;      Totals:         0       0       0       0       0       0
  3947 ;;Total ram usage:        0 bytes
  3948 ;; Hardware stack levels used: 1
  3949 ;; Hardware stack levels required when called: 7
  3950 ;; This function calls:
  3951 ;;		Nothing
  3952 ;; This function is called by:
  3953 ;;		_main
  3954 ;; This function uses a non-reentrant model
  3955 ;;
  3956                           
  3957  05B2                     _TMR1_StopTimer:	
  3958                           ;psect for function _TMR1_StopTimer
  3959                           
  3960  05B2                     l2598:	
  3961                           ;incstack = 0
  3962                           ; Regs used in _TMR1_StopTimer: []
  3963                           
  3964                           
  3965                           ;mcc_generated_files/tmr1.c: 95:     T1CONbits.TMR1ON = 0;
  3966  05B2  0020               	movlb	0	; select bank0
  3967  05B3  1018               	bcf	24,0	;volatile
  3968  05B4                     l457:
  3969  05B4  0008               	return
  3970  05B5                     __end_of_TMR1_StopTimer:
  3971                           
  3972                           	psect	text5
  3973  0312                     __ptext5:	
  3974 ;; *************** function _SYSTEM_Initialize *****************
  3975 ;; Defined at:
  3976 ;;		line 50 in file "mcc_generated_files/mcc.c"
  3977 ;; Parameters:    Size  Location     Type
  3978 ;;		None
  3979 ;; Auto vars:     Size  Location     Type
  3980 ;;		None
  3981 ;; Return value:  Size  Location     Type
  3982 ;;                  1    wreg      void 
  3983 ;; Registers used:
  3984 ;;		wreg, status,2, status,0, pclath, cstack
  3985 ;; Tracked objects:
  3986 ;;		On entry : 0/0
  3987 ;;		On exit  : 0/0
  3988 ;;		Unchanged: 0/0
  3989 ;; Data sizes:     COMMON   BANK0   BANK1   BANK2   BANK3   BANK4
  3990 ;;      Params:         0       0       0       0       0       0
  3991 ;;      Locals:         0       0       0       0       0       0
  3992 ;;      Temps:          0       0       0       0       0       0
  3993 ;;      Totals:         0       0       0       0       0       0
  3994 ;;Total ram usage:        0 bytes
  3995 ;; Hardware stack levels used: 1
  3996 ;; Hardware stack levels required when called: 9
  3997 ;; This function calls:
  3998 ;;		_ADC_Initialize
  3999 ;;		_CCP4_Initialize
  4000 ;;		_CMP1_Initialize
  4001 ;;		_CMP2_Initialize
  4002 ;;		_EUSART_Initialize
  4003 ;;		_FVR_Initialize
  4004 ;;		_OSCILLATOR_Initialize
  4005 ;;		_PIN_MANAGER_Initialize
  4006 ;;		_PWM3_Initialize
  4007 ;;		_SPI1_Initialize
  4008 ;;		_TMR0_Initialize
  4009 ;;		_TMR1_Initialize
  4010 ;;		_TMR2_Initialize
  4011 ;;		_TMR4_Initialize
  4012 ;;		_WDT_Initialize
  4013 ;; This function is called by:
  4014 ;;		_main
  4015 ;; This function uses a non-reentrant model
  4016 ;;
  4017                           
  4018  0312                     _SYSTEM_Initialize:	
  4019                           ;psect for function _SYSTEM_Initialize
  4020                           
  4021  0312                     l2560:	
  4022                           ;incstack = 0
  4023                           ; Regs used in _SYSTEM_Initialize: [wreg+status,2+status,0+pclath+cstack]
  4024                           
  4025                           
  4026                           ;mcc_generated_files/mcc.c: 53:     SPI1_Initialize();
  4027  0312  3185  2539  3183   	fcall	_SPI1_Initialize
  4028                           
  4029                           ;mcc_generated_files/mcc.c: 54:     PIN_MANAGER_Initialize();
  4030  0315  3182  22E1  3183   	fcall	_PIN_MANAGER_Initialize
  4031                           
  4032                           ;mcc_generated_files/mcc.c: 55:     OSCILLATOR_Initialize();
  4033  0318  3185  255D  3183   	fcall	_OSCILLATOR_Initialize
  4034                           
  4035                           ;mcc_generated_files/mcc.c: 56:     WDT_Initialize();
  4036  031B  3185  25AA  3183   	fcall	_WDT_Initialize
  4037                           
  4038                           ;mcc_generated_files/mcc.c: 57:     FVR_Initialize();
  4039  031E  3185  25AE  3183   	fcall	_FVR_Initialize
  4040                           
  4041                           ;mcc_generated_files/mcc.c: 58:     CMP2_Initialize();
  4042  0321  3185  2521  3183   	fcall	_CMP2_Initialize
  4043                           
  4044                           ;mcc_generated_files/mcc.c: 59:     TMR4_Initialize();
  4045  0324  3184  247A  3183   	fcall	_TMR4_Initialize
  4046                           
  4047                           ;mcc_generated_files/mcc.c: 60:     TMR2_Initialize();
  4048  0327  3185  254D  3183   	fcall	_TMR2_Initialize
  4049                           
  4050                           ;mcc_generated_files/mcc.c: 61:     TMR0_Initialize();
  4051  032A  3184  2438  3183   	fcall	_TMR0_Initialize
  4052                           
  4053                           ;mcc_generated_files/mcc.c: 62:     CMP1_Initialize();
  4054  032D  3185  252D  3183   	fcall	_CMP1_Initialize
  4055                           
  4056                           ;mcc_generated_files/mcc.c: 63:     ADC_Initialize();
  4057  0330  3185  2555  3183   	fcall	_ADC_Initialize
  4058                           
  4059                           ;mcc_generated_files/mcc.c: 64:     CCP4_Initialize();
  4060  0333  3184  248E  3183   	fcall	_CCP4_Initialize
  4061                           
  4062                           ;mcc_generated_files/mcc.c: 65:     PWM3_Initialize();
  4063  0336  3185  2544  3183   	fcall	_PWM3_Initialize
  4064                           
  4065                           ;mcc_generated_files/mcc.c: 66:     TMR1_Initialize();
  4066  0339  3184  24DF  3183   	fcall	_TMR1_Initialize
  4067                           
  4068                           ;mcc_generated_files/mcc.c: 67:     EUSART_Initialize();
  4069  033C  3183  23C4  3183   	fcall	_EUSART_Initialize
  4070  033F                     l195:
  4071  033F  0008               	return
  4072  0340                     __end_of_SYSTEM_Initialize:
  4073                           
  4074                           	psect	text6
  4075  05AA                     __ptext6:	
  4076 ;; *************** function _WDT_Initialize *****************
  4077 ;; Defined at:
  4078 ;;		line 80 in file "mcc_generated_files/mcc.c"
  4079 ;; Parameters:    Size  Location     Type
  4080 ;;		None
  4081 ;; Auto vars:     Size  Location     Type
  4082 ;;		None
  4083 ;; Return value:  Size  Location     Type
  4084 ;;                  1    wreg      void 
  4085 ;; Registers used:
  4086 ;;		wreg
  4087 ;; Tracked objects:
  4088 ;;		On entry : 0/0
  4089 ;;		On exit  : 0/0
  4090 ;;		Unchanged: 0/0
  4091 ;; Data sizes:     COMMON   BANK0   BANK1   BANK2   BANK3   BANK4
  4092 ;;      Params:         0       0       0       0       0       0
  4093 ;;      Locals:         0       0       0       0       0       0
  4094 ;;      Temps:          0       0       0       0       0       0
  4095 ;;      Totals:         0       0       0       0       0       0
  4096 ;;Total ram usage:        0 bytes
  4097 ;; Hardware stack levels used: 1
  4098 ;; Hardware stack levels required when called: 7
  4099 ;; This function calls:
  4100 ;;		Nothing
  4101 ;; This function is called by:
  4102 ;;		_SYSTEM_Initialize
  4103 ;; This function uses a non-reentrant model
  4104 ;;
  4105                           
  4106  05AA                     _WDT_Initialize:	
  4107                           ;psect for function _WDT_Initialize
  4108                           
  4109  05AA                     l2454:	
  4110                           ;incstack = 0
  4111                           ; Regs used in _WDT_Initialize: [wreg]
  4112                           
  4113                           
  4114                           ;mcc_generated_files/mcc.c: 83:     WDTCON = 0x16;
  4115  05AA  3016               	movlw	22
  4116  05AB  0021               	movlb	1	; select bank1
  4117  05AC  0097               	movwf	23	;volatile
  4118  05AD                     l201:
  4119  05AD  0008               	return
  4120  05AE                     __end_of_WDT_Initialize:
  4121                           
  4122                           	psect	text7
  4123  047A                     __ptext7:	
  4124 ;; *************** function _TMR4_Initialize *****************
  4125 ;; Defined at:
  4126 ;;		line 64 in file "mcc_generated_files/tmr4.c"
  4127 ;; Parameters:    Size  Location     Type
  4128 ;;		None
  4129 ;; Auto vars:     Size  Location     Type
  4130 ;;		None
  4131 ;; Return value:  Size  Location     Type
  4132 ;;                  1    wreg      void 
  4133 ;; Registers used:
  4134 ;;		wreg, status,2, status,0, pclath, cstack
  4135 ;; Tracked objects:
  4136 ;;		On entry : 0/0
  4137 ;;		On exit  : 0/0
  4138 ;;		Unchanged: 0/0
  4139 ;; Data sizes:     COMMON   BANK0   BANK1   BANK2   BANK3   BANK4
  4140 ;;      Params:         0       0       0       0       0       0
  4141 ;;      Locals:         0       0       0       0       0       0
  4142 ;;      Temps:          0       0       0       0       0       0
  4143 ;;      Totals:         0       0       0       0       0       0
  4144 ;;Total ram usage:        0 bytes
  4145 ;; Hardware stack levels used: 1
  4146 ;; Hardware stack levels required when called: 8
  4147 ;; This function calls:
  4148 ;;		_TMR4_SetInterruptHandler
  4149 ;; This function is called by:
  4150 ;;		_SYSTEM_Initialize
  4151 ;; This function uses a non-reentrant model
  4152 ;;
  4153                           
  4154  047A                     _TMR4_Initialize:	
  4155                           ;psect for function _TMR4_Initialize
  4156                           
  4157  047A                     l2458:	
  4158                           ;incstack = 0
  4159                           ; Regs used in _TMR4_Initialize: [wreg+status,2+status,0+pclath+cstack]
  4160                           
  4161                           
  4162                           ;mcc_generated_files/tmr4.c: 69:     PR4 = 0xF3;
  4163  047A  30F3               	movlw	243
  4164  047B  0028               	movlb	8	; select bank8
  4165  047C  0096               	movwf	22	;volatile
  4166  047D                     l2460:
  4167                           
  4168                           ;mcc_generated_files/tmr4.c: 72:     TMR4 = 0x00;
  4169  047D  0195               	clrf	21	;volatile
  4170  047E                     l2462:
  4171                           
  4172                           ;mcc_generated_files/tmr4.c: 75:     PIR3bits.TMR4IF = 0;
  4173  047E  0020               	movlb	0	; select bank0
  4174  047F  1093               	bcf	19,1	;volatile
  4175  0480                     l2464:
  4176                           
  4177                           ;mcc_generated_files/tmr4.c: 78:     PIE3bits.TMR4IE = 1;
  4178  0480  0021               	movlb	1	; select bank1
  4179  0481  1493               	bsf	19,1	;volatile
  4180  0482                     l2466:
  4181                           
  4182                           ;mcc_generated_files/tmr4.c: 81:     TMR4_SetInterruptHandler(TMR4_DefaultInterruptHandl
      +                          er);
  4183  0482  30BC               	movlw	low _TMR4_DefaultInterruptHandler
  4184  0483  0020               	movlb	0	; select bank0
  4185  0484  00C5               	movwf	TMR4_SetInterruptHandler@InterruptHandler
  4186  0485  3005               	movlw	high _TMR4_DefaultInterruptHandler
  4187  0486  00C6               	movwf	TMR4_SetInterruptHandler@InterruptHandler+1
  4188  0487  3185  256A  3184   	fcall	_TMR4_SetInterruptHandler
  4189  048A                     l2468:
  4190                           
  4191                           ;mcc_generated_files/tmr4.c: 84:     T4CON = 0x7F;
  4192  048A  307F               	movlw	127
  4193  048B  0028               	movlb	8	; select bank8
  4194  048C  0097               	movwf	23	;volatile
  4195  048D                     l719:
  4196  048D  0008               	return
  4197  048E                     __end_of_TMR4_Initialize:
  4198                           
  4199                           	psect	text8
  4200  056A                     __ptext8:	
  4201 ;; *************** function _TMR4_SetInterruptHandler *****************
  4202 ;; Defined at:
  4203 ;;		line 147 in file "mcc_generated_files/tmr4.c"
  4204 ;; Parameters:    Size  Location     Type
  4205 ;;  InterruptHan    2    0[BANK0 ] PTR FTN()void 
  4206 ;;		 -> TMR4_DefaultInterruptHandler(1), controleMovimento(1), 
  4207 ;; Auto vars:     Size  Location     Type
  4208 ;;		None
  4209 ;; Return value:  Size  Location     Type
  4210 ;;                  1    wreg      void 
  4211 ;; Registers used:
  4212 ;;		wreg
  4213 ;; Tracked objects:
  4214 ;;		On entry : 0/0
  4215 ;;		On exit  : 0/0
  4216 ;;		Unchanged: 0/0
  4217 ;; Data sizes:     COMMON   BANK0   BANK1   BANK2   BANK3   BANK4
  4218 ;;      Params:         0       2       0       0       0       0
  4219 ;;      Locals:         0       0       0       0       0       0
  4220 ;;      Temps:          0       0       0       0       0       0
  4221 ;;      Totals:         0       2       0       0       0       0
  4222 ;;Total ram usage:        2 bytes
  4223 ;; Hardware stack levels used: 1
  4224 ;; Hardware stack levels required when called: 7
  4225 ;; This function calls:
  4226 ;;		Nothing
  4227 ;; This function is called by:
  4228 ;;		_main
  4229 ;;		_TMR4_Initialize
  4230 ;; This function uses a non-reentrant model
  4231 ;;
  4232                           
  4233  056A                     _TMR4_SetInterruptHandler:	
  4234                           ;psect for function _TMR4_SetInterruptHandler
  4235                           
  4236  056A                     l2296:	
  4237                           ;incstack = 0
  4238                           ; Regs used in _TMR4_SetInterruptHandler: [wreg]
  4239                           
  4240                           
  4241                           ;mcc_generated_files/tmr4.c: 148:     TMR4_InterruptHandler = InterruptHandler;
  4242  056A  0020               	movlb	0	; select bank0
  4243  056B  0846               	movf	TMR4_SetInterruptHandler@InterruptHandler+1,w
  4244  056C  00A1               	movwf	_TMR4_InterruptHandler+1
  4245  056D  0845               	movf	TMR4_SetInterruptHandler@InterruptHandler,w
  4246  056E  00A0               	movwf	_TMR4_InterruptHandler
  4247  056F                     l747:
  4248  056F  0008               	return
  4249  0570                     __end_of_TMR4_SetInterruptHandler:
  4250                           
  4251                           	psect	text9
  4252  054D                     __ptext9:	
  4253 ;; *************** function _TMR2_Initialize *****************
  4254 ;; Defined at:
  4255 ;;		line 62 in file "mcc_generated_files/tmr2.c"
  4256 ;; Parameters:    Size  Location     Type
  4257 ;;		None
  4258 ;; Auto vars:     Size  Location     Type
  4259 ;;		None
  4260 ;; Return value:  Size  Location     Type
  4261 ;;                  1    wreg      void 
  4262 ;; Registers used:
  4263 ;;		wreg, status,2
  4264 ;; Tracked objects:
  4265 ;;		On entry : 0/0
  4266 ;;		On exit  : 0/0
  4267 ;;		Unchanged: 0/0
  4268 ;; Data sizes:     COMMON   BANK0   BANK1   BANK2   BANK3   BANK4
  4269 ;;      Params:         0       0       0       0       0       0
  4270 ;;      Locals:         0       0       0       0       0       0
  4271 ;;      Temps:          0       0       0       0       0       0
  4272 ;;      Totals:         0       0       0       0       0       0
  4273 ;;Total ram usage:        0 bytes
  4274 ;; Hardware stack levels used: 1
  4275 ;; Hardware stack levels required when called: 7
  4276 ;; This function calls:
  4277 ;;		Nothing
  4278 ;; This function is called by:
  4279 ;;		_SYSTEM_Initialize
  4280 ;; This function uses a non-reentrant model
  4281 ;;
  4282                           
  4283  054D                     _TMR2_Initialize:	
  4284                           ;psect for function _TMR2_Initialize
  4285                           
  4286  054D                     l2470:	
  4287                           ;incstack = 0
  4288                           ; Regs used in _TMR2_Initialize: [wreg+status,2]
  4289                           
  4290                           
  4291                           ;mcc_generated_files/tmr2.c: 67:     PR2 = 0xFF;
  4292  054D  30FF               	movlw	255
  4293  054E  0020               	movlb	0	; select bank0
  4294  054F  009B               	movwf	27	;volatile
  4295  0550                     l2472:
  4296                           
  4297                           ;mcc_generated_files/tmr2.c: 70:     TMR2 = 0x00;
  4298  0550  019A               	clrf	26	;volatile
  4299  0551                     l2474:
  4300                           
  4301                           ;mcc_generated_files/tmr2.c: 73:     PIR1bits.TMR2IF = 0;
  4302  0551  1091               	bcf	17,1	;volatile
  4303  0552                     l2476:
  4304                           
  4305                           ;mcc_generated_files/tmr2.c: 76:     T2CON = 0x04;
  4306  0552  3004               	movlw	4
  4307  0553  009C               	movwf	28	;volatile
  4308  0554                     l490:
  4309  0554  0008               	return
  4310  0555                     __end_of_TMR2_Initialize:
  4311                           
  4312                           	psect	text10
  4313  04DF                     __ptext10:	
  4314 ;; *************** function _TMR1_Initialize *****************
  4315 ;; Defined at:
  4316 ;;		line 63 in file "mcc_generated_files/tmr1.c"
  4317 ;; Parameters:    Size  Location     Type
  4318 ;;		None
  4319 ;; Auto vars:     Size  Location     Type
  4320 ;;		None
  4321 ;; Return value:  Size  Location     Type
  4322 ;;                  1    wreg      void 
  4323 ;; Registers used:
  4324 ;;		wreg, status,2
  4325 ;; Tracked objects:
  4326 ;;		On entry : 0/0
  4327 ;;		On exit  : 0/0
  4328 ;;		Unchanged: 0/0
  4329 ;; Data sizes:     COMMON   BANK0   BANK1   BANK2   BANK3   BANK4
  4330 ;;      Params:         0       0       0       0       0       0
  4331 ;;      Locals:         0       0       0       0       0       0
  4332 ;;      Temps:          0       0       0       0       0       0
  4333 ;;      Totals:         0       0       0       0       0       0
  4334 ;;Total ram usage:        0 bytes
  4335 ;; Hardware stack levels used: 1
  4336 ;; Hardware stack levels required when called: 7
  4337 ;; This function calls:
  4338 ;;		Nothing
  4339 ;; This function is called by:
  4340 ;;		_SYSTEM_Initialize
  4341 ;; This function uses a non-reentrant model
  4342 ;;
  4343                           
  4344  04DF                     _TMR1_Initialize:	
  4345                           ;psect for function _TMR1_Initialize
  4346                           
  4347  04DF                     l2508:	
  4348                           ;incstack = 0
  4349                           ; Regs used in _TMR1_Initialize: [wreg+status,2]
  4350                           
  4351                           
  4352                           ;mcc_generated_files/tmr1.c: 68:     T1GCON = 0x00;
  4353  04DF  0020               	movlb	0	; select bank0
  4354  04E0  0199               	clrf	25	;volatile
  4355  04E1                     l2510:
  4356                           
  4357                           ;mcc_generated_files/tmr1.c: 71:     TMR1H = 0x0B;
  4358  04E1  300B               	movlw	11
  4359  04E2  0097               	movwf	23	;volatile
  4360  04E3                     l2512:
  4361                           
  4362                           ;mcc_generated_files/tmr1.c: 74:     TMR1L = 0xDC;
  4363  04E3  30DC               	movlw	220
  4364  04E4  0096               	movwf	22	;volatile
  4365  04E5                     l2514:
  4366                           
  4367                           ;mcc_generated_files/tmr1.c: 77:     PIR1bits.TMR1IF = 0;
  4368  04E5  1011               	bcf	17,0	;volatile
  4369  04E6                     l2516:
  4370                           
  4371                           ;mcc_generated_files/tmr1.c: 80:     timer1ReloadVal=(uint16_t)((TMR1H << 8) | TMR1L);
  4372  04E6  0817               	movf	23,w	;volatile
  4373  04E7  00A7               	movwf	_timer1ReloadVal+1	;volatile
  4374  04E8  0816               	movf	22,w	;volatile
  4375  04E9  00A6               	movwf	_timer1ReloadVal	;volatile
  4376  04EA                     l2518:
  4377                           
  4378                           ;mcc_generated_files/tmr1.c: 83:     T1CON = 0x31;
  4379  04EA  3031               	movlw	49
  4380  04EB  0098               	movwf	24	;volatile
  4381  04EC                     l451:
  4382  04EC  0008               	return
  4383  04ED                     __end_of_TMR1_Initialize:
  4384                           
  4385                           	psect	text11
  4386  0438                     __ptext11:	
  4387 ;; *************** function _TMR0_Initialize *****************
  4388 ;; Defined at:
  4389 ;;		line 64 in file "mcc_generated_files/tmr0.c"
  4390 ;; Parameters:    Size  Location     Type
  4391 ;;		None
  4392 ;; Auto vars:     Size  Location     Type
  4393 ;;		None
  4394 ;; Return value:  Size  Location     Type
  4395 ;;                  1    wreg      void 
  4396 ;; Registers used:
  4397 ;;		wreg, status,2, status,0, pclath, cstack
  4398 ;; Tracked objects:
  4399 ;;		On entry : 0/0
  4400 ;;		On exit  : 0/0
  4401 ;;		Unchanged: 0/0
  4402 ;; Data sizes:     COMMON   BANK0   BANK1   BANK2   BANK3   BANK4
  4403 ;;      Params:         0       0       0       0       0       0
  4404 ;;      Locals:         0       0       0       0       0       0
  4405 ;;      Temps:          0       1       0       0       0       0
  4406 ;;      Totals:         0       1       0       0       0       0
  4407 ;;Total ram usage:        1 bytes
  4408 ;; Hardware stack levels used: 1
  4409 ;; Hardware stack levels required when called: 8
  4410 ;; This function calls:
  4411 ;;		_TMR0_SetInterruptHandler
  4412 ;; This function is called by:
  4413 ;;		_SYSTEM_Initialize
  4414 ;; This function uses a non-reentrant model
  4415 ;;
  4416                           
  4417  0438                     _TMR0_Initialize:	
  4418                           ;psect for function _TMR0_Initialize
  4419                           
  4420  0438                     l2478:	
  4421                           ;incstack = 0
  4422                           ; Regs used in _TMR0_Initialize: [wreg+status,2+status,0+pclath+cstack]
  4423                           
  4424                           
  4425                           ;mcc_generated_files/tmr0.c: 69:     OPTION_REG = (uint8_t)((OPTION_REG & 0xC0) | (0xD7 
      +                          & 0x3F));
  4426  0438  0021               	movlb	1	; select bank1
  4427  0439  0815               	movf	21,w	;volatile
  4428  043A  39C0               	andlw	192
  4429  043B  3817               	iorlw	23
  4430  043C  0095               	movwf	21	;volatile
  4431  043D                     l2480:
  4432                           
  4433                           ;mcc_generated_files/tmr0.c: 72:     TMR0 = 0x16;
  4434  043D  3016               	movlw	22
  4435  043E  0020               	movlb	0	; select bank0
  4436  043F  0095               	movwf	21	;volatile
  4437  0440                     l2482:
  4438                           
  4439                           ;mcc_generated_files/tmr0.c: 75:     timer0ReloadVal= 22;
  4440  0440  3016               	movlw	22
  4441  0441  00C7               	movwf	??_TMR0_Initialize
  4442  0442  0847               	movf	??_TMR0_Initialize,w
  4443  0443  00B2               	movwf	_timer0ReloadVal	;volatile
  4444  0444                     l2484:
  4445                           
  4446                           ;mcc_generated_files/tmr0.c: 78:     INTCONbits.TMR0IF = 0;
  4447  0444  110B               	bcf	11,2	;volatile
  4448  0445                     l2486:
  4449                           
  4450                           ;mcc_generated_files/tmr0.c: 81:     INTCONbits.TMR0IE = 1;
  4451  0445  168B               	bsf	11,5	;volatile
  4452  0446                     l2488:
  4453                           
  4454                           ;mcc_generated_files/tmr0.c: 84:     TMR0_SetInterruptHandler(TMR0_DefaultInterruptHandl
      +                          er);
  4455  0446  30BD               	movlw	low _TMR0_DefaultInterruptHandler
  4456  0447  00C5               	movwf	TMR0_SetInterruptHandler@InterruptHandler
  4457  0448  3005               	movlw	high _TMR0_DefaultInterruptHandler
  4458  0449  00C6               	movwf	TMR0_SetInterruptHandler@InterruptHandler+1
  4459  044A  3185  2570  3184   	fcall	_TMR0_SetInterruptHandler
  4460  044D                     l528:
  4461  044D  0008               	return
  4462  044E                     __end_of_TMR0_Initialize:
  4463                           
  4464                           	psect	text12
  4465  0570                     __ptext12:	
  4466 ;; *************** function _TMR0_SetInterruptHandler *****************
  4467 ;; Defined at:
  4468 ;;		line 140 in file "mcc_generated_files/tmr0.c"
  4469 ;; Parameters:    Size  Location     Type
  4470 ;;  InterruptHan    2    0[BANK0 ] PTR FTN()void 
  4471 ;;		 -> TMR0_DefaultInterruptHandler(1), 
  4472 ;; Auto vars:     Size  Location     Type
  4473 ;;		None
  4474 ;; Return value:  Size  Location     Type
  4475 ;;                  1    wreg      void 
  4476 ;; Registers used:
  4477 ;;		wreg
  4478 ;; Tracked objects:
  4479 ;;		On entry : 0/0
  4480 ;;		On exit  : 0/0
  4481 ;;		Unchanged: 0/0
  4482 ;; Data sizes:     COMMON   BANK0   BANK1   BANK2   BANK3   BANK4
  4483 ;;      Params:         0       2       0       0       0       0
  4484 ;;      Locals:         0       0       0       0       0       0
  4485 ;;      Temps:          0       0       0       0       0       0
  4486 ;;      Totals:         0       2       0       0       0       0
  4487 ;;Total ram usage:        2 bytes
  4488 ;; Hardware stack levels used: 1
  4489 ;; Hardware stack levels required when called: 7
  4490 ;; This function calls:
  4491 ;;		Nothing
  4492 ;; This function is called by:
  4493 ;;		_TMR0_Initialize
  4494 ;; This function uses a non-reentrant model
  4495 ;;
  4496                           
  4497  0570                     _TMR0_SetInterruptHandler:	
  4498                           ;psect for function _TMR0_SetInterruptHandler
  4499                           
  4500  0570                     l2196:	
  4501                           ;incstack = 0
  4502                           ; Regs used in _TMR0_SetInterruptHandler: [wreg]
  4503                           
  4504                           
  4505                           ;mcc_generated_files/tmr0.c: 141:     TMR0_InterruptHandler = InterruptHandler;
  4506  0570  0020               	movlb	0	; select bank0
  4507  0571  0846               	movf	TMR0_SetInterruptHandler@InterruptHandler+1,w
  4508  0572  00A5               	movwf	_TMR0_InterruptHandler+1
  4509  0573  0845               	movf	TMR0_SetInterruptHandler@InterruptHandler,w
  4510  0574  00A4               	movwf	_TMR0_InterruptHandler
  4511  0575                     l550:
  4512  0575  0008               	return
  4513  0576                     __end_of_TMR0_SetInterruptHandler:
  4514                           
  4515                           	psect	text13
  4516  0539                     __ptext13:	
  4517 ;; *************** function _SPI1_Initialize *****************
  4518 ;; Defined at:
  4519 ;;		line 62 in file "mcc_generated_files/spi1.c"
  4520 ;; Parameters:    Size  Location     Type
  4521 ;;		None
  4522 ;; Auto vars:     Size  Location     Type
  4523 ;;		None
  4524 ;; Return value:  Size  Location     Type
  4525 ;;                  1    wreg      void 
  4526 ;; Registers used:
  4527 ;;		wreg, status,2
  4528 ;; Tracked objects:
  4529 ;;		On entry : 0/0
  4530 ;;		On exit  : 0/0
  4531 ;;		Unchanged: 0/0
  4532 ;; Data sizes:     COMMON   BANK0   BANK1   BANK2   BANK3   BANK4
  4533 ;;      Params:         0       0       0       0       0       0
  4534 ;;      Locals:         0       0       0       0       0       0
  4535 ;;      Temps:          0       0       0       0       0       0
  4536 ;;      Totals:         0       0       0       0       0       0
  4537 ;;Total ram usage:        0 bytes
  4538 ;; Hardware stack levels used: 1
  4539 ;; Hardware stack levels required when called: 7
  4540 ;; This function calls:
  4541 ;;		Nothing
  4542 ;; This function is called by:
  4543 ;;		_SYSTEM_Initialize
  4544 ;; This function uses a non-reentrant model
  4545 ;;
  4546                           
  4547  0539                     _SPI1_Initialize:	
  4548                           ;psect for function _SPI1_Initialize
  4549                           
  4550  0539                     l2438:	
  4551                           ;incstack = 0
  4552                           ; Regs used in _SPI1_Initialize: [wreg+status,2]
  4553                           
  4554                           
  4555                           ;mcc_generated_files/spi1.c: 65:     SSP1STAT = 0x40;
  4556  0539  3040               	movlw	64
  4557  053A  0024               	movlb	4	; select bank4
  4558  053B  0094               	movwf	20	;volatile
  4559  053C                     l2440:
  4560                           
  4561                           ;mcc_generated_files/spi1.c: 66:     SSP1CON1 = 0x00;
  4562  053C  0195               	clrf	21	;volatile
  4563  053D                     l2442:
  4564                           
  4565                           ;mcc_generated_files/spi1.c: 67:     SSP1ADD = 0x01;
  4566  053D  3001               	movlw	1
  4567  053E  0092               	movwf	18	;volatile
  4568  053F                     l2444:
  4569                           
  4570                           ;mcc_generated_files/spi1.c: 68:     TRISBbits.TRISB4 = 0;
  4571  053F  0021               	movlb	1	; select bank1
  4572  0540  120D               	bcf	13,4	;volatile
  4573  0541                     l2446:
  4574                           
  4575                           ;mcc_generated_files/spi1.c: 69:     SSP1CON1bits.SSPEN = 0;
  4576  0541  0024               	movlb	4	; select bank4
  4577  0542  1295               	bcf	21,5	;volatile
  4578  0543                     l358:
  4579  0543  0008               	return
  4580  0544                     __end_of_SPI1_Initialize:
  4581                           
  4582                           	psect	text14
  4583  0544                     __ptext14:	
  4584 ;; *************** function _PWM3_Initialize *****************
  4585 ;; Defined at:
  4586 ;;		line 64 in file "mcc_generated_files/pwm3.c"
  4587 ;; Parameters:    Size  Location     Type
  4588 ;;		None
  4589 ;; Auto vars:     Size  Location     Type
  4590 ;;		None
  4591 ;; Return value:  Size  Location     Type
  4592 ;;                  1    wreg      void 
  4593 ;; Registers used:
  4594 ;;		wreg, status,2, status,0
  4595 ;; Tracked objects:
  4596 ;;		On entry : 0/0
  4597 ;;		On exit  : 0/0
  4598 ;;		Unchanged: 0/0
  4599 ;; Data sizes:     COMMON   BANK0   BANK1   BANK2   BANK3   BANK4
  4600 ;;      Params:         0       0       0       0       0       0
  4601 ;;      Locals:         0       0       0       0       0       0
  4602 ;;      Temps:          0       0       0       0       0       0
  4603 ;;      Totals:         0       0       0       0       0       0
  4604 ;;Total ram usage:        0 bytes
  4605 ;; Hardware stack levels used: 1
  4606 ;; Hardware stack levels required when called: 7
  4607 ;; This function calls:
  4608 ;;		Nothing
  4609 ;; This function is called by:
  4610 ;;		_SYSTEM_Initialize
  4611 ;; This function uses a non-reentrant model
  4612 ;;
  4613                           
  4614  0544                     _PWM3_Initialize:	
  4615                           ;psect for function _PWM3_Initialize
  4616                           
  4617  0544                     l2300:	
  4618                           ;incstack = 0
  4619                           ; Regs used in _PWM3_Initialize: [wreg+status,2+status,0]
  4620                           
  4621                           
  4622                           ;mcc_generated_files/pwm3.c: 69:  CCP3CON = 0x0C;
  4623  0544  300C               	movlw	12
  4624  0545  0026               	movlb	6	; select bank6
  4625  0546  0093               	movwf	19	;volatile
  4626  0547                     l2302:
  4627                           
  4628                           ;mcc_generated_files/pwm3.c: 72:  CCPR3L = 0x00;
  4629  0547  0191               	clrf	17	;volatile
  4630  0548                     l2304:
  4631                           
  4632                           ;mcc_generated_files/pwm3.c: 75:  CCPR3H = 0x00;
  4633  0548  0192               	clrf	18	;volatile
  4634  0549                     l2306:
  4635                           
  4636                           ;mcc_generated_files/pwm3.c: 78:  CCPTMRS0bits.C3TSEL = 0x0;
  4637  0549  30CF               	movlw	-49
  4638  054A  0025               	movlb	5	; select bank5
  4639  054B  059E               	andwf	30,f	;volatile
  4640  054C                     l11:
  4641  054C  0008               	return
  4642  054D                     __end_of_PWM3_Initialize:
  4643                           
  4644                           	psect	text15
  4645  02E1                     __ptext15:	
  4646 ;; *************** function _PIN_MANAGER_Initialize *****************
  4647 ;; Defined at:
  4648 ;;		line 58 in file "mcc_generated_files/pin_manager.c"
  4649 ;; Parameters:    Size  Location     Type
  4650 ;;		None
  4651 ;; Auto vars:     Size  Location     Type
  4652 ;;		None
  4653 ;; Return value:  Size  Location     Type
  4654 ;;                  1    wreg      void 
  4655 ;; Registers used:
  4656 ;;		wreg, status,2, status,0, pclath, cstack
  4657 ;; Tracked objects:
  4658 ;;		On entry : 0/0
  4659 ;;		On exit  : 0/0
  4660 ;;		Unchanged: 0/0
  4661 ;; Data sizes:     COMMON   BANK0   BANK1   BANK2   BANK3   BANK4
  4662 ;;      Params:         0       0       0       0       0       0
  4663 ;;      Locals:         0       0       0       0       0       0
  4664 ;;      Temps:          0       0       0       0       0       0
  4665 ;;      Totals:         0       0       0       0       0       0
  4666 ;;Total ram usage:        0 bytes
  4667 ;; Hardware stack levels used: 1
  4668 ;; Hardware stack levels required when called: 8
  4669 ;; This function calls:
  4670 ;;		_IOCBF0_SetInterruptHandler
  4671 ;;		_IOCBF3_SetInterruptHandler
  4672 ;; This function is called by:
  4673 ;;		_SYSTEM_Initialize
  4674 ;; This function uses a non-reentrant model
  4675 ;;
  4676                           
  4677  02E1                     _PIN_MANAGER_Initialize:	
  4678                           ;psect for function _PIN_MANAGER_Initialize
  4679                           
  4680  02E1                     l2392:	
  4681                           ;incstack = 0
  4682                           ; Regs used in _PIN_MANAGER_Initialize: [wreg+status,2+status,0+pclath+cstack]
  4683                           
  4684                           
  4685                           ;mcc_generated_files/pin_manager.c: 63:     LATA = 0x00;
  4686  02E1  0022               	movlb	2	; select bank2
  4687  02E2  018C               	clrf	12	;volatile
  4688                           
  4689                           ;mcc_generated_files/pin_manager.c: 64:     LATB = 0x00;
  4690  02E3  018D               	clrf	13	;volatile
  4691  02E4                     l2394:
  4692                           
  4693                           ;mcc_generated_files/pin_manager.c: 69:     TRISA = 0x37;
  4694  02E4  3037               	movlw	55
  4695  02E5  0021               	movlb	1	; select bank1
  4696  02E6  008C               	movwf	12	;volatile
  4697  02E7                     l2396:
  4698                           
  4699                           ;mcc_generated_files/pin_manager.c: 70:     TRISB = 0xED;
  4700  02E7  30ED               	movlw	237
  4701  02E8  008D               	movwf	13	;volatile
  4702  02E9                     l2398:
  4703                           
  4704                           ;mcc_generated_files/pin_manager.c: 75:     ANSELB = 0xC0;
  4705  02E9  30C0               	movlw	192
  4706  02EA  0023               	movlb	3	; select bank3
  4707  02EB  008D               	movwf	13	;volatile
  4708  02EC                     l2400:
  4709                           
  4710                           ;mcc_generated_files/pin_manager.c: 76:     ANSELA = 0x0F;
  4711  02EC  300F               	movlw	15
  4712  02ED  008C               	movwf	12	;volatile
  4713  02EE                     l2402:
  4714                           
  4715                           ;mcc_generated_files/pin_manager.c: 81:     WPUB = 0x09;
  4716  02EE  3009               	movlw	9
  4717  02EF  0024               	movlb	4	; select bank4
  4718  02F0  008D               	movwf	13	;volatile
  4719  02F1                     l2404:
  4720                           
  4721                           ;mcc_generated_files/pin_manager.c: 82:     WPUA = 0x00;
  4722  02F1  018C               	clrf	12	;volatile
  4723  02F2                     l2406:
  4724                           
  4725                           ;mcc_generated_files/pin_manager.c: 83:     OPTION_REGbits.nWPUEN = 0;
  4726  02F2  0021               	movlb	1	; select bank1
  4727  02F3  1395               	bcf	21,7	;volatile
  4728                           
  4729                           ;mcc_generated_files/pin_manager.c: 89:     APFCON0 = 0xC0;
  4730  02F4  30C0               	movlw	192
  4731  02F5  0022               	movlb	2	; select bank2
  4732  02F6  009D               	movwf	29	;volatile
  4733                           
  4734                           ;mcc_generated_files/pin_manager.c: 90:     APFCON1 = 0x01;
  4735  02F7  3001               	movlw	1
  4736  02F8  009E               	movwf	30	;volatile
  4737  02F9                     l2408:
  4738                           
  4739                           ;mcc_generated_files/pin_manager.c: 96:     IOCBFbits.IOCBF0 = 0;
  4740  02F9  0027               	movlb	7	; select bank7
  4741  02FA  1016               	bcf	22,0	;volatile
  4742  02FB                     l2410:
  4743                           
  4744                           ;mcc_generated_files/pin_manager.c: 98:     IOCBFbits.IOCBF3 = 0;
  4745  02FB  1196               	bcf	22,3	;volatile
  4746  02FC                     l2412:
  4747                           
  4748                           ;mcc_generated_files/pin_manager.c: 100:     IOCBNbits.IOCBN0 = 1;
  4749  02FC  1415               	bsf	21,0	;volatile
  4750  02FD                     l2414:
  4751                           
  4752                           ;mcc_generated_files/pin_manager.c: 102:     IOCBNbits.IOCBN3 = 1;
  4753  02FD  1595               	bsf	21,3	;volatile
  4754  02FE                     l2416:
  4755                           
  4756                           ;mcc_generated_files/pin_manager.c: 104:     IOCBPbits.IOCBP0 = 0;
  4757  02FE  1014               	bcf	20,0	;volatile
  4758  02FF                     l2418:
  4759                           
  4760                           ;mcc_generated_files/pin_manager.c: 106:     IOCBPbits.IOCBP3 = 0;
  4761  02FF  1194               	bcf	20,3	;volatile
  4762  0300                     l2420:
  4763                           
  4764                           ;mcc_generated_files/pin_manager.c: 111:     IOCBF0_SetInterruptHandler(IOCBF0_DefaultIn
      +                          terruptHandler);
  4765  0300  30BF               	movlw	low _IOCBF0_DefaultInterruptHandler
  4766  0301  0020               	movlb	0	; select bank0
  4767  0302  00C5               	movwf	IOCBF0_SetInterruptHandler@InterruptHandler
  4768  0303  3005               	movlw	high _IOCBF0_DefaultInterruptHandler
  4769  0304  00C6               	movwf	IOCBF0_SetInterruptHandler@InterruptHandler+1
  4770  0305  3185  257C  3182   	fcall	_IOCBF0_SetInterruptHandler
  4771  0308                     l2422:
  4772                           
  4773                           ;mcc_generated_files/pin_manager.c: 112:     IOCBF3_SetInterruptHandler(IOCBF3_DefaultIn
      +                          terruptHandler);
  4774  0308  30BE               	movlw	low _IOCBF3_DefaultInterruptHandler
  4775  0309  0020               	movlb	0	; select bank0
  4776  030A  00C5               	movwf	IOCBF3_SetInterruptHandler@InterruptHandler
  4777  030B  3005               	movlw	high _IOCBF3_DefaultInterruptHandler
  4778  030C  00C6               	movwf	IOCBF3_SetInterruptHandler@InterruptHandler+1
  4779  030D  3185  2576  3182   	fcall	_IOCBF3_SetInterruptHandler
  4780  0310                     l2424:
  4781                           
  4782                           ;mcc_generated_files/pin_manager.c: 115:     INTCONbits.IOCIE = 1;
  4783  0310  158B               	bsf	11,3	;volatile
  4784  0311                     l129:
  4785  0311  0008               	return
  4786  0312                     __end_of_PIN_MANAGER_Initialize:
  4787                           
  4788                           	psect	text16
  4789  0576                     __ptext16:	
  4790 ;; *************** function _IOCBF3_SetInterruptHandler *****************
  4791 ;; Defined at:
  4792 ;;		line 181 in file "mcc_generated_files/pin_manager.c"
  4793 ;; Parameters:    Size  Location     Type
  4794 ;;  InterruptHan    2    0[BANK0 ] PTR FTN()void 
  4795 ;;		 -> chegadaS2(1), chegadaS1(1), IOCBF3_DefaultInterruptHandler(1), 
  4796 ;; Auto vars:     Size  Location     Type
  4797 ;;		None
  4798 ;; Return value:  Size  Location     Type
  4799 ;;                  1    wreg      void 
  4800 ;; Registers used:
  4801 ;;		wreg
  4802 ;; Tracked objects:
  4803 ;;		On entry : 0/0
  4804 ;;		On exit  : 0/0
  4805 ;;		Unchanged: 0/0
  4806 ;; Data sizes:     COMMON   BANK0   BANK1   BANK2   BANK3   BANK4
  4807 ;;      Params:         0       2       0       0       0       0
  4808 ;;      Locals:         0       0       0       0       0       0
  4809 ;;      Temps:          0       0       0       0       0       0
  4810 ;;      Totals:         0       2       0       0       0       0
  4811 ;;Total ram usage:        2 bytes
  4812 ;; Hardware stack levels used: 1
  4813 ;; Hardware stack levels required when called: 7
  4814 ;; This function calls:
  4815 ;;		Nothing
  4816 ;; This function is called by:
  4817 ;;		_PIN_MANAGER_Initialize
  4818 ;;		_main
  4819 ;; This function uses a non-reentrant model
  4820 ;;
  4821                           
  4822  0576                     _IOCBF3_SetInterruptHandler:	
  4823                           ;psect for function _IOCBF3_SetInterruptHandler
  4824                           
  4825  0576                     l2178:	
  4826                           ;incstack = 0
  4827                           ; Regs used in _IOCBF3_SetInterruptHandler: [wreg]
  4828                           
  4829                           
  4830                           ;mcc_generated_files/pin_manager.c: 182:     IOCBF3_InterruptHandler = InterruptHandler;
  4831  0576  0020               	movlb	0	; select bank0
  4832  0577  0846               	movf	IOCBF3_SetInterruptHandler@InterruptHandler+1,w
  4833  0578  00AF               	movwf	_IOCBF3_InterruptHandler+1
  4834  0579  0845               	movf	IOCBF3_SetInterruptHandler@InterruptHandler,w
  4835  057A  00AE               	movwf	_IOCBF3_InterruptHandler
  4836  057B                     l151:
  4837  057B  0008               	return
  4838  057C                     __end_of_IOCBF3_SetInterruptHandler:
  4839                           
  4840                           	psect	text17
  4841  057C                     __ptext17:	
  4842 ;; *************** function _IOCBF0_SetInterruptHandler *****************
  4843 ;; Defined at:
  4844 ;;		line 151 in file "mcc_generated_files/pin_manager.c"
  4845 ;; Parameters:    Size  Location     Type
  4846 ;;  InterruptHan    2    0[BANK0 ] PTR FTN()void 
  4847 ;;		 -> IOCBF0_DefaultInterruptHandler(1), 
  4848 ;; Auto vars:     Size  Location     Type
  4849 ;;		None
  4850 ;; Return value:  Size  Location     Type
  4851 ;;                  1    wreg      void 
  4852 ;; Registers used:
  4853 ;;		wreg
  4854 ;; Tracked objects:
  4855 ;;		On entry : 0/0
  4856 ;;		On exit  : 0/0
  4857 ;;		Unchanged: 0/0
  4858 ;; Data sizes:     COMMON   BANK0   BANK1   BANK2   BANK3   BANK4
  4859 ;;      Params:         0       2       0       0       0       0
  4860 ;;      Locals:         0       0       0       0       0       0
  4861 ;;      Temps:          0       0       0       0       0       0
  4862 ;;      Totals:         0       2       0       0       0       0
  4863 ;;Total ram usage:        2 bytes
  4864 ;; Hardware stack levels used: 1
  4865 ;; Hardware stack levels required when called: 7
  4866 ;; This function calls:
  4867 ;;		Nothing
  4868 ;; This function is called by:
  4869 ;;		_PIN_MANAGER_Initialize
  4870 ;; This function uses a non-reentrant model
  4871 ;;
  4872                           
  4873  057C                     _IOCBF0_SetInterruptHandler:	
  4874                           ;psect for function _IOCBF0_SetInterruptHandler
  4875                           
  4876  057C                     l2176:	
  4877                           ;incstack = 0
  4878                           ; Regs used in _IOCBF0_SetInterruptHandler: [wreg]
  4879                           
  4880                           
  4881                           ;mcc_generated_files/pin_manager.c: 152:     IOCBF0_InterruptHandler = InterruptHandler;
  4882  057C  0020               	movlb	0	; select bank0
  4883  057D  0846               	movf	IOCBF0_SetInterruptHandler@InterruptHandler+1,w
  4884  057E  00B1               	movwf	_IOCBF0_InterruptHandler+1
  4885  057F  0845               	movf	IOCBF0_SetInterruptHandler@InterruptHandler,w
  4886  0580  00B0               	movwf	_IOCBF0_InterruptHandler
  4887  0581                     l141:
  4888  0581  0008               	return
  4889  0582                     __end_of_IOCBF0_SetInterruptHandler:
  4890                           
  4891                           	psect	text18
  4892  055D                     __ptext18:	
  4893 ;; *************** function _OSCILLATOR_Initialize *****************
  4894 ;; Defined at:
  4895 ;;		line 70 in file "mcc_generated_files/mcc.c"
  4896 ;; Parameters:    Size  Location     Type
  4897 ;;		None
  4898 ;; Auto vars:     Size  Location     Type
  4899 ;;		None
  4900 ;; Return value:  Size  Location     Type
  4901 ;;                  1    wreg      void 
  4902 ;; Registers used:
  4903 ;;		wreg, status,2
  4904 ;; Tracked objects:
  4905 ;;		On entry : 0/0
  4906 ;;		On exit  : 0/0
  4907 ;;		Unchanged: 0/0
  4908 ;; Data sizes:     COMMON   BANK0   BANK1   BANK2   BANK3   BANK4
  4909 ;;      Params:         0       0       0       0       0       0
  4910 ;;      Locals:         0       0       0       0       0       0
  4911 ;;      Temps:          0       0       0       0       0       0
  4912 ;;      Totals:         0       0       0       0       0       0
  4913 ;;Total ram usage:        0 bytes
  4914 ;; Hardware stack levels used: 1
  4915 ;; Hardware stack levels required when called: 7
  4916 ;; This function calls:
  4917 ;;		Nothing
  4918 ;; This function is called by:
  4919 ;;		_SYSTEM_Initialize
  4920 ;; This function uses a non-reentrant model
  4921 ;;
  4922                           
  4923  055D                     _OSCILLATOR_Initialize:	
  4924                           ;psect for function _OSCILLATOR_Initialize
  4925                           
  4926  055D                     l2448:	
  4927                           ;incstack = 0
  4928                           ; Regs used in _OSCILLATOR_Initialize: [wreg+status,2]
  4929                           
  4930                           
  4931                           ;mcc_generated_files/mcc.c: 73:     OSCCON = 0x68;
  4932  055D  3068               	movlw	104
  4933  055E  0021               	movlb	1	; select bank1
  4934  055F  0099               	movwf	25	;volatile
  4935  0560                     l2450:
  4936                           
  4937                           ;mcc_generated_files/mcc.c: 75:     OSCTUNE = 0x00;
  4938  0560  0198               	clrf	24	;volatile
  4939  0561                     l2452:
  4940                           
  4941                           ;mcc_generated_files/mcc.c: 77:     BORCON = 0x00;
  4942  0561  0022               	movlb	2	; select bank2
  4943  0562  0196               	clrf	22	;volatile
  4944  0563                     l198:
  4945  0563  0008               	return
  4946  0564                     __end_of_OSCILLATOR_Initialize:
  4947                           
  4948                           	psect	text19
  4949  05AE                     __ptext19:	
  4950 ;; *************** function _FVR_Initialize *****************
  4951 ;; Defined at:
  4952 ;;		line 58 in file "mcc_generated_files/fvr.c"
  4953 ;; Parameters:    Size  Location     Type
  4954 ;;		None
  4955 ;; Auto vars:     Size  Location     Type
  4956 ;;		None
  4957 ;; Return value:  Size  Location     Type
  4958 ;;                  1    wreg      void 
  4959 ;; Registers used:
  4960 ;;		wreg
  4961 ;; Tracked objects:
  4962 ;;		On entry : 0/0
  4963 ;;		On exit  : 0/0
  4964 ;;		Unchanged: 0/0
  4965 ;; Data sizes:     COMMON   BANK0   BANK1   BANK2   BANK3   BANK4
  4966 ;;      Params:         0       0       0       0       0       0
  4967 ;;      Locals:         0       0       0       0       0       0
  4968 ;;      Temps:          0       0       0       0       0       0
  4969 ;;      Totals:         0       0       0       0       0       0
  4970 ;;Total ram usage:        0 bytes
  4971 ;; Hardware stack levels used: 1
  4972 ;; Hardware stack levels required when called: 7
  4973 ;; This function calls:
  4974 ;;		Nothing
  4975 ;; This function is called by:
  4976 ;;		_SYSTEM_Initialize
  4977 ;; This function uses a non-reentrant model
  4978 ;;
  4979                           
  4980  05AE                     _FVR_Initialize:	
  4981                           ;psect for function _FVR_Initialize
  4982                           
  4983  05AE                     l2456:	
  4984                           ;incstack = 0
  4985                           ; Regs used in _FVR_Initialize: [wreg]
  4986                           
  4987                           
  4988                           ;mcc_generated_files/fvr.c: 61:     FVRCON = 0x89;
  4989  05AE  3089               	movlw	137
  4990  05AF  0022               	movlb	2	; select bank2
  4991  05B0  0097               	movwf	23	;volatile
  4992  05B1                     l246:
  4993  05B1  0008               	return
  4994  05B2                     __end_of_FVR_Initialize:
  4995                           
  4996                           	psect	text20
  4997  03C4                     __ptext20:	
  4998 ;; *************** function _EUSART_Initialize *****************
  4999 ;; Defined at:
  5000 ;;		line 66 in file "mcc_generated_files/eusart.c"
  5001 ;; Parameters:    Size  Location     Type
  5002 ;;		None
  5003 ;; Auto vars:     Size  Location     Type
  5004 ;;		None
  5005 ;; Return value:  Size  Location     Type
  5006 ;;                  1    wreg      void 
  5007 ;; Registers used:
  5008 ;;		wreg, status,2, status,0, pclath, cstack
  5009 ;; Tracked objects:
  5010 ;;		On entry : 0/0
  5011 ;;		On exit  : 0/0
  5012 ;;		Unchanged: 0/0
  5013 ;; Data sizes:     COMMON   BANK0   BANK1   BANK2   BANK3   BANK4
  5014 ;;      Params:         0       0       0       0       0       0
  5015 ;;      Locals:         0       0       0       0       0       0
  5016 ;;      Temps:          0       0       0       0       0       0
  5017 ;;      Totals:         0       0       0       0       0       0
  5018 ;;Total ram usage:        0 bytes
  5019 ;; Hardware stack levels used: 1
  5020 ;; Hardware stack levels required when called: 8
  5021 ;; This function calls:
  5022 ;;		_EUSART_SetErrorHandler
  5023 ;;		_EUSART_SetFramingErrorHandler
  5024 ;;		_EUSART_SetOverrunErrorHandler
  5025 ;; This function is called by:
  5026 ;;		_SYSTEM_Initialize
  5027 ;; This function uses a non-reentrant model
  5028 ;;
  5029                           
  5030  03C4                     _EUSART_Initialize:	
  5031                           ;psect for function _EUSART_Initialize
  5032                           
  5033  03C4                     l2520:	
  5034                           ;incstack = 0
  5035                           ; Regs used in _EUSART_Initialize: [wreg+status,2+status,0+pclath+cstack]
  5036                           
  5037                           
  5038                           ;mcc_generated_files/eusart.c: 71:     BAUDCON = 0x08;
  5039  03C4  3008               	movlw	8
  5040  03C5  0023               	movlb	3	; select bank3
  5041  03C6  009F               	movwf	31	;volatile
  5042                           
  5043                           ;mcc_generated_files/eusart.c: 74:     RCSTA = 0x90;
  5044  03C7  3090               	movlw	144
  5045  03C8  009D               	movwf	29	;volatile
  5046                           
  5047                           ;mcc_generated_files/eusart.c: 77:     TXSTA = 0x24;
  5048  03C9  3024               	movlw	36
  5049  03CA  009E               	movwf	30	;volatile
  5050                           
  5051                           ;mcc_generated_files/eusart.c: 80:     SPBRGL = 0x33;
  5052  03CB  3033               	movlw	51
  5053  03CC  009B               	movwf	27	;volatile
  5054  03CD                     l2522:
  5055                           
  5056                           ;mcc_generated_files/eusart.c: 83:     SPBRGH = 0x00;
  5057  03CD  019C               	clrf	28	;volatile
  5058  03CE                     l2524:
  5059                           
  5060                           ;mcc_generated_files/eusart.c: 86:     EUSART_SetFramingErrorHandler(EUSART_DefaultFrami
      +                          ngErrorHandler);
  5061  03CE  3000               	movlw	0
  5062  03CF  0020               	movlb	0	; select bank0
  5063  03D0  00C5               	movwf	EUSART_SetFramingErrorHandler@interruptHandler
  5064  03D1  3000               	movlw	0
  5065  03D2  00C6               	movwf	EUSART_SetFramingErrorHandler@interruptHandler+1
  5066  03D3  3185  2588  3183   	fcall	_EUSART_SetFramingErrorHandler
  5067  03D6                     l2526:
  5068                           
  5069                           ;mcc_generated_files/eusart.c: 87:     EUSART_SetOverrunErrorHandler(EUSART_DefaultOverr
      +                          unErrorHandler);
  5070  03D6  3000               	movlw	0
  5071  03D7  0020               	movlb	0	; select bank0
  5072  03D8  00C5               	movwf	EUSART_SetOverrunErrorHandler@interruptHandler
  5073  03D9  3000               	movlw	0
  5074  03DA  00C6               	movwf	EUSART_SetOverrunErrorHandler@interruptHandler+1
  5075  03DB  3185  2582  3183   	fcall	_EUSART_SetOverrunErrorHandler
  5076  03DE                     l2528:
  5077                           
  5078                           ;mcc_generated_files/eusart.c: 88:     EUSART_SetErrorHandler(EUSART_DefaultErrorHandler
      +                          );
  5079  03DE  3000               	movlw	0
  5080  03DF  0020               	movlb	0	; select bank0
  5081  03E0  00C5               	movwf	EUSART_SetErrorHandler@interruptHandler
  5082  03E1  3000               	movlw	0
  5083  03E2  00C6               	movwf	EUSART_SetErrorHandler@interruptHandler+1
  5084  03E3  3185  258E  3183   	fcall	_EUSART_SetErrorHandler
  5085  03E6                     l2530:
  5086                           
  5087                           ;mcc_generated_files/eusart.c: 90:     eusartRxLastError.status = 0;
  5088  03E6  0020               	movlb	0	; select bank0
  5089  03E7  01C2               	clrf	_eusartRxLastError	;volatile
  5090  03E8                     l292:
  5091  03E8  0008               	return
  5092  03E9                     __end_of_EUSART_Initialize:
  5093                           
  5094                           	psect	text21
  5095  0582                     __ptext21:	
  5096 ;; *************** function _EUSART_SetOverrunErrorHandler *****************
  5097 ;; Defined at:
  5098 ;;		line 161 in file "mcc_generated_files/eusart.c"
  5099 ;; Parameters:    Size  Location     Type
  5100 ;;  interruptHan    2    0[BANK0 ] PTR FTN()void 
  5101 ;;		 -> EUSART_DefaultOverrunErrorHandler(1), 
  5102 ;; Auto vars:     Size  Location     Type
  5103 ;;		None
  5104 ;; Return value:  Size  Location     Type
  5105 ;;                  1    wreg      void 
  5106 ;; Registers used:
  5107 ;;		wreg
  5108 ;; Tracked objects:
  5109 ;;		On entry : 0/0
  5110 ;;		On exit  : 0/0
  5111 ;;		Unchanged: 0/0
  5112 ;; Data sizes:     COMMON   BANK0   BANK1   BANK2   BANK3   BANK4
  5113 ;;      Params:         0       2       0       0       0       0
  5114 ;;      Locals:         0       0       0       0       0       0
  5115 ;;      Temps:          0       0       0       0       0       0
  5116 ;;      Totals:         0       2       0       0       0       0
  5117 ;;Total ram usage:        2 bytes
  5118 ;; Hardware stack levels used: 1
  5119 ;; Hardware stack levels required when called: 7
  5120 ;; This function calls:
  5121 ;;		Nothing
  5122 ;; This function is called by:
  5123 ;;		_EUSART_Initialize
  5124 ;; This function uses a non-reentrant model
  5125 ;;
  5126                           
  5127  0582                     _EUSART_SetOverrunErrorHandler:	
  5128                           ;psect for function _EUSART_SetOverrunErrorHandler
  5129                           
  5130  0582                     l2182:	
  5131                           ;incstack = 0
  5132                           ; Regs used in _EUSART_SetOverrunErrorHandler: [wreg]
  5133                           
  5134                           
  5135                           ;mcc_generated_files/eusart.c: 162:     EUSART_OverrunErrorHandler = interruptHandler;
  5136  0582  0020               	movlb	0	; select bank0
  5137  0583  0846               	movf	EUSART_SetOverrunErrorHandler@interruptHandler+1,w
  5138  0584  00AB               	movwf	_EUSART_OverrunErrorHandler+1
  5139  0585  0845               	movf	EUSART_SetOverrunErrorHandler@interruptHandler,w
  5140  0586  00AA               	movwf	_EUSART_OverrunErrorHandler
  5141  0587                     l334:
  5142  0587  0008               	return
  5143  0588                     __end_of_EUSART_SetOverrunErrorHandler:
  5144                           
  5145                           	psect	text22
  5146  0588                     __ptext22:	
  5147 ;; *************** function _EUSART_SetFramingErrorHandler *****************
  5148 ;; Defined at:
  5149 ;;		line 157 in file "mcc_generated_files/eusart.c"
  5150 ;; Parameters:    Size  Location     Type
  5151 ;;  interruptHan    2    0[BANK0 ] PTR FTN()void 
  5152 ;;		 -> EUSART_DefaultFramingErrorHandler(1), 
  5153 ;; Auto vars:     Size  Location     Type
  5154 ;;		None
  5155 ;; Return value:  Size  Location     Type
  5156 ;;                  1    wreg      void 
  5157 ;; Registers used:
  5158 ;;		wreg
  5159 ;; Tracked objects:
  5160 ;;		On entry : 0/0
  5161 ;;		On exit  : 0/0
  5162 ;;		Unchanged: 0/0
  5163 ;; Data sizes:     COMMON   BANK0   BANK1   BANK2   BANK3   BANK4
  5164 ;;      Params:         0       2       0       0       0       0
  5165 ;;      Locals:         0       0       0       0       0       0
  5166 ;;      Temps:          0       0       0       0       0       0
  5167 ;;      Totals:         0       2       0       0       0       0
  5168 ;;Total ram usage:        2 bytes
  5169 ;; Hardware stack levels used: 1
  5170 ;; Hardware stack levels required when called: 7
  5171 ;; This function calls:
  5172 ;;		Nothing
  5173 ;; This function is called by:
  5174 ;;		_EUSART_Initialize
  5175 ;; This function uses a non-reentrant model
  5176 ;;
  5177                           
  5178  0588                     _EUSART_SetFramingErrorHandler:	
  5179                           ;psect for function _EUSART_SetFramingErrorHandler
  5180                           
  5181  0588                     l2180:	
  5182                           ;incstack = 0
  5183                           ; Regs used in _EUSART_SetFramingErrorHandler: [wreg]
  5184                           
  5185                           
  5186                           ;mcc_generated_files/eusart.c: 158:     EUSART_FramingErrorHandler = interruptHandler;
  5187  0588  0020               	movlb	0	; select bank0
  5188  0589  0846               	movf	EUSART_SetFramingErrorHandler@interruptHandler+1,w
  5189  058A  00AD               	movwf	_EUSART_FramingErrorHandler+1
  5190  058B  0845               	movf	EUSART_SetFramingErrorHandler@interruptHandler,w
  5191  058C  00AC               	movwf	_EUSART_FramingErrorHandler
  5192  058D                     l331:
  5193  058D  0008               	return
  5194  058E                     __end_of_EUSART_SetFramingErrorHandler:
  5195                           
  5196                           	psect	text23
  5197  058E                     __ptext23:	
  5198 ;; *************** function _EUSART_SetErrorHandler *****************
  5199 ;; Defined at:
  5200 ;;		line 165 in file "mcc_generated_files/eusart.c"
  5201 ;; Parameters:    Size  Location     Type
  5202 ;;  interruptHan    2    0[BANK0 ] PTR FTN()void 
  5203 ;;		 -> EUSART_DefaultErrorHandler(1), 
  5204 ;; Auto vars:     Size  Location     Type
  5205 ;;		None
  5206 ;; Return value:  Size  Location     Type
  5207 ;;                  1    wreg      void 
  5208 ;; Registers used:
  5209 ;;		wreg
  5210 ;; Tracked objects:
  5211 ;;		On entry : 0/0
  5212 ;;		On exit  : 0/0
  5213 ;;		Unchanged: 0/0
  5214 ;; Data sizes:     COMMON   BANK0   BANK1   BANK2   BANK3   BANK4
  5215 ;;      Params:         0       2       0       0       0       0
  5216 ;;      Locals:         0       0       0       0       0       0
  5217 ;;      Temps:          0       0       0       0       0       0
  5218 ;;      Totals:         0       2       0       0       0       0
  5219 ;;Total ram usage:        2 bytes
  5220 ;; Hardware stack levels used: 1
  5221 ;; Hardware stack levels required when called: 7
  5222 ;; This function calls:
  5223 ;;		Nothing
  5224 ;; This function is called by:
  5225 ;;		_EUSART_Initialize
  5226 ;; This function uses a non-reentrant model
  5227 ;;
  5228                           
  5229  058E                     _EUSART_SetErrorHandler:	
  5230                           ;psect for function _EUSART_SetErrorHandler
  5231                           
  5232  058E                     l2184:	
  5233                           ;incstack = 0
  5234                           ; Regs used in _EUSART_SetErrorHandler: [wreg]
  5235                           
  5236                           
  5237                           ;mcc_generated_files/eusart.c: 166:     EUSART_ErrorHandler = interruptHandler;
  5238  058E  0020               	movlb	0	; select bank0
  5239  058F  0846               	movf	EUSART_SetErrorHandler@interruptHandler+1,w
  5240  0590  00A9               	movwf	_EUSART_ErrorHandler+1
  5241  0591  0845               	movf	EUSART_SetErrorHandler@interruptHandler,w
  5242  0592  00A8               	movwf	_EUSART_ErrorHandler
  5243  0593                     l337:
  5244  0593  0008               	return
  5245  0594                     __end_of_EUSART_SetErrorHandler:
  5246                           
  5247                           	psect	text24
  5248  0521                     __ptext24:	
  5249 ;; *************** function _CMP2_Initialize *****************
  5250 ;; Defined at:
  5251 ;;		line 59 in file "mcc_generated_files/cmp2.c"
  5252 ;; Parameters:    Size  Location     Type
  5253 ;;		None
  5254 ;; Auto vars:     Size  Location     Type
  5255 ;;		None
  5256 ;; Return value:  Size  Location     Type
  5257 ;;                  1    wreg      void 
  5258 ;; Registers used:
  5259 ;;		wreg
  5260 ;; Tracked objects:
  5261 ;;		On entry : 0/0
  5262 ;;		On exit  : 0/0
  5263 ;;		Unchanged: 0/0
  5264 ;; Data sizes:     COMMON   BANK0   BANK1   BANK2   BANK3   BANK4
  5265 ;;      Params:         0       0       0       0       0       0
  5266 ;;      Locals:         0       0       0       0       0       0
  5267 ;;      Temps:          0       0       0       0       0       0
  5268 ;;      Totals:         0       0       0       0       0       0
  5269 ;;Total ram usage:        0 bytes
  5270 ;; Hardware stack levels used: 1
  5271 ;; Hardware stack levels required when called: 7
  5272 ;; This function calls:
  5273 ;;		Nothing
  5274 ;; This function is called by:
  5275 ;;		_SYSTEM_Initialize
  5276 ;; This function uses a non-reentrant model
  5277 ;;
  5278                           
  5279  0521                     _CMP2_Initialize:	
  5280                           ;psect for function _CMP2_Initialize
  5281                           
  5282  0521                     l2308:	
  5283                           ;incstack = 0
  5284                           ; Regs used in _CMP2_Initialize: [wreg]
  5285                           
  5286                           
  5287                           ;mcc_generated_files/cmp2.c: 66:     PIE2bits.C2IE = 0;
  5288  0521  0021               	movlb	1	; select bank1
  5289  0522  1312               	bcf	18,6	;volatile
  5290  0523                     l2310:
  5291                           
  5292                           ;mcc_generated_files/cmp2.c: 69:     CM2CON0 = 0x84;
  5293  0523  3084               	movlw	132
  5294  0524  0022               	movlb	2	; select bank2
  5295  0525  0093               	movwf	19	;volatile
  5296                           
  5297                           ;mcc_generated_files/cmp2.c: 72:     CM2CON1 = 0xA1;
  5298  0526  30A1               	movlw	161
  5299  0527  0094               	movwf	20	;volatile
  5300  0528                     l2312:
  5301                           
  5302                           ;mcc_generated_files/cmp2.c: 75:     PIR2bits.C2IF = 0;
  5303  0528  0020               	movlb	0	; select bank0
  5304  0529  1312               	bcf	18,6	;volatile
  5305  052A                     l2314:
  5306                           
  5307                           ;mcc_generated_files/cmp2.c: 78:     PIE2bits.C2IE = 1;
  5308  052A  0021               	movlb	1	; select bank1
  5309  052B  1712               	bsf	18,6	;volatile
  5310  052C                     l41:
  5311  052C  0008               	return
  5312  052D                     __end_of_CMP2_Initialize:
  5313                           
  5314                           	psect	text25
  5315  052D                     __ptext25:	
  5316 ;; *************** function _CMP1_Initialize *****************
  5317 ;; Defined at:
  5318 ;;		line 59 in file "mcc_generated_files/cmp1.c"
  5319 ;; Parameters:    Size  Location     Type
  5320 ;;		None
  5321 ;; Auto vars:     Size  Location     Type
  5322 ;;		None
  5323 ;; Return value:  Size  Location     Type
  5324 ;;                  1    wreg      void 
  5325 ;; Registers used:
  5326 ;;		wreg
  5327 ;; Tracked objects:
  5328 ;;		On entry : 0/0
  5329 ;;		On exit  : 0/0
  5330 ;;		Unchanged: 0/0
  5331 ;; Data sizes:     COMMON   BANK0   BANK1   BANK2   BANK3   BANK4
  5332 ;;      Params:         0       0       0       0       0       0
  5333 ;;      Locals:         0       0       0       0       0       0
  5334 ;;      Temps:          0       0       0       0       0       0
  5335 ;;      Totals:         0       0       0       0       0       0
  5336 ;;Total ram usage:        0 bytes
  5337 ;; Hardware stack levels used: 1
  5338 ;; Hardware stack levels required when called: 7
  5339 ;; This function calls:
  5340 ;;		Nothing
  5341 ;; This function is called by:
  5342 ;;		_SYSTEM_Initialize
  5343 ;; This function uses a non-reentrant model
  5344 ;;
  5345                           
  5346  052D                     _CMP1_Initialize:	
  5347                           ;psect for function _CMP1_Initialize
  5348                           
  5349  052D                     l2350:	
  5350                           ;incstack = 0
  5351                           ; Regs used in _CMP1_Initialize: [wreg]
  5352                           
  5353                           
  5354                           ;mcc_generated_files/cmp1.c: 66:     PIE2bits.C1IE = 0;
  5355  052D  0021               	movlb	1	; select bank1
  5356  052E  1292               	bcf	18,5	;volatile
  5357  052F                     l2352:
  5358                           
  5359                           ;mcc_generated_files/cmp1.c: 69:     CM1CON0 = 0x84;
  5360  052F  3084               	movlw	132
  5361  0530  0022               	movlb	2	; select bank2
  5362  0531  0091               	movwf	17	;volatile
  5363                           
  5364                           ;mcc_generated_files/cmp1.c: 72:     CM1CON1 = 0xA0;
  5365  0532  30A0               	movlw	160
  5366  0533  0092               	movwf	18	;volatile
  5367  0534                     l2354:
  5368                           
  5369                           ;mcc_generated_files/cmp1.c: 75:     PIR2bits.C1IF = 0;
  5370  0534  0020               	movlb	0	; select bank0
  5371  0535  1292               	bcf	18,5	;volatile
  5372  0536                     l2356:
  5373                           
  5374                           ;mcc_generated_files/cmp1.c: 78:     PIE2bits.C1IE = 1;
  5375  0536  0021               	movlb	1	; select bank1
  5376  0537  1692               	bsf	18,5	;volatile
  5377  0538                     l74:
  5378  0538  0008               	return
  5379  0539                     __end_of_CMP1_Initialize:
  5380                           
  5381                           	psect	text26
  5382  048E                     __ptext26:	
  5383 ;; *************** function _CCP4_Initialize *****************
  5384 ;; Defined at:
  5385 ;;		line 65 in file "mcc_generated_files/ccp4.c"
  5386 ;; Parameters:    Size  Location     Type
  5387 ;;		None
  5388 ;; Auto vars:     Size  Location     Type
  5389 ;;		None
  5390 ;; Return value:  Size  Location     Type
  5391 ;;                  1    wreg      void 
  5392 ;; Registers used:
  5393 ;;		wreg, status,2, status,0, pclath, cstack
  5394 ;; Tracked objects:
  5395 ;;		On entry : 0/0
  5396 ;;		On exit  : 0/0
  5397 ;;		Unchanged: 0/0
  5398 ;; Data sizes:     COMMON   BANK0   BANK1   BANK2   BANK3   BANK4
  5399 ;;      Params:         0       0       0       0       0       0
  5400 ;;      Locals:         0       0       0       0       0       0
  5401 ;;      Temps:          0       0       0       0       0       0
  5402 ;;      Totals:         0       0       0       0       0       0
  5403 ;;Total ram usage:        0 bytes
  5404 ;; Hardware stack levels used: 1
  5405 ;; Hardware stack levels required when called: 8
  5406 ;; This function calls:
  5407 ;;		_CCP4_SetCallBack
  5408 ;; This function is called by:
  5409 ;;		_SYSTEM_Initialize
  5410 ;; This function uses a non-reentrant model
  5411 ;;
  5412                           
  5413  048E                     _CCP4_Initialize:	
  5414                           ;psect for function _CCP4_Initialize
  5415                           
  5416  048E                     l2496:	
  5417                           ;incstack = 0
  5418                           ; Regs used in _CCP4_Initialize: [wreg+status,2+status,0+pclath+cstack]
  5419                           
  5420                           
  5421                           ;mcc_generated_files/ccp4.c: 70:  CCP4CON = 0x04;
  5422  048E  3004               	movlw	4
  5423  048F  0026               	movlb	6	; select bank6
  5424  0490  009A               	movwf	26	;volatile
  5425  0491                     l2498:
  5426                           
  5427                           ;mcc_generated_files/ccp4.c: 73:  CCPR4L = 0x00;
  5428  0491  0198               	clrf	24	;volatile
  5429  0492                     l2500:
  5430                           
  5431                           ;mcc_generated_files/ccp4.c: 76:  CCPR4H = 0x00;
  5432  0492  0199               	clrf	25	;volatile
  5433  0493                     l2502:
  5434                           
  5435                           ;mcc_generated_files/ccp4.c: 79:     CCP4_SetCallBack(CCP4_DefaultCallBack);
  5436  0493  30C0               	movlw	low _CCP4_DefaultCallBack
  5437  0494  0020               	movlb	0	; select bank0
  5438  0495  00C5               	movwf	CCP4_SetCallBack@customCallBack
  5439  0496  3005               	movlw	high _CCP4_DefaultCallBack
  5440  0497  00C6               	movwf	CCP4_SetCallBack@customCallBack+1
  5441  0498  3185  2594  3184   	fcall	_CCP4_SetCallBack
  5442  049B                     l2504:
  5443                           
  5444                           ;mcc_generated_files/ccp4.c: 83:     PIR3bits.CCP4IF = 0;
  5445  049B  0020               	movlb	0	; select bank0
  5446  049C  1293               	bcf	19,5	;volatile
  5447  049D                     l2506:
  5448                           
  5449                           ;mcc_generated_files/ccp4.c: 86:     PIE3bits.CCP4IE = 1;
  5450  049D  0021               	movlb	1	; select bank1
  5451  049E  1693               	bsf	19,5	;volatile
  5452  049F                     l690:
  5453  049F  0008               	return
  5454  04A0                     __end_of_CCP4_Initialize:
  5455                           
  5456                           	psect	text27
  5457  0594                     __ptext27:	
  5458 ;; *************** function _CCP4_SetCallBack *****************
  5459 ;; Defined at:
  5460 ;;		line 104 in file "mcc_generated_files/ccp4.c"
  5461 ;; Parameters:    Size  Location     Type
  5462 ;;  customCallBa    2    0[BANK0 ] PTR FTN(unsigned short ,
  5463 ;;		 -> CCP4_DefaultCallBack(1), 
  5464 ;; Auto vars:     Size  Location     Type
  5465 ;;		None
  5466 ;; Return value:  Size  Location     Type
  5467 ;;                  1    wreg      void 
  5468 ;; Registers used:
  5469 ;;		wreg
  5470 ;; Tracked objects:
  5471 ;;		On entry : 0/0
  5472 ;;		On exit  : 0/0
  5473 ;;		Unchanged: 0/0
  5474 ;; Data sizes:     COMMON   BANK0   BANK1   BANK2   BANK3   BANK4
  5475 ;;      Params:         0       2       0       0       0       0
  5476 ;;      Locals:         0       0       0       0       0       0
  5477 ;;      Temps:          0       0       0       0       0       0
  5478 ;;      Totals:         0       2       0       0       0       0
  5479 ;;Total ram usage:        2 bytes
  5480 ;; Hardware stack levels used: 1
  5481 ;; Hardware stack levels required when called: 7
  5482 ;; This function calls:
  5483 ;;		Nothing
  5484 ;; This function is called by:
  5485 ;;		_CCP4_Initialize
  5486 ;; This function uses a non-reentrant model
  5487 ;;
  5488                           
  5489  0594                     _CCP4_SetCallBack:	
  5490                           ;psect for function _CCP4_SetCallBack
  5491                           
  5492  0594                     l2298:	
  5493                           ;incstack = 0
  5494                           ; Regs used in _CCP4_SetCallBack: [wreg]
  5495                           
  5496                           
  5497                           ;mcc_generated_files/ccp4.c: 105:     CCP4_CallBack = customCallBack;
  5498  0594  0020               	movlb	0	; select bank0
  5499  0595  0846               	movf	CCP4_SetCallBack@customCallBack+1,w
  5500  0596  00A3               	movwf	_CCP4_CallBack+1
  5501  0597  0845               	movf	CCP4_SetCallBack@customCallBack,w
  5502  0598  00A2               	movwf	_CCP4_CallBack
  5503  0599                     l696:
  5504  0599  0008               	return
  5505  059A                     __end_of_CCP4_SetCallBack:
  5506                           
  5507                           	psect	text28
  5508  0555                     __ptext28:	
  5509 ;; *************** function _ADC_Initialize *****************
  5510 ;; Defined at:
  5511 ;;		line 67 in file "mcc_generated_files/adc.c"
  5512 ;; Parameters:    Size  Location     Type
  5513 ;;		None
  5514 ;; Auto vars:     Size  Location     Type
  5515 ;;		None
  5516 ;; Return value:  Size  Location     Type
  5517 ;;                  1    wreg      void 
  5518 ;; Registers used:
  5519 ;;		wreg, status,2
  5520 ;; Tracked objects:
  5521 ;;		On entry : 0/0
  5522 ;;		On exit  : 0/0
  5523 ;;		Unchanged: 0/0
  5524 ;; Data sizes:     COMMON   BANK0   BANK1   BANK2   BANK3   BANK4
  5525 ;;      Params:         0       0       0       0       0       0
  5526 ;;      Locals:         0       0       0       0       0       0
  5527 ;;      Temps:          0       0       0       0       0       0
  5528 ;;      Totals:         0       0       0       0       0       0
  5529 ;;Total ram usage:        0 bytes
  5530 ;; Hardware stack levels used: 1
  5531 ;; Hardware stack levels required when called: 7
  5532 ;; This function calls:
  5533 ;;		Nothing
  5534 ;; This function is called by:
  5535 ;;		_SYSTEM_Initialize
  5536 ;; This function uses a non-reentrant model
  5537 ;;
  5538                           
  5539  0555                     _ADC_Initialize:	
  5540                           ;psect for function _ADC_Initialize
  5541                           
  5542  0555                     l2490:	
  5543                           ;incstack = 0
  5544                           ; Regs used in _ADC_Initialize: [wreg+status,2]
  5545                           
  5546                           
  5547                           ;mcc_generated_files/adc.c: 72:     ADCON1 = 0xC3;
  5548  0555  30C3               	movlw	195
  5549  0556  0021               	movlb	1	; select bank1
  5550  0557  009E               	movwf	30	;volatile
  5551  0558                     l2492:
  5552                           
  5553                           ;mcc_generated_files/adc.c: 75:     ADRESL = 0x00;
  5554  0558  019B               	clrf	27	;volatile
  5555  0559                     l2494:
  5556                           
  5557                           ;mcc_generated_files/adc.c: 78:     ADRESH = 0x00;
  5558  0559  019C               	clrf	28	;volatile
  5559                           
  5560                           ;mcc_generated_files/adc.c: 81:     ADCON0 = 0x01;
  5561  055A  3001               	movlw	1
  5562  055B  009D               	movwf	29	;volatile
  5563  055C                     l218:
  5564  055C  0008               	return
  5565  055D                     __end_of_ADC_Initialize:
  5566                           
  5567                           	psect	text29
  5568  01FD                     __ptext29:	
  5569 ;; *************** function _SPI1_Open *****************
  5570 ;; Defined at:
  5571 ;;		line 72 in file "mcc_generated_files/spi1.c"
  5572 ;; Parameters:    Size  Location     Type
  5573 ;;  spi1UniqueCo    1    wreg     enum E355
  5574 ;; Auto vars:     Size  Location     Type
  5575 ;;  spi1UniqueCo    1    3[BANK0 ] enum E355
  5576 ;; Return value:  Size  Location     Type
  5577 ;;                  1    wreg      _Bool 
  5578 ;; Registers used:
  5579 ;;		wreg, fsr0l, fsr0h, status,2, status,0, pclath
  5580 ;; Tracked objects:
  5581 ;;		On entry : 0/0
  5582 ;;		On exit  : 0/0
  5583 ;;		Unchanged: 0/0
  5584 ;; Data sizes:     COMMON   BANK0   BANK1   BANK2   BANK3   BANK4
  5585 ;;      Params:         0       0       0       0       0       0
  5586 ;;      Locals:         0       1       0       0       0       0
  5587 ;;      Temps:          0       3       0       0       0       0
  5588 ;;      Totals:         0       4       0       0       0       0
  5589 ;;Total ram usage:        4 bytes
  5590 ;; Hardware stack levels used: 1
  5591 ;; Hardware stack levels required when called: 7
  5592 ;; This function calls:
  5593 ;;		Nothing
  5594 ;; This function is called by:
  5595 ;;		_main
  5596 ;; This function uses a non-reentrant model
  5597 ;;
  5598                           
  5599  01FD                     _SPI1_Open:	
  5600                           ;psect for function _SPI1_Open
  5601                           
  5602                           
  5603                           ;incstack = 0
  5604                           ; Regs used in _SPI1_Open: [wreg-fsr0h+status,2+status,0+pclath]
  5605                           ;SPI1_Open@spi1UniqueConfiguration stored from wreg
  5606  01FD  0020               	movlb	0	; select bank0
  5607  01FE  00C8               	movwf	SPI1_Open@spi1UniqueConfiguration
  5608  01FF                     l2562:
  5609                           
  5610                           ;mcc_generated_files/spi1.c: 72: _Bool SPI1_Open(spi1_modes_t spi1UniqueConfiguration);m
      +                          cc_generated_files/spi1.c: 73: {;mcc_generated_files/spi1.c: 74:     if(!SSP1CON1bits.SS
      +                          PEN)
  5611  01FF  0024               	movlb	4	; select bank4
  5612  0200  1A95               	btfsc	21,5	;volatile
  5613  0201  2A03               	goto	u911
  5614  0202  2A04               	goto	u910
  5615  0203                     u911:
  5616  0203  2A53               	goto	l362
  5617  0204                     u910:
  5618  0204                     l2564:
  5619                           
  5620                           ;mcc_generated_files/spi1.c: 75:     {;mcc_generated_files/spi1.c: 76:         SSP1STAT 
      +                          = spi1_configuration[spi1UniqueConfiguration].stat;
  5621  0204  0020               	movlb	0	; select bank0
  5622  0205  0848               	movf	SPI1_Open@spi1UniqueConfiguration,w
  5623  0206  00C5               	movwf	??_SPI1_Open
  5624  0207  01C6               	clrf	??_SPI1_Open+1
  5625  0208  35C5               	lslf	??_SPI1_Open,f
  5626  0209  0DC6               	rlf	??_SPI1_Open+1,f
  5627  020A  35C5               	lslf	??_SPI1_Open,f
  5628  020B  0DC6               	rlf	??_SPI1_Open+1,f
  5629  020C  30A7               	movlw	low ((_spi1_configuration+1)| (0+32768))
  5630  020D  0745               	addwf	??_SPI1_Open,w
  5631  020E  0084               	movwf	4
  5632  020F  3085               	movlw	high ((_spi1_configuration+1)| (0+32768))
  5633  0210  3D46               	addwfc	??_SPI1_Open+1,w
  5634  0211  0085               	movwf	5
  5635  0212  0800               	movf	0,w	;code access
  5636  0213  0024               	movlb	4	; select bank4
  5637  0214  0094               	movwf	20	;volatile
  5638                           
  5639                           ;mcc_generated_files/spi1.c: 77:         SSP1CON1 = spi1_configuration[spi1UniqueConfigu
      +                          ration].con1;
  5640  0215  0020               	movlb	0	; select bank0
  5641  0216  0848               	movf	SPI1_Open@spi1UniqueConfiguration,w
  5642  0217  00C5               	movwf	??_SPI1_Open
  5643  0218  01C6               	clrf	??_SPI1_Open+1
  5644  0219  35C5               	lslf	??_SPI1_Open,f
  5645  021A  0DC6               	rlf	??_SPI1_Open+1,f
  5646  021B  35C5               	lslf	??_SPI1_Open,f
  5647  021C  0DC6               	rlf	??_SPI1_Open+1,f
  5648  021D  30A6               	movlw	low (_spi1_configuration| (0+32768))
  5649  021E  0745               	addwf	??_SPI1_Open,w
  5650  021F  0084               	movwf	4
  5651  0220  3085               	movlw	high (_spi1_configuration| (0+32768))
  5652  0221  3D46               	addwfc	??_SPI1_Open+1,w
  5653  0222  0085               	movwf	5
  5654  0223  0800               	movf	0,w	;code access
  5655  0224  0024               	movlb	4	; select bank4
  5656  0225  0095               	movwf	21	;volatile
  5657  0226                     l2566:
  5658                           
  5659                           ;mcc_generated_files/spi1.c: 78:         SSP1CON2 = 0x00;
  5660  0226  0196               	clrf	22	;volatile
  5661  0227                     l2568:
  5662                           
  5663                           ;mcc_generated_files/spi1.c: 79:         SSP1ADD = spi1_configuration[spi1UniqueConfigur
      +                          ation].add;
  5664  0227  0020               	movlb	0	; select bank0
  5665  0228  0848               	movf	SPI1_Open@spi1UniqueConfiguration,w
  5666  0229  00C5               	movwf	??_SPI1_Open
  5667  022A  01C6               	clrf	??_SPI1_Open+1
  5668  022B  35C5               	lslf	??_SPI1_Open,f
  5669  022C  0DC6               	rlf	??_SPI1_Open+1,f
  5670  022D  35C5               	lslf	??_SPI1_Open,f
  5671  022E  0DC6               	rlf	??_SPI1_Open+1,f
  5672  022F  30A8               	movlw	low ((_spi1_configuration+2)| (0+32768))
  5673  0230  0745               	addwf	??_SPI1_Open,w
  5674  0231  0084               	movwf	4
  5675  0232  3085               	movlw	high ((_spi1_configuration+2)| (0+32768))
  5676  0233  3D46               	addwfc	??_SPI1_Open+1,w
  5677  0234  0085               	movwf	5
  5678  0235  0800               	movf	0,w	;code access
  5679  0236  0024               	movlb	4	; select bank4
  5680  0237  0092               	movwf	18	;volatile
  5681  0238                     l2570:
  5682                           
  5683                           ;mcc_generated_files/spi1.c: 80:         TRISBbits.TRISB4 = spi1_configuration[spi1Uniqu
      +                          eConfiguration].operation;
  5684  0238  0020               	movlb	0	; select bank0
  5685  0239  0848               	movf	SPI1_Open@spi1UniqueConfiguration,w
  5686  023A  00C5               	movwf	??_SPI1_Open
  5687  023B  01C6               	clrf	??_SPI1_Open+1
  5688  023C  35C5               	lslf	??_SPI1_Open,f
  5689  023D  0DC6               	rlf	??_SPI1_Open+1,f
  5690  023E  35C5               	lslf	??_SPI1_Open,f
  5691  023F  0DC6               	rlf	??_SPI1_Open+1,f
  5692  0240  30A9               	movlw	low ((_spi1_configuration+3)| (0+32768))
  5693  0241  0745               	addwf	??_SPI1_Open,w
  5694  0242  0084               	movwf	4
  5695  0243  3085               	movlw	high ((_spi1_configuration+3)| (0+32768))
  5696  0244  3D46               	addwfc	??_SPI1_Open+1,w
  5697  0245  0085               	movwf	5
  5698  0246  0800               	movf	0,w	;code access
  5699  0247  00C7               	movwf	??_SPI1_Open+2
  5700  0248  0EC7               	swapf	??_SPI1_Open+2,f
  5701  0249  0021               	movlb	1	; select bank1
  5702  024A  080D               	movf	13,w	;volatile
  5703  024B  0020               	movlb	0	; select bank0
  5704  024C  0647               	xorwf	??_SPI1_Open+2,w
  5705  024D  39EF               	andlw	-17
  5706  024E  0647               	xorwf	??_SPI1_Open+2,w
  5707  024F  0021               	movlb	1	; select bank1
  5708  0250  008D               	movwf	13	;volatile
  5709  0251                     l2572:
  5710                           
  5711                           ;mcc_generated_files/spi1.c: 81:         SSP1CON1bits.SSPEN = 1;
  5712  0251  0024               	movlb	4	; select bank4
  5713  0252  1695               	bsf	21,5	;volatile
  5714  0253                     l362:
  5715  0253  0008               	return
  5716  0254                     __end_of_SPI1_Open:
  5717                           
  5718                           	psect	intentry
  5719  0004                     __pintentry:	
  5720 ;; *************** function _INTERRUPT_InterruptManager *****************
  5721 ;; Defined at:
  5722 ;;		line 52 in file "mcc_generated_files/interrupt_manager.c"
  5723 ;; Parameters:    Size  Location     Type
  5724 ;;		None
  5725 ;; Auto vars:     Size  Location     Type
  5726 ;;		None
  5727 ;; Return value:  Size  Location     Type
  5728 ;;                  1    wreg      void 
  5729 ;; Registers used:
  5730 ;;		wreg, fsr0l, fsr0h, fsr1l, fsr1h, status,2, status,0, pclath, cstack
  5731 ;; Tracked objects:
  5732 ;;		On entry : 0/0
  5733 ;;		On exit  : 0/0
  5734 ;;		Unchanged: 0/0
  5735 ;; Data sizes:     COMMON   BANK0   BANK1   BANK2   BANK3   BANK4
  5736 ;;      Params:         0       0       0       0       0       0
  5737 ;;      Locals:         0       0       0       0       0       0
  5738 ;;      Temps:          0       0       0       0       0       0
  5739 ;;      Totals:         0       0       0       0       0       0
  5740 ;;Total ram usage:        0 bytes
  5741 ;; Hardware stack levels used: 1
  5742 ;; Hardware stack levels required when called: 6
  5743 ;; This function calls:
  5744 ;;		_CCP4_CaptureISR
  5745 ;;		_CMP1_ISR
  5746 ;;		_CMP2_ISR
  5747 ;;		_PIN_MANAGER_IOC
  5748 ;;		_TMR0_ISR
  5749 ;;		_TMR4_ISR
  5750 ;; This function is called by:
  5751 ;;		Interrupt level 1
  5752 ;; This function uses a non-reentrant model
  5753 ;;
  5754                           
  5755  0004                     _INTERRUPT_InterruptManager:
  5756                           
  5757                           ;incstack = 0
  5758  0004  147E               	bsf	int$flags,0	;set compiler interrupt flag (level 1)
  5759                           
  5760                           ; Regs used in _INTERRUPT_InterruptManager: [wreg-fsr1h+status,2+status,0+pclath+cstack]
  5761  0005  3180               	pagesel	$
  5762  0006                     i1l2666:
  5763                           
  5764                           ;mcc_generated_files/interrupt_manager.c: 55:     if(INTCONbits.IOCIE == 1 && INTCONbits
      +                          .IOCIF == 1)
  5765  0006  1D8B               	btfss	11,3	;volatile
  5766  0007  2809               	goto	u100_21
  5767  0008  280A               	goto	u100_20
  5768  0009                     u100_21:
  5769  0009  2811               	goto	i1l2672
  5770  000A                     u100_20:
  5771  000A                     i1l2668:
  5772  000A  1C0B               	btfss	11,0	;volatile
  5773  000B  280D               	goto	u101_21
  5774  000C  280E               	goto	u101_20
  5775  000D                     u101_21:
  5776  000D  2811               	goto	i1l2672
  5777  000E                     u101_20:
  5778  000E                     i1l2670:
  5779                           
  5780                           ;mcc_generated_files/interrupt_manager.c: 56:     {;mcc_generated_files/interrupt_manage
      +                          r.c: 57:         PIN_MANAGER_IOC();
  5781  000E  3184  24A0  3180   	fcall	_PIN_MANAGER_IOC
  5782  0011                     i1l2672:
  5783                           
  5784                           ;mcc_generated_files/interrupt_manager.c: 59:     if(INTCONbits.TMR0IE == 1 && INTCONbit
      +                          s.TMR0IF == 1)
  5785  0011  1E8B               	btfss	11,5	;volatile
  5786  0012  2814               	goto	u102_21
  5787  0013  2815               	goto	u102_20
  5788  0014                     u102_21:
  5789  0014  281C               	goto	i1l2678
  5790  0015                     u102_20:
  5791  0015                     i1l2674:
  5792  0015  1D0B               	btfss	11,2	;volatile
  5793  0016  2818               	goto	u103_21
  5794  0017  2819               	goto	u103_20
  5795  0018                     u103_21:
  5796  0018  281C               	goto	i1l2678
  5797  0019                     u103_20:
  5798  0019                     i1l2676:
  5799                           
  5800                           ;mcc_generated_files/interrupt_manager.c: 60:     {;mcc_generated_files/interrupt_manage
      +                          r.c: 61:         TMR0_ISR();
  5801  0019  3184  2409  3180   	fcall	_TMR0_ISR
  5802  001C                     i1l2678:
  5803                           
  5804                           ;mcc_generated_files/interrupt_manager.c: 63:     if(INTCONbits.PEIE == 1)
  5805  001C  1F0B               	btfss	11,6	;volatile
  5806  001D  281F               	goto	u104_21
  5807  001E  2820               	goto	u104_20
  5808  001F                     u104_21:
  5809  001F  2854               	goto	i1l432
  5810  0020                     u104_20:
  5811  0020                     i1l2680:
  5812                           
  5813                           ;mcc_generated_files/interrupt_manager.c: 64:     {;mcc_generated_files/interrupt_manage
      +                          r.c: 65:         if(PIE2bits.C2IE == 1 && PIR2bits.C2IF == 1)
  5814  0020  0021               	movlb	1	; select bank1
  5815  0021  1F12               	btfss	18,6	;volatile
  5816  0022  2824               	goto	u105_21
  5817  0023  2825               	goto	u105_20
  5818  0024                     u105_21:
  5819  0024  282D               	goto	i1l2686
  5820  0025                     u105_20:
  5821  0025                     i1l2682:
  5822  0025  0020               	movlb	0	; select bank0
  5823  0026  1F12               	btfss	18,6	;volatile
  5824  0027  2829               	goto	u106_21
  5825  0028  282A               	goto	u106_20
  5826  0029                     u106_21:
  5827  0029  282D               	goto	i1l2686
  5828  002A                     u106_20:
  5829  002A                     i1l2684:
  5830                           
  5831                           ;mcc_generated_files/interrupt_manager.c: 66:         {;mcc_generated_files/interrupt_ma
      +                          nager.c: 67:             CMP2_ISR();
  5832  002A  3185  259A  3180   	fcall	_CMP2_ISR
  5833  002D                     i1l2686:
  5834                           
  5835                           ;mcc_generated_files/interrupt_manager.c: 69:         if(PIE2bits.C1IE == 1 && PIR2bits.
      +                          C1IF == 1)
  5836  002D  0021               	movlb	1	; select bank1
  5837  002E  1E92               	btfss	18,5	;volatile
  5838  002F  2831               	goto	u107_21
  5839  0030  2832               	goto	u107_20
  5840  0031                     u107_21:
  5841  0031  283A               	goto	i1l2692
  5842  0032                     u107_20:
  5843  0032                     i1l2688:
  5844  0032  0020               	movlb	0	; select bank0
  5845  0033  1E92               	btfss	18,5	;volatile
  5846  0034  2836               	goto	u108_21
  5847  0035  2837               	goto	u108_20
  5848  0036                     u108_21:
  5849  0036  283A               	goto	i1l2692
  5850  0037                     u108_20:
  5851  0037                     i1l2690:
  5852                           
  5853                           ;mcc_generated_files/interrupt_manager.c: 70:         {;mcc_generated_files/interrupt_ma
      +                          nager.c: 71:             CMP1_ISR();
  5854  0037  3185  25A0  3180   	fcall	_CMP1_ISR
  5855  003A                     i1l2692:
  5856                           
  5857                           ;mcc_generated_files/interrupt_manager.c: 73:         if(PIE3bits.CCP4IE == 1 && PIR3bit
      +                          s.CCP4IF == 1)
  5858  003A  0021               	movlb	1	; select bank1
  5859  003B  1E93               	btfss	19,5	;volatile
  5860  003C  283E               	goto	u109_21
  5861  003D  283F               	goto	u109_20
  5862  003E                     u109_21:
  5863  003E  2847               	goto	i1l2698
  5864  003F                     u109_20:
  5865  003F                     i1l2694:
  5866  003F  0020               	movlb	0	; select bank0
  5867  0040  1E93               	btfss	19,5	;volatile
  5868  0041  2843               	goto	u110_21
  5869  0042  2844               	goto	u110_20
  5870  0043                     u110_21:
  5871  0043  2847               	goto	i1l2698
  5872  0044                     u110_20:
  5873  0044                     i1l2696:
  5874                           
  5875                           ;mcc_generated_files/interrupt_manager.c: 74:         {;mcc_generated_files/interrupt_ma
      +                          nager.c: 75:             CCP4_CaptureISR();
  5876  0044  3184  2464  3180   	fcall	_CCP4_CaptureISR
  5877  0047                     i1l2698:
  5878                           
  5879                           ;mcc_generated_files/interrupt_manager.c: 77:         if(PIE3bits.TMR4IE == 1 && PIR3bit
      +                          s.TMR4IF == 1)
  5880  0047  0021               	movlb	1	; select bank1
  5881  0048  1C93               	btfss	19,1	;volatile
  5882  0049  284B               	goto	u111_21
  5883  004A  284C               	goto	u111_20
  5884  004B                     u111_21:
  5885  004B  2854               	goto	i1l432
  5886  004C                     u111_20:
  5887  004C                     i1l2700:
  5888  004C  0020               	movlb	0	; select bank0
  5889  004D  1C93               	btfss	19,1	;volatile
  5890  004E  2850               	goto	u112_21
  5891  004F  2851               	goto	u112_20
  5892  0050                     u112_21:
  5893  0050  2854               	goto	i1l432
  5894  0051                     u112_20:
  5895  0051                     i1l2702:
  5896                           
  5897                           ;mcc_generated_files/interrupt_manager.c: 78:         {;mcc_generated_files/interrupt_ma
      +                          nager.c: 79:             TMR4_ISR();
  5898  0051  3184  244E  3180   	fcall	_TMR4_ISR
  5899  0054                     i1l432:
  5900  0054  107E               	bcf	int$flags,0	;clear compiler interrupt flag (level 1)
  5901  0055  0009               	retfie
  5902  0056                     __end_of_INTERRUPT_InterruptManager:
  5903                           
  5904                           	psect	text31
  5905  044E                     __ptext31:	
  5906 ;; *************** function _TMR4_ISR *****************
  5907 ;; Defined at:
  5908 ;;		line 119 in file "mcc_generated_files/tmr4.c"
  5909 ;; Parameters:    Size  Location     Type
  5910 ;;		None
  5911 ;; Auto vars:     Size  Location     Type
  5912 ;;		None
  5913 ;; Return value:  Size  Location     Type
  5914 ;;                  1    wreg      void 
  5915 ;; Registers used:
  5916 ;;		wreg, fsr0l, fsr0h, status,2, status,0, pclath, cstack
  5917 ;; Tracked objects:
  5918 ;;		On entry : 0/0
  5919 ;;		On exit  : 0/0
  5920 ;;		Unchanged: 0/0
  5921 ;; Data sizes:     COMMON   BANK0   BANK1   BANK2   BANK3   BANK4
  5922 ;;      Params:         0       0       0       0       0       0
  5923 ;;      Locals:         0       0       0       0       0       0
  5924 ;;      Temps:          0       0       0       0       0       0
  5925 ;;      Totals:         0       0       0       0       0       0
  5926 ;;Total ram usage:        0 bytes
  5927 ;; Hardware stack levels used: 1
  5928 ;; Hardware stack levels required when called: 3
  5929 ;; This function calls:
  5930 ;;		_TMR4_CallBack
  5931 ;; This function is called by:
  5932 ;;		_INTERRUPT_InterruptManager
  5933 ;; This function uses a non-reentrant model
  5934 ;;
  5935                           
  5936  044E                     _TMR4_ISR:	
  5937                           ;psect for function _TMR4_ISR
  5938                           
  5939  044E                     i1l2590:	
  5940                           ;incstack = 0
  5941                           ; Regs used in _TMR4_ISR: [wreg-fsr0h+status,2+status,0+pclath+cstack]
  5942                           
  5943                           
  5944                           ;mcc_generated_files/tmr4.c: 121:     static volatile unsigned int CountCallBack = 0;;mc
      +                          c_generated_files/tmr4.c: 124:     PIR3bits.TMR4IF = 0;
  5945  044E  0020               	movlb	0	; select bank0
  5946  044F  1093               	bcf	19,1	;volatile
  5947  0450                     i1l2592:
  5948                           
  5949                           ;mcc_generated_files/tmr4.c: 127:     if (++CountCallBack >= 2)
  5950  0450  3001               	movlw	1
  5951  0451  07BB               	addwf	TMR4_ISR@CountCallBack,f	;volatile
  5952  0452  3000               	movlw	0
  5953  0453  3DBC               	addwfc	TMR4_ISR@CountCallBack+1,f	;volatile
  5954  0454  3000               	movlw	0
  5955  0455  023C               	subwf	TMR4_ISR@CountCallBack+1,w	;volatile
  5956  0456  3002               	movlw	2
  5957  0457  1903               	skipnz
  5958  0458  023B               	subwf	TMR4_ISR@CountCallBack,w	;volatile
  5959  0459  1C03               	skipc
  5960  045A  2C5C               	goto	u93_21
  5961  045B  2C5D               	goto	u93_20
  5962  045C                     u93_21:
  5963  045C  2C63               	goto	i1l740
  5964  045D                     u93_20:
  5965  045D                     i1l2594:
  5966                           
  5967                           ;mcc_generated_files/tmr4.c: 128:     {;mcc_generated_files/tmr4.c: 130:         TMR4_Ca
      +                          llBack();
  5968  045D  3184  24FB  3184   	fcall	_TMR4_CallBack
  5969  0460                     i1l2596:
  5970                           
  5971                           ;mcc_generated_files/tmr4.c: 133:         CountCallBack = 0;
  5972  0460  0020               	movlb	0	; select bank0
  5973  0461  01BB               	clrf	TMR4_ISR@CountCallBack	;volatile
  5974  0462  01BC               	clrf	TMR4_ISR@CountCallBack+1	;volatile
  5975  0463                     i1l740:
  5976  0463  0008               	return
  5977  0464                     __end_of_TMR4_ISR:
  5978                           
  5979                           	psect	text32
  5980  04FB                     __ptext32:	
  5981 ;; *************** function _TMR4_CallBack *****************
  5982 ;; Defined at:
  5983 ;;		line 137 in file "mcc_generated_files/tmr4.c"
  5984 ;; Parameters:    Size  Location     Type
  5985 ;;		None
  5986 ;; Auto vars:     Size  Location     Type
  5987 ;;		None
  5988 ;; Return value:  Size  Location     Type
  5989 ;;                  1    wreg      void 
  5990 ;; Registers used:
  5991 ;;		wreg, fsr0l, fsr0h, status,2, status,0, pclath, cstack
  5992 ;; Tracked objects:
  5993 ;;		On entry : 0/0
  5994 ;;		On exit  : 0/0
  5995 ;;		Unchanged: 0/0
  5996 ;; Data sizes:     COMMON   BANK0   BANK1   BANK2   BANK3   BANK4
  5997 ;;      Params:         0       0       0       0       0       0
  5998 ;;      Locals:         0       0       0       0       0       0
  5999 ;;      Temps:          0       0       0       0       0       0
  6000 ;;      Totals:         0       0       0       0       0       0
  6001 ;;Total ram usage:        0 bytes
  6002 ;; Hardware stack levels used: 1
  6003 ;; Hardware stack levels required when called: 2
  6004 ;; This function calls:
  6005 ;;		Absolute function
  6006 ;;		_TMR4_DefaultInterruptHandler
  6007 ;;		_controleMovimento
  6008 ;; This function is called by:
  6009 ;;		_TMR4_ISR
  6010 ;; This function uses a non-reentrant model
  6011 ;;
  6012                           
  6013  04FB                     _TMR4_CallBack:	
  6014                           ;psect for function _TMR4_CallBack
  6015                           
  6016  04FB                     i1l2540:	
  6017                           ;incstack = 0
  6018                           ; Regs used in _TMR4_CallBack: [wreg-fsr0h+status,2+status,0+pclath+cstack]
  6019                           
  6020                           
  6021                           ;mcc_generated_files/tmr4.c: 141:     if(TMR4_InterruptHandler)
  6022  04FB  0020               	movlb	0	; select bank0
  6023  04FC  0820               	movf	_TMR4_InterruptHandler,w
  6024  04FD  0421               	iorwf	_TMR4_InterruptHandler+1,w
  6025  04FE  1903               	btfsc	3,2
  6026  04FF  2D01               	goto	u88_21
  6027  0500  2D02               	goto	u88_20
  6028  0501                     u88_21:
  6029  0501  2D07               	goto	i1l744
  6030  0502                     u88_20:
  6031  0502                     i1l2542:
  6032                           
  6033                           ;mcc_generated_files/tmr4.c: 142:     {;mcc_generated_files/tmr4.c: 143:         TMR4_In
      +                          terruptHandler();
  6034  0502  0821               	movf	_TMR4_InterruptHandler+1,w
  6035  0503  008A               	movwf	10
  6036  0504  0820               	movf	_TMR4_InterruptHandler,w
  6037  0505  000A               	callw
  6038  0506  3184               	pagesel	$
  6039  0507                     i1l744:
  6040  0507  0008               	return
  6041  0508                     __end_of_TMR4_CallBack:
  6042                           
  6043                           	psect	text33
  6044  05BC                     __ptext33:	
  6045 ;; *************** function _TMR4_DefaultInterruptHandler *****************
  6046 ;; Defined at:
  6047 ;;		line 151 in file "mcc_generated_files/tmr4.c"
  6048 ;; Parameters:    Size  Location     Type
  6049 ;;		None
  6050 ;; Auto vars:     Size  Location     Type
  6051 ;;		None
  6052 ;; Return value:  Size  Location     Type
  6053 ;;                  1    wreg      void 
  6054 ;; Registers used:
  6055 ;;		None
  6056 ;; Tracked objects:
  6057 ;;		On entry : 0/0
  6058 ;;		On exit  : 0/0
  6059 ;;		Unchanged: 0/0
  6060 ;; Data sizes:     COMMON   BANK0   BANK1   BANK2   BANK3   BANK4
  6061 ;;      Params:         0       0       0       0       0       0
  6062 ;;      Locals:         0       0       0       0       0       0
  6063 ;;      Temps:          0       0       0       0       0       0
  6064 ;;      Totals:         0       0       0       0       0       0
  6065 ;;Total ram usage:        0 bytes
  6066 ;; Hardware stack levels used: 1
  6067 ;; This function calls:
  6068 ;;		Nothing
  6069 ;; This function is called by:
  6070 ;;		_TMR4_Initialize
  6071 ;;		_TMR4_CallBack
  6072 ;; This function uses a non-reentrant model
  6073 ;;
  6074                           
  6075  05BC                     _TMR4_DefaultInterruptHandler:	
  6076                           ;psect for function _TMR4_DefaultInterruptHandler
  6077                           
  6078  05BC                     i1l750:	
  6079                           ;incstack = 0
  6080                           ; Regs used in _TMR4_DefaultInterruptHandler: []
  6081                           
  6082  05BC  0008               	return
  6083  05BD                     __end_of_TMR4_DefaultInterruptHandler:
  6084                           
  6085                           	psect	text34
  6086  0254                     __ptext34:	
  6087 ;; *************** function _controleMovimento *****************
  6088 ;; Defined at:
  6089 ;;		line 102 in file "main.c"
  6090 ;; Parameters:    Size  Location     Type
  6091 ;;		None
  6092 ;; Auto vars:     Size  Location     Type
  6093 ;;		None
  6094 ;; Return value:  Size  Location     Type
  6095 ;;                  1    wreg      void 
  6096 ;; Registers used:
  6097 ;;		wreg, fsr0l, fsr0h, status,2, status,0, pclath, cstack
  6098 ;; Tracked objects:
  6099 ;;		On entry : 0/0
  6100 ;;		On exit  : 0/0
  6101 ;;		Unchanged: 0/0
  6102 ;; Data sizes:     COMMON   BANK0   BANK1   BANK2   BANK3   BANK4
  6103 ;;      Params:         0       0       0       0       0       0
  6104 ;;      Locals:         0       0       0       0       0       0
  6105 ;;      Temps:          2       0       0       0       0       0
  6106 ;;      Totals:         2       0       0       0       0       0
  6107 ;;Total ram usage:        2 bytes
  6108 ;; Hardware stack levels used: 1
  6109 ;; Hardware stack levels required when called: 1
  6110 ;; This function calls:
  6111 ;;		_PWM3_LoadDutyValue
  6112 ;; This function is called by:
  6113 ;;		_main
  6114 ;;		_TMR4_CallBack
  6115 ;; This function uses a non-reentrant model
  6116 ;;
  6117                           
  6118  0254                     _controleMovimento:	
  6119                           ;psect for function _controleMovimento
  6120                           
  6121  0254                     i1l2198:	
  6122                           ;incstack = 0
  6123                           ; Regs used in _controleMovimento: [wreg-fsr0h+status,2+status,0+pclath+cstack]
  6124                           
  6125                           
  6126                           ;main.c: 103:     static uint8_t cont = 0;;main.c: 104:     switch(mov){
  6127  0254  2A79               	goto	i1l2216
  6128  0255                     i1l2200:
  6129                           
  6130                           ;main.c: 106:             PWM3_LoadDutyValue(0);
  6131  0255  3000               	movlw	0
  6132  0256  00F0               	movwf	PWM3_LoadDutyValue@dutyValue
  6133  0257  00F1               	movwf	PWM3_LoadDutyValue@dutyValue+1
  6134  0258  3184  2421  3182   	fcall	_PWM3_LoadDutyValue
  6135                           
  6136                           ;main.c: 107:             break;
  6137  025B  2A90               	goto	i1l2218
  6138  025C                     i1l2202:
  6139                           
  6140                           ;main.c: 109:             PWM3_LoadDutyValue(511);
  6141  025C  30FF               	movlw	255
  6142  025D  00F0               	movwf	PWM3_LoadDutyValue@dutyValue
  6143  025E  3001               	movlw	1
  6144  025F  00F1               	movwf	PWM3_LoadDutyValue@dutyValue+1
  6145  0260  3184  2421  3182   	fcall	_PWM3_LoadDutyValue
  6146                           
  6147                           ;main.c: 110:             break;
  6148  0263  2A90               	goto	i1l2218
  6149  0264                     i1l2206:
  6150                           
  6151                           ;main.c: 115:             if (cont >=4){
  6152  0264  3004               	movlw	4
  6153  0265  0241               	subwf	controleMovimento@cont,w
  6154  0266  1C03               	skipc
  6155  0267  2A69               	goto	u67_21
  6156  0268  2A6A               	goto	u67_20
  6157  0269                     u67_21:
  6158  0269  2A74               	goto	i1l2212
  6159  026A                     u67_20:
  6160  026A                     i1l2208:
  6161                           
  6162                           ;main.c: 116:                 PWM3_LoadDutyValue(511);
  6163  026A  30FF               	movlw	255
  6164  026B  00F0               	movwf	PWM3_LoadDutyValue@dutyValue
  6165  026C  3001               	movlw	1
  6166  026D  00F1               	movwf	PWM3_LoadDutyValue@dutyValue+1
  6167  026E  3184  2421  3182   	fcall	_PWM3_LoadDutyValue
  6168  0271                     i1l2210:
  6169                           
  6170                           ;main.c: 117:                 cont = 0;
  6171  0271  0020               	movlb	0	; select bank0
  6172  0272  01C1               	clrf	controleMovimento@cont
  6173                           
  6174                           ;main.c: 118:             }else{
  6175  0273  2A90               	goto	i1l2218
  6176  0274                     i1l2212:
  6177                           
  6178                           ;main.c: 119:                 cont++;
  6179  0274  3001               	movlw	1
  6180  0275  00F4               	movwf	??_controleMovimento
  6181  0276  0874               	movf	??_controleMovimento,w
  6182  0277  07C1               	addwf	controleMovimento@cont,f
  6183  0278  2A90               	goto	i1l2218
  6184  0279                     i1l2216:
  6185  0279  0020               	movlb	0	; select bank0
  6186  027A  0843               	movf	_mov,w
  6187  027B  00F4               	movwf	??_controleMovimento
  6188  027C  01F5               	clrf	??_controleMovimento+1
  6189                           
  6190                           ; Switch on 2 bytes has been partitioned into a top level switch of size 1, and 1 sub-sw
      +                          itches
  6191                           ; Switch size 1, requested type "simple"
  6192                           ; Number of cases is 1, Range of values is 0 to 0
  6193                           ; switch strategies available:
  6194                           ; Name         Instructions Cycles
  6195                           ; simple_byte            4     3 (average)
  6196                           ; direct_byte            8     6 (fixed)
  6197                           ; jumptable            260     6 (fixed)
  6198                           ;	Chosen strategy is simple_byte
  6199  027D  0875               	movf	??_controleMovimento+1,w
  6200  027E  3A00               	xorlw	0	; case 0
  6201  027F  1903               	skipnz
  6202  0280  2A82               	goto	i1l2742
  6203  0281  2A90               	goto	i1l2218
  6204  0282                     i1l2742:
  6205                           
  6206                           ; Switch size 1, requested type "simple"
  6207                           ; Number of cases is 4, Range of values is 0 to 3
  6208                           ; switch strategies available:
  6209                           ; Name         Instructions Cycles
  6210                           ; simple_byte           13     7 (average)
  6211                           ; direct_byte           14     6 (fixed)
  6212                           ; jumptable            260     6 (fixed)
  6213                           ;	Chosen strategy is simple_byte
  6214  0282  0874               	movf	??_controleMovimento,w
  6215  0283  3A00               	xorlw	0	; case 0
  6216  0284  1903               	skipnz
  6217  0285  2A55               	goto	i1l2200
  6218  0286  3A01               	xorlw	1	; case 1
  6219  0287  1903               	skipnz
  6220  0288  2A5C               	goto	i1l2202
  6221  0289  3A03               	xorlw	3	; case 2
  6222  028A  1903               	skipnz
  6223  028B  2A5C               	goto	i1l2202
  6224  028C  3A01               	xorlw	1	; case 3
  6225  028D  1903               	skipnz
  6226  028E  2A64               	goto	i1l2206
  6227  028F  2A90               	goto	i1l2218
  6228  0290                     i1l2218:
  6229                           
  6230                           ;main.c: 124:     if(destinoSub != 0 && mov != RetornaS0 ){
  6231  0290  0020               	movlb	0	; select bank0
  6232  0291  0844               	movf	_destinoSub,w
  6233  0292  1903               	btfsc	3,2
  6234  0293  2A95               	goto	u68_21
  6235  0294  2A96               	goto	u68_20
  6236  0295                     u68_21:
  6237  0295  2A9F               	goto	i1l2224
  6238  0296                     u68_20:
  6239  0296                     i1l2220:
  6240  0296  3003               	movlw	3
  6241  0297  0643               	xorwf	_mov,w
  6242  0298  1903               	btfsc	3,2
  6243  0299  2A9B               	goto	u69_21
  6244  029A  2A9C               	goto	u69_20
  6245  029B                     u69_21:
  6246  029B  2A9F               	goto	i1l2224
  6247  029C                     u69_20:
  6248  029C                     i1l2222:
  6249                           
  6250                           ;main.c: 126:         subindo = 1;
  6251  029C  01D6               	clrf	_subindo
  6252  029D  0AD6               	incf	_subindo,f
  6253                           
  6254                           ;main.c: 127:     }else{
  6255  029E  2AA0               	goto	i1l628
  6256  029F                     i1l2224:
  6257                           
  6258                           ;main.c: 129:         subindo = 0;
  6259  029F  01D6               	clrf	_subindo
  6260  02A0                     i1l628:
  6261  02A0  0008               	return
  6262  02A1                     __end_of_controleMovimento:
  6263                           
  6264                           	psect	text35
  6265  0409                     __ptext35:	
  6266 ;; *************** function _TMR0_ISR *****************
  6267 ;; Defined at:
  6268 ;;		line 108 in file "mcc_generated_files/tmr0.c"
  6269 ;; Parameters:    Size  Location     Type
  6270 ;;		None
  6271 ;; Auto vars:     Size  Location     Type
  6272 ;;		None
  6273 ;; Return value:  Size  Location     Type
  6274 ;;                  1    wreg      void 
  6275 ;; Registers used:
  6276 ;;		wreg, status,2, status,0, pclath, cstack
  6277 ;; Tracked objects:
  6278 ;;		On entry : 0/0
  6279 ;;		On exit  : 0/0
  6280 ;;		Unchanged: 0/0
  6281 ;; Data sizes:     COMMON   BANK0   BANK1   BANK2   BANK3   BANK4
  6282 ;;      Params:         0       0       0       0       0       0
  6283 ;;      Locals:         0       0       0       0       0       0
  6284 ;;      Temps:          0       0       0       0       0       0
  6285 ;;      Totals:         0       0       0       0       0       0
  6286 ;;Total ram usage:        0 bytes
  6287 ;; Hardware stack levels used: 1
  6288 ;; Hardware stack levels required when called: 2
  6289 ;; This function calls:
  6290 ;;		_TMR0_CallBack
  6291 ;; This function is called by:
  6292 ;;		_INTERRUPT_InterruptManager
  6293 ;; This function uses a non-reentrant model
  6294 ;;
  6295                           
  6296  0409                     _TMR0_ISR:	
  6297                           ;psect for function _TMR0_ISR
  6298                           
  6299  0409                     i1l2576:	
  6300                           ;incstack = 0
  6301                           ; Regs used in _TMR0_ISR: [wreg+status,2+status,0+pclath+cstack]
  6302                           
  6303                           
  6304                           ;mcc_generated_files/tmr0.c: 110:     static volatile uint16_t CountCallBack = 0;;mcc_ge
      +                          nerated_files/tmr0.c: 113:     INTCONbits.TMR0IF = 0;
  6305  0409  110B               	bcf	11,2	;volatile
  6306  040A                     i1l2578:
  6307                           
  6308                           ;mcc_generated_files/tmr0.c: 115:     TMR0 = timer0ReloadVal;
  6309  040A  0020               	movlb	0	; select bank0
  6310  040B  0832               	movf	_timer0ReloadVal,w	;volatile
  6311  040C  0095               	movwf	21	;volatile
  6312                           
  6313                           ;mcc_generated_files/tmr0.c: 118:     if (++CountCallBack >= 5)
  6314  040D  3001               	movlw	1
  6315  040E  07BD               	addwf	TMR0_ISR@CountCallBack,f	;volatile
  6316  040F  3000               	movlw	0
  6317  0410  3DBE               	addwfc	TMR0_ISR@CountCallBack+1,f	;volatile
  6318  0411  3000               	movlw	0
  6319  0412  023E               	subwf	TMR0_ISR@CountCallBack+1,w	;volatile
  6320  0413  3005               	movlw	5
  6321  0414  1903               	skipnz
  6322  0415  023D               	subwf	TMR0_ISR@CountCallBack,w	;volatile
  6323  0416  1C03               	skipc
  6324  0417  2C19               	goto	u92_21
  6325  0418  2C1A               	goto	u92_20
  6326  0419                     u92_21:
  6327  0419  2C20               	goto	i1l543
  6328  041A                     u92_20:
  6329  041A                     i1l2580:
  6330                           
  6331                           ;mcc_generated_files/tmr0.c: 119:     {;mcc_generated_files/tmr0.c: 121:         TMR0_Ca
      +                          llBack();
  6332  041A  3185  2508  3184   	fcall	_TMR0_CallBack
  6333  041D                     i1l2582:
  6334                           
  6335                           ;mcc_generated_files/tmr0.c: 124:         CountCallBack = 0;
  6336  041D  0020               	movlb	0	; select bank0
  6337  041E  01BD               	clrf	TMR0_ISR@CountCallBack	;volatile
  6338  041F  01BE               	clrf	TMR0_ISR@CountCallBack+1	;volatile
  6339  0420                     i1l543:
  6340  0420  0008               	return
  6341  0421                     __end_of_TMR0_ISR:
  6342                           
  6343                           	psect	text36
  6344  0508                     __ptext36:	
  6345 ;; *************** function _TMR0_CallBack *****************
  6346 ;; Defined at:
  6347 ;;		line 130 in file "mcc_generated_files/tmr0.c"
  6348 ;; Parameters:    Size  Location     Type
  6349 ;;		None
  6350 ;; Auto vars:     Size  Location     Type
  6351 ;;		None
  6352 ;; Return value:  Size  Location     Type
  6353 ;;                  1    wreg      void 
  6354 ;; Registers used:
  6355 ;;		wreg, status,2, status,0, pclath, cstack
  6356 ;; Tracked objects:
  6357 ;;		On entry : 0/0
  6358 ;;		On exit  : 0/0
  6359 ;;		Unchanged: 0/0
  6360 ;; Data sizes:     COMMON   BANK0   BANK1   BANK2   BANK3   BANK4
  6361 ;;      Params:         0       0       0       0       0       0
  6362 ;;      Locals:         0       0       0       0       0       0
  6363 ;;      Temps:          0       0       0       0       0       0
  6364 ;;      Totals:         0       0       0       0       0       0
  6365 ;;Total ram usage:        0 bytes
  6366 ;; Hardware stack levels used: 1
  6367 ;; Hardware stack levels required when called: 1
  6368 ;; This function calls:
  6369 ;;		Absolute function
  6370 ;;		_TMR0_DefaultInterruptHandler
  6371 ;; This function is called by:
  6372 ;;		_TMR0_ISR
  6373 ;; This function uses a non-reentrant model
  6374 ;;
  6375                           
  6376  0508                     _TMR0_CallBack:	
  6377                           ;psect for function _TMR0_CallBack
  6378                           
  6379  0508                     i1l2532:	
  6380                           ;incstack = 0
  6381                           ; Regs used in _TMR0_CallBack: [wreg+status,2+status,0+pclath+cstack]
  6382                           
  6383                           
  6384                           ;mcc_generated_files/tmr0.c: 134:     if(TMR0_InterruptHandler)
  6385  0508  0020               	movlb	0	; select bank0
  6386  0509  0824               	movf	_TMR0_InterruptHandler,w
  6387  050A  0425               	iorwf	_TMR0_InterruptHandler+1,w
  6388  050B  1903               	btfsc	3,2
  6389  050C  2D0E               	goto	u87_21
  6390  050D  2D0F               	goto	u87_20
  6391  050E                     u87_21:
  6392  050E  2D14               	goto	i1l547
  6393  050F                     u87_20:
  6394  050F                     i1l2534:
  6395                           
  6396                           ;mcc_generated_files/tmr0.c: 135:     {;mcc_generated_files/tmr0.c: 136:         TMR0_In
      +                          terruptHandler();
  6397  050F  0825               	movf	_TMR0_InterruptHandler+1,w
  6398  0510  008A               	movwf	10
  6399  0511  0824               	movf	_TMR0_InterruptHandler,w
  6400  0512  000A               	callw
  6401  0513  3185               	pagesel	$
  6402  0514                     i1l547:
  6403  0514  0008               	return
  6404  0515                     __end_of_TMR0_CallBack:
  6405                           
  6406                           	psect	text37
  6407  05BD                     __ptext37:	
  6408 ;; *************** function _TMR0_DefaultInterruptHandler *****************
  6409 ;; Defined at:
  6410 ;;		line 144 in file "mcc_generated_files/tmr0.c"
  6411 ;; Parameters:    Size  Location     Type
  6412 ;;		None
  6413 ;; Auto vars:     Size  Location     Type
  6414 ;;		None
  6415 ;; Return value:  Size  Location     Type
  6416 ;;                  1    wreg      void 
  6417 ;; Registers used:
  6418 ;;		None
  6419 ;; Tracked objects:
  6420 ;;		On entry : 0/0
  6421 ;;		On exit  : 0/0
  6422 ;;		Unchanged: 0/0
  6423 ;; Data sizes:     COMMON   BANK0   BANK1   BANK2   BANK3   BANK4
  6424 ;;      Params:         0       0       0       0       0       0
  6425 ;;      Locals:         0       0       0       0       0       0
  6426 ;;      Temps:          0       0       0       0       0       0
  6427 ;;      Totals:         0       0       0       0       0       0
  6428 ;;Total ram usage:        0 bytes
  6429 ;; Hardware stack levels used: 1
  6430 ;; This function calls:
  6431 ;;		Nothing
  6432 ;; This function is called by:
  6433 ;;		_TMR0_Initialize
  6434 ;;		_TMR0_CallBack
  6435 ;; This function uses a non-reentrant model
  6436 ;;
  6437                           
  6438  05BD                     _TMR0_DefaultInterruptHandler:	
  6439                           ;psect for function _TMR0_DefaultInterruptHandler
  6440                           
  6441  05BD                     i1l553:	
  6442                           ;incstack = 0
  6443                           ; Regs used in _TMR0_DefaultInterruptHandler: []
  6444                           
  6445  05BD  0008               	return
  6446  05BE                     __end_of_TMR0_DefaultInterruptHandler:
  6447                           
  6448                           	psect	text38
  6449  04A0                     __ptext38:	
  6450 ;; *************** function _PIN_MANAGER_IOC *****************
  6451 ;; Defined at:
  6452 ;;		line 119 in file "mcc_generated_files/pin_manager.c"
  6453 ;; Parameters:    Size  Location     Type
  6454 ;;		None
  6455 ;; Auto vars:     Size  Location     Type
  6456 ;;		None
  6457 ;; Return value:  Size  Location     Type
  6458 ;;                  1    wreg      void 
  6459 ;; Registers used:
  6460 ;;		wreg, fsr1l, fsr1h, status,2, status,0, pclath, cstack
  6461 ;; Tracked objects:
  6462 ;;		On entry : 0/0
  6463 ;;		On exit  : 0/0
  6464 ;;		Unchanged: 0/0
  6465 ;; Data sizes:     COMMON   BANK0   BANK1   BANK2   BANK3   BANK4
  6466 ;;      Params:         0       0       0       0       0       0
  6467 ;;      Locals:         0       0       0       0       0       0
  6468 ;;      Temps:          0       0       0       0       0       0
  6469 ;;      Totals:         0       0       0       0       0       0
  6470 ;;Total ram usage:        0 bytes
  6471 ;; Hardware stack levels used: 1
  6472 ;; Hardware stack levels required when called: 5
  6473 ;; This function calls:
  6474 ;;		_IOCBF0_ISR
  6475 ;;		_IOCBF3_ISR
  6476 ;; This function is called by:
  6477 ;;		_INTERRUPT_InterruptManager
  6478 ;; This function uses a non-reentrant model
  6479 ;;
  6480                           
  6481  04A0                     _PIN_MANAGER_IOC:	
  6482                           ;psect for function _PIN_MANAGER_IOC
  6483                           
  6484  04A0                     i1l2552:	
  6485                           ;incstack = 0
  6486                           ; Regs used in _PIN_MANAGER_IOC: [wreg+fsr1l+fsr1h+status,2+status,0+pclath+cstack]
  6487                           
  6488                           
  6489                           ;mcc_generated_files/pin_manager.c: 122:     if(IOCBFbits.IOCBF0 == 1)
  6490  04A0  0027               	movlb	7	; select bank7
  6491  04A1  1C16               	btfss	22,0	;volatile
  6492  04A2  2CA4               	goto	u89_21
  6493  04A3  2CA5               	goto	u89_20
  6494  04A4                     u89_21:
  6495  04A4  2CA8               	goto	i1l2556
  6496  04A5                     u89_20:
  6497  04A5                     i1l2554:
  6498                           
  6499                           ;mcc_generated_files/pin_manager.c: 123:     {;mcc_generated_files/pin_manager.c: 124:  
      +                                 IOCBF0_ISR();
  6500  04A5  3184  24D0  3184   	fcall	_IOCBF0_ISR
  6501  04A8                     i1l2556:
  6502                           
  6503                           ;mcc_generated_files/pin_manager.c: 127:     if(IOCBFbits.IOCBF3 == 1)
  6504  04A8  0027               	movlb	7	; select bank7
  6505  04A9  1D96               	btfss	22,3	;volatile
  6506  04AA  2CAC               	goto	u90_21
  6507  04AB  2CAD               	goto	u90_20
  6508  04AC                     u90_21:
  6509  04AC  2CB0               	goto	i1l134
  6510  04AD                     u90_20:
  6511  04AD                     i1l2558:
  6512                           
  6513                           ;mcc_generated_files/pin_manager.c: 128:     {;mcc_generated_files/pin_manager.c: 129:  
      +                                 IOCBF3_ISR();
  6514  04AD  3184  24C1  3184   	fcall	_IOCBF3_ISR
  6515  04B0                     i1l134:
  6516  04B0  0008               	return
  6517  04B1                     __end_of_PIN_MANAGER_IOC:
  6518                           
  6519                           	psect	text39
  6520  04C1                     __ptext39:	
  6521 ;; *************** function _IOCBF3_ISR *****************
  6522 ;; Defined at:
  6523 ;;		line 166 in file "mcc_generated_files/pin_manager.c"
  6524 ;; Parameters:    Size  Location     Type
  6525 ;;		None
  6526 ;; Auto vars:     Size  Location     Type
  6527 ;;		None
  6528 ;; Return value:  Size  Location     Type
  6529 ;;                  1    wreg      void 
  6530 ;; Registers used:
  6531 ;;		wreg, fsr1l, fsr1h, status,2, status,0, pclath, cstack
  6532 ;; Tracked objects:
  6533 ;;		On entry : 0/0
  6534 ;;		On exit  : 0/0
  6535 ;;		Unchanged: 0/0
  6536 ;; Data sizes:     COMMON   BANK0   BANK1   BANK2   BANK3   BANK4
  6537 ;;      Params:         0       0       0       0       0       0
  6538 ;;      Locals:         0       0       0       0       0       0
  6539 ;;      Temps:          0       0       0       0       0       0
  6540 ;;      Totals:         0       0       0       0       0       0
  6541 ;;Total ram usage:        0 bytes
  6542 ;; Hardware stack levels used: 1
  6543 ;; Hardware stack levels required when called: 4
  6544 ;; This function calls:
  6545 ;;		Absolute function
  6546 ;;		_IOCBF3_DefaultInterruptHandler
  6547 ;;		_chegadaS1
  6548 ;;		_chegadaS2
  6549 ;; This function is called by:
  6550 ;;		_PIN_MANAGER_IOC
  6551 ;; This function uses a non-reentrant model
  6552 ;;
  6553                           
  6554  04C1                     _IOCBF3_ISR:	
  6555                           ;psect for function _IOCBF3_ISR
  6556                           
  6557  04C1                     i1l2432:	
  6558                           ;incstack = 0
  6559                           ; Regs used in _IOCBF3_ISR: [wreg+fsr1l+fsr1h+status,2+status,0+pclath+cstack]
  6560                           
  6561                           
  6562                           ;mcc_generated_files/pin_manager.c: 171:     if(IOCBF3_InterruptHandler)
  6563  04C1  0020               	movlb	0	; select bank0
  6564  04C2  082E               	movf	_IOCBF3_InterruptHandler,w
  6565  04C3  042F               	iorwf	_IOCBF3_InterruptHandler+1,w
  6566  04C4  1903               	btfsc	3,2
  6567  04C5  2CC7               	goto	u86_21
  6568  04C6  2CC8               	goto	u86_20
  6569  04C7                     u86_21:
  6570  04C7  2CCD               	goto	i1l2436
  6571  04C8                     u86_20:
  6572  04C8                     i1l2434:
  6573                           
  6574                           ;mcc_generated_files/pin_manager.c: 172:     {;mcc_generated_files/pin_manager.c: 173:  
      +                                 IOCBF3_InterruptHandler();
  6575  04C8  082F               	movf	_IOCBF3_InterruptHandler+1,w
  6576  04C9  008A               	movwf	10
  6577  04CA  082E               	movf	_IOCBF3_InterruptHandler,w
  6578  04CB  000A               	callw
  6579  04CC  3184               	pagesel	$
  6580  04CD                     i1l2436:
  6581                           
  6582                           ;mcc_generated_files/pin_manager.c: 175:     IOCBFbits.IOCBF3 = 0;
  6583  04CD  0027               	movlb	7	; select bank7
  6584  04CE  1196               	bcf	22,3	;volatile
  6585  04CF                     i1l148:
  6586  04CF  0008               	return
  6587  04D0                     __end_of_IOCBF3_ISR:
  6588                           
  6589                           	psect	text40
  6590  02A1                     __ptext40:	
  6591 ;; *************** function _chegadaS1 *****************
  6592 ;; Defined at:
  6593 ;;		line 134 in file "main.c"
  6594 ;; Parameters:    Size  Location     Type
  6595 ;;		None
  6596 ;; Auto vars:     Size  Location     Type
  6597 ;;		None
  6598 ;; Return value:  Size  Location     Type
  6599 ;;                  1    wreg      void 
  6600 ;; Registers used:
  6601 ;;		wreg, fsr1l, fsr1h, status,2, status,0, pclath, cstack
  6602 ;; Tracked objects:
  6603 ;;		On entry : 0/0
  6604 ;;		On exit  : 0/0
  6605 ;;		Unchanged: 0/0
  6606 ;; Data sizes:     COMMON   BANK0   BANK1   BANK2   BANK3   BANK4
  6607 ;;      Params:         0       0       0       0       0       0
  6608 ;;      Locals:         0       0       0       0       0       0
  6609 ;;      Temps:          1       0       0       0       0       0
  6610 ;;      Totals:         1       0       0       0       0       0
  6611 ;;Total ram usage:        1 bytes
  6612 ;; Hardware stack levels used: 1
  6613 ;; Hardware stack levels required when called: 3
  6614 ;; This function calls:
  6615 ;;		_PWM3_LoadDutyValue
  6616 ;;		_matrixUpdate
  6617 ;; This function is called by:
  6618 ;;		_main
  6619 ;;		_IOCBF3_ISR
  6620 ;; This function uses a non-reentrant model
  6621 ;;
  6622                           
  6623  02A1                     _chegadaS1:	
  6624                           ;psect for function _chegadaS1
  6625                           
  6626  02A1                     i1l2230:	
  6627                           ;incstack = 0
  6628                           ; Regs used in _chegadaS1: [wreg+fsr1l+fsr1h+status,2+status,0+pclath+cstack]
  6629                           
  6630                           
  6631                           ;main.c: 135:     PWM3_LoadDutyValue(0);
  6632  02A1  3000               	movlw	0
  6633  02A2  00F0               	movwf	PWM3_LoadDutyValue@dutyValue
  6634  02A3  00F1               	movwf	PWM3_LoadDutyValue@dutyValue+1
  6635  02A4  3184  2421  3182   	fcall	_PWM3_LoadDutyValue
  6636  02A7                     i1l2232:
  6637                           
  6638                           ;main.c: 138:     mov = Repouso;
  6639  02A7  0020               	movlb	0	; select bank0
  6640  02A8  01C3               	clrf	_mov
  6641  02A9                     i1l2234:
  6642                           
  6643                           ;main.c: 140:     MatrixLed[0] = 0b01111110;
  6644  02A9  307E               	movlw	126
  6645  02AA  00FC               	movwf	??_chegadaS1
  6646  02AB  087C               	movf	??_chegadaS1,w
  6647  02AC  00B3               	movwf	_MatrixLed
  6648  02AD                     i1l2236:
  6649                           
  6650                           ;main.c: 141:     MatrixLed[1] = 0b10000001;
  6651  02AD  3081               	movlw	129
  6652  02AE  00FC               	movwf	??_chegadaS1
  6653  02AF  087C               	movf	??_chegadaS1,w
  6654  02B0  00B4               	movwf	_MatrixLed+1
  6655  02B1                     i1l2238:
  6656                           
  6657                           ;main.c: 142:     MatrixLed[2] = 0b10000001;
  6658  02B1  3081               	movlw	129
  6659  02B2  00FC               	movwf	??_chegadaS1
  6660  02B3  087C               	movf	??_chegadaS1,w
  6661  02B4  00B5               	movwf	_MatrixLed+2
  6662  02B5                     i1l2240:
  6663                           
  6664                           ;main.c: 143:     MatrixLed[3] = 0b01111110;
  6665  02B5  307E               	movlw	126
  6666  02B6  00FC               	movwf	??_chegadaS1
  6667  02B7  087C               	movf	??_chegadaS1,w
  6668  02B8  00B6               	movwf	_MatrixLed+3
  6669  02B9                     i1l2242:
  6670                           
  6671                           ;main.c: 144:     MatrixLed[4] = 0;
  6672  02B9  01B7               	clrf	_MatrixLed+4
  6673  02BA                     i1l2244:
  6674                           
  6675                           ;main.c: 145:     if(subindo){
  6676  02BA  0856               	movf	_subindo,w
  6677  02BB  1903               	btfsc	3,2
  6678  02BC  2ABE               	goto	u70_21
  6679  02BD  2ABF               	goto	u70_20
  6680  02BE                     u70_21:
  6681  02BE  2ACC               	goto	i1l2248
  6682  02BF                     u70_20:
  6683  02BF                     i1l2246:
  6684                           
  6685                           ;main.c: 146:         MatrixLed[5] = 0b01100000;
  6686  02BF  3060               	movlw	96
  6687  02C0  00FC               	movwf	??_chegadaS1
  6688  02C1  087C               	movf	??_chegadaS1,w
  6689  02C2  00B8               	movwf	_MatrixLed+5
  6690                           
  6691                           ;main.c: 147:         MatrixLed[6] = 0b11000000;
  6692  02C3  30C0               	movlw	192
  6693  02C4  00FC               	movwf	??_chegadaS1
  6694  02C5  087C               	movf	??_chegadaS1,w
  6695  02C6  00B9               	movwf	_MatrixLed+6
  6696                           
  6697                           ;main.c: 148:         MatrixLed[7] = 0b01100000;
  6698  02C7  3060               	movlw	96
  6699  02C8  00FC               	movwf	??_chegadaS1
  6700  02C9  087C               	movf	??_chegadaS1,w
  6701  02CA  00BA               	movwf	_MatrixLed+7
  6702                           
  6703                           ;main.c: 149:     }else{
  6704  02CB  2ADD               	goto	i1l2252
  6705  02CC                     i1l2248:
  6706                           
  6707                           ;main.c: 150:         MatrixLed[5] = 0b11000000;
  6708  02CC  30C0               	movlw	192
  6709  02CD  00FC               	movwf	??_chegadaS1
  6710  02CE  087C               	movf	??_chegadaS1,w
  6711  02CF  00B8               	movwf	_MatrixLed+5
  6712                           
  6713                           ;main.c: 151:         MatrixLed[6] = 0b01100000;
  6714  02D0  3060               	movlw	96
  6715  02D1  00FC               	movwf	??_chegadaS1
  6716  02D2  087C               	movf	??_chegadaS1,w
  6717  02D3  00B9               	movwf	_MatrixLed+6
  6718                           
  6719                           ;main.c: 152:         MatrixLed[7] = 0b11000000;
  6720  02D4  30C0               	movlw	192
  6721  02D5  00FC               	movwf	??_chegadaS1
  6722  02D6  087C               	movf	??_chegadaS1,w
  6723  02D7  00BA               	movwf	_MatrixLed+7
  6724  02D8                     i1l2250:
  6725                           
  6726                           ;main.c: 153:         destinoDesc = destinoDesc & 0b11111110;
  6727  02D8  087D               	movf	_destinoDesc,w
  6728  02D9  39FE               	andlw	254
  6729  02DA  00FC               	movwf	??_chegadaS1
  6730  02DB  087C               	movf	??_chegadaS1,w
  6731  02DC  00FD               	movwf	_destinoDesc
  6732  02DD                     i1l2252:
  6733                           
  6734                           ;main.c: 155:     matrixUpdate();
  6735  02DD  3183  23E9  3182   	fcall	_matrixUpdate
  6736  02E0                     i1l633:
  6737  02E0  0008               	return
  6738  02E1                     __end_of_chegadaS1:
  6739                           
  6740                           	psect	text41
  6741  05BE                     __ptext41:	
  6742 ;; *************** function _IOCBF3_DefaultInterruptHandler *****************
  6743 ;; Defined at:
  6744 ;;		line 188 in file "mcc_generated_files/pin_manager.c"
  6745 ;; Parameters:    Size  Location     Type
  6746 ;;		None
  6747 ;; Auto vars:     Size  Location     Type
  6748 ;;		None
  6749 ;; Return value:  Size  Location     Type
  6750 ;;                  1    wreg      void 
  6751 ;; Registers used:
  6752 ;;		None
  6753 ;; Tracked objects:
  6754 ;;		On entry : 0/0
  6755 ;;		On exit  : 0/0
  6756 ;;		Unchanged: 0/0
  6757 ;; Data sizes:     COMMON   BANK0   BANK1   BANK2   BANK3   BANK4
  6758 ;;      Params:         0       0       0       0       0       0
  6759 ;;      Locals:         0       0       0       0       0       0
  6760 ;;      Temps:          0       0       0       0       0       0
  6761 ;;      Totals:         0       0       0       0       0       0
  6762 ;;Total ram usage:        0 bytes
  6763 ;; Hardware stack levels used: 1
  6764 ;; This function calls:
  6765 ;;		Nothing
  6766 ;; This function is called by:
  6767 ;;		_PIN_MANAGER_Initialize
  6768 ;;		_IOCBF3_ISR
  6769 ;; This function uses a non-reentrant model
  6770 ;;
  6771                           
  6772  05BE                     _IOCBF3_DefaultInterruptHandler:	
  6773                           ;psect for function _IOCBF3_DefaultInterruptHandler
  6774                           
  6775  05BE                     i1l154:	
  6776                           ;incstack = 0
  6777                           ; Regs used in _IOCBF3_DefaultInterruptHandler: []
  6778                           
  6779  05BE  0008               	return
  6780  05BF                     __end_of_IOCBF3_DefaultInterruptHandler:
  6781                           
  6782                           	psect	text42
  6783  0141                     __ptext42:	
  6784 ;; *************** function _chegadaS2 *****************
  6785 ;; Defined at:
  6786 ;;		line 162 in file "main.c"
  6787 ;; Parameters:    Size  Location     Type
  6788 ;;		None
  6789 ;; Auto vars:     Size  Location     Type
  6790 ;;		None
  6791 ;; Return value:  Size  Location     Type
  6792 ;;                  1    wreg      void 
  6793 ;; Registers used:
  6794 ;;		wreg, fsr1l, fsr1h, status,2, status,0, pclath, cstack
  6795 ;; Tracked objects:
  6796 ;;		On entry : 0/0
  6797 ;;		On exit  : 0/0
  6798 ;;		Unchanged: 0/0
  6799 ;; Data sizes:     COMMON   BANK0   BANK1   BANK2   BANK3   BANK4
  6800 ;;      Params:         0       0       0       0       0       0
  6801 ;;      Locals:         0       0       0       0       0       0
  6802 ;;      Temps:          1       0       0       0       0       0
  6803 ;;      Totals:         1       0       0       0       0       0
  6804 ;;Total ram usage:        1 bytes
  6805 ;; Hardware stack levels used: 1
  6806 ;; Hardware stack levels required when called: 3
  6807 ;; This function calls:
  6808 ;;		_PWM3_LoadDutyValue
  6809 ;;		_TMR4_ReadTimer
  6810 ;;		_TMR4_StartTimer
  6811 ;;		_matrixUpdate
  6812 ;; This function is called by:
  6813 ;;		_main
  6814 ;;		_IOCBF3_ISR
  6815 ;; This function uses a non-reentrant model
  6816 ;;
  6817                           
  6818  0141                     _chegadaS2:	
  6819                           ;psect for function _chegadaS2
  6820                           
  6821  0141                     i1l2254:	
  6822                           ;incstack = 0
  6823                           ; Regs used in _chegadaS2: [wreg+fsr1l+fsr1h+status,2+status,0+pclath+cstack]
  6824                           
  6825                           
  6826                           ;main.c: 163:     PWM3_LoadDutyValue(0);
  6827  0141  3000               	movlw	0
  6828  0142  00F0               	movwf	PWM3_LoadDutyValue@dutyValue
  6829  0143  00F1               	movwf	PWM3_LoadDutyValue@dutyValue+1
  6830  0144  3184  2421  3181   	fcall	_PWM3_LoadDutyValue
  6831  0147                     i1l2256:
  6832                           
  6833                           ;main.c: 166:     if(((destinoSub & 0b00000010) == 2 )||((destinoDesc & 0b00000010) == 2
      +                           ) ){
  6834  0147  0020               	movlb	0	; select bank0
  6835  0148  18C4               	btfsc	_destinoSub,1
  6836  0149  294B               	goto	u71_21
  6837  014A  294C               	goto	u71_20
  6838  014B                     u71_21:
  6839  014B  2950               	goto	i1l2260
  6840  014C                     u71_20:
  6841  014C                     i1l2258:
  6842  014C  1CFD               	btfss	_destinoDesc,1
  6843  014D  294F               	goto	u72_21
  6844  014E  2950               	goto	u72_20
  6845  014F                     u72_21:
  6846  014F  2956               	goto	i1l2264
  6847  0150                     u72_20:
  6848  0150                     i1l2260:
  6849                           
  6850                           ;main.c: 167:         TMR4_ReadTimer();
  6851  0150  3185  25B8  3181   	fcall	_TMR4_ReadTimer
  6852  0153                     i1l2262:
  6853                           
  6854                           ;main.c: 168:         TMR4_StartTimer();
  6855  0153  3185  25B5  3181   	fcall	_TMR4_StartTimer
  6856  0156                     i1l2264:
  6857                           
  6858                           ;main.c: 173:     MatrixLed[0] = 0b00000000;
  6859  0156  0020               	movlb	0	; select bank0
  6860  0157  01B3               	clrf	_MatrixLed
  6861  0158                     i1l2266:
  6862                           
  6863                           ;main.c: 174:     MatrixLed[1] = 0b01000001;
  6864  0158  3041               	movlw	65
  6865  0159  00FC               	movwf	??_chegadaS2
  6866  015A  087C               	movf	??_chegadaS2,w
  6867  015B  00B4               	movwf	_MatrixLed+1
  6868  015C                     i1l2268:
  6869                           
  6870                           ;main.c: 175:     MatrixLed[2] = 0b11111111;
  6871  015C  30FF               	movlw	255
  6872  015D  00FC               	movwf	??_chegadaS2
  6873  015E  087C               	movf	??_chegadaS2,w
  6874  015F  00B5               	movwf	_MatrixLed+2
  6875  0160                     i1l2270:
  6876                           
  6877                           ;main.c: 176:     MatrixLed[3] = 0b00000001;
  6878  0160  01B6               	clrf	_MatrixLed+3
  6879  0161  0AB6               	incf	_MatrixLed+3,f
  6880  0162                     i1l2272:
  6881                           
  6882                           ;main.c: 177:     MatrixLed[4] = 0;
  6883  0162  01B7               	clrf	_MatrixLed+4
  6884  0163                     i1l2274:
  6885                           
  6886                           ;main.c: 178:     if(subindo){
  6887  0163  0856               	movf	_subindo,w
  6888  0164  1903               	btfsc	3,2
  6889  0165  2967               	goto	u73_21
  6890  0166  2968               	goto	u73_20
  6891  0167                     u73_21:
  6892  0167  297E               	goto	i1l2282
  6893  0168                     u73_20:
  6894  0168                     i1l2276:
  6895                           
  6896                           ;main.c: 179:         MatrixLed[5] = 0b01100000;
  6897  0168  3060               	movlw	96
  6898  0169  00FC               	movwf	??_chegadaS2
  6899  016A  087C               	movf	??_chegadaS2,w
  6900  016B  00B8               	movwf	_MatrixLed+5
  6901                           
  6902                           ;main.c: 180:         MatrixLed[6] = 0b11000000;
  6903  016C  30C0               	movlw	192
  6904  016D  00FC               	movwf	??_chegadaS2
  6905  016E  087C               	movf	??_chegadaS2,w
  6906  016F  00B9               	movwf	_MatrixLed+6
  6907                           
  6908                           ;main.c: 181:         MatrixLed[7] = 0b01100000;
  6909  0170  3060               	movlw	96
  6910  0171  00FC               	movwf	??_chegadaS2
  6911  0172  087C               	movf	??_chegadaS2,w
  6912  0173  00BA               	movwf	_MatrixLed+7
  6913  0174                     i1l2278:
  6914                           
  6915                           ;main.c: 182:         destinoSub = destinoSub & 0b11111101;
  6916  0174  0844               	movf	_destinoSub,w
  6917  0175  39FD               	andlw	253
  6918  0176  00FC               	movwf	??_chegadaS2
  6919  0177  087C               	movf	??_chegadaS2,w
  6920  0178  00C4               	movwf	_destinoSub
  6921  0179                     i1l2280:
  6922                           
  6923                           ;main.c: 184:         mov = EmTrajeto;
  6924  0179  3002               	movlw	2
  6925  017A  00FC               	movwf	??_chegadaS2
  6926  017B  087C               	movf	??_chegadaS2,w
  6927  017C  00C3               	movwf	_mov
  6928                           
  6929                           ;main.c: 185:     }else{
  6930  017D  2998               	goto	i1l2290
  6931  017E                     i1l2282:
  6932                           
  6933                           ;main.c: 186:         MatrixLed[5] = 0b11000000;
  6934  017E  30C0               	movlw	192
  6935  017F  00FC               	movwf	??_chegadaS2
  6936  0180  087C               	movf	??_chegadaS2,w
  6937  0181  00B8               	movwf	_MatrixLed+5
  6938                           
  6939                           ;main.c: 187:         MatrixLed[6] = 0b01100000;
  6940  0182  3060               	movlw	96
  6941  0183  00FC               	movwf	??_chegadaS2
  6942  0184  087C               	movf	??_chegadaS2,w
  6943  0185  00B9               	movwf	_MatrixLed+6
  6944                           
  6945                           ;main.c: 188:         MatrixLed[7] = 0b11000000;
  6946  0186  30C0               	movlw	192
  6947  0187  00FC               	movwf	??_chegadaS2
  6948  0188  087C               	movf	??_chegadaS2,w
  6949  0189  00BA               	movwf	_MatrixLed+7
  6950  018A                     i1l2284:
  6951                           
  6952                           ;main.c: 189:         destinoDesc = destinoDesc & 0b11111101;
  6953  018A  087D               	movf	_destinoDesc,w
  6954  018B  39FD               	andlw	253
  6955  018C  00FC               	movwf	??_chegadaS2
  6956  018D  087C               	movf	??_chegadaS2,w
  6957  018E  00FD               	movwf	_destinoDesc
  6958  018F                     i1l2286:
  6959                           
  6960                           ;main.c: 192:         if(destinoDesc == 0){
  6961  018F  087D               	movf	_destinoDesc,w
  6962  0190  1D03               	btfss	3,2
  6963  0191  2993               	goto	u74_21
  6964  0192  2994               	goto	u74_20
  6965  0193                     u74_21:
  6966  0193  2998               	goto	i1l2290
  6967  0194                     u74_20:
  6968  0194                     i1l2288:
  6969                           
  6970                           ;main.c: 193:             mov = RetornaS0;
  6971  0194  3003               	movlw	3
  6972  0195  00FC               	movwf	??_chegadaS2
  6973  0196  087C               	movf	??_chegadaS2,w
  6974  0197  00C3               	movwf	_mov
  6975  0198                     i1l2290:
  6976                           
  6977                           ;main.c: 196:     MatrixLed[7] = MatrixLed[7] | destinoSub;
  6978  0198  083A               	movf	_MatrixLed+7,w
  6979  0199  0444               	iorwf	_destinoSub,w
  6980  019A  00FC               	movwf	??_chegadaS2
  6981  019B  087C               	movf	??_chegadaS2,w
  6982  019C  00BA               	movwf	_MatrixLed+7
  6983  019D                     i1l2292:
  6984                           
  6985                           ;main.c: 197:     MatrixLed[6] = MatrixLed[6] | destinoDesc;
  6986  019D  0839               	movf	_MatrixLed+6,w
  6987  019E  047D               	iorwf	_destinoDesc,w
  6988  019F  00FC               	movwf	??_chegadaS2
  6989  01A0  087C               	movf	??_chegadaS2,w
  6990  01A1  00B9               	movwf	_MatrixLed+6
  6991  01A2                     i1l2294:
  6992                           
  6993                           ;main.c: 198:     matrixUpdate();
  6994  01A2  3183  23E9  3181   	fcall	_matrixUpdate
  6995  01A5                     i1l642:
  6996  01A5  0008               	return
  6997  01A6                     __end_of_chegadaS2:
  6998                           
  6999                           	psect	text43
  7000  04D0                     __ptext43:	
  7001 ;; *************** function _IOCBF0_ISR *****************
  7002 ;; Defined at:
  7003 ;;		line 136 in file "mcc_generated_files/pin_manager.c"
  7004 ;; Parameters:    Size  Location     Type
  7005 ;;		None
  7006 ;; Auto vars:     Size  Location     Type
  7007 ;;		None
  7008 ;; Return value:  Size  Location     Type
  7009 ;;                  1    wreg      void 
  7010 ;; Registers used:
  7011 ;;		wreg, status,2, status,0, pclath, cstack
  7012 ;; Tracked objects:
  7013 ;;		On entry : 0/0
  7014 ;;		On exit  : 0/0
  7015 ;;		Unchanged: 0/0
  7016 ;; Data sizes:     COMMON   BANK0   BANK1   BANK2   BANK3   BANK4
  7017 ;;      Params:         0       0       0       0       0       0
  7018 ;;      Locals:         0       0       0       0       0       0
  7019 ;;      Temps:          0       0       0       0       0       0
  7020 ;;      Totals:         0       0       0       0       0       0
  7021 ;;Total ram usage:        0 bytes
  7022 ;; Hardware stack levels used: 1
  7023 ;; Hardware stack levels required when called: 1
  7024 ;; This function calls:
  7025 ;;		Absolute function
  7026 ;;		_IOCBF0_DefaultInterruptHandler
  7027 ;; This function is called by:
  7028 ;;		_PIN_MANAGER_IOC
  7029 ;; This function uses a non-reentrant model
  7030 ;;
  7031                           
  7032  04D0                     _IOCBF0_ISR:	
  7033                           ;psect for function _IOCBF0_ISR
  7034                           
  7035  04D0                     i1l2426:	
  7036                           ;incstack = 0
  7037                           ; Regs used in _IOCBF0_ISR: [wreg+status,2+status,0+pclath+cstack]
  7038                           
  7039                           
  7040                           ;mcc_generated_files/pin_manager.c: 141:     if(IOCBF0_InterruptHandler)
  7041  04D0  0020               	movlb	0	; select bank0
  7042  04D1  0830               	movf	_IOCBF0_InterruptHandler,w
  7043  04D2  0431               	iorwf	_IOCBF0_InterruptHandler+1,w
  7044  04D3  1903               	btfsc	3,2
  7045  04D4  2CD6               	goto	u85_21
  7046  04D5  2CD7               	goto	u85_20
  7047  04D6                     u85_21:
  7048  04D6  2CDC               	goto	i1l2430
  7049  04D7                     u85_20:
  7050  04D7                     i1l2428:
  7051                           
  7052                           ;mcc_generated_files/pin_manager.c: 142:     {;mcc_generated_files/pin_manager.c: 143:  
      +                                 IOCBF0_InterruptHandler();
  7053  04D7  0831               	movf	_IOCBF0_InterruptHandler+1,w
  7054  04D8  008A               	movwf	10
  7055  04D9  0830               	movf	_IOCBF0_InterruptHandler,w
  7056  04DA  000A               	callw
  7057  04DB  3184               	pagesel	$
  7058  04DC                     i1l2430:
  7059                           
  7060                           ;mcc_generated_files/pin_manager.c: 145:     IOCBFbits.IOCBF0 = 0;
  7061  04DC  0027               	movlb	7	; select bank7
  7062  04DD  1016               	bcf	22,0	;volatile
  7063  04DE                     i1l138:
  7064  04DE  0008               	return
  7065  04DF                     __end_of_IOCBF0_ISR:
  7066                           
  7067                           	psect	text44
  7068  05BF                     __ptext44:	
  7069 ;; *************** function _IOCBF0_DefaultInterruptHandler *****************
  7070 ;; Defined at:
  7071 ;;		line 158 in file "mcc_generated_files/pin_manager.c"
  7072 ;; Parameters:    Size  Location     Type
  7073 ;;		None
  7074 ;; Auto vars:     Size  Location     Type
  7075 ;;		None
  7076 ;; Return value:  Size  Location     Type
  7077 ;;                  1    wreg      void 
  7078 ;; Registers used:
  7079 ;;		None
  7080 ;; Tracked objects:
  7081 ;;		On entry : 0/0
  7082 ;;		On exit  : 0/0
  7083 ;;		Unchanged: 0/0
  7084 ;; Data sizes:     COMMON   BANK0   BANK1   BANK2   BANK3   BANK4
  7085 ;;      Params:         0       0       0       0       0       0
  7086 ;;      Locals:         0       0       0       0       0       0
  7087 ;;      Temps:          0       0       0       0       0       0
  7088 ;;      Totals:         0       0       0       0       0       0
  7089 ;;Total ram usage:        0 bytes
  7090 ;; Hardware stack levels used: 1
  7091 ;; This function calls:
  7092 ;;		Nothing
  7093 ;; This function is called by:
  7094 ;;		_PIN_MANAGER_Initialize
  7095 ;;		_IOCBF0_ISR
  7096 ;; This function uses a non-reentrant model
  7097 ;;
  7098                           
  7099  05BF                     _IOCBF0_DefaultInterruptHandler:	
  7100                           ;psect for function _IOCBF0_DefaultInterruptHandler
  7101                           
  7102  05BF                     i1l144:	
  7103                           ;incstack = 0
  7104                           ; Regs used in _IOCBF0_DefaultInterruptHandler: []
  7105                           
  7106  05BF  0008               	return
  7107  05C0                     __end_of_IOCBF0_DefaultInterruptHandler:
  7108                           
  7109                           	psect	text45
  7110  059A                     __ptext45:	
  7111 ;; *************** function _CMP2_ISR *****************
  7112 ;; Defined at:
  7113 ;;		line 86 in file "mcc_generated_files/cmp2.c"
  7114 ;; Parameters:    Size  Location     Type
  7115 ;;		None
  7116 ;; Auto vars:     Size  Location     Type
  7117 ;;		None
  7118 ;; Return value:  Size  Location     Type
  7119 ;;                  1    wreg      void 
  7120 ;; Registers used:
  7121 ;;		wreg, fsr1l, fsr1h, status,2, status,0, pclath, cstack
  7122 ;; Tracked objects:
  7123 ;;		On entry : 0/0
  7124 ;;		On exit  : 0/0
  7125 ;;		Unchanged: 0/0
  7126 ;; Data sizes:     COMMON   BANK0   BANK1   BANK2   BANK3   BANK4
  7127 ;;      Params:         0       0       0       0       0       0
  7128 ;;      Locals:         0       0       0       0       0       0
  7129 ;;      Temps:          0       0       0       0       0       0
  7130 ;;      Totals:         0       0       0       0       0       0
  7131 ;;Total ram usage:        0 bytes
  7132 ;; Hardware stack levels used: 1
  7133 ;; Hardware stack levels required when called: 4
  7134 ;; This function calls:
  7135 ;;		_chegadaS4
  7136 ;; This function is called by:
  7137 ;;		_INTERRUPT_InterruptManager
  7138 ;; This function uses a non-reentrant model
  7139 ;;
  7140                           
  7141  059A                     _CMP2_ISR:	
  7142                           ;psect for function _CMP2_ISR
  7143                           
  7144  059A                     i1l2544:	
  7145                           ;incstack = 0
  7146                           ; Regs used in _CMP2_ISR: [wreg+fsr1l+fsr1h+status,2+status,0+pclath+cstack]
  7147                           
  7148                           
  7149                           ;mcc_generated_files/cmp2.c: 89:     PIR2bits.C2IF = 0;
  7150  059A  0020               	movlb	0	; select bank0
  7151  059B  1312               	bcf	18,6	;volatile
  7152  059C                     i1l2546:
  7153                           
  7154                           ;mcc_generated_files/cmp2.c: 90:     chegadaS4();
  7155  059C  3180  2069  3185   	fcall	_chegadaS4
  7156  059F                     i1l47:
  7157  059F  0008               	return
  7158  05A0                     __end_of_CMP2_ISR:
  7159                           
  7160                           	psect	text46
  7161  0069                     __ptext46:	
  7162 ;; *************** function _chegadaS4 *****************
  7163 ;; Defined at:
  7164 ;;		line 241 in file "main.c"
  7165 ;; Parameters:    Size  Location     Type
  7166 ;;		None
  7167 ;; Auto vars:     Size  Location     Type
  7168 ;;		None
  7169 ;; Return value:  Size  Location     Type
  7170 ;;                  1    wreg      void 
  7171 ;; Registers used:
  7172 ;;		wreg, fsr1l, fsr1h, status,2, status,0, pclath, cstack
  7173 ;; Tracked objects:
  7174 ;;		On entry : 0/0
  7175 ;;		On exit  : 0/0
  7176 ;;		Unchanged: 0/0
  7177 ;; Data sizes:     COMMON   BANK0   BANK1   BANK2   BANK3   BANK4
  7178 ;;      Params:         0       0       0       0       0       0
  7179 ;;      Locals:         0       0       0       0       0       0
  7180 ;;      Temps:          1       0       0       0       0       0
  7181 ;;      Totals:         1       0       0       0       0       0
  7182 ;;Total ram usage:        1 bytes
  7183 ;; Hardware stack levels used: 1
  7184 ;; Hardware stack levels required when called: 3
  7185 ;; This function calls:
  7186 ;;		_PWM3_LoadDutyValue
  7187 ;;		_TMR4_ReadTimer
  7188 ;;		_TMR4_StartTimer
  7189 ;;		_matrixUpdate
  7190 ;; This function is called by:
  7191 ;;		_CMP2_ISR
  7192 ;; This function uses a non-reentrant model
  7193 ;;
  7194                           
  7195  0069                     _chegadaS4:	
  7196                           ;psect for function _chegadaS4
  7197                           
  7198  0069                     i1l2316:	
  7199                           ;incstack = 0
  7200                           ; Regs used in _chegadaS4: [wreg+fsr1l+fsr1h+status,2+status,0+pclath+cstack]
  7201                           
  7202                           
  7203                           ;main.c: 242:     PWM3_LoadDutyValue(0);
  7204  0069  3000               	movlw	0
  7205  006A  00F0               	movwf	PWM3_LoadDutyValue@dutyValue
  7206  006B  00F1               	movwf	PWM3_LoadDutyValue@dutyValue+1
  7207  006C  3184  2421  3180   	fcall	_PWM3_LoadDutyValue
  7208  006F                     i1l2318:
  7209                           
  7210                           ;main.c: 245:     if(((destinoSub & 0b00001000) == 8 )||((destinoDesc & 0b00001000) == 8
      +                           ) ){
  7211  006F  0020               	movlb	0	; select bank0
  7212  0070  19C4               	btfsc	_destinoSub,3
  7213  0071  2873               	goto	u75_21
  7214  0072  2874               	goto	u75_20
  7215  0073                     u75_21:
  7216  0073  2878               	goto	i1l2322
  7217  0074                     u75_20:
  7218  0074                     i1l2320:
  7219  0074  1DFD               	btfss	_destinoDesc,3
  7220  0075  2877               	goto	u76_21
  7221  0076  2878               	goto	u76_20
  7222  0077                     u76_21:
  7223  0077  287E               	goto	i1l654
  7224  0078                     u76_20:
  7225  0078                     i1l2322:
  7226                           
  7227                           ;main.c: 246:         TMR4_ReadTimer();
  7228  0078  3185  25B8  3180   	fcall	_TMR4_ReadTimer
  7229  007B                     i1l2324:
  7230                           
  7231                           ;main.c: 247:         TMR4_StartTimer();
  7232  007B  3185  25B5  3180   	fcall	_TMR4_StartTimer
  7233  007E                     i1l654:	
  7234                           ;main.c: 248:     }
  7235                           
  7236                           
  7237                           ;main.c: 251:     MatrixLed[0] = 0b10000001;
  7238  007E  3081               	movlw	129
  7239  007F  00FC               	movwf	??_chegadaS4
  7240  0080  087C               	movf	??_chegadaS4,w
  7241  0081  0020               	movlb	0	; select bank0
  7242  0082  00B3               	movwf	_MatrixLed
  7243                           
  7244                           ;main.c: 252:     MatrixLed[1] = 0b10010001;
  7245  0083  3091               	movlw	145
  7246  0084  00FC               	movwf	??_chegadaS4
  7247  0085  087C               	movf	??_chegadaS4,w
  7248  0086  00B4               	movwf	_MatrixLed+1
  7249                           
  7250                           ;main.c: 253:     MatrixLed[2] = 0b10010001;
  7251  0087  3091               	movlw	145
  7252  0088  00FC               	movwf	??_chegadaS4
  7253  0089  087C               	movf	??_chegadaS4,w
  7254  008A  00B5               	movwf	_MatrixLed+2
  7255                           
  7256                           ;main.c: 254:     MatrixLed[3] = 0b01101110;
  7257  008B  306E               	movlw	110
  7258  008C  00FC               	movwf	??_chegadaS4
  7259  008D  087C               	movf	??_chegadaS4,w
  7260  008E  00B6               	movwf	_MatrixLed+3
  7261  008F                     i1l2326:
  7262                           
  7263                           ;main.c: 255:     MatrixLed[4] = 0;
  7264  008F  01B7               	clrf	_MatrixLed+4
  7265  0090                     i1l2328:
  7266                           
  7267                           ;main.c: 256:     if(subindo){
  7268  0090  0856               	movf	_subindo,w
  7269  0091  1903               	btfsc	3,2
  7270  0092  2894               	goto	u77_21
  7271  0093  2895               	goto	u77_20
  7272  0094                     u77_21:
  7273  0094  28A7               	goto	i1l2334
  7274  0095                     u77_20:
  7275  0095                     i1l2330:
  7276                           
  7277                           ;main.c: 257:         MatrixLed[5] = 0b01100000;
  7278  0095  3060               	movlw	96
  7279  0096  00FC               	movwf	??_chegadaS4
  7280  0097  087C               	movf	??_chegadaS4,w
  7281  0098  00B8               	movwf	_MatrixLed+5
  7282                           
  7283                           ;main.c: 258:         MatrixLed[6] = 0b11000000;
  7284  0099  30C0               	movlw	192
  7285  009A  00FC               	movwf	??_chegadaS4
  7286  009B  087C               	movf	??_chegadaS4,w
  7287  009C  00B9               	movwf	_MatrixLed+6
  7288                           
  7289                           ;main.c: 259:         MatrixLed[7] = 0b01100000;
  7290  009D  3060               	movlw	96
  7291  009E  00FC               	movwf	??_chegadaS4
  7292  009F  087C               	movf	??_chegadaS4,w
  7293  00A0  00BA               	movwf	_MatrixLed+7
  7294  00A1                     i1l2332:
  7295                           
  7296                           ;main.c: 260:         destinoSub = destinoSub & 0b11110111;
  7297  00A1  0844               	movf	_destinoSub,w
  7298  00A2  39F7               	andlw	247
  7299  00A3  00FC               	movwf	??_chegadaS4
  7300  00A4  087C               	movf	??_chegadaS4,w
  7301  00A5  00C4               	movwf	_destinoSub
  7302                           
  7303                           ;main.c: 261:     }else{
  7304  00A6  28B8               	goto	i1l2338
  7305  00A7                     i1l2334:
  7306                           
  7307                           ;main.c: 262:         MatrixLed[5] = 0b11000000;
  7308  00A7  30C0               	movlw	192
  7309  00A8  00FC               	movwf	??_chegadaS4
  7310  00A9  087C               	movf	??_chegadaS4,w
  7311  00AA  00B8               	movwf	_MatrixLed+5
  7312                           
  7313                           ;main.c: 263:         MatrixLed[6] = 0b01100000;
  7314  00AB  3060               	movlw	96
  7315  00AC  00FC               	movwf	??_chegadaS4
  7316  00AD  087C               	movf	??_chegadaS4,w
  7317  00AE  00B9               	movwf	_MatrixLed+6
  7318                           
  7319                           ;main.c: 264:         MatrixLed[7] = 0b11000000;
  7320  00AF  30C0               	movlw	192
  7321  00B0  00FC               	movwf	??_chegadaS4
  7322  00B1  087C               	movf	??_chegadaS4,w
  7323  00B2  00BA               	movwf	_MatrixLed+7
  7324  00B3                     i1l2336:
  7325                           
  7326                           ;main.c: 265:         destinoDesc = destinoDesc & 0b11110111;
  7327  00B3  087D               	movf	_destinoDesc,w
  7328  00B4  39F7               	andlw	247
  7329  00B5  00FC               	movwf	??_chegadaS4
  7330  00B6  087C               	movf	??_chegadaS4,w
  7331  00B7  00FD               	movwf	_destinoDesc
  7332  00B8                     i1l2338:
  7333                           
  7334                           ;main.c: 267:     MatrixLed[7] = MatrixLed[7] | destinoSub;
  7335  00B8  083A               	movf	_MatrixLed+7,w
  7336  00B9  0444               	iorwf	_destinoSub,w
  7337  00BA  00FC               	movwf	??_chegadaS4
  7338  00BB  087C               	movf	??_chegadaS4,w
  7339  00BC  00BA               	movwf	_MatrixLed+7
  7340  00BD                     i1l2340:
  7341                           
  7342                           ;main.c: 268:     MatrixLed[6] = MatrixLed[6] | destinoDesc;
  7343  00BD  0839               	movf	_MatrixLed+6,w
  7344  00BE  047D               	iorwf	_destinoDesc,w
  7345  00BF  00FC               	movwf	??_chegadaS4
  7346  00C0  087C               	movf	??_chegadaS4,w
  7347  00C1  00B9               	movwf	_MatrixLed+6
  7348  00C2                     i1l2342:
  7349                           
  7350                           ;main.c: 269:     matrixUpdate();
  7351  00C2  3183  23E9  3180   	fcall	_matrixUpdate
  7352  00C5                     i1l2344:
  7353                           
  7354                           ;main.c: 272:     if(destinoDesc ==0 && destinoSub == 0){
  7355  00C5  087D               	movf	_destinoDesc,w
  7356  00C6  1D03               	btfss	3,2
  7357  00C7  28C9               	goto	u78_21
  7358  00C8  28CA               	goto	u78_20
  7359  00C9                     u78_21:
  7360  00C9  28D4               	goto	i1l660
  7361  00CA                     u78_20:
  7362  00CA                     i1l2346:
  7363  00CA  0020               	movlb	0	; select bank0
  7364  00CB  0844               	movf	_destinoSub,w
  7365  00CC  1D03               	btfss	3,2
  7366  00CD  28CF               	goto	u79_21
  7367  00CE  28D0               	goto	u79_20
  7368  00CF                     u79_21:
  7369  00CF  28D4               	goto	i1l660
  7370  00D0                     u79_20:
  7371  00D0                     i1l2348:
  7372                           
  7373                           ;main.c: 273:         mov = RetornaS0;
  7374  00D0  3003               	movlw	3
  7375  00D1  00FC               	movwf	??_chegadaS4
  7376  00D2  087C               	movf	??_chegadaS4,w
  7377  00D3  00C3               	movwf	_mov
  7378  00D4                     i1l660:
  7379  00D4  0008               	return
  7380  00D5                     __end_of_chegadaS4:
  7381                           
  7382                           	psect	text47
  7383  05A0                     __ptext47:	
  7384 ;; *************** function _CMP1_ISR *****************
  7385 ;; Defined at:
  7386 ;;		line 86 in file "mcc_generated_files/cmp1.c"
  7387 ;; Parameters:    Size  Location     Type
  7388 ;;		None
  7389 ;; Auto vars:     Size  Location     Type
  7390 ;;		None
  7391 ;; Return value:  Size  Location     Type
  7392 ;;                  1    wreg      void 
  7393 ;; Registers used:
  7394 ;;		wreg, fsr1l, fsr1h, status,2, status,0, pclath, cstack
  7395 ;; Tracked objects:
  7396 ;;		On entry : 0/0
  7397 ;;		On exit  : 0/0
  7398 ;;		Unchanged: 0/0
  7399 ;; Data sizes:     COMMON   BANK0   BANK1   BANK2   BANK3   BANK4
  7400 ;;      Params:         0       0       0       0       0       0
  7401 ;;      Locals:         0       0       0       0       0       0
  7402 ;;      Temps:          0       0       0       0       0       0
  7403 ;;      Totals:         0       0       0       0       0       0
  7404 ;;Total ram usage:        0 bytes
  7405 ;; Hardware stack levels used: 1
  7406 ;; Hardware stack levels required when called: 4
  7407 ;; This function calls:
  7408 ;;		_chegadaS3
  7409 ;; This function is called by:
  7410 ;;		_INTERRUPT_InterruptManager
  7411 ;; This function uses a non-reentrant model
  7412 ;;
  7413                           
  7414  05A0                     _CMP1_ISR:	
  7415                           ;psect for function _CMP1_ISR
  7416                           
  7417  05A0                     i1l2548:	
  7418                           ;incstack = 0
  7419                           ; Regs used in _CMP1_ISR: [wreg+fsr1l+fsr1h+status,2+status,0+pclath+cstack]
  7420                           
  7421                           
  7422                           ;mcc_generated_files/cmp1.c: 89:     PIR2bits.C1IF = 0;
  7423  05A0  0020               	movlb	0	; select bank0
  7424  05A1  1292               	bcf	18,5	;volatile
  7425  05A2                     i1l2550:
  7426                           
  7427                           ;mcc_generated_files/cmp1.c: 90:     chegadaS3();
  7428  05A2  3180  20D5  3185   	fcall	_chegadaS3
  7429  05A5                     i1l80:
  7430  05A5  0008               	return
  7431  05A6                     __end_of_CMP1_ISR:
  7432                           
  7433                           	psect	text48
  7434  00D5                     __ptext48:	
  7435 ;; *************** function _chegadaS3 *****************
  7436 ;; Defined at:
  7437 ;;		line 203 in file "main.c"
  7438 ;; Parameters:    Size  Location     Type
  7439 ;;		None
  7440 ;; Auto vars:     Size  Location     Type
  7441 ;;		None
  7442 ;; Return value:  Size  Location     Type
  7443 ;;                  1    wreg      void 
  7444 ;; Registers used:
  7445 ;;		wreg, fsr1l, fsr1h, status,2, status,0, pclath, cstack
  7446 ;; Tracked objects:
  7447 ;;		On entry : 0/0
  7448 ;;		On exit  : 0/0
  7449 ;;		Unchanged: 0/0
  7450 ;; Data sizes:     COMMON   BANK0   BANK1   BANK2   BANK3   BANK4
  7451 ;;      Params:         0       0       0       0       0       0
  7452 ;;      Locals:         0       0       0       0       0       0
  7453 ;;      Temps:          1       0       0       0       0       0
  7454 ;;      Totals:         1       0       0       0       0       0
  7455 ;;Total ram usage:        1 bytes
  7456 ;; Hardware stack levels used: 1
  7457 ;; Hardware stack levels required when called: 3
  7458 ;; This function calls:
  7459 ;;		_PWM3_LoadDutyValue
  7460 ;;		_TMR4_ReadTimer
  7461 ;;		_TMR4_StartTimer
  7462 ;;		_matrixUpdate
  7463 ;; This function is called by:
  7464 ;;		_CMP1_ISR
  7465 ;; This function uses a non-reentrant model
  7466 ;;
  7467                           
  7468  00D5                     _chegadaS3:	
  7469                           ;psect for function _chegadaS3
  7470                           
  7471  00D5                     i1l2358:	
  7472                           ;incstack = 0
  7473                           ; Regs used in _chegadaS3: [wreg+fsr1l+fsr1h+status,2+status,0+pclath+cstack]
  7474                           
  7475                           
  7476                           ;main.c: 204:     PWM3_LoadDutyValue(0);
  7477  00D5  3000               	movlw	0
  7478  00D6  00F0               	movwf	PWM3_LoadDutyValue@dutyValue
  7479  00D7  00F1               	movwf	PWM3_LoadDutyValue@dutyValue+1
  7480  00D8  3184  2421  3180   	fcall	_PWM3_LoadDutyValue
  7481  00DB                     i1l2360:
  7482                           
  7483                           ;main.c: 207:     if(((destinoSub & 0b00000100) == 4 )||((destinoDesc & 0b00000100) == 4
      +                           ) ){
  7484  00DB  0020               	movlb	0	; select bank0
  7485  00DC  1944               	btfsc	_destinoSub,2
  7486  00DD  28DF               	goto	u80_21
  7487  00DE  28E0               	goto	u80_20
  7488  00DF                     u80_21:
  7489  00DF  28E4               	goto	i1l2364
  7490  00E0                     u80_20:
  7491  00E0                     i1l2362:
  7492  00E0  1D7D               	btfss	_destinoDesc,2
  7493  00E1  28E3               	goto	u81_21
  7494  00E2  28E4               	goto	u81_20
  7495  00E3                     u81_21:
  7496  00E3  28EA               	goto	i1l645
  7497  00E4                     u81_20:
  7498  00E4                     i1l2364:
  7499                           
  7500                           ;main.c: 208:         TMR4_ReadTimer();
  7501  00E4  3185  25B8  3180   	fcall	_TMR4_ReadTimer
  7502  00E7                     i1l2366:
  7503                           
  7504                           ;main.c: 209:         TMR4_StartTimer();
  7505  00E7  3185  25B5  3180   	fcall	_TMR4_StartTimer
  7506  00EA                     i1l645:	
  7507                           ;main.c: 210:     }
  7508                           
  7509                           
  7510                           ;main.c: 213:     MatrixLed[0] = 0b01000011;
  7511  00EA  3043               	movlw	67
  7512  00EB  00FC               	movwf	??_chegadaS3
  7513  00EC  087C               	movf	??_chegadaS3,w
  7514  00ED  0020               	movlb	0	; select bank0
  7515  00EE  00B3               	movwf	_MatrixLed
  7516                           
  7517                           ;main.c: 214:     MatrixLed[1] = 0b10000101;
  7518  00EF  3085               	movlw	133
  7519  00F0  00FC               	movwf	??_chegadaS3
  7520  00F1  087C               	movf	??_chegadaS3,w
  7521  00F2  00B4               	movwf	_MatrixLed+1
  7522                           
  7523                           ;main.c: 215:     MatrixLed[2] = 0b10001001;
  7524  00F3  3089               	movlw	137
  7525  00F4  00FC               	movwf	??_chegadaS3
  7526  00F5  087C               	movf	??_chegadaS3,w
  7527  00F6  00B5               	movwf	_MatrixLed+2
  7528                           
  7529                           ;main.c: 216:     MatrixLed[3] = 0b01110001;
  7530  00F7  3071               	movlw	113
  7531  00F8  00FC               	movwf	??_chegadaS3
  7532  00F9  087C               	movf	??_chegadaS3,w
  7533  00FA  00B6               	movwf	_MatrixLed+3
  7534  00FB                     i1l2368:
  7535                           
  7536                           ;main.c: 217:     MatrixLed[4] = 0;
  7537  00FB  01B7               	clrf	_MatrixLed+4
  7538  00FC                     i1l2370:
  7539                           
  7540                           ;main.c: 218:     if(subindo){
  7541  00FC  0856               	movf	_subindo,w
  7542  00FD  1903               	btfsc	3,2
  7543  00FE  2900               	goto	u82_21
  7544  00FF  2901               	goto	u82_20
  7545  0100                     u82_21:
  7546  0100  2913               	goto	i1l2376
  7547  0101                     u82_20:
  7548  0101                     i1l2372:
  7549                           
  7550                           ;main.c: 219:         MatrixLed[5] = 0b01100000;
  7551  0101  3060               	movlw	96
  7552  0102  00FC               	movwf	??_chegadaS3
  7553  0103  087C               	movf	??_chegadaS3,w
  7554  0104  00B8               	movwf	_MatrixLed+5
  7555                           
  7556                           ;main.c: 220:         MatrixLed[6] = 0b11000000;
  7557  0105  30C0               	movlw	192
  7558  0106  00FC               	movwf	??_chegadaS3
  7559  0107  087C               	movf	??_chegadaS3,w
  7560  0108  00B9               	movwf	_MatrixLed+6
  7561                           
  7562                           ;main.c: 221:         MatrixLed[7] = 0b01100000;
  7563  0109  3060               	movlw	96
  7564  010A  00FC               	movwf	??_chegadaS3
  7565  010B  087C               	movf	??_chegadaS3,w
  7566  010C  00BA               	movwf	_MatrixLed+7
  7567  010D                     i1l2374:
  7568                           
  7569                           ;main.c: 222:         destinoSub = destinoSub & 0b11111011;
  7570  010D  0844               	movf	_destinoSub,w
  7571  010E  39FB               	andlw	251
  7572  010F  00FC               	movwf	??_chegadaS3
  7573  0110  087C               	movf	??_chegadaS3,w
  7574  0111  00C4               	movwf	_destinoSub
  7575                           
  7576                           ;main.c: 223:     }else{
  7577  0112  2924               	goto	i1l2380
  7578  0113                     i1l2376:
  7579                           
  7580                           ;main.c: 224:         MatrixLed[5] = 0b11000000;
  7581  0113  30C0               	movlw	192
  7582  0114  00FC               	movwf	??_chegadaS3
  7583  0115  087C               	movf	??_chegadaS3,w
  7584  0116  00B8               	movwf	_MatrixLed+5
  7585                           
  7586                           ;main.c: 225:         MatrixLed[6] = 0b01100000;
  7587  0117  3060               	movlw	96
  7588  0118  00FC               	movwf	??_chegadaS3
  7589  0119  087C               	movf	??_chegadaS3,w
  7590  011A  00B9               	movwf	_MatrixLed+6
  7591                           
  7592                           ;main.c: 226:         MatrixLed[7] = 0b11000000;
  7593  011B  30C0               	movlw	192
  7594  011C  00FC               	movwf	??_chegadaS3
  7595  011D  087C               	movf	??_chegadaS3,w
  7596  011E  00BA               	movwf	_MatrixLed+7
  7597  011F                     i1l2378:
  7598                           
  7599                           ;main.c: 227:         destinoDesc = destinoDesc & 0b11111011;
  7600  011F  087D               	movf	_destinoDesc,w
  7601  0120  39FB               	andlw	251
  7602  0121  00FC               	movwf	??_chegadaS3
  7603  0122  087C               	movf	??_chegadaS3,w
  7604  0123  00FD               	movwf	_destinoDesc
  7605  0124                     i1l2380:
  7606                           
  7607                           ;main.c: 229:     MatrixLed[7] = MatrixLed[7] | destinoSub;
  7608  0124  083A               	movf	_MatrixLed+7,w
  7609  0125  0444               	iorwf	_destinoSub,w
  7610  0126  00FC               	movwf	??_chegadaS3
  7611  0127  087C               	movf	??_chegadaS3,w
  7612  0128  00BA               	movwf	_MatrixLed+7
  7613  0129                     i1l2382:
  7614                           
  7615                           ;main.c: 230:     MatrixLed[6] = MatrixLed[6] | destinoDesc;
  7616  0129  0839               	movf	_MatrixLed+6,w
  7617  012A  047D               	iorwf	_destinoDesc,w
  7618  012B  00FC               	movwf	??_chegadaS3
  7619  012C  087C               	movf	??_chegadaS3,w
  7620  012D  00B9               	movwf	_MatrixLed+6
  7621  012E                     i1l2384:
  7622                           
  7623                           ;main.c: 231:     matrixUpdate();
  7624  012E  3183  23E9  3180   	fcall	_matrixUpdate
  7625  0131                     i1l2386:
  7626                           
  7627                           ;main.c: 234:     if(destinoDesc ==0 && destinoSub == 0){
  7628  0131  087D               	movf	_destinoDesc,w
  7629  0132  1D03               	btfss	3,2
  7630  0133  2935               	goto	u83_21
  7631  0134  2936               	goto	u83_20
  7632  0135                     u83_21:
  7633  0135  2940               	goto	i1l651
  7634  0136                     u83_20:
  7635  0136                     i1l2388:
  7636  0136  0020               	movlb	0	; select bank0
  7637  0137  0844               	movf	_destinoSub,w
  7638  0138  1D03               	btfss	3,2
  7639  0139  293B               	goto	u84_21
  7640  013A  293C               	goto	u84_20
  7641  013B                     u84_21:
  7642  013B  2940               	goto	i1l651
  7643  013C                     u84_20:
  7644  013C                     i1l2390:
  7645                           
  7646                           ;main.c: 235:         mov = RetornaS0;
  7647  013C  3003               	movlw	3
  7648  013D  00FC               	movwf	??_chegadaS3
  7649  013E  087C               	movf	??_chegadaS3,w
  7650  013F  00C3               	movwf	_mov
  7651  0140                     i1l651:
  7652  0140  0008               	return
  7653  0141                     __end_of_chegadaS3:
  7654                           
  7655                           	psect	text49
  7656  03E9                     __ptext49:	
  7657 ;; *************** function _matrixUpdate *****************
  7658 ;; Defined at:
  7659 ;;		line 62 in file "main.c"
  7660 ;; Parameters:    Size  Location     Type
  7661 ;;		None
  7662 ;; Auto vars:     Size  Location     Type
  7663 ;;  i               1    0        unsigned char 
  7664 ;;  i               1   11[COMMON] unsigned char 
  7665 ;;  index           1    0        unsigned char 
  7666 ;;  data            2    9[COMMON] unsigned char [2]
  7667 ;; Return value:  Size  Location     Type
  7668 ;;                  1    wreg      void 
  7669 ;; Registers used:
  7670 ;;		wreg, fsr1l, fsr1h, status,2, status,0, pclath, cstack
  7671 ;; Tracked objects:
  7672 ;;		On entry : 0/0
  7673 ;;		On exit  : 0/0
  7674 ;;		Unchanged: 0/0
  7675 ;; Data sizes:     COMMON   BANK0   BANK1   BANK2   BANK3   BANK4
  7676 ;;      Params:         0       0       0       0       0       0
  7677 ;;      Locals:         3       0       0       0       0       0
  7678 ;;      Temps:          1       0       0       0       0       0
  7679 ;;      Totals:         4       0       0       0       0       0
  7680 ;;Total ram usage:        4 bytes
  7681 ;; Hardware stack levels used: 1
  7682 ;; Hardware stack levels required when called: 2
  7683 ;; This function calls:
  7684 ;;		i1_txSpi
  7685 ;; This function is called by:
  7686 ;;		_chegadaS1
  7687 ;;		_chegadaS2
  7688 ;;		_chegadaS3
  7689 ;;		_chegadaS4
  7690 ;; This function uses a non-reentrant model
  7691 ;;
  7692                           
  7693  03E9                     _matrixUpdate:	
  7694                           ;psect for function _matrixUpdate
  7695                           
  7696  03E9                     i1l2136:	
  7697                           ;incstack = 0
  7698                           ; Regs used in _matrixUpdate: [wreg+fsr1l+fsr1h+status,2+status,0+pclath+cstack]
  7699                           
  7700                           
  7701                           ;main.c: 65:         for(uint8_t i=8;i>0;i--){
  7702  03E9  3008               	movlw	8
  7703  03EA  00F8               	movwf	??_matrixUpdate
  7704  03EB  0878               	movf	??_matrixUpdate,w
  7705  03EC  00FB               	movwf	matrixUpdate@i
  7706  03ED                     i1l2142:
  7707                           
  7708                           ;main.c: 66:             data[0] = i;
  7709  03ED  087B               	movf	matrixUpdate@i,w
  7710  03EE  00F8               	movwf	??_matrixUpdate
  7711  03EF  0878               	movf	??_matrixUpdate,w
  7712  03F0  00F9               	movwf	matrixUpdate@data
  7713  03F1                     i1l2144:
  7714                           
  7715                           ;main.c: 67:             data[1] = MatrixLed[i-1];
  7716  03F1  087B               	movf	matrixUpdate@i,w
  7717  03F2  3E32               	addlw	(low ((_MatrixLed| 0+255)))& (0+255)
  7718  03F3  0086               	movwf	6
  7719  03F4  0187               	clrf	7
  7720  03F5  0801               	movf	1,w
  7721  03F6  00F8               	movwf	??_matrixUpdate
  7722  03F7  0878               	movf	??_matrixUpdate,w
  7723  03F8  00FA               	movwf	matrixUpdate@data+1
  7724  03F9                     i1l2146:
  7725                           
  7726                           ;main.c: 68:             txSpi(data, 2);
  7727  03F9  3002               	movlw	2
  7728  03FA  00F5               	movwf	i1txSpi@dataSize
  7729  03FB  3000               	movlw	0
  7730  03FC  00F6               	movwf	i1txSpi@dataSize+1
  7731  03FD  3079               	movlw	(low (matrixUpdate@data| 0))& (0+255)
  7732  03FE  3184  24ED  3183   	fcall	i1_txSpi
  7733  0401                     i1l2148:
  7734                           
  7735                           ;main.c: 69:         }
  7736  0401  3001               	movlw	1
  7737  0402  02FB               	subwf	matrixUpdate@i,f
  7738  0403                     i1l2150:
  7739  0403  087B               	movf	matrixUpdate@i,w
  7740  0404  1D03               	btfss	3,2
  7741  0405  2C07               	goto	u64_21
  7742  0406  2C08               	goto	u64_20
  7743  0407                     u64_21:
  7744  0407  2BED               	goto	i1l2142
  7745  0408                     u64_20:
  7746  0408                     i1l603:
  7747  0408  0008               	return
  7748  0409                     __end_of_matrixUpdate:
  7749                           
  7750                           	psect	text50
  7751  04ED                     __ptext50:	
  7752 ;; *************** function i1_txSpi *****************
  7753 ;; Defined at:
  7754 ;;		line 54 in file "main.c"
  7755 ;; Parameters:    Size  Location     Type
  7756 ;;  data            1    wreg     PTR unsigned char 
  7757 ;;		 -> initMatrix@data(4), matrixUpdate@data(2), 
  7758 ;;  dataSize        2    5[COMMON] unsigned int 
  7759 ;; Auto vars:     Size  Location     Type
  7760 ;;  data            1    7[COMMON] PTR unsigned char 
  7761 ;;		 -> initMatrix@data(4), matrixUpdate@data(2), 
  7762 ;; Return value:  Size  Location     Type
  7763 ;;                  1    wreg      void 
  7764 ;; Registers used:
  7765 ;;		wreg, fsr1l, fsr1h, status,2, status,0, pclath, cstack
  7766 ;; Tracked objects:
  7767 ;;		On entry : 0/0
  7768 ;;		On exit  : 0/0
  7769 ;;		Unchanged: 0/0
  7770 ;; Data sizes:     COMMON   BANK0   BANK1   BANK2   BANK3   BANK4
  7771 ;;      Params:         2       0       0       0       0       0
  7772 ;;      Locals:         1       0       0       0       0       0
  7773 ;;      Temps:          0       0       0       0       0       0
  7774 ;;      Totals:         3       0       0       0       0       0
  7775 ;;Total ram usage:        3 bytes
  7776 ;; Hardware stack levels used: 1
  7777 ;; Hardware stack levels required when called: 1
  7778 ;; This function calls:
  7779 ;;		i1_SPI1_ExchangeBlock
  7780 ;; This function is called by:
  7781 ;;		_matrixUpdate
  7782 ;; This function uses a non-reentrant model
  7783 ;;
  7784                           
  7785  04ED                     i1_txSpi:	
  7786                           ;psect for function i1_txSpi
  7787                           
  7788                           
  7789                           ;incstack = 0
  7790                           ; Regs used in i1_txSpi: [wreg+fsr1l+fsr1h+status,2+status,0+pclath+cstack]
  7791                           ;i1txSpi@data stored from wreg
  7792  04ED  00F7               	movwf	i1txSpi@data
  7793  04EE                     i1l590:	
  7794                           ;main.c: 55:     do { LATBbits.LATB1 = 0; } while(0);
  7795                           
  7796  04EE  0022               	movlb	2	; select bank2
  7797  04EF  108D               	bcf	13,1	;volatile
  7798  04F0                     i1l2130:
  7799                           
  7800                           ;main.c: 56:     SPI1_ExchangeBlock(data,dataSize);
  7801  04F0  0876               	movf	i1txSpi@dataSize+1,w
  7802  04F1  00F1               	movwf	i1SPI1_ExchangeBlock@blockSize+1
  7803  04F2  0875               	movf	i1txSpi@dataSize,w
  7804  04F3  00F0               	movwf	i1SPI1_ExchangeBlock@blockSize
  7805  04F4  0877               	movf	i1txSpi@data,w
  7806  04F5  3183  2399  3184   	fcall	i1_SPI1_ExchangeBlock
  7807  04F8                     i1l2132:
  7808  04F8  0022               	movlb	2	; select bank2
  7809  04F9  148D               	bsf	13,1	;volatile
  7810  04FA                     i1l594:
  7811  04FA  0008               	return
  7812  04FB                     __end_ofi1_txSpi:
  7813                           
  7814                           	psect	text51
  7815  0399                     __ptext51:	
  7816 ;; *************** function i1_SPI1_ExchangeBlock *****************
  7817 ;; Defined at:
  7818 ;;		line 100 in file "mcc_generated_files/spi1.c"
  7819 ;; Parameters:    Size  Location     Type
  7820 ;;  block           1    wreg     PTR void 
  7821 ;;		 -> initMatrix@data(4), matrixUpdate@data(2), 
  7822 ;;  blockSize       2    0[COMMON] unsigned int 
  7823 ;; Auto vars:     Size  Location     Type
  7824 ;;  block           1    3[COMMON] PTR void 
  7825 ;;		 -> initMatrix@data(4), matrixUpdate@data(2), 
  7826 ;;  data            1    4[COMMON] PTR unsigned char 
  7827 ;;		 -> initMatrix@data(4), matrixUpdate@data(2), 
  7828 ;; Return value:  Size  Location     Type
  7829 ;;                  1    wreg      void 
  7830 ;; Registers used:
  7831 ;;		wreg, fsr1l, fsr1h, status,2, status,0
  7832 ;; Tracked objects:
  7833 ;;		On entry : 0/0
  7834 ;;		On exit  : 0/0
  7835 ;;		Unchanged: 0/0
  7836 ;; Data sizes:     COMMON   BANK0   BANK1   BANK2   BANK3   BANK4
  7837 ;;      Params:         2       0       0       0       0       0
  7838 ;;      Locals:         2       0       0       0       0       0
  7839 ;;      Temps:          1       0       0       0       0       0
  7840 ;;      Totals:         5       0       0       0       0       0
  7841 ;;Total ram usage:        5 bytes
  7842 ;; Hardware stack levels used: 1
  7843 ;; This function calls:
  7844 ;;		Nothing
  7845 ;; This function is called by:
  7846 ;;		i1_txSpi
  7847 ;; This function uses a non-reentrant model
  7848 ;;
  7849                           
  7850  0399                     i1_SPI1_ExchangeBlock:	
  7851                           ;psect for function i1_SPI1_ExchangeBlock
  7852                           
  7853                           
  7854                           ;incstack = 0
  7855                           ; Regs used in i1_SPI1_ExchangeBlock: [wreg+fsr1l+fsr1h+status,2+status,0]
  7856                           ;i1SPI1_ExchangeBlock@block stored from wreg
  7857  0399  00F3               	movwf	i1SPI1_ExchangeBlock@block
  7858  039A                     i1l2120:
  7859                           
  7860                           ;mcc_generated_files/spi1.c: 100: void SPI1_ExchangeBlock(void *block, size_t blockSize)
      +                          ;mcc_generated_files/spi1.c: 101: {;mcc_generated_files/spi1.c: 102:     uint8_t *data =
      +                           block;
  7861  039A  0873               	movf	i1SPI1_ExchangeBlock@block,w
  7862  039B  00F2               	movwf	??i1_SPI1_ExchangeBlock
  7863  039C  0872               	movf	??i1_SPI1_ExchangeBlock,w
  7864  039D  00F4               	movwf	i1SPI1_ExchangeBlock@data
  7865                           
  7866                           ;mcc_generated_files/spi1.c: 103:     while(blockSize--)
  7867  039E  2BB7               	goto	i1l2128
  7868  039F                     i1l2122:
  7869                           
  7870                           ;mcc_generated_files/spi1.c: 104:     {;mcc_generated_files/spi1.c: 105:         SSP1BUF
      +                           = *data;
  7871  039F  0874               	movf	i1SPI1_ExchangeBlock@data,w
  7872  03A0  0086               	movwf	6
  7873  03A1  0187               	clrf	7
  7874  03A2  0801               	movf	1,w
  7875  03A3  0024               	movlb	4	; select bank4
  7876  03A4  0091               	movwf	17	;volatile
  7877  03A5                     i1l376:	
  7878                           ;mcc_generated_files/spi1.c: 106:         while(!PIR1bits.SSP1IF);
  7879                           
  7880  03A5  0020               	movlb	0	; select bank0
  7881  03A6  1D91               	btfss	17,3	;volatile
  7882  03A7  2BA9               	goto	u61_21
  7883  03A8  2BAA               	goto	u61_20
  7884  03A9                     u61_21:
  7885  03A9  2BA5               	goto	i1l376
  7886  03AA                     u61_20:
  7887  03AA                     i1l378:
  7888                           
  7889                           ;mcc_generated_files/spi1.c: 107:         PIR1bits.SSP1IF = 0;
  7890  03AA  1191               	bcf	17,3	;volatile
  7891  03AB                     i1l2124:
  7892                           
  7893                           ;mcc_generated_files/spi1.c: 108:         *data++ = SSP1BUF;
  7894  03AB  0024               	movlb	4	; select bank4
  7895  03AC  0811               	movf	17,w	;volatile
  7896  03AD  00F2               	movwf	??i1_SPI1_ExchangeBlock
  7897  03AE  0874               	movf	i1SPI1_ExchangeBlock@data,w
  7898  03AF  0086               	movwf	6
  7899  03B0  0187               	clrf	7
  7900  03B1  0872               	movf	??i1_SPI1_ExchangeBlock,w
  7901  03B2  0081               	movwf	1
  7902  03B3                     i1l2126:
  7903  03B3  3001               	movlw	1
  7904  03B4  00F2               	movwf	??i1_SPI1_ExchangeBlock
  7905  03B5  0872               	movf	??i1_SPI1_ExchangeBlock,w
  7906  03B6  07F4               	addwf	i1SPI1_ExchangeBlock@data,f
  7907  03B7                     i1l2128:
  7908                           
  7909                           ;mcc_generated_files/spi1.c: 103:     while(blockSize--)
  7910  03B7  3001               	movlw	1
  7911  03B8  02F0               	subwf	i1SPI1_ExchangeBlock@blockSize,f
  7912  03B9  3000               	movlw	0
  7913  03BA  3BF1               	subwfb	i1SPI1_ExchangeBlock@blockSize+1,f
  7914  03BB  0A70               	incf	i1SPI1_ExchangeBlock@blockSize,w
  7915  03BC  1D03               	skipz
  7916  03BD  2BC2               	goto	u62_21
  7917  03BE  0A71               	incf	i1SPI1_ExchangeBlock@blockSize+1,w
  7918  03BF  1D03               	btfss	3,2
  7919  03C0  2BC2               	goto	u62_21
  7920  03C1  2BC3               	goto	u62_20
  7921  03C2                     u62_21:
  7922  03C2  2B9F               	goto	i1l2122
  7923  03C3                     u62_20:
  7924  03C3                     i1l380:
  7925  03C3  0008               	return
  7926  03C4                     __end_ofi1_SPI1_ExchangeBlock:
  7927                           
  7928                           	psect	text52
  7929  05B5                     __ptext52:	
  7930 ;; *************** function _TMR4_StartTimer *****************
  7931 ;; Defined at:
  7932 ;;		line 87 in file "mcc_generated_files/tmr4.c"
  7933 ;; Parameters:    Size  Location     Type
  7934 ;;		None
  7935 ;; Auto vars:     Size  Location     Type
  7936 ;;		None
  7937 ;; Return value:  Size  Location     Type
  7938 ;;                  1    wreg      void 
  7939 ;; Registers used:
  7940 ;;		None
  7941 ;; Tracked objects:
  7942 ;;		On entry : 0/0
  7943 ;;		On exit  : 0/0
  7944 ;;		Unchanged: 0/0
  7945 ;; Data sizes:     COMMON   BANK0   BANK1   BANK2   BANK3   BANK4
  7946 ;;      Params:         0       0       0       0       0       0
  7947 ;;      Locals:         0       0       0       0       0       0
  7948 ;;      Temps:          0       0       0       0       0       0
  7949 ;;      Totals:         0       0       0       0       0       0
  7950 ;;Total ram usage:        0 bytes
  7951 ;; Hardware stack levels used: 1
  7952 ;; This function calls:
  7953 ;;		Nothing
  7954 ;; This function is called by:
  7955 ;;		_chegadaS2
  7956 ;;		_chegadaS3
  7957 ;;		_chegadaS4
  7958 ;; This function uses a non-reentrant model
  7959 ;;
  7960                           
  7961  05B5                     _TMR4_StartTimer:	
  7962                           ;psect for function _TMR4_StartTimer
  7963                           
  7964  05B5                     i1l2174:	
  7965                           ;incstack = 0
  7966                           ; Regs used in _TMR4_StartTimer: []
  7967                           
  7968                           
  7969                           ;mcc_generated_files/tmr4.c: 90:     T4CONbits.TMR4ON = 1;
  7970  05B5  0028               	movlb	8	; select bank8
  7971  05B6  1517               	bsf	23,2	;volatile
  7972  05B7                     i1l722:
  7973  05B7  0008               	return
  7974  05B8                     __end_of_TMR4_StartTimer:
  7975                           
  7976                           	psect	text53
  7977  05B8                     __ptext53:	
  7978 ;; *************** function _TMR4_ReadTimer *****************
  7979 ;; Defined at:
  7980 ;;		line 99 in file "mcc_generated_files/tmr4.c"
  7981 ;; Parameters:    Size  Location     Type
  7982 ;;		None
  7983 ;; Auto vars:     Size  Location     Type
  7984 ;;  readVal         1    0        unsigned char 
  7985 ;; Return value:  Size  Location     Type
  7986 ;;                  1    wreg      unsigned char 
  7987 ;; Registers used:
  7988 ;;		wreg
  7989 ;; Tracked objects:
  7990 ;;		On entry : 0/0
  7991 ;;		On exit  : 0/0
  7992 ;;		Unchanged: 0/0
  7993 ;; Data sizes:     COMMON   BANK0   BANK1   BANK2   BANK3   BANK4
  7994 ;;      Params:         0       0       0       0       0       0
  7995 ;;      Locals:         0       0       0       0       0       0
  7996 ;;      Temps:          0       0       0       0       0       0
  7997 ;;      Totals:         0       0       0       0       0       0
  7998 ;;Total ram usage:        0 bytes
  7999 ;; Hardware stack levels used: 1
  8000 ;; This function calls:
  8001 ;;		Nothing
  8002 ;; This function is called by:
  8003 ;;		_chegadaS2
  8004 ;;		_chegadaS3
  8005 ;;		_chegadaS4
  8006 ;; This function uses a non-reentrant model
  8007 ;;
  8008                           
  8009  05B8                     _TMR4_ReadTimer:	
  8010                           ;psect for function _TMR4_ReadTimer
  8011                           
  8012  05B8                     i1l2170:	
  8013                           ;incstack = 0
  8014                           ; Regs used in _TMR4_ReadTimer: [wreg]
  8015                           
  8016  05B8  0028               	movlb	8	; select bank8
  8017  05B9  0815               	movf	21,w	;volatile
  8018  05BA                     i1l728:
  8019  05BA  0008               	return
  8020  05BB                     __end_of_TMR4_ReadTimer:
  8021                           
  8022                           	psect	text54
  8023  0421                     __ptext54:	
  8024 ;; *************** function _PWM3_LoadDutyValue *****************
  8025 ;; Defined at:
  8026 ;;		line 82 in file "mcc_generated_files/pwm3.c"
  8027 ;; Parameters:    Size  Location     Type
  8028 ;;  dutyValue       2    0[COMMON] unsigned short 
  8029 ;; Auto vars:     Size  Location     Type
  8030 ;;		None
  8031 ;; Return value:  Size  Location     Type
  8032 ;;                  1    wreg      void 
  8033 ;; Registers used:
  8034 ;;		wreg, status,2, status,0
  8035 ;; Tracked objects:
  8036 ;;		On entry : 0/0
  8037 ;;		On exit  : 0/0
  8038 ;;		Unchanged: 0/0
  8039 ;; Data sizes:     COMMON   BANK0   BANK1   BANK2   BANK3   BANK4
  8040 ;;      Params:         2       0       0       0       0       0
  8041 ;;      Locals:         0       0       0       0       0       0
  8042 ;;      Temps:          2       0       0       0       0       0
  8043 ;;      Totals:         4       0       0       0       0       0
  8044 ;;Total ram usage:        4 bytes
  8045 ;; Hardware stack levels used: 1
  8046 ;; This function calls:
  8047 ;;		Nothing
  8048 ;; This function is called by:
  8049 ;;		_controleMovimento
  8050 ;;		_chegadaS1
  8051 ;;		_chegadaS2
  8052 ;;		_chegadaS3
  8053 ;;		_chegadaS4
  8054 ;; This function uses a non-reentrant model
  8055 ;;
  8056                           
  8057  0421                     _PWM3_LoadDutyValue:	
  8058                           ;psect for function _PWM3_LoadDutyValue
  8059                           
  8060  0421                     i1l2134:	
  8061                           ;incstack = 0
  8062                           ; Regs used in _PWM3_LoadDutyValue: [wreg+status,2+status,0]
  8063                           
  8064                           
  8065                           ;mcc_generated_files/pwm3.c: 82: void PWM3_LoadDutyValue(uint16_t dutyValue);mcc_generat
      +                          ed_files/pwm3.c: 83: {;mcc_generated_files/pwm3.c: 85:     CCPR3L = ((dutyValue & 0x03FC
      +                          )>>2);
  8066  0421  0871               	movf	PWM3_LoadDutyValue@dutyValue+1,w
  8067  0422  00F3               	movwf	??_PWM3_LoadDutyValue+1
  8068  0423  0870               	movf	PWM3_LoadDutyValue@dutyValue,w
  8069  0424  00F2               	movwf	??_PWM3_LoadDutyValue
  8070  0425  36F3               	lsrf	??_PWM3_LoadDutyValue+1,f
  8071  0426  0CF2               	rrf	??_PWM3_LoadDutyValue,f
  8072  0427  36F3               	lsrf	??_PWM3_LoadDutyValue+1,f
  8073  0428  0CF2               	rrf	??_PWM3_LoadDutyValue,f
  8074  0429  0872               	movf	??_PWM3_LoadDutyValue,w
  8075  042A  0026               	movlb	6	; select bank6
  8076  042B  0091               	movwf	17	;volatile
  8077                           
  8078                           ;mcc_generated_files/pwm3.c: 88:     CCP3CON = ((uint8_t)(CCP3CON & 0xCF) | ((dutyValue 
      +                          & 0x0003)<<4));
  8079  042C  0870               	movf	PWM3_LoadDutyValue@dutyValue,w
  8080  042D  3903               	andlw	3
  8081  042E  00F2               	movwf	??_PWM3_LoadDutyValue
  8082  042F  3004               	movlw	4
  8083  0430                     u63_25:
  8084  0430  35F2               	lslf	??_PWM3_LoadDutyValue,f
  8085  0431  0B89               	decfsz	9,f
  8086  0432  2C30               	goto	u63_25
  8087  0433  0813               	movf	19,w	;volatile
  8088  0434  39CF               	andlw	207
  8089  0435  0472               	iorwf	??_PWM3_LoadDutyValue,w
  8090  0436  0093               	movwf	19	;volatile
  8091  0437                     i1l14:
  8092  0437  0008               	return
  8093  0438                     __end_of_PWM3_LoadDutyValue:
  8094                           
  8095                           	psect	text55
  8096  0464                     __ptext55:	
  8097 ;; *************** function _CCP4_CaptureISR *****************
  8098 ;; Defined at:
  8099 ;;		line 89 in file "mcc_generated_files/ccp4.c"
  8100 ;; Parameters:    Size  Location     Type
  8101 ;;		None
  8102 ;; Auto vars:     Size  Location     Type
  8103 ;;  module          2    3[COMMON] struct CCPR4Reg_tag
  8104 ;; Return value:  Size  Location     Type
  8105 ;;                  1    wreg      void 
  8106 ;; Registers used:
  8107 ;;		wreg, status,2, status,0, pclath, cstack
  8108 ;; Tracked objects:
  8109 ;;		On entry : 0/0
  8110 ;;		On exit  : 0/0
  8111 ;;		Unchanged: 0/0
  8112 ;; Data sizes:     COMMON   BANK0   BANK1   BANK2   BANK3   BANK4
  8113 ;;      Params:         0       0       0       0       0       0
  8114 ;;      Locals:         2       0       0       0       0       0
  8115 ;;      Temps:          1       0       0       0       0       0
  8116 ;;      Totals:         3       0       0       0       0       0
  8117 ;;Total ram usage:        3 bytes
  8118 ;; Hardware stack levels used: 1
  8119 ;; Hardware stack levels required when called: 1
  8120 ;; This function calls:
  8121 ;;		Absolute function
  8122 ;;		_CCP4_DefaultCallBack
  8123 ;; This function is called by:
  8124 ;;		_INTERRUPT_InterruptManager
  8125 ;; This function uses a non-reentrant model
  8126 ;;
  8127                           
  8128  0464                     _CCP4_CaptureISR:	
  8129                           ;psect for function _CCP4_CaptureISR
  8130                           
  8131  0464                     i1l2584:	
  8132                           ;incstack = 0
  8133                           ; Regs used in _CCP4_CaptureISR: [wreg+status,2+status,0+pclath+cstack]
  8134                           
  8135                           
  8136                           ;mcc_generated_files/ccp4.c: 91:     CCP4_PERIOD_REG_T module;;mcc_generated_files/ccp4.
      +                          c: 94:     PIR3bits.CCP4IF = 0;
  8137  0464  0020               	movlb	0	; select bank0
  8138  0465  1293               	bcf	19,5	;volatile
  8139  0466                     i1l2586:
  8140                           
  8141                           ;mcc_generated_files/ccp4.c: 97:     module.ccpr4l = CCPR4L;
  8142  0466  0026               	movlb	6	; select bank6
  8143  0467  0818               	movf	24,w	;volatile
  8144  0468  00F2               	movwf	??_CCP4_CaptureISR
  8145  0469  0872               	movf	??_CCP4_CaptureISR,w
  8146  046A  00F3               	movwf	CCP4_CaptureISR@module
  8147                           
  8148                           ;mcc_generated_files/ccp4.c: 98:     module.ccpr4h = CCPR4H;
  8149  046B  0819               	movf	25,w	;volatile
  8150  046C  00F2               	movwf	??_CCP4_CaptureISR
  8151  046D  0872               	movf	??_CCP4_CaptureISR,w
  8152  046E  00F4               	movwf	CCP4_CaptureISR@module+1
  8153  046F                     i1l2588:
  8154                           
  8155                           ;mcc_generated_files/ccp4.c: 101:     CCP4_CallBack(module.ccpr4_16Bit);
  8156  046F  0874               	movf	CCP4_CaptureISR@module+1,w
  8157  0470  00F1               	movwf	CCP4_DefaultCallBack@capturedValue+1
  8158  0471  0873               	movf	CCP4_CaptureISR@module,w
  8159  0472  00F0               	movwf	CCP4_DefaultCallBack@capturedValue
  8160  0473  0020               	movlb	0	; select bank0
  8161  0474  0823               	movf	_CCP4_CallBack+1,w
  8162  0475  008A               	movwf	10
  8163  0476  0822               	movf	_CCP4_CallBack,w
  8164  0477  000A               	callw
  8165  0478  3184               	pagesel	$
  8166  0479                     i1l693:
  8167  0479  0008               	return
  8168  047A                     __end_of_CCP4_CaptureISR:
  8169                           
  8170                           	psect	text56
  8171  05C0                     __ptext56:	
  8172 ;; *************** function _CCP4_DefaultCallBack *****************
  8173 ;; Defined at:
  8174 ;;		line 60 in file "mcc_generated_files/ccp4.c"
  8175 ;; Parameters:    Size  Location     Type
  8176 ;;  capturedValu    2    0[COMMON] unsigned short 
  8177 ;; Auto vars:     Size  Location     Type
  8178 ;;		None
  8179 ;; Return value:  Size  Location     Type
  8180 ;;                  1    wreg      void 
  8181 ;; Registers used:
  8182 ;;		None
  8183 ;; Tracked objects:
  8184 ;;		On entry : 0/0
  8185 ;;		On exit  : 0/0
  8186 ;;		Unchanged: 0/0
  8187 ;; Data sizes:     COMMON   BANK0   BANK1   BANK2   BANK3   BANK4
  8188 ;;      Params:         2       0       0       0       0       0
  8189 ;;      Locals:         0       0       0       0       0       0
  8190 ;;      Temps:          0       0       0       0       0       0
  8191 ;;      Totals:         2       0       0       0       0       0
  8192 ;;Total ram usage:        2 bytes
  8193 ;; Hardware stack levels used: 1
  8194 ;; This function calls:
  8195 ;;		Nothing
  8196 ;; This function is called by:
  8197 ;;		_CCP4_Initialize
  8198 ;;		_CCP4_CaptureISR
  8199 ;; This function uses a non-reentrant model
  8200 ;;
  8201                           
  8202  05C0                     _CCP4_DefaultCallBack:	
  8203                           ;psect for function _CCP4_DefaultCallBack
  8204                           
  8205  05C0                     i1l687:	
  8206                           ;incstack = 0
  8207                           ; Regs used in _CCP4_DefaultCallBack: []
  8208                           
  8209  05C0  0008               	return
  8210  05C1                     __end_of_CCP4_DefaultCallBack:
  8211  007E                     btemp	set	126	;btemp
  8212  007E                     int$flags	set	126
  8213  007E                     wtemp0	set	126
  8214                           
  8215                           	psect	idloc
  8216                           
  8217                           ;Config register IDLOC0 @ 0x8000
  8218                           ;	unspecified, using default values
  8219  8000                     	org	32768
  8220  8000  3FFF               	dw	16383
  8221                           
  8222                           ;Config register IDLOC1 @ 0x8001
  8223                           ;	unspecified, using default values
  8224  8001                     	org	32769
  8225  8001  3FFF               	dw	16383
  8226                           
  8227                           ;Config register IDLOC2 @ 0x8002
  8228                           ;	unspecified, using default values
  8229  8002                     	org	32770
  8230  8002  3FFF               	dw	16383
  8231                           
  8232                           ;Config register IDLOC3 @ 0x8003
  8233                           ;	unspecified, using default values
  8234  8003                     	org	32771
  8235  8003  3FFF               	dw	16383
  8236                           
  8237                           	psect	config
  8238                           
  8239                           ;Config register CONFIG1 @ 0x8007
  8240                           ;	Oscillator Selection
  8241                           ;	FOSC = INTOSC, INTOSC oscillator: I/O function on CLKIN pin
  8242                           ;	Watchdog Timer Enable
  8243                           ;	WDTE = OFF, WDT disabled
  8244                           ;	Power-up Timer Enable
  8245                           ;	PWRTE = OFF, PWRT disabled
  8246                           ;	MCLR Pin Function Select
  8247                           ;	MCLRE = ON, MCLR/VPP pin function is MCLR
  8248                           ;	Flash Program Memory Code Protection
  8249                           ;	CP = OFF, Program memory code protection is disabled
  8250                           ;	Data Memory Code Protection
  8251                           ;	CPD = OFF, Data memory code protection is disabled
  8252                           ;	Brown-out Reset Enable
  8253                           ;	BOREN = ON, Brown-out Reset enabled
  8254                           ;	Clock Out Enable
  8255                           ;	CLKOUTEN = OFF, CLKOUT function is disabled. I/O or oscillator function on the CLKOUT 
      +                          pin
  8256                           ;	Internal/External Switchover
  8257                           ;	IESO = ON, Internal/External Switchover mode is enabled
  8258                           ;	Fail-Safe Clock Monitor Enable
  8259                           ;	FCMEN = ON, Fail-Safe Clock Monitor is enabled
  8260  8007                     	org	32775
  8261  8007  3FE4               	dw	16356
  8262                           
  8263                           ;Config register CONFIG2 @ 0x8008
  8264                           ;	Flash Memory Self-Write Protection
  8265                           ;	WRT = OFF, Write protection off
  8266                           ;	PLL Enable
  8267                           ;	PLLEN = OFF, 4x PLL disabled
  8268                           ;	Stack Overflow/Underflow Reset Enable
  8269                           ;	STVREN = ON, Stack Overflow or Underflow will cause a Reset
  8270                           ;	Brown-out Reset Voltage Selection
  8271                           ;	BORV = LO, Brown-out Reset Voltage (Vbor), low trip point selected.
  8272                           ;	Low-Voltage Programming Enable
  8273                           ;	LVP = ON, Low-voltage programming enabled
  8274  8008                     	org	32776
  8275  8008  3EFF               	dw	16127

Data Sizes:
    Strings     0
    Constant    16
    Data        1
    BSS         19
    Persistent  51
    Stack       0

Auto Spaces:
    Space          Size  Autos    Used
    COMMON           14     13      14
    BANK0            80     17      55
    BANK1            80      0       0
    BANK2            80      0       0
    BANK3            80      0       0
    BANK4            48      0       0

Pointer List with Targets:

    ADC_InterruptHandler	PTR FTN()void  size(2) Largest target is 1
		 -> Absolute function(), 

    TMR4_SetInterruptHandler@InterruptHandler	PTR FTN()void  size(2) Largest target is 1
		 -> TMR4_DefaultInterruptHandler(), controleMovimento(), 

    TMR4_InterruptHandler	PTR FTN()void  size(2) Largest target is 1
		 -> TMR4_DefaultInterruptHandler(), controleMovimento(), Absolute function(), 

    CCP4_SetCallBack@customCallBack	PTR FTN(unsigned short ,)void  size(2) Largest target is 1
		 -> CCP4_DefaultCallBack(), 

    CCP4_CallBack	PTR FTN(unsigned short ,)void  size(2) Largest target is 1
		 -> CCP4_DefaultCallBack(), Absolute function(), 

    txSpi@data	PTR unsigned char  size(1) Largest target is 4
		 -> initMatrix@data(BANK0[4]), matrixUpdate@data(COMMON[2]), 

    TMR0_SetInterruptHandler@InterruptHandler	PTR FTN()void  size(2) Largest target is 1
		 -> TMR0_DefaultInterruptHandler(), 

    TMR0_InterruptHandler	PTR FTN()void  size(2) Largest target is 1
		 -> TMR0_DefaultInterruptHandler(), Absolute function(), 

    SPI1_ExchangeBlock@block	PTR void  size(1) Largest target is 4
		 -> initMatrix@data(BANK0[4]), matrixUpdate@data(COMMON[2]), 

    SPI1_ExchangeBlock@data	PTR unsigned char  size(1) Largest target is 4
		 -> initMatrix@data(BANK0[4]), matrixUpdate@data(COMMON[2]), 

    EUSART_SetErrorHandler@interruptHandler	PTR FTN()void  size(2) Largest target is 1
		 -> EUSART_DefaultErrorHandler(), 

    EUSART_ErrorHandler	PTR FTN()void  size(2) Largest target is 1
		 -> EUSART_DefaultErrorHandler(), Absolute function(), 

    EUSART_SetOverrunErrorHandler@interruptHandler	PTR FTN()void  size(2) Largest target is 1
		 -> EUSART_DefaultOverrunErrorHandler(), 

    EUSART_OverrunErrorHandler	PTR FTN()void  size(2) Largest target is 1
		 -> EUSART_DefaultOverrunErrorHandler(), Absolute function(), 

    EUSART_SetFramingErrorHandler@interruptHandler	PTR FTN()void  size(2) Largest target is 1
		 -> EUSART_DefaultFramingErrorHandler(), 

    EUSART_FramingErrorHandler	PTR FTN()void  size(2) Largest target is 1
		 -> EUSART_DefaultFramingErrorHandler(), Absolute function(), 

    IOCBF3_SetInterruptHandler@InterruptHandler	PTR FTN()void  size(2) Largest target is 1
		 -> chegadaS2(), chegadaS1(), IOCBF3_DefaultInterruptHandler(), 

    IOCBF3_InterruptHandler	PTR FTN()void  size(2) Largest target is 1
		 -> chegadaS2(), chegadaS1(), Absolute function(), IOCBF3_DefaultInterruptHandler(), 

    IOCBF0_SetInterruptHandler@InterruptHandler	PTR FTN()void  size(2) Largest target is 1
		 -> IOCBF0_DefaultInterruptHandler(), 

    IOCBF0_InterruptHandler	PTR FTN()void  size(2) Largest target is 1
		 -> Absolute function(), IOCBF0_DefaultInterruptHandler(), 


Critical Paths under _main in COMMON

    None.

Critical Paths under _INTERRUPT_InterruptManager in COMMON

    _TMR4_CallBack->_controleMovimento
    _controleMovimento->_PWM3_LoadDutyValue
    _IOCBF3_ISR->_chegadaS1
    _IOCBF3_ISR->_chegadaS2
    _chegadaS2->_matrixUpdate
    _chegadaS1->_matrixUpdate
    _CMP2_ISR->_chegadaS4
    _chegadaS4->_matrixUpdate
    _CMP1_ISR->_chegadaS3
    _chegadaS3->_matrixUpdate
    _matrixUpdate->i1_txSpi
    i1_txSpi->i1_SPI1_ExchangeBlock
    _CCP4_CaptureISR->_CCP4_DefaultCallBack

Critical Paths under _main in BANK0

    _main->_initMatrix
    _initMatrix->_txSpi
    _txSpi->_SPI1_ExchangeBlock
    _SYSTEM_Initialize->_TMR0_Initialize
    _TMR4_Initialize->_TMR4_SetInterruptHandler
    _TMR0_Initialize->_TMR0_SetInterruptHandler
    _PIN_MANAGER_Initialize->_IOCBF0_SetInterruptHandler
    _PIN_MANAGER_Initialize->_IOCBF3_SetInterruptHandler
    _EUSART_Initialize->_EUSART_SetErrorHandler
    _EUSART_Initialize->_EUSART_SetFramingErrorHandler
    _EUSART_Initialize->_EUSART_SetOverrunErrorHandler
    _CCP4_Initialize->_CCP4_SetCallBack

Critical Paths under _INTERRUPT_InterruptManager in BANK0

    None.

Critical Paths under _main in BANK1

    None.

Critical Paths under _INTERRUPT_InterruptManager in BANK1

    None.

Critical Paths under _main in BANK2

    None.

Critical Paths under _INTERRUPT_InterruptManager in BANK2

    None.

Critical Paths under _main in BANK3

    None.

Critical Paths under _INTERRUPT_InterruptManager in BANK3

    None.

Critical Paths under _main in BANK4

    None.

Critical Paths under _INTERRUPT_InterruptManager in BANK4

    None.

Call Graph Tables:

 ---------------------------------------------------------------------------------
 (Depth) Function   	        Calls       Base Space   Used Autos Params    Refs
 ---------------------------------------------------------------------------------
 (0) _main                                                 0     0      0    2434
         _IOCBF3_SetInterruptHandler
                          _SPI1_Open
                  _SYSTEM_Initialize
                     _TMR1_StopTimer
           _TMR4_SetInterruptHandler
                         _initMatrix
 ---------------------------------------------------------------------------------
 (1) _initMatrix                                           9     9      0     910
                                              8 BANK0      9     9      0
                              _txSpi
 ---------------------------------------------------------------------------------
 (2) _txSpi                                                3     1      2     518
                                              5 BANK0      3     1      2
                 _SPI1_ExchangeBlock
 ---------------------------------------------------------------------------------
 (3) _SPI1_ExchangeBlock                                   5     3      2     199
                                              0 BANK0      5     3      2
 ---------------------------------------------------------------------------------
 (1) _TMR1_StopTimer                                       0     0      0       0
 ---------------------------------------------------------------------------------
 (1) _SYSTEM_Initialize                                    0     0      0    1012
                     _ADC_Initialize
                    _CCP4_Initialize
                    _CMP1_Initialize
                    _CMP2_Initialize
                  _EUSART_Initialize
                     _FVR_Initialize
              _OSCILLATOR_Initialize
             _PIN_MANAGER_Initialize
                    _PWM3_Initialize
                    _SPI1_Initialize
                    _TMR0_Initialize
                    _TMR1_Initialize
                    _TMR2_Initialize
                    _TMR4_Initialize
                     _WDT_Initialize
 ---------------------------------------------------------------------------------
 (2) _WDT_Initialize                                       0     0      0       0
 ---------------------------------------------------------------------------------
 (2) _TMR4_Initialize                                      0     0      0     174
           _TMR4_SetInterruptHandler
 ---------------------------------------------------------------------------------
 (1) _TMR4_SetInterruptHandler                             2     0      2     174
                                              0 BANK0      2     0      2
 ---------------------------------------------------------------------------------
 (2) _TMR2_Initialize                                      0     0      0       0
 ---------------------------------------------------------------------------------
 (2) _TMR1_Initialize                                      0     0      0       0
 ---------------------------------------------------------------------------------
 (2) _TMR0_Initialize                                      1     1      0      98
                                              2 BANK0      1     1      0
           _TMR0_SetInterruptHandler
 ---------------------------------------------------------------------------------
 (3) _TMR0_SetInterruptHandler                             2     0      2      98
                                              0 BANK0      2     0      2
 ---------------------------------------------------------------------------------
 (2) _SPI1_Initialize                                      0     0      0       0
 ---------------------------------------------------------------------------------
 (2) _PWM3_Initialize                                      0     0      0       0
 ---------------------------------------------------------------------------------
 (2) _PIN_MANAGER_Initialize                               0     0      0     348
         _IOCBF0_SetInterruptHandler
         _IOCBF3_SetInterruptHandler
 ---------------------------------------------------------------------------------
 (3) _IOCBF3_SetInterruptHandler                           2     0      2     250
                                              0 BANK0      2     0      2
 ---------------------------------------------------------------------------------
 (3) _IOCBF0_SetInterruptHandler                           2     0      2      98
                                              0 BANK0      2     0      2
 ---------------------------------------------------------------------------------
 (2) _OSCILLATOR_Initialize                                0     0      0       0
 ---------------------------------------------------------------------------------
 (2) _FVR_Initialize                                       0     0      0       0
 ---------------------------------------------------------------------------------
 (2) _EUSART_Initialize                                    0     0      0     294
             _EUSART_SetErrorHandler
      _EUSART_SetFramingErrorHandler
      _EUSART_SetOverrunErrorHandler
 ---------------------------------------------------------------------------------
 (3) _EUSART_SetOverrunErrorHandler                        2     0      2      98
                                              0 BANK0      2     0      2
 ---------------------------------------------------------------------------------
 (3) _EUSART_SetFramingErrorHandler                        2     0      2      98
                                              0 BANK0      2     0      2
 ---------------------------------------------------------------------------------
 (3) _EUSART_SetErrorHandler                               2     0      2      98
                                              0 BANK0      2     0      2
 ---------------------------------------------------------------------------------
 (2) _CMP2_Initialize                                      0     0      0       0
 ---------------------------------------------------------------------------------
 (2) _CMP1_Initialize                                      0     0      0       0
 ---------------------------------------------------------------------------------
 (2) _CCP4_Initialize                                      0     0      0      98
                   _CCP4_SetCallBack
 ---------------------------------------------------------------------------------
 (3) _CCP4_SetCallBack                                     2     0      2      98
                                              0 BANK0      2     0      2
 ---------------------------------------------------------------------------------
 (2) _ADC_Initialize                                       0     0      0       0
 ---------------------------------------------------------------------------------
 (1) _SPI1_Open                                            4     4      0      88
                                              0 BANK0      4     4      0
 ---------------------------------------------------------------------------------
 Estimated maximum stack depth 3
 ---------------------------------------------------------------------------------
 (Depth) Function   	        Calls       Base Space   Used Autos Params    Refs
 ---------------------------------------------------------------------------------
 (4) _INTERRUPT_InterruptManager                           0     0      0    5357
                    _CCP4_CaptureISR
                           _CMP1_ISR
                           _CMP2_ISR
                    _PIN_MANAGER_IOC
                           _TMR0_ISR
                           _TMR4_ISR
 ---------------------------------------------------------------------------------
 (5) _TMR4_ISR                                             0     0      0     652
                      _TMR4_CallBack
 ---------------------------------------------------------------------------------
 (6) _TMR4_CallBack                                        0     0      0     652
                   Absolute function *
       _TMR4_DefaultInterruptHandler *
                  _controleMovimento *
 ---------------------------------------------------------------------------------
 (7) _controleMovimento                                    2     2      0     652
                                              4 COMMON     2     2      0
                 _PWM3_LoadDutyValue
 ---------------------------------------------------------------------------------
 (7) _TMR4_DefaultInterruptHandler                         0     0      0       0
 ---------------------------------------------------------------------------------
 (5) _TMR0_ISR                                             0     0      0       0
                      _TMR0_CallBack
 ---------------------------------------------------------------------------------
 (6) _TMR0_CallBack                                        0     0      0       0
                   Absolute function *
       _TMR0_DefaultInterruptHandler *
 ---------------------------------------------------------------------------------
 (7) _TMR0_DefaultInterruptHandler                         0     0      0       0
 ---------------------------------------------------------------------------------
 (5) _PIN_MANAGER_IOC                                      0     0      0    2299
                         _IOCBF0_ISR
                         _IOCBF3_ISR
 ---------------------------------------------------------------------------------
 (6) _IOCBF3_ISR                                           0     0      0    2299
                   Absolute function *
     _IOCBF3_DefaultInterruptHandler *
                          _chegadaS1 *
                          _chegadaS2 *
 ---------------------------------------------------------------------------------
 (7) _chegadaS2                                            1     1      0    1153
                                             12 COMMON     1     1      0
                 _PWM3_LoadDutyValue
                     _TMR4_ReadTimer
                    _TMR4_StartTimer
                       _matrixUpdate
 ---------------------------------------------------------------------------------
 (7) _chegadaS1                                            1     1      0    1146
                                             12 COMMON     1     1      0
                 _PWM3_LoadDutyValue
                       _matrixUpdate
 ---------------------------------------------------------------------------------
 (7) _IOCBF3_DefaultInterruptHandler                       0     0      0       0
 ---------------------------------------------------------------------------------
 (6) _IOCBF0_ISR                                           0     0      0       0
                   Absolute function *
     _IOCBF0_DefaultInterruptHandler *
 ---------------------------------------------------------------------------------
 (7) _IOCBF0_DefaultInterruptHandler                       0     0      0       0
 ---------------------------------------------------------------------------------
 (5) _CMP2_ISR                                             0     0      0    1153
                          _chegadaS4
 ---------------------------------------------------------------------------------
 (6) _chegadaS4                                            1     1      0    1153
                                             12 COMMON     1     1      0
                 _PWM3_LoadDutyValue
                     _TMR4_ReadTimer
                    _TMR4_StartTimer
                       _matrixUpdate
 ---------------------------------------------------------------------------------
 (5) _CMP1_ISR                                             0     0      0    1153
                          _chegadaS3
 ---------------------------------------------------------------------------------
 (6) _chegadaS3                                            1     1      0    1153
                                             12 COMMON     1     1      0
                 _PWM3_LoadDutyValue
                     _TMR4_ReadTimer
                    _TMR4_StartTimer
                       _matrixUpdate
 ---------------------------------------------------------------------------------
 (8) _matrixUpdate                                         6     6      0     494
                                              8 COMMON     4     4      0
                            i1_txSpi
 ---------------------------------------------------------------------------------
 (9) i1_txSpi                                              3     1      2     212
                                              5 COMMON     3     1      2
               i1_SPI1_ExchangeBlock
 ---------------------------------------------------------------------------------
 (10) i1_SPI1_ExchangeBlock                                5     3      2     116
                                              0 COMMON     5     3      2
 ---------------------------------------------------------------------------------
 (8) _TMR4_StartTimer                                      0     0      0       0
 ---------------------------------------------------------------------------------
 (8) _TMR4_ReadTimer                                       1     1      0       7
 ---------------------------------------------------------------------------------
 (8) _PWM3_LoadDutyValue                                   4     2      2     652
                                              0 COMMON     4     2      2
 ---------------------------------------------------------------------------------
 (5) _CCP4_CaptureISR                                      3     3      0     100
                                              2 COMMON     3     3      0
                   Absolute function *
               _CCP4_DefaultCallBack *
 ---------------------------------------------------------------------------------
 (6) _CCP4_DefaultCallBack                                 2     0      2      53
                                              0 COMMON     2     0      2
 ---------------------------------------------------------------------------------
 (7) Absolute function(Fake)                               0     0      0       0
 ---------------------------------------------------------------------------------
 Estimated maximum stack depth 10
 ---------------------------------------------------------------------------------

 Call Graph Graphs:

 _main (ROOT)
   _IOCBF3_SetInterruptHandler
   _SPI1_Open
   _SYSTEM_Initialize
     _ADC_Initialize
     _CCP4_Initialize
       _CCP4_SetCallBack
     _CMP1_Initialize
     _CMP2_Initialize
     _EUSART_Initialize
       _EUSART_SetErrorHandler
       _EUSART_SetFramingErrorHandler
       _EUSART_SetOverrunErrorHandler
     _FVR_Initialize
     _OSCILLATOR_Initialize
     _PIN_MANAGER_Initialize
       _IOCBF0_SetInterruptHandler
       _IOCBF3_SetInterruptHandler
     _PWM3_Initialize
     _SPI1_Initialize
     _TMR0_Initialize
       _TMR0_SetInterruptHandler
     _TMR1_Initialize
     _TMR2_Initialize
     _TMR4_Initialize
       _TMR4_SetInterruptHandler
     _WDT_Initialize
   _TMR1_StopTimer
   _TMR4_SetInterruptHandler
   _initMatrix
     _txSpi
       _SPI1_ExchangeBlock

 _INTERRUPT_InterruptManager (ROOT)
   _CCP4_CaptureISR
     Absolute function(Fake) *
     _CCP4_DefaultCallBack *
   _CMP1_ISR
     _chegadaS3
       _PWM3_LoadDutyValue
       _TMR4_ReadTimer
       _TMR4_StartTimer
       _matrixUpdate
         i1_txSpi
           i1_SPI1_ExchangeBlock
   _CMP2_ISR
     _chegadaS4
       _PWM3_LoadDutyValue
       _TMR4_ReadTimer
       _TMR4_StartTimer
       _matrixUpdate
   _PIN_MANAGER_IOC
     _IOCBF0_ISR
       Absolute function(Fake) *
       _IOCBF0_DefaultInterruptHandler *
     _IOCBF3_ISR
       Absolute function(Fake) *
       _IOCBF3_DefaultInterruptHandler *
       _chegadaS1 *
         _PWM3_LoadDutyValue
         _matrixUpdate
       _chegadaS2 *
         _PWM3_LoadDutyValue
         _TMR4_ReadTimer
         _TMR4_StartTimer
         _matrixUpdate
   _TMR0_ISR
     _TMR0_CallBack
       Absolute function(Fake) *
       _TMR0_DefaultInterruptHandler *
   _TMR4_ISR
     _TMR4_CallBack
       Absolute function(Fake) *
       _TMR4_DefaultInterruptHandler *
       _controleMovimento *
         _PWM3_LoadDutyValue

 Address spaces:
Name               Size   Autos  Total    Cost      Usage
BIGRAM             170      0       0       0        0.0%
EEDATA             100      0       0       0        0.0%
NULL                 0      0       0       0        0.0%
CODE                 0      0       0       0        0.0%
BITCOMMON            E      0       0       1        0.0%
BITSFR0              0      0       0       1        0.0%
SFR0                 0      0       0       1        0.0%
COMMON               E      D       E       2      100.0%
BITSFR1              0      0       0       2        0.0%
SFR1                 0      0       0       2        0.0%
BITSFR2              0      0       0       3        0.0%
SFR2                 0      0       0       3        0.0%
STACK                0      0       0       3        0.0%
BITSFR3              0      0       0       4        0.0%
SFR3                 0      0       0       4        0.0%
ABS                  0      0      45       4        0.0%
BITBANK0            50      0       0       5        0.0%
BITSFR4              0      0       0       5        0.0%
SFR4                 0      0       0       5        0.0%
BANK0               50     11      37       6       68.8%
BITSFR5              0      0       0       6        0.0%
SFR5                 0      0       0       6        0.0%
BITBANK1            50      0       0       7        0.0%
BITSFR6              0      0       0       7        0.0%
SFR6                 0      0       0       7        0.0%
BANK1               50      0       0       8        0.0%
BITSFR7              0      0       0       8        0.0%
SFR7                 0      0       0       8        0.0%
BITBANK2            50      0       0       9        0.0%
BITSFR8              0      0       0       9        0.0%
SFR8                 0      0       0       9        0.0%
BANK2               50      0       0      10        0.0%
BITSFR9              0      0       0      10        0.0%
SFR9                 0      0       0      10        0.0%
BITBANK3            50      0       0      11        0.0%
BITSFR10             0      0       0      11        0.0%
SFR10                0      0       0      11        0.0%
BANK3               50      0       0      12        0.0%
BITSFR11             0      0       0      12        0.0%
SFR11                0      0       0      12        0.0%
BITBANK4            30      0       0      13        0.0%
BITSFR12             0      0       0      13        0.0%
SFR12                0      0       0      13        0.0%
BANK4               30      0       0      14        0.0%
BITSFR13             0      0       0      14        0.0%
SFR13                0      0       0      14        0.0%
BITSFR14             0      0       0      15        0.0%
SFR14                0      0       0      15        0.0%
DATA                 0      0      45      15        0.0%
BITSFR15             0      0       0      16        0.0%
SFR15                0      0       0      16        0.0%
BITSFR16             0      0       0      17        0.0%
SFR16                0      0       0      17        0.0%
BITSFR17             0      0       0      18        0.0%
SFR17                0      0       0      18        0.0%
BITSFR18             0      0       0      19        0.0%
SFR18                0      0       0      19        0.0%
BITSFR19             0      0       0      20        0.0%
SFR19                0      0       0      20        0.0%
BITSFR20             0      0       0      21        0.0%
SFR20                0      0       0      21        0.0%
BITSFR21             0      0       0      22        0.0%
SFR21                0      0       0      22        0.0%
BITSFR22             0      0       0      23        0.0%
SFR22                0      0       0      23        0.0%
BITSFR23             0      0       0      24        0.0%
SFR23                0      0       0      24        0.0%
BITSFR24             0      0       0      25        0.0%
SFR24                0      0       0      25        0.0%
BITSFR25             0      0       0      26        0.0%
SFR25                0      0       0      26        0.0%
BITSFR26             0      0       0      27        0.0%
SFR26                0      0       0      27        0.0%
BITSFR27             0      0       0      28        0.0%
SFR27                0      0       0      28        0.0%
BITSFR28             0      0       0      29        0.0%
SFR28                0      0       0      29        0.0%
BITSFR29             0      0       0      30        0.0%
SFR29                0      0       0      30        0.0%
BITSFR30             0      0       0      31        0.0%
SFR30                0      0       0      31        0.0%
BITSFR31             0      0       0      32        0.0%
SFR31                0      0       0      32        0.0%


Microchip Technology PIC Macro Assembler V2.36 build 20220127204148 
Symbol Table                                                                                   Sun Jul 16 17:43:58 2023

                              _CCP4_Initialize 048E               ??_IOCBF3_DefaultInterruptHandler 0070  
              ?_IOCBF3_DefaultInterruptHandler 0070                             _SPI1_ExchangeBlock 0340  
                                           l11 054C                                             l41 052C  
                                           l74 0538                              ??_CMP1_Initialize 0045  
                       __end_of_FVR_Initialize 05B2                                _timer0ReloadVal 0032  
                                          l201 05AD                                            l141 0581  
                                          l151 057B                                            l129 0311  
                                          l218 055C                                            l331 058D  
                                          l334 0587                                            l246 05B1  
                                          l337 0593                                            l362 0253  
                                          l451 04EC                                            l195 033F  
                                          l292 03E8                                            l380 036C  
                                          l613 01FC                                            l198 0563  
                                          l358 0543                                            l550 0575  
                                          l528 044D                                            l376 034D  
                                          l457 05B4                                            l490 0554  
                                          l378 0352                                            l590 04B3  
                                          l719 048D                                            l690 049F  
                                          l594 04C0                                            l747 056F  
                                          l667 0396                                            l668 0396  
                                          l696 0599                                            _PR2 001B  
                                          _PR4 0416                                            u650 0352  
                                          u651 0351                                            u660 036C  
                                          u661 036B                                            u910 0204  
                                          u911 0203                                            u950 01B8  
                                          u951 01B7                                            u960 01E4  
                                          u961 01E3                                            u970 01FC  
                                          u971 01FB                            ?_SPI1_ExchangeBlock 0045  
                              _timer1ReloadVal 0026                                            _mov 0043  
               ?_EUSART_SetFramingErrorHandler 0045                                _TMR2_Initialize 054D  
               CCP4_SetCallBack@customCallBack 0045                                            wreg 0009  
                             _CCP4_SetCallBack 0594                        SPI1_ExchangeBlock@block 0048  
                      __end_of_CCP4_CaptureISR 047A                                           l2300 0544  
                                         l2310 0523                                           l2302 0547  
                                         l2312 0528                                           l2400 02EC  
                                         l2304 0548                                           l2314 052A  
                                         l2410 02FB                                           l2402 02EE  
                                         l2306 0549                                           l2500 0492  
                                         l2308 0521                                           l2180 0588  
                                         l2420 0300                                           l2412 02FC  
                                         l2404 02F1                                           l2502 0493  
                                         l2350 052D                                           l2182 0582  
                                         l2422 0308                                           l2414 02FD  
                                         l2406 02F2                                           l2510 04E1  
                                         l2190 0353                                           l2504 049B  
                                         l2352 052F                                           l2184 058E  
                                         l2520 03C4                                           l2176 057C  
                                         l2424 0310                                           l2416 02FE  
                                         l2408 02F9                                           l2440 053C  
                                         l2512 04E3                                           l2192 035C  
                                         l2506 049D                                           l2354 0534  
                                         l2530 03E6                                           l2522 03CD  
                                         l2450 0560                                           l2178 0576  
                                         l2418 02FF                                           l2442 053D  
                                         l2514 04E5                                           l2194 0360  
                                         l2186 0342                                           l2356 0536  
                                         l2524 03CE                                           l2452 0561  
                                         l2444 053F                                           l2196 0570  
                                         l2516 04E6                                           l2508 04DF  
                                         l2460 047D                                           l2188 0347  
                                         l2620 01A9                                           l2526 03D6  
                                         l2446 0541                                           l2438 0539  
                                         l2518 04EA                                           l2470 054D  
                                         l2462 047E                                           l2454 05AA  
                                         l2622 01AE                                           l2614 01A6  
                                         l2710 0388                                           l2528 03DE  
                                         l2456 05AE                                           l2448 055D  
                                         l2392 02E1                                           l2480 043D  
                                         l2472 0550                                           l2296 056A  
                                         l2464 0480                                           l2560 0312  
                                         l2536 04B5                                           l2640 01D9  
                                         l2632 01B9                                           l2624 01B2  
                                         l2720 0395                                           l2712 038B  
                                         l2570 0238                                           l2562 01FF  
                                         l2490 0555                                           l2298 0594  
                                         l2394 02E4                                           l2482 0440  
                                         l2474 0551                                           l2466 0482  
                                         l2458 047A                                           l2538 04BE  
                                         l2650 01F1                                           l2642 01DE  
                                         l2626 01B8                                           l2714 038D  
                                         l2572 0251                                           l2564 0204  
                                         l2492 0558                                           l2396 02E7  
                                         l2484 0444                                           l2476 0552  
                                         l2468 048A                                           l2652 01F6  
                                         l2644 01E4                                           l2716 0391  
                                         l2708 036D                                           l2566 0226  
                                         l2494 0559                                           l2398 02E9  
                                         l2486 0445                                           l2478 0438  
                                         l2646 01E9                                           l2638 01BA  
                                         l2718 0394                                           l2568 0227  
                                         l2496 048E                                           l2488 0446  
                                         l2498 0491                                           l2598 05B2  
                                         _LATA 010C                                           _LATB 010D  
                            ??_CMP2_Initialize 0045                                           i1l14 0437  
                                         i1l47 059F                                           i1l80 05A5  
                                         _TMR0 0015                                           _TMR2 001A  
                                         _TMR4 0415                                           _WPUA 020C  
                                         _WPUB 020D                                           _main 036D  
                                         fsr0h 0005                                           fsr1h 0007  
                                         indf0 0000                                           fsr0l 0004  
                                         indf1 0001                                           fsr1l 0006  
                                         btemp 007E                           ??_SPI1_ExchangeBlock 0047  
                    i1SPI1_ExchangeBlock@block 0073                                           start 0056  
                              __end_ofi1_txSpi 04FB                               __end_of_CMP1_ISR 05A6  
                             __end_of_CMP2_ISR 05A0                     ??_TMR4_SetInterruptHandler 0047  
                      __end_of_TMR0_Initialize 044E                 ??_TMR0_DefaultInterruptHandler 0070  
                              ?_FVR_Initialize 0070                  __end_of_OSCILLATOR_Initialize 0564  
                                        ?_main 0070                         ??_CCP4_DefaultCallBack 0072  
             SPI1_Open@spi1UniqueConfiguration 0048                                          _T1CON 0018  
                                        _T2CON 001C                                          _T4CON 0417  
                                        i1l134 04B0                                          i1l144 05BF  
                                        i1l138 04DE                                          i1l154 05BE  
                                        i1l148 04CF                                          i1l432 0054  
                                        i1l603 0408                                          i1l380 03C3  
                                        i1l543 0420                                          i1l376 03A5  
                                        i1l633 02E0                                          i1l553 05BD  
                                        i1l722 05B7                                          i1l378 03AA  
                                        i1l642 01A5                                          i1l651 0140  
                                        i1l547 0514                                          i1l660 00D4  
                                        i1l628 02A0                                          i1l740 0463  
                                        i1l645 00EA                                          i1l590 04EE  
                                        i1l654 007E                                          i1l750 05BC  
                                        i1l728 05BA                                          i1l744 0507  
                                        i1l594 04FA                                          i1l693 0479  
                                        i1l687 05C0                                          _RCREG 0199  
                                        _RCSTA 019D                                          _TMR1H 0017  
                                        _TMR1L 0016                                          u61_20 03AA  
                                        u61_21 03A9                                          u62_20 03C3  
                                        u70_20 02BF                                          u62_21 03C2  
                                        u70_21 02BE                                          u71_20 014C  
                                        u71_21 014B                                          u63_25 0430  
                                        u64_20 0408                                          u80_20 00E0  
                                        u72_20 0150                                          u64_21 0407  
                                        u80_21 00DF                                          u72_21 014F  
                                        u81_20 00E4                                          u73_20 0168  
                                        u81_21 00E3                                          u73_21 0167  
                                        _TRISA 008C                                          _TRISB 008D  
                                        u82_20 0101                                          u74_20 0194  
                                        u90_20 04AD                                          u82_21 0100  
                                        u74_21 0193                                          u90_21 04AC  
                                        u83_20 0136                                          u75_20 0074  
                                        u67_20 026A                                          u83_21 0135  
                                        u75_21 0073                                          u67_21 0269  
                                        u84_20 013C                                          u76_20 0078  
                                        u92_20 041A                                          u68_20 0296  
                                        u84_21 013B                                          u76_21 0077  
                                        u92_21 0419                                          u68_21 0295  
                                        u77_20 0095                                          u85_20 04D7  
                                        u69_20 029C                                          u93_20 045D  
                                        u77_21 0094                                          u85_21 04D6  
                                        u69_21 029B                                          u93_21 045C  
                                        u78_20 00CA                                          u86_20 04C8  
                                        u78_21 00C9                                          u86_21 04C7  
                                        u79_20 00D0                                          u87_20 050F  
                                        u79_21 00CF                                          u87_21 050E  
                                        u88_20 0502                                          u88_21 0501  
                                        u89_20 04A5                                          u89_21 04A4  
                                        _TXREG 019A                                          _TXSTA 019E  
                              _TMR4_Initialize 047A                      ?_TMR0_SetInterruptHandler 0045  
                             __end_of_TMR0_ISR 0421                               __end_of_TMR4_ISR 0464  
                      __end_of_PIN_MANAGER_IOC 04B1                                 _WDT_Initialize 05AA  
                                        _txSpi 04B1                        __end_of_PWM3_Initialize 054D  
                      __end_of_TMR1_Initialize 04ED                                          pclath 000A  
                                        status 0003                        __end_of_CCP4_Initialize 04A0  
                                        wtemp0 007E                                  txSpi@dataSize 004A  
                              __initialization 0058                                   __end_of_main 0399  
                      __end_of_TMR2_Initialize 0555                    ?_INTERRUPT_InterruptManager 0070  
                                       ??_main 0056                        _IOCBF0_InterruptHandler 0030  
                       __end_of_WDT_Initialize 05AE                               ?_CCP4_CaptureISR 0070  
            _EUSART_DefaultFramingErrorHandler 0000                                         _ADCON0 009D  
                                       _ADCON1 009E                     _EUSART_OverrunErrorHandler 002A  
                                       _ADRESH 009C                                         _ADRESL 009B  
                                       _CCPR3H 0312                                         _CCPR4H 0319  
                                       _CCPR3L 0311                                         _CCPR4L 0318  
                                       ?_txSpi 004A                                         _ANSELA 018C  
                                       _ANSELB 018D                                         _BORCON 0116  
                                       _T1GCON 0019                                         u100_20 000A  
                                       u100_21 0009                                         u101_20 000E  
                                       u101_21 000D                                         u110_20 0044  
                                       u102_20 0015                                         u110_21 0043  
                                       u102_21 0014                                         i1l2120 039A  
                                       i1l2200 0255                                         u111_20 004C  
                                       u103_20 0019                                         u111_21 004B  
                                       u103_21 0018                                         i1l2122 039F  
                                       i1l2130 04F0                                         i1l2210 0271  
                                       i1l2202 025C                                         i1l2124 03AB  
                                       i1l2132 04F8                                         i1l2220 0296  
                                       i1l2212 0274                                         i1l2134 0421  
                                       i1l2126 03B3                                         i1l2150 0403  
                                       i1l2142 03ED                                         i1l2230 02A1  
                                       i1l2222 029C                                         i1l2206 0264  
                                       i1l2128 03B7                                         i1l2144 03F1  
                                       i1l2136 03E9                                         i1l2320 0074  
                                       i1l2240 02B5                                         i1l2232 02A7  
                                       i1l2224 029F                                         i1l2208 026A  
                                       i1l2216 0279                                         u112_20 0051  
                                       u104_20 0020                                         u112_21 0050  
                                       u104_21 001F                                         i1l2170 05B8  
                                       i1l2146 03F9                                         i1l2330 0095  
                                       i1l2322 0078                                         i1l2250 02D8  
                                       i1l2242 02B9                                         i1l2234 02A9  
                                       i1l2218 0290                                         i1l2148 0401  
                                       i1l2340 00BD                                         i1l2332 00A1  
                                       i1l2324 007B                                         i1l2316 0069  
                                       i1l2260 0150                                         i1l2252 02DD  
                                       i1l2244 02BA                                         i1l2236 02AD  
                                       i1l2174 05B5                                         i1l2342 00C2  
                                       i1l2334 00A7                                         i1l2326 008F  
                                       i1l2318 006F                                         i1l2430 04DC  
                                       i1l2270 0160                                         i1l2262 0153  
                                       i1l2254 0141                                         i1l2246 02BF  
                                       i1l2238 02B1                                         i1l2360 00DB  
                                       i1l2344 00C5                                         i1l2336 00B3  
                                       i1l2328 0090                                         i1l2280 0179  
                                       i1l2272 0162                                         i1l2264 0156  
                                       i1l2256 0147                                         i1l2248 02CC  
                                       i1l2432 04C1                                         u105_20 0025  
                                       u105_21 0024                                         i1l2370 00FC  
                                       i1l2362 00E0                                         i1l2346 00CA  
                                       i1l2338 00B8                                         i1l2426 04D0  
                                       i1l2290 0198                                         i1l2282 017E  
                                       i1l2274 0163                                         i1l2266 0158  
                                       i1l2258 014C                                         i1l2434 04C8  
                                       i1l2380 0124                                         i1l2372 0101  
                                       i1l2364 00E4                                         i1l2348 00D0  
                                       i1l2428 04D7                                         i1l2292 019D  
                                       i1l2284 018A                                         i1l2276 0168  
                                       i1l2268 015C                                         i1l2436 04CD  
                                       i1l2532 0508                                         i1l2540 04FB  
                                       i1l2700 004C                                         i1l2390 013C  
                                       i1l2382 0129                                         i1l2374 010D  
                                       i1l2366 00E7                                         i1l2358 00D5  
                                       i1l2550 05A2                                         i1l2294 01A2  
                                       i1l2286 018F                                         i1l2278 0174  
                                       i1l2534 050F                                         i1l2198 0254  
                                       i1l2542 0502                                         i1l2702 0051  
                                       i1l2384 012E                                         i1l2376 0113  
                                       i1l2368 00FB                                         i1l2544 059A  
                                       i1l2288 0194                                         i1l2552 04A0  
                                       u106_20 002A                                         u106_21 0029  
                                       i1l2386 0131                                         i1l2378 011F  
                                       i1l2546 059C                                         i1l2554 04A5  
                                       i1l2388 0136                                         i1l2548 05A0  
                                       i1l2556 04A8                                         i1l2580 041A  
                                       i1l2558 04AD                                         i1l2582 041D  
                                       i1l2742 0282                                         i1l2590 044E  
                                       i1l2670 000E                                         i1l2584 0464  
                                       i1l2576 0409                                         i1l2592 0450  
                                       u107_20 0032                                         i1l2680 0020  
                                       i1l2672 0011                                         u107_21 0031  
                                       i1l2586 0466                                         i1l2578 040A  
                                       i1l2594 045D                                         i1l2690 0037  
                                       i1l2682 0025                                         i1l2674 0015  
                                       i1l2666 0006                                         i1l2588 046F  
                                       i1l2596 0460                                         i1l2692 003A  
                                       i1l2684 002A                                         i1l2676 0019  
                                       i1l2668 000A                                         i1l2694 003F  
                                       i1l2686 002D                                         i1l2678 001C  
                                       i1l2696 0044                                         u108_20 0037  
                                       i1l2688 0032                                         u108_21 0036  
                                       i1l2698 0047                                         u109_20 003F  
                                       u109_21 003E                                    initMatrix@i 0053  
                                  initMatrix@j 0055                                    initMatrix@k 0052  
                                       _FVRCON 0117                                         _OSCCON 0099  
                                    ??i1_txSpi 0077                                         _SPBRGH 019C  
                                       _SPBRGL 019B                                         _WDTCON 0097  
                              _TMR4_StartTimer 05B5                              __end_of_SPI1_Open 0254  
                                 _CCPTMRS0bits 029E                                  ?_matrixUpdate 0070  
                             ?_TMR0_Initialize 0070                        __end_of_TMR4_Initialize 048E  
                                _CCP4_CallBack 0022           __end_of_TMR4_DefaultInterruptHandler 05BD  
                 _TMR4_DefaultInterruptHandler 05BC                                ?_WDT_Initialize 0070  
                     i1SPI1_ExchangeBlock@data 0074                                      ?_CMP1_ISR 0070  
                        __end_of_TMR0_CallBack 0515                                      ?_CMP2_ISR 0070  
     TMR4_SetInterruptHandler@InterruptHandler 0045       TMR0_SetInterruptHandler@InterruptHandler 0045  
   IOCBF3_SetInterruptHandler@InterruptHandler 0045     IOCBF0_SetInterruptHandler@InterruptHandler 0045  
                             ?_PIN_MANAGER_IOC 0070                                   ??_IOCBF0_ISR 0070  
                                 ??_IOCBF3_ISR 007D                               ?_PWM3_Initialize 0070  
                             ?_TMR1_Initialize 0070                              _SYSTEM_Initialize 0312  
                      __end_of__initialization 0065                               ?_CCP4_Initialize 0070  
                              _CMP1_Initialize 052D                             ?_SYSTEM_Initialize 0070  
                     __end_of_CCP4_SetCallBack 059A                                    i1txSpi@data 0077  
                               __pcstackCOMMON 0070                          __end_of_TMR4_CallBack 0508  
                                 __pidataBANK0 05BB                            ??_SYSTEM_Initialize 0048  
                                    ?_TMR0_ISR 0070                                i1txSpi@dataSize 0075  
                               ??_matrixUpdate 0078                                      ?_TMR4_ISR 0070  
                            ??_SPI1_Initialize 0045         __end_of_IOCBF0_DefaultInterruptHandler 05C0  
               _IOCBF0_DefaultInterruptHandler 05BF                                  __end_of_txSpi 04C1  
                             ?_TMR2_Initialize 0070                             __end_of_IOCBF0_ISR 04DF  
                           __end_of_IOCBF3_ISR 04D0                                _CMP2_Initialize 0521  
                           _spi1_configuration 05A6                                 _OPTION_REGbits 0095  
                        TMR0_ISR@CountCallBack 003D                  ?_TMR4_DefaultInterruptHandler 0070  
              ??_EUSART_SetOverrunErrorHandler 0047         __end_of_IOCBF3_DefaultInterruptHandler 05BF  
               _IOCBF3_DefaultInterruptHandler 05BE                                     ??_CMP1_ISR 007D  
                                   ??_CMP2_ISR 007D                        __end_of_TMR4_StartTimer 05B8  
                    __end_of_SYSTEM_Initialize 0340                                        ??_txSpi 004C  
                                   __pbssBANK0 0033                          _TMR4_InterruptHandler 0020  
                             ??_FVR_Initialize 0045                                     __pmaintext 036D  
             __end_of_TMR0_SetInterruptHandler 0576                                     ??_TMR0_ISR 0070  
                                   ??_TMR4_ISR 0076                                     __pintentry 0004  
                                      _CM1CON0 0111                                        _CM1CON1 0112  
                                      _CM2CON0 0113                                        _CM2CON1 0114  
                                      _CCP3CON 0313                                        _CCP4CON 031A  
                                      _BAUDCON 019F                               ?_TMR4_Initialize 0070  
                                      _APFCON0 011D                                        _APFCON1 011E  
                                   _destinoSub 0044                                        _OSCTUNE 0098  
                                      _SSP1ADD 0212                                        _SSP1BUF 0211  
                      __end_of_CMP1_Initialize 0539                       ??_EUSART_SetErrorHandler 0047  
                            __end_of_chegadaS1 02E1                              __end_of_chegadaS2 01A6  
                            __end_of_chegadaS3 0141                              __end_of_chegadaS4 00D5  
                                      i1_txSpi 04ED                           _ADC_InterruptHandler 003F  
                                   _initMatrix 01A6                        __end_of_CMP2_Initialize 052D  
                                      __ptext1 01A6                                        __ptext2 04B1  
                                      __ptext3 0340                                        __ptext4 05B2  
                                      __ptext5 0312                                        __ptext6 05AA  
                                      __ptext7 047A                                        __ptext8 056A  
                                      __ptext9 054D                                      _T1CONbits 0018  
                        _OSCILLATOR_Initialize 055D                                      _T2CONbits 001C  
                                    _CMOUTbits 0115                                      _T4CONbits 0417  
                     ??_PIN_MANAGER_Initialize 0047                                      _IOCBFbits 0396  
                    ?_TMR4_SetInterruptHandler 0045                                      _IOCBNbits 0395  
                                    _IOCBPbits 0394                                        _subindo 0056  
                                      clrloop0 0565                               ?_TMR4_StartTimer 0070  
                         end_of_initialization 0065                           __end_of_matrixUpdate 0409  
                               initMatrix@data 004E                 ??_TMR4_DefaultInterruptHandler 0070  
        __end_of_EUSART_SetOverrunErrorHandler 0588                  _EUSART_SetOverrunErrorHandler 0582  
                            _EUSART_Initialize 03C4                             ?_EUSART_Initialize 0070  
                                    _RCSTAbits 019D                                      _SPI1_Open 01FD  
                          ??_EUSART_Initialize 0047                               ??_WDT_Initialize 0045  
                     _TMR0_SetInterruptHandler 0570                                      _TRISBbits 008D  
                 ??_IOCBF0_SetInterruptHandler 0047                   ??_IOCBF3_SetInterruptHandler 0047  
                             ?_CMP1_Initialize 0070                         SPI1_ExchangeBlock@data 0049  
                    __end_of_EUSART_Initialize 03E9                                _SPI1_Initialize 0539  
                                    _TXSTAbits 019E              CCP4_DefaultCallBack@capturedValue 0070  
                   __end_of_PWM3_LoadDutyValue 0438                              ?_CCP4_SetCallBack 0045  
                                  ?_initMatrix 0070                               ?_CMP2_Initialize 0070  
                                   ?_SPI1_Open 0070                             ??_CCP4_SetCallBack 0047  
                   _EUSART_DefaultErrorHandler 0000                                 _TMR4_ReadTimer 05B8  
                               _ADC_Initialize 0555                                 _TMR1_StopTimer 05B2  
                       ?_OSCILLATOR_Initialize 0070                            start_initialization 0058  
                 __end_ofi1_SPI1_ExchangeBlock 03C4                                      _MatrixLed 0033  
               ?_EUSART_SetOverrunErrorHandler 0045                     _EUSART_FramingErrorHandler 002C  
                       __end_of_TMR4_ReadTimer 05BB                         _EUSART_SetErrorHandler 058E  
                       __end_of_ADC_Initialize 055D                         __end_of_TMR1_StopTimer 05B5  
                                  __pdataBANK0 0056                          CCP4_CaptureISR@module 0073  
                        TMR4_ISR@CountCallBack 003B                                    __pbssCOMMON 007D  
                                    ___latbits 0001                                  __pcstackBANK0 0045  
                      __end_of_SPI1_Initialize 0544                                       ?i1_txSpi 0075  
                                    _chegadaS1 02A1                                      _chegadaS2 0141  
                                    _chegadaS3 00D5                                      _chegadaS4 0069  
                        _TMR0_InterruptHandler 0024                                      __pnvBANK0 0020  
                      _IOCBF3_InterruptHandler 002E                         _PIN_MANAGER_Initialize 02E1  
                              ?_TMR4_ReadTimer 0070               __end_of_TMR4_SetInterruptHandler 0570  
                            ??_CCP4_CaptureISR 0072                                    ??_SPI1_Open 0045  
                              ?_ADC_Initialize 0070                                ?_TMR1_StopTimer 0070  
                            _controleMovimento 0254                                   _matrixUpdate 03E9  
                 ??_INTERRUPT_InterruptManager 007D                             ?_controleMovimento 0070  
           __end_of_IOCBF0_SetInterruptHandler 0582                     _IOCBF0_SetInterruptHandler 057C  
           __end_of_IOCBF3_SetInterruptHandler 057C                     _IOCBF3_SetInterruptHandler 0576  
                          ??_controleMovimento 0074                                       _CMP1_ISR 05A0  
                                     _CMP2_ISR 059A                                  _TMR0_CallBack 0508  
                   __end_of_SPI1_ExchangeBlock 036D                              ??_TMR0_Initialize 0047  
                                  _destinoDesc 007D         EUSART_SetErrorHandler@interruptHandler 0045  
                                     _LATBbits 010D                                     ?_chegadaS1 0070  
                                   ?_chegadaS2 0070                                     ?_chegadaS3 0070  
                                   ?_chegadaS4 0070                            __end_of_matrix_conf 0521  
                                    clear_ram0 0564                   __end_of_CCP4_DefaultCallBack 05C1  
                                     _PIE2bits 0092                                       _PIE3bits 0093  
                            _eusartRxLastError 0042                     ??_TMR0_SetInterruptHandler 0047  
                                     _PIR1bits 0011                ??_EUSART_SetFramingErrorHandler 0047  
                                     _PIR2bits 0012                                       _PIR3bits 0013  
                    __end_of_controleMovimento 02A1                                       _SSP1CON1 0215  
                                     _SSP1CON2 0216                           i1_SPI1_ExchangeBlock 0399  
                                     _TMR0_ISR 0409              _EUSART_DefaultOverrunErrorHandler 0000  
                                     _TMR4_ISR 044E                                  _TMR4_CallBack 04FB  
                                     _SSP1STAT 0214                              ??_PIN_MANAGER_IOC 007D  
                            ??_PWM3_Initialize 0045                              ??_TMR1_Initialize 0045  
                                   _ADCON0bits 009D                              ??_CCP4_Initialize 0047  
                               ?_TMR0_CallBack 0070                               initMatrix@i_1317 0054  
                             ?_SPI1_Initialize 0070                              ??_TMR2_Initialize 0045  
                                 ??_initMatrix 004D                          ?i1_SPI1_ExchangeBlock 0070  
                               ?_TMR4_CallBack 0070                        ??_OSCILLATOR_Initialize 0045  
                          _EUSART_ErrorHandler 0028                       _TMR4_SetInterruptHandler 056A  
                           _PWM3_LoadDutyValue 0421                                       __ptext10 04DF  
                                     __ptext11 0438                                       __ptext20 03C4  
                                     __ptext12 0570                                       __ptext21 0582  
                                     __ptext13 0539                                     _T1GCONbits 0019  
                                     __ptext22 0588                                       __ptext14 0544  
                                     __ptext31 044E                                       __ptext23 058E  
                                     __ptext15 02E1                                       __ptext40 02A1  
                                     __ptext32 04FB                                       __ptext24 0521  
                                     __ptext16 0576                                       __ptext41 05BE  
                                     __ptext33 05BC                                       __ptext25 052D  
                                     __ptext17 057C                                       __ptext50 04ED  
                                     __ptext42 0141                                       __ptext34 0254  
                                     __ptext26 048E                                       __ptext18 055D  
                                     __ptext51 0399                                       __ptext43 04D0  
                                     __ptext35 0409                                       __ptext27 0594  
                                     __ptext19 05AE                                       __ptext52 05B5  
                                     __ptext44 05BF                                       __ptext36 0508  
                                     __ptext28 0555                                       __ptext53 05B8  
                                     __ptext45 059A                                       __ptext37 05BD  
                                     __ptext29 01FD                                       __ptext54 0421  
                                     __ptext46 0069                                       __ptext38 04A0  
                                     __ptext55 0464                                       __ptext47 05A0  
                                     __ptext39 04C1                                       __ptext56 05C0  
                                     __ptext48 00D5                                       __ptext49 03E9  
                          ?_PWM3_LoadDutyValue 0070                                   _SSP1CON1bits 0215  
                        controleMovimento@cont 0041                                    _matrix_conf 0515  
                           __end_of_initMatrix 01FD                                     _IOCBF0_ISR 04D0  
                                   _IOCBF3_ISR 04C1                              ??_TMR4_Initialize 0047  
                                  ??_chegadaS1 007C                                    ??_chegadaS2 007C  
                                  ??_chegadaS3 007C                                    ??_chegadaS4 007C  
         __end_of_TMR0_DefaultInterruptHandler 05BE                   _TMR0_DefaultInterruptHandler 05BD  
                      ?_EUSART_SetErrorHandler 0045                  i1SPI1_ExchangeBlock@blockSize 0070  
EUSART_SetOverrunErrorHandler@interruptHandler 0045                           ??_PWM3_LoadDutyValue 0072  
                                     int$flags 007E             __end_of_INTERRUPT_InterruptManager 0056  
                   _INTERRUPT_InterruptManager 0004          __end_of_EUSART_SetFramingErrorHandler 058E  
                _EUSART_SetFramingErrorHandler 0588                                      txSpi@data 004C  
                  SPI1_ExchangeBlock@blockSize 0045                               matrixUpdate@data 0079  
                                   _INTCONbits 000B                           _CCP4_DefaultCallBack 05C0  
                              ??_TMR0_CallBack 0070                                     _FVRCONbits 0117  
                                     intlevel1 0000                                _CCP4_CaptureISR 0464  
                      ?_PIN_MANAGER_Initialize 0070                 __end_of_EUSART_SetErrorHandler 0594  
                             ??_TMR4_ReadTimer 0070                               ??_ADC_Initialize 0045  
                             ??_TMR1_StopTimer 0045                                ??_TMR4_CallBack 0076  
                       ??i1_SPI1_ExchangeBlock 0072                  ?_TMR0_DefaultInterruptHandler 0070  
EUSART_SetFramingErrorHandler@interruptHandler 0045                    PWM3_LoadDutyValue@dutyValue 0070  
                            ??_TMR4_StartTimer 0070                                  __pstringtext1 0515  
                                __pstringtext2 05A6                                 _FVR_Initialize 05AE  
                                   _OPTION_REG 0095                          ?_CCP4_DefaultCallBack 0070  
                              _TMR0_Initialize 0438                    ?_IOCBF0_SetInterruptHandler 0045  
                  ?_IOCBF3_SetInterruptHandler 0045                                    ?_IOCBF0_ISR 0070  
                                  ?_IOCBF3_ISR 0070                 __end_of_PIN_MANAGER_Initialize 0312  
             ??_IOCBF0_DefaultInterruptHandler 0070                ?_IOCBF0_DefaultInterruptHandler 0070  
                                matrixUpdate@i 007B                                _PIN_MANAGER_IOC 04A0  
                              _TMR1_Initialize 04DF                                _PWM3_Initialize 0544  
                   __end_of_spi1_configuration 05AA  
