

Microchip MPLAB XC8 Assembler V2.36 build 20220127204148 
                                                                                               Sat Jul 15 18:53:36 2023

Microchip MPLAB XC8 C Compiler v2.36 (Free license) build 20220127204148 Og1 
     1                           	processor	16F1827
     2                           	pagewidth 120
     3                           	opt	flic
     4                           	psect	idataBANK0,global,class=CODE,delta=2,noexec
     5                           	psect	stringtext1,global,class=STRCODE,delta=2,noexec
     6                           	psect	stringtext2,global,class=STRCODE,delta=2,noexec
     7                           	psect	nvBANK0,global,class=BANK0,space=1,delta=1,noexec
     8                           	psect	cinit,global,class=CODE,merge=1,delta=2
     9                           	psect	bssBANK0,global,class=BANK0,space=1,delta=1,noexec
    10                           	psect	dataBANK0,global,class=BANK0,space=1,delta=1,noexec
    11                           	psect	clrtext,global,class=CODE,delta=2
    12                           	psect	cstackCOMMON,global,class=COMMON,space=1,delta=1,noexec
    13                           	psect	cstackBANK0,global,class=BANK0,space=1,delta=1,noexec
    14                           	psect	maintext,global,class=CODE,merge=1,split=1,delta=2
    15                           	psect	text1,local,class=CODE,merge=1,delta=2
    16                           	psect	text2,local,class=CODE,merge=1,delta=2
    17                           	psect	text3,local,class=CODE,merge=1,delta=2
    18                           	psect	text4,local,class=CODE,merge=1,delta=2
    19                           	psect	text5,local,class=CODE,merge=1,delta=2
    20                           	psect	text6,local,class=CODE,merge=1,delta=2
    21                           	psect	text7,local,class=CODE,merge=1,delta=2
    22                           	psect	text8,local,class=CODE,merge=1,delta=2
    23                           	psect	text9,local,class=CODE,merge=1,delta=2
    24                           	psect	text10,local,class=CODE,merge=1,delta=2
    25                           	psect	text11,local,class=CODE,merge=1,delta=2
    26                           	psect	text12,local,class=CODE,merge=1,delta=2
    27                           	psect	text13,local,class=CODE,merge=1,delta=2
    28                           	psect	text14,local,class=CODE,merge=1,delta=2
    29                           	psect	text15,local,class=CODE,merge=1,delta=2
    30                           	psect	text16,local,class=CODE,merge=1,delta=2
    31                           	psect	text17,local,class=CODE,merge=1,delta=2
    32                           	psect	text18,local,class=CODE,merge=1,delta=2
    33                           	psect	text19,local,class=CODE,merge=1,delta=2
    34                           	psect	text20,local,class=CODE,merge=1,delta=2
    35                           	psect	text21,local,class=CODE,merge=1,delta=2
    36                           	psect	text22,local,class=CODE,merge=1,delta=2
    37                           	psect	text23,local,class=CODE,merge=1,delta=2
    38                           	psect	text24,local,class=CODE,merge=1,delta=2
    39                           	psect	text25,local,class=CODE,merge=1,delta=2
    40                           	psect	intentry,global,class=CODE,delta=2
    41                           	psect	text27,local,class=CODE,merge=1,delta=2
    42                           	psect	text28,local,class=CODE,merge=1,delta=2
    43                           	psect	text29,local,class=CODE,merge=1,delta=2
    44                           	psect	text30,local,class=CODE,merge=1,delta=2
    45                           	psect	text31,local,class=CODE,merge=1,delta=2
    46                           	psect	text32,local,class=CODE,merge=1,delta=2
    47                           	psect	text33,local,class=CODE,merge=1,delta=2
    48                           	psect	text34,local,class=CODE,merge=1,delta=2
    49                           	psect	text35,local,class=CODE,merge=1,delta=2
    50                           	psect	text36,local,class=CODE,merge=1,delta=2
    51                           	psect	text37,local,class=CODE,merge=1,delta=2
    52                           	psect	text38,local,class=CODE,merge=1,delta=2
    53                           	psect	text39,local,class=CODE,merge=1,delta=2
    54                           	psect	text40,local,class=CODE,merge=1,delta=2
    55                           	psect	text41,local,class=CODE,merge=1,delta=2
    56                           	psect	text42,local,class=CODE,merge=1,delta=2
    57                           	psect	text43,local,class=CODE,merge=1,delta=2
    58                           	psect	text44,local,class=CODE,merge=1,delta=2
    59                           	psect	text45,local,class=CODE,merge=1,delta=2
    60                           	psect	text46,local,class=CODE,merge=1,delta=2
    61                           	psect	text47,local,class=CODE,merge=1,delta=2
    62                           	psect	text48,local,class=CODE,merge=1,delta=2
    63                           	psect	text49,local,class=CODE,merge=1,delta=2
    64                           	psect	idloc,global,abs,ovrld,class=IDLOC,space=5,delta=2,noexec
    65                           	psect	config,global,abs,ovrld,class=CONFIG,space=4,delta=2,noexec
    66                           	dabs	1,0x7E,2
    67  0000                     
    68                           ; Version 2.40
    69                           ; Generated 17/11/2021 GMT
    70                           ; 
    71                           ; Copyright © 2021, Microchip Technology Inc. and its subsidiaries ("Microchip")
    72                           ; All rights reserved.
    73                           ; 
    74                           ; This software is developed by Microchip Technology Inc. and its subsidiaries ("Microch
      +                          ip").
    75                           ; 
    76                           ; Redistribution and use in source and binary forms, with or without modification, are
    77                           ; permitted provided that the following conditions are met:
    78                           ; 
    79                           ;     1. Redistributions of source code must retain the above copyright notice, this lis
      +                          t of
    80                           ;        conditions and the following disclaimer.
    81                           ; 
    82                           ;     2. Redistributions in binary form must reproduce the above copyright notice, this 
      +                          list
    83                           ;        of conditions and the following disclaimer in the documentation and/or other
    84                           ;        materials provided with the distribution. Publication is not required when
    85                           ;        this file is used in an embedded application.
    86                           ; 
    87                           ;     3. Microchip's name may not be used to endorse or promote products derived from th
      +                          is
    88                           ;        software without specific prior written permission.
    89                           ; 
    90                           ; THIS SOFTWARE IS PROVIDED BY MICROCHIP "AS IS" AND ANY EXPRESS OR IMPLIED WARRANTIES,
    91                           ; INCLUDING, BUT NOT LIMITED TO, THE IMPLIED WARRANTIES OF MERCHANTABILITY AND FITNESS F
      +                          OR
    92                           ; PURPOSE ARE DISCLAIMED.  IN NO EVENT SHALL MICROCHIP BE LIABLE FOR ANY DIRECT, INDIREC
      +                          T,
    93                           ; INCIDENTAL, SPECIAL, EXEMPLARY, OR CONSEQUENTIAL DAMAGES (INCLUDING BUT NOT LIMITED TO
    94                           ; PROCUREMENT OF SUBSTITUTE GOODS OR SERVICES; LOSS OF USE, DATA OR PROFITS; OR BUSINESS
    95                           ; INTERRUPTION) HOWSOEVER CAUSED AND ON ANY THEORY OF LIABILITY, WHETHER IN CONTRACT, ST
      +                          RICT
    96                           ; LIABILITY, OR TORT (INCLUDING NEGLIGENCE OR OTHERWISE) ARISING IN ANY WAY OUT OF THE U
      +                          SE OF
    97                           ; THIS SOFTWARE, EVEN IF ADVISED OF THE POSSIBILITY OF SUCH DAMAGE.
    98                           ; 
    99                           ; 
   100                           ; Code-generator required, PIC16F1827 Definitions
   101                           ; 
   102                           ; SFR Addresses
   103  0000                     	;# 
   104  0001                     	;# 
   105  0002                     	;# 
   106  0003                     	;# 
   107  0004                     	;# 
   108  0005                     	;# 
   109  0006                     	;# 
   110  0007                     	;# 
   111  0008                     	;# 
   112  0009                     	;# 
   113  000A                     	;# 
   114  000B                     	;# 
   115  000C                     	;# 
   116  000D                     	;# 
   117  0011                     	;# 
   118  0012                     	;# 
   119  0013                     	;# 
   120  0014                     	;# 
   121  0015                     	;# 
   122  0016                     	;# 
   123  0016                     	;# 
   124  0017                     	;# 
   125  0018                     	;# 
   126  0019                     	;# 
   127  001A                     	;# 
   128  001B                     	;# 
   129  001C                     	;# 
   130  001E                     	;# 
   131  001F                     	;# 
   132  008C                     	;# 
   133  008D                     	;# 
   134  0091                     	;# 
   135  0092                     	;# 
   136  0093                     	;# 
   137  0094                     	;# 
   138  0095                     	;# 
   139  0096                     	;# 
   140  0097                     	;# 
   141  0098                     	;# 
   142  0099                     	;# 
   143  009A                     	;# 
   144  009B                     	;# 
   145  009B                     	;# 
   146  009C                     	;# 
   147  009D                     	;# 
   148  009E                     	;# 
   149  010C                     	;# 
   150  010D                     	;# 
   151  0111                     	;# 
   152  0112                     	;# 
   153  0113                     	;# 
   154  0114                     	;# 
   155  0115                     	;# 
   156  0116                     	;# 
   157  0117                     	;# 
   158  0118                     	;# 
   159  0119                     	;# 
   160  011A                     	;# 
   161  011B                     	;# 
   162  011D                     	;# 
   163  011E                     	;# 
   164  018C                     	;# 
   165  018D                     	;# 
   166  0191                     	;# 
   167  0191                     	;# 
   168  0192                     	;# 
   169  0193                     	;# 
   170  0193                     	;# 
   171  0193                     	;# 
   172  0194                     	;# 
   173  0195                     	;# 
   174  0196                     	;# 
   175  0199                     	;# 
   176  019A                     	;# 
   177  019B                     	;# 
   178  019B                     	;# 
   179  019B                     	;# 
   180  019B                     	;# 
   181  019C                     	;# 
   182  019C                     	;# 
   183  019D                     	;# 
   184  019E                     	;# 
   185  019F                     	;# 
   186  020C                     	;# 
   187  020D                     	;# 
   188  0211                     	;# 
   189  0211                     	;# 
   190  0212                     	;# 
   191  0212                     	;# 
   192  0213                     	;# 
   193  0213                     	;# 
   194  0214                     	;# 
   195  0214                     	;# 
   196  0215                     	;# 
   197  0215                     	;# 
   198  0215                     	;# 
   199  0216                     	;# 
   200  0216                     	;# 
   201  0217                     	;# 
   202  0217                     	;# 
   203  0219                     	;# 
   204  021A                     	;# 
   205  021B                     	;# 
   206  021C                     	;# 
   207  021D                     	;# 
   208  021E                     	;# 
   209  021F                     	;# 
   210  0291                     	;# 
   211  0291                     	;# 
   212  0292                     	;# 
   213  0293                     	;# 
   214  0294                     	;# 
   215  0295                     	;# 
   216  0295                     	;# 
   217  0296                     	;# 
   218  0298                     	;# 
   219  0298                     	;# 
   220  0299                     	;# 
   221  029A                     	;# 
   222  029B                     	;# 
   223  029C                     	;# 
   224  029C                     	;# 
   225  029D                     	;# 
   226  029E                     	;# 
   227  029E                     	;# 
   228  0311                     	;# 
   229  0311                     	;# 
   230  0312                     	;# 
   231  0313                     	;# 
   232  0318                     	;# 
   233  0318                     	;# 
   234  0319                     	;# 
   235  031A                     	;# 
   236  0394                     	;# 
   237  0395                     	;# 
   238  0396                     	;# 
   239  039A                     	;# 
   240  039C                     	;# 
   241  039D                     	;# 
   242  039E                     	;# 
   243  039F                     	;# 
   244  0415                     	;# 
   245  0416                     	;# 
   246  0417                     	;# 
   247  041C                     	;# 
   248  041D                     	;# 
   249  041E                     	;# 
   250  0FE4                     	;# 
   251  0FE5                     	;# 
   252  0FE6                     	;# 
   253  0FE7                     	;# 
   254  0FE8                     	;# 
   255  0FE9                     	;# 
   256  0FEA                     	;# 
   257  0FEB                     	;# 
   258  0FED                     	;# 
   259  0FEE                     	;# 
   260  0FEF                     	;# 
   261  0000                     	;# 
   262  0001                     	;# 
   263  0002                     	;# 
   264  0003                     	;# 
   265  0004                     	;# 
   266  0005                     	;# 
   267  0006                     	;# 
   268  0007                     	;# 
   269  0008                     	;# 
   270  0009                     	;# 
   271  000A                     	;# 
   272  000B                     	;# 
   273  000C                     	;# 
   274  000D                     	;# 
   275  0011                     	;# 
   276  0012                     	;# 
   277  0013                     	;# 
   278  0014                     	;# 
   279  0015                     	;# 
   280  0016                     	;# 
   281  0016                     	;# 
   282  0017                     	;# 
   283  0018                     	;# 
   284  0019                     	;# 
   285  001A                     	;# 
   286  001B                     	;# 
   287  001C                     	;# 
   288  001E                     	;# 
   289  001F                     	;# 
   290  008C                     	;# 
   291  008D                     	;# 
   292  0091                     	;# 
   293  0092                     	;# 
   294  0093                     	;# 
   295  0094                     	;# 
   296  0095                     	;# 
   297  0096                     	;# 
   298  0097                     	;# 
   299  0098                     	;# 
   300  0099                     	;# 
   301  009A                     	;# 
   302  009B                     	;# 
   303  009B                     	;# 
   304  009C                     	;# 
   305  009D                     	;# 
   306  009E                     	;# 
   307  010C                     	;# 
   308  010D                     	;# 
   309  0111                     	;# 
   310  0112                     	;# 
   311  0113                     	;# 
   312  0114                     	;# 
   313  0115                     	;# 
   314  0116                     	;# 
   315  0117                     	;# 
   316  0118                     	;# 
   317  0119                     	;# 
   318  011A                     	;# 
   319  011B                     	;# 
   320  011D                     	;# 
   321  011E                     	;# 
   322  018C                     	;# 
   323  018D                     	;# 
   324  0191                     	;# 
   325  0191                     	;# 
   326  0192                     	;# 
   327  0193                     	;# 
   328  0193                     	;# 
   329  0193                     	;# 
   330  0194                     	;# 
   331  0195                     	;# 
   332  0196                     	;# 
   333  0199                     	;# 
   334  019A                     	;# 
   335  019B                     	;# 
   336  019B                     	;# 
   337  019B                     	;# 
   338  019B                     	;# 
   339  019C                     	;# 
   340  019C                     	;# 
   341  019D                     	;# 
   342  019E                     	;# 
   343  019F                     	;# 
   344  020C                     	;# 
   345  020D                     	;# 
   346  0211                     	;# 
   347  0211                     	;# 
   348  0212                     	;# 
   349  0212                     	;# 
   350  0213                     	;# 
   351  0213                     	;# 
   352  0214                     	;# 
   353  0214                     	;# 
   354  0215                     	;# 
   355  0215                     	;# 
   356  0215                     	;# 
   357  0216                     	;# 
   358  0216                     	;# 
   359  0217                     	;# 
   360  0217                     	;# 
   361  0219                     	;# 
   362  021A                     	;# 
   363  021B                     	;# 
   364  021C                     	;# 
   365  021D                     	;# 
   366  021E                     	;# 
   367  021F                     	;# 
   368  0291                     	;# 
   369  0291                     	;# 
   370  0292                     	;# 
   371  0293                     	;# 
   372  0294                     	;# 
   373  0295                     	;# 
   374  0295                     	;# 
   375  0296                     	;# 
   376  0298                     	;# 
   377  0298                     	;# 
   378  0299                     	;# 
   379  029A                     	;# 
   380  029B                     	;# 
   381  029C                     	;# 
   382  029C                     	;# 
   383  029D                     	;# 
   384  029E                     	;# 
   385  029E                     	;# 
   386  0311                     	;# 
   387  0311                     	;# 
   388  0312                     	;# 
   389  0313                     	;# 
   390  0318                     	;# 
   391  0318                     	;# 
   392  0319                     	;# 
   393  031A                     	;# 
   394  0394                     	;# 
   395  0395                     	;# 
   396  0396                     	;# 
   397  039A                     	;# 
   398  039C                     	;# 
   399  039D                     	;# 
   400  039E                     	;# 
   401  039F                     	;# 
   402  0415                     	;# 
   403  0416                     	;# 
   404  0417                     	;# 
   405  041C                     	;# 
   406  041D                     	;# 
   407  041E                     	;# 
   408  0FE4                     	;# 
   409  0FE5                     	;# 
   410  0FE6                     	;# 
   411  0FE7                     	;# 
   412  0FE8                     	;# 
   413  0FE9                     	;# 
   414  0FEA                     	;# 
   415  0FEB                     	;# 
   416  0FED                     	;# 
   417  0FEE                     	;# 
   418  0FEF                     	;# 
   419  0000                     	;# 
   420  0001                     	;# 
   421  0002                     	;# 
   422  0003                     	;# 
   423  0004                     	;# 
   424  0005                     	;# 
   425  0006                     	;# 
   426  0007                     	;# 
   427  0008                     	;# 
   428  0009                     	;# 
   429  000A                     	;# 
   430  000B                     	;# 
   431  000C                     	;# 
   432  000D                     	;# 
   433  0011                     	;# 
   434  0012                     	;# 
   435  0013                     	;# 
   436  0014                     	;# 
   437  0015                     	;# 
   438  0016                     	;# 
   439  0016                     	;# 
   440  0017                     	;# 
   441  0018                     	;# 
   442  0019                     	;# 
   443  001A                     	;# 
   444  001B                     	;# 
   445  001C                     	;# 
   446  001E                     	;# 
   447  001F                     	;# 
   448  008C                     	;# 
   449  008D                     	;# 
   450  0091                     	;# 
   451  0092                     	;# 
   452  0093                     	;# 
   453  0094                     	;# 
   454  0095                     	;# 
   455  0096                     	;# 
   456  0097                     	;# 
   457  0098                     	;# 
   458  0099                     	;# 
   459  009A                     	;# 
   460  009B                     	;# 
   461  009B                     	;# 
   462  009C                     	;# 
   463  009D                     	;# 
   464  009E                     	;# 
   465  010C                     	;# 
   466  010D                     	;# 
   467  0111                     	;# 
   468  0112                     	;# 
   469  0113                     	;# 
   470  0114                     	;# 
   471  0115                     	;# 
   472  0116                     	;# 
   473  0117                     	;# 
   474  0118                     	;# 
   475  0119                     	;# 
   476  011A                     	;# 
   477  011B                     	;# 
   478  011D                     	;# 
   479  011E                     	;# 
   480  018C                     	;# 
   481  018D                     	;# 
   482  0191                     	;# 
   483  0191                     	;# 
   484  0192                     	;# 
   485  0193                     	;# 
   486  0193                     	;# 
   487  0193                     	;# 
   488  0194                     	;# 
   489  0195                     	;# 
   490  0196                     	;# 
   491  0199                     	;# 
   492  019A                     	;# 
   493  019B                     	;# 
   494  019B                     	;# 
   495  019B                     	;# 
   496  019B                     	;# 
   497  019C                     	;# 
   498  019C                     	;# 
   499  019D                     	;# 
   500  019E                     	;# 
   501  019F                     	;# 
   502  020C                     	;# 
   503  020D                     	;# 
   504  0211                     	;# 
   505  0211                     	;# 
   506  0212                     	;# 
   507  0212                     	;# 
   508  0213                     	;# 
   509  0213                     	;# 
   510  0214                     	;# 
   511  0214                     	;# 
   512  0215                     	;# 
   513  0215                     	;# 
   514  0215                     	;# 
   515  0216                     	;# 
   516  0216                     	;# 
   517  0217                     	;# 
   518  0217                     	;# 
   519  0219                     	;# 
   520  021A                     	;# 
   521  021B                     	;# 
   522  021C                     	;# 
   523  021D                     	;# 
   524  021E                     	;# 
   525  021F                     	;# 
   526  0291                     	;# 
   527  0291                     	;# 
   528  0292                     	;# 
   529  0293                     	;# 
   530  0294                     	;# 
   531  0295                     	;# 
   532  0295                     	;# 
   533  0296                     	;# 
   534  0298                     	;# 
   535  0298                     	;# 
   536  0299                     	;# 
   537  029A                     	;# 
   538  029B                     	;# 
   539  029C                     	;# 
   540  029C                     	;# 
   541  029D                     	;# 
   542  029E                     	;# 
   543  029E                     	;# 
   544  0311                     	;# 
   545  0311                     	;# 
   546  0312                     	;# 
   547  0313                     	;# 
   548  0318                     	;# 
   549  0318                     	;# 
   550  0319                     	;# 
   551  031A                     	;# 
   552  0394                     	;# 
   553  0395                     	;# 
   554  0396                     	;# 
   555  039A                     	;# 
   556  039C                     	;# 
   557  039D                     	;# 
   558  039E                     	;# 
   559  039F                     	;# 
   560  0415                     	;# 
   561  0416                     	;# 
   562  0417                     	;# 
   563  041C                     	;# 
   564  041D                     	;# 
   565  041E                     	;# 
   566  0FE4                     	;# 
   567  0FE5                     	;# 
   568  0FE6                     	;# 
   569  0FE7                     	;# 
   570  0FE8                     	;# 
   571  0FE9                     	;# 
   572  0FEA                     	;# 
   573  0FEB                     	;# 
   574  0FED                     	;# 
   575  0FEE                     	;# 
   576  0FEF                     	;# 
   577  0000                     	;# 
   578  0001                     	;# 
   579  0002                     	;# 
   580  0003                     	;# 
   581  0004                     	;# 
   582  0005                     	;# 
   583  0006                     	;# 
   584  0007                     	;# 
   585  0008                     	;# 
   586  0009                     	;# 
   587  000A                     	;# 
   588  000B                     	;# 
   589  000C                     	;# 
   590  000D                     	;# 
   591  0011                     	;# 
   592  0012                     	;# 
   593  0013                     	;# 
   594  0014                     	;# 
   595  0015                     	;# 
   596  0016                     	;# 
   597  0016                     	;# 
   598  0017                     	;# 
   599  0018                     	;# 
   600  0019                     	;# 
   601  001A                     	;# 
   602  001B                     	;# 
   603  001C                     	;# 
   604  001E                     	;# 
   605  001F                     	;# 
   606  008C                     	;# 
   607  008D                     	;# 
   608  0091                     	;# 
   609  0092                     	;# 
   610  0093                     	;# 
   611  0094                     	;# 
   612  0095                     	;# 
   613  0096                     	;# 
   614  0097                     	;# 
   615  0098                     	;# 
   616  0099                     	;# 
   617  009A                     	;# 
   618  009B                     	;# 
   619  009B                     	;# 
   620  009C                     	;# 
   621  009D                     	;# 
   622  009E                     	;# 
   623  010C                     	;# 
   624  010D                     	;# 
   625  0111                     	;# 
   626  0112                     	;# 
   627  0113                     	;# 
   628  0114                     	;# 
   629  0115                     	;# 
   630  0116                     	;# 
   631  0117                     	;# 
   632  0118                     	;# 
   633  0119                     	;# 
   634  011A                     	;# 
   635  011B                     	;# 
   636  011D                     	;# 
   637  011E                     	;# 
   638  018C                     	;# 
   639  018D                     	;# 
   640  0191                     	;# 
   641  0191                     	;# 
   642  0192                     	;# 
   643  0193                     	;# 
   644  0193                     	;# 
   645  0193                     	;# 
   646  0194                     	;# 
   647  0195                     	;# 
   648  0196                     	;# 
   649  0199                     	;# 
   650  019A                     	;# 
   651  019B                     	;# 
   652  019B                     	;# 
   653  019B                     	;# 
   654  019B                     	;# 
   655  019C                     	;# 
   656  019C                     	;# 
   657  019D                     	;# 
   658  019E                     	;# 
   659  019F                     	;# 
   660  020C                     	;# 
   661  020D                     	;# 
   662  0211                     	;# 
   663  0211                     	;# 
   664  0212                     	;# 
   665  0212                     	;# 
   666  0213                     	;# 
   667  0213                     	;# 
   668  0214                     	;# 
   669  0214                     	;# 
   670  0215                     	;# 
   671  0215                     	;# 
   672  0215                     	;# 
   673  0216                     	;# 
   674  0216                     	;# 
   675  0217                     	;# 
   676  0217                     	;# 
   677  0219                     	;# 
   678  021A                     	;# 
   679  021B                     	;# 
   680  021C                     	;# 
   681  021D                     	;# 
   682  021E                     	;# 
   683  021F                     	;# 
   684  0291                     	;# 
   685  0291                     	;# 
   686  0292                     	;# 
   687  0293                     	;# 
   688  0294                     	;# 
   689  0295                     	;# 
   690  0295                     	;# 
   691  0296                     	;# 
   692  0298                     	;# 
   693  0298                     	;# 
   694  0299                     	;# 
   695  029A                     	;# 
   696  029B                     	;# 
   697  029C                     	;# 
   698  029C                     	;# 
   699  029D                     	;# 
   700  029E                     	;# 
   701  029E                     	;# 
   702  0311                     	;# 
   703  0311                     	;# 
   704  0312                     	;# 
   705  0313                     	;# 
   706  0318                     	;# 
   707  0318                     	;# 
   708  0319                     	;# 
   709  031A                     	;# 
   710  0394                     	;# 
   711  0395                     	;# 
   712  0396                     	;# 
   713  039A                     	;# 
   714  039C                     	;# 
   715  039D                     	;# 
   716  039E                     	;# 
   717  039F                     	;# 
   718  0415                     	;# 
   719  0416                     	;# 
   720  0417                     	;# 
   721  041C                     	;# 
   722  041D                     	;# 
   723  041E                     	;# 
   724  0FE4                     	;# 
   725  0FE5                     	;# 
   726  0FE6                     	;# 
   727  0FE7                     	;# 
   728  0FE8                     	;# 
   729  0FE9                     	;# 
   730  0FEA                     	;# 
   731  0FEB                     	;# 
   732  0FED                     	;# 
   733  0FEE                     	;# 
   734  0FEF                     	;# 
   735  0000                     	;# 
   736  0001                     	;# 
   737  0002                     	;# 
   738  0003                     	;# 
   739  0004                     	;# 
   740  0005                     	;# 
   741  0006                     	;# 
   742  0007                     	;# 
   743  0008                     	;# 
   744  0009                     	;# 
   745  000A                     	;# 
   746  000B                     	;# 
   747  000C                     	;# 
   748  000D                     	;# 
   749  0011                     	;# 
   750  0012                     	;# 
   751  0013                     	;# 
   752  0014                     	;# 
   753  0015                     	;# 
   754  0016                     	;# 
   755  0016                     	;# 
   756  0017                     	;# 
   757  0018                     	;# 
   758  0019                     	;# 
   759  001A                     	;# 
   760  001B                     	;# 
   761  001C                     	;# 
   762  001E                     	;# 
   763  001F                     	;# 
   764  008C                     	;# 
   765  008D                     	;# 
   766  0091                     	;# 
   767  0092                     	;# 
   768  0093                     	;# 
   769  0094                     	;# 
   770  0095                     	;# 
   771  0096                     	;# 
   772  0097                     	;# 
   773  0098                     	;# 
   774  0099                     	;# 
   775  009A                     	;# 
   776  009B                     	;# 
   777  009B                     	;# 
   778  009C                     	;# 
   779  009D                     	;# 
   780  009E                     	;# 
   781  010C                     	;# 
   782  010D                     	;# 
   783  0111                     	;# 
   784  0112                     	;# 
   785  0113                     	;# 
   786  0114                     	;# 
   787  0115                     	;# 
   788  0116                     	;# 
   789  0117                     	;# 
   790  0118                     	;# 
   791  0119                     	;# 
   792  011A                     	;# 
   793  011B                     	;# 
   794  011D                     	;# 
   795  011E                     	;# 
   796  018C                     	;# 
   797  018D                     	;# 
   798  0191                     	;# 
   799  0191                     	;# 
   800  0192                     	;# 
   801  0193                     	;# 
   802  0193                     	;# 
   803  0193                     	;# 
   804  0194                     	;# 
   805  0195                     	;# 
   806  0196                     	;# 
   807  0199                     	;# 
   808  019A                     	;# 
   809  019B                     	;# 
   810  019B                     	;# 
   811  019B                     	;# 
   812  019B                     	;# 
   813  019C                     	;# 
   814  019C                     	;# 
   815  019D                     	;# 
   816  019E                     	;# 
   817  019F                     	;# 
   818  020C                     	;# 
   819  020D                     	;# 
   820  0211                     	;# 
   821  0211                     	;# 
   822  0212                     	;# 
   823  0212                     	;# 
   824  0213                     	;# 
   825  0213                     	;# 
   826  0214                     	;# 
   827  0214                     	;# 
   828  0215                     	;# 
   829  0215                     	;# 
   830  0215                     	;# 
   831  0216                     	;# 
   832  0216                     	;# 
   833  0217                     	;# 
   834  0217                     	;# 
   835  0219                     	;# 
   836  021A                     	;# 
   837  021B                     	;# 
   838  021C                     	;# 
   839  021D                     	;# 
   840  021E                     	;# 
   841  021F                     	;# 
   842  0291                     	;# 
   843  0291                     	;# 
   844  0292                     	;# 
   845  0293                     	;# 
   846  0294                     	;# 
   847  0295                     	;# 
   848  0295                     	;# 
   849  0296                     	;# 
   850  0298                     	;# 
   851  0298                     	;# 
   852  0299                     	;# 
   853  029A                     	;# 
   854  029B                     	;# 
   855  029C                     	;# 
   856  029C                     	;# 
   857  029D                     	;# 
   858  029E                     	;# 
   859  029E                     	;# 
   860  0311                     	;# 
   861  0311                     	;# 
   862  0312                     	;# 
   863  0313                     	;# 
   864  0318                     	;# 
   865  0318                     	;# 
   866  0319                     	;# 
   867  031A                     	;# 
   868  0394                     	;# 
   869  0395                     	;# 
   870  0396                     	;# 
   871  039A                     	;# 
   872  039C                     	;# 
   873  039D                     	;# 
   874  039E                     	;# 
   875  039F                     	;# 
   876  0415                     	;# 
   877  0416                     	;# 
   878  0417                     	;# 
   879  041C                     	;# 
   880  041D                     	;# 
   881  041E                     	;# 
   882  0FE4                     	;# 
   883  0FE5                     	;# 
   884  0FE6                     	;# 
   885  0FE7                     	;# 
   886  0FE8                     	;# 
   887  0FE9                     	;# 
   888  0FEA                     	;# 
   889  0FEB                     	;# 
   890  0FED                     	;# 
   891  0FEE                     	;# 
   892  0FEF                     	;# 
   893  0000                     	;# 
   894  0001                     	;# 
   895  0002                     	;# 
   896  0003                     	;# 
   897  0004                     	;# 
   898  0005                     	;# 
   899  0006                     	;# 
   900  0007                     	;# 
   901  0008                     	;# 
   902  0009                     	;# 
   903  000A                     	;# 
   904  000B                     	;# 
   905  000C                     	;# 
   906  000D                     	;# 
   907  0011                     	;# 
   908  0012                     	;# 
   909  0013                     	;# 
   910  0014                     	;# 
   911  0015                     	;# 
   912  0016                     	;# 
   913  0016                     	;# 
   914  0017                     	;# 
   915  0018                     	;# 
   916  0019                     	;# 
   917  001A                     	;# 
   918  001B                     	;# 
   919  001C                     	;# 
   920  001E                     	;# 
   921  001F                     	;# 
   922  008C                     	;# 
   923  008D                     	;# 
   924  0091                     	;# 
   925  0092                     	;# 
   926  0093                     	;# 
   927  0094                     	;# 
   928  0095                     	;# 
   929  0096                     	;# 
   930  0097                     	;# 
   931  0098                     	;# 
   932  0099                     	;# 
   933  009A                     	;# 
   934  009B                     	;# 
   935  009B                     	;# 
   936  009C                     	;# 
   937  009D                     	;# 
   938  009E                     	;# 
   939  010C                     	;# 
   940  010D                     	;# 
   941  0111                     	;# 
   942  0112                     	;# 
   943  0113                     	;# 
   944  0114                     	;# 
   945  0115                     	;# 
   946  0116                     	;# 
   947  0117                     	;# 
   948  0118                     	;# 
   949  0119                     	;# 
   950  011A                     	;# 
   951  011B                     	;# 
   952  011D                     	;# 
   953  011E                     	;# 
   954  018C                     	;# 
   955  018D                     	;# 
   956  0191                     	;# 
   957  0191                     	;# 
   958  0192                     	;# 
   959  0193                     	;# 
   960  0193                     	;# 
   961  0193                     	;# 
   962  0194                     	;# 
   963  0195                     	;# 
   964  0196                     	;# 
   965  0199                     	;# 
   966  019A                     	;# 
   967  019B                     	;# 
   968  019B                     	;# 
   969  019B                     	;# 
   970  019B                     	;# 
   971  019C                     	;# 
   972  019C                     	;# 
   973  019D                     	;# 
   974  019E                     	;# 
   975  019F                     	;# 
   976  020C                     	;# 
   977  020D                     	;# 
   978  0211                     	;# 
   979  0211                     	;# 
   980  0212                     	;# 
   981  0212                     	;# 
   982  0213                     	;# 
   983  0213                     	;# 
   984  0214                     	;# 
   985  0214                     	;# 
   986  0215                     	;# 
   987  0215                     	;# 
   988  0215                     	;# 
   989  0216                     	;# 
   990  0216                     	;# 
   991  0217                     	;# 
   992  0217                     	;# 
   993  0219                     	;# 
   994  021A                     	;# 
   995  021B                     	;# 
   996  021C                     	;# 
   997  021D                     	;# 
   998  021E                     	;# 
   999  021F                     	;# 
  1000  0291                     	;# 
  1001  0291                     	;# 
  1002  0292                     	;# 
  1003  0293                     	;# 
  1004  0294                     	;# 
  1005  0295                     	;# 
  1006  0295                     	;# 
  1007  0296                     	;# 
  1008  0298                     	;# 
  1009  0298                     	;# 
  1010  0299                     	;# 
  1011  029A                     	;# 
  1012  029B                     	;# 
  1013  029C                     	;# 
  1014  029C                     	;# 
  1015  029D                     	;# 
  1016  029E                     	;# 
  1017  029E                     	;# 
  1018  0311                     	;# 
  1019  0311                     	;# 
  1020  0312                     	;# 
  1021  0313                     	;# 
  1022  0318                     	;# 
  1023  0318                     	;# 
  1024  0319                     	;# 
  1025  031A                     	;# 
  1026  0394                     	;# 
  1027  0395                     	;# 
  1028  0396                     	;# 
  1029  039A                     	;# 
  1030  039C                     	;# 
  1031  039D                     	;# 
  1032  039E                     	;# 
  1033  039F                     	;# 
  1034  0415                     	;# 
  1035  0416                     	;# 
  1036  0417                     	;# 
  1037  041C                     	;# 
  1038  041D                     	;# 
  1039  041E                     	;# 
  1040  0FE4                     	;# 
  1041  0FE5                     	;# 
  1042  0FE6                     	;# 
  1043  0FE7                     	;# 
  1044  0FE8                     	;# 
  1045  0FE9                     	;# 
  1046  0FEA                     	;# 
  1047  0FEB                     	;# 
  1048  0FED                     	;# 
  1049  0FEE                     	;# 
  1050  0FEF                     	;# 
  1051  0000                     	;# 
  1052  0001                     	;# 
  1053  0002                     	;# 
  1054  0003                     	;# 
  1055  0004                     	;# 
  1056  0005                     	;# 
  1057  0006                     	;# 
  1058  0007                     	;# 
  1059  0008                     	;# 
  1060  0009                     	;# 
  1061  000A                     	;# 
  1062  000B                     	;# 
  1063  000C                     	;# 
  1064  000D                     	;# 
  1065  0011                     	;# 
  1066  0012                     	;# 
  1067  0013                     	;# 
  1068  0014                     	;# 
  1069  0015                     	;# 
  1070  0016                     	;# 
  1071  0016                     	;# 
  1072  0017                     	;# 
  1073  0018                     	;# 
  1074  0019                     	;# 
  1075  001A                     	;# 
  1076  001B                     	;# 
  1077  001C                     	;# 
  1078  001E                     	;# 
  1079  001F                     	;# 
  1080  008C                     	;# 
  1081  008D                     	;# 
  1082  0091                     	;# 
  1083  0092                     	;# 
  1084  0093                     	;# 
  1085  0094                     	;# 
  1086  0095                     	;# 
  1087  0096                     	;# 
  1088  0097                     	;# 
  1089  0098                     	;# 
  1090  0099                     	;# 
  1091  009A                     	;# 
  1092  009B                     	;# 
  1093  009B                     	;# 
  1094  009C                     	;# 
  1095  009D                     	;# 
  1096  009E                     	;# 
  1097  010C                     	;# 
  1098  010D                     	;# 
  1099  0111                     	;# 
  1100  0112                     	;# 
  1101  0113                     	;# 
  1102  0114                     	;# 
  1103  0115                     	;# 
  1104  0116                     	;# 
  1105  0117                     	;# 
  1106  0118                     	;# 
  1107  0119                     	;# 
  1108  011A                     	;# 
  1109  011B                     	;# 
  1110  011D                     	;# 
  1111  011E                     	;# 
  1112  018C                     	;# 
  1113  018D                     	;# 
  1114  0191                     	;# 
  1115  0191                     	;# 
  1116  0192                     	;# 
  1117  0193                     	;# 
  1118  0193                     	;# 
  1119  0193                     	;# 
  1120  0194                     	;# 
  1121  0195                     	;# 
  1122  0196                     	;# 
  1123  0199                     	;# 
  1124  019A                     	;# 
  1125  019B                     	;# 
  1126  019B                     	;# 
  1127  019B                     	;# 
  1128  019B                     	;# 
  1129  019C                     	;# 
  1130  019C                     	;# 
  1131  019D                     	;# 
  1132  019E                     	;# 
  1133  019F                     	;# 
  1134  020C                     	;# 
  1135  020D                     	;# 
  1136  0211                     	;# 
  1137  0211                     	;# 
  1138  0212                     	;# 
  1139  0212                     	;# 
  1140  0213                     	;# 
  1141  0213                     	;# 
  1142  0214                     	;# 
  1143  0214                     	;# 
  1144  0215                     	;# 
  1145  0215                     	;# 
  1146  0215                     	;# 
  1147  0216                     	;# 
  1148  0216                     	;# 
  1149  0217                     	;# 
  1150  0217                     	;# 
  1151  0219                     	;# 
  1152  021A                     	;# 
  1153  021B                     	;# 
  1154  021C                     	;# 
  1155  021D                     	;# 
  1156  021E                     	;# 
  1157  021F                     	;# 
  1158  0291                     	;# 
  1159  0291                     	;# 
  1160  0292                     	;# 
  1161  0293                     	;# 
  1162  0294                     	;# 
  1163  0295                     	;# 
  1164  0295                     	;# 
  1165  0296                     	;# 
  1166  0298                     	;# 
  1167  0298                     	;# 
  1168  0299                     	;# 
  1169  029A                     	;# 
  1170  029B                     	;# 
  1171  029C                     	;# 
  1172  029C                     	;# 
  1173  029D                     	;# 
  1174  029E                     	;# 
  1175  029E                     	;# 
  1176  0311                     	;# 
  1177  0311                     	;# 
  1178  0312                     	;# 
  1179  0313                     	;# 
  1180  0318                     	;# 
  1181  0318                     	;# 
  1182  0319                     	;# 
  1183  031A                     	;# 
  1184  0394                     	;# 
  1185  0395                     	;# 
  1186  0396                     	;# 
  1187  039A                     	;# 
  1188  039C                     	;# 
  1189  039D                     	;# 
  1190  039E                     	;# 
  1191  039F                     	;# 
  1192  0415                     	;# 
  1193  0416                     	;# 
  1194  0417                     	;# 
  1195  041C                     	;# 
  1196  041D                     	;# 
  1197  041E                     	;# 
  1198  0FE4                     	;# 
  1199  0FE5                     	;# 
  1200  0FE6                     	;# 
  1201  0FE7                     	;# 
  1202  0FE8                     	;# 
  1203  0FE9                     	;# 
  1204  0FEA                     	;# 
  1205  0FEB                     	;# 
  1206  0FED                     	;# 
  1207  0FEE                     	;# 
  1208  0FEF                     	;# 
  1209  0000                     	;# 
  1210  0001                     	;# 
  1211  0002                     	;# 
  1212  0003                     	;# 
  1213  0004                     	;# 
  1214  0005                     	;# 
  1215  0006                     	;# 
  1216  0007                     	;# 
  1217  0008                     	;# 
  1218  0009                     	;# 
  1219  000A                     	;# 
  1220  000B                     	;# 
  1221  000C                     	;# 
  1222  000D                     	;# 
  1223  0011                     	;# 
  1224  0012                     	;# 
  1225  0013                     	;# 
  1226  0014                     	;# 
  1227  0015                     	;# 
  1228  0016                     	;# 
  1229  0016                     	;# 
  1230  0017                     	;# 
  1231  0018                     	;# 
  1232  0019                     	;# 
  1233  001A                     	;# 
  1234  001B                     	;# 
  1235  001C                     	;# 
  1236  001E                     	;# 
  1237  001F                     	;# 
  1238  008C                     	;# 
  1239  008D                     	;# 
  1240  0091                     	;# 
  1241  0092                     	;# 
  1242  0093                     	;# 
  1243  0094                     	;# 
  1244  0095                     	;# 
  1245  0096                     	;# 
  1246  0097                     	;# 
  1247  0098                     	;# 
  1248  0099                     	;# 
  1249  009A                     	;# 
  1250  009B                     	;# 
  1251  009B                     	;# 
  1252  009C                     	;# 
  1253  009D                     	;# 
  1254  009E                     	;# 
  1255  010C                     	;# 
  1256  010D                     	;# 
  1257  0111                     	;# 
  1258  0112                     	;# 
  1259  0113                     	;# 
  1260  0114                     	;# 
  1261  0115                     	;# 
  1262  0116                     	;# 
  1263  0117                     	;# 
  1264  0118                     	;# 
  1265  0119                     	;# 
  1266  011A                     	;# 
  1267  011B                     	;# 
  1268  011D                     	;# 
  1269  011E                     	;# 
  1270  018C                     	;# 
  1271  018D                     	;# 
  1272  0191                     	;# 
  1273  0191                     	;# 
  1274  0192                     	;# 
  1275  0193                     	;# 
  1276  0193                     	;# 
  1277  0193                     	;# 
  1278  0194                     	;# 
  1279  0195                     	;# 
  1280  0196                     	;# 
  1281  0199                     	;# 
  1282  019A                     	;# 
  1283  019B                     	;# 
  1284  019B                     	;# 
  1285  019B                     	;# 
  1286  019B                     	;# 
  1287  019C                     	;# 
  1288  019C                     	;# 
  1289  019D                     	;# 
  1290  019E                     	;# 
  1291  019F                     	;# 
  1292  020C                     	;# 
  1293  020D                     	;# 
  1294  0211                     	;# 
  1295  0211                     	;# 
  1296  0212                     	;# 
  1297  0212                     	;# 
  1298  0213                     	;# 
  1299  0213                     	;# 
  1300  0214                     	;# 
  1301  0214                     	;# 
  1302  0215                     	;# 
  1303  0215                     	;# 
  1304  0215                     	;# 
  1305  0216                     	;# 
  1306  0216                     	;# 
  1307  0217                     	;# 
  1308  0217                     	;# 
  1309  0219                     	;# 
  1310  021A                     	;# 
  1311  021B                     	;# 
  1312  021C                     	;# 
  1313  021D                     	;# 
  1314  021E                     	;# 
  1315  021F                     	;# 
  1316  0291                     	;# 
  1317  0291                     	;# 
  1318  0292                     	;# 
  1319  0293                     	;# 
  1320  0294                     	;# 
  1321  0295                     	;# 
  1322  0295                     	;# 
  1323  0296                     	;# 
  1324  0298                     	;# 
  1325  0298                     	;# 
  1326  0299                     	;# 
  1327  029A                     	;# 
  1328  029B                     	;# 
  1329  029C                     	;# 
  1330  029C                     	;# 
  1331  029D                     	;# 
  1332  029E                     	;# 
  1333  029E                     	;# 
  1334  0311                     	;# 
  1335  0311                     	;# 
  1336  0312                     	;# 
  1337  0313                     	;# 
  1338  0318                     	;# 
  1339  0318                     	;# 
  1340  0319                     	;# 
  1341  031A                     	;# 
  1342  0394                     	;# 
  1343  0395                     	;# 
  1344  0396                     	;# 
  1345  039A                     	;# 
  1346  039C                     	;# 
  1347  039D                     	;# 
  1348  039E                     	;# 
  1349  039F                     	;# 
  1350  0415                     	;# 
  1351  0416                     	;# 
  1352  0417                     	;# 
  1353  041C                     	;# 
  1354  041D                     	;# 
  1355  041E                     	;# 
  1356  0FE4                     	;# 
  1357  0FE5                     	;# 
  1358  0FE6                     	;# 
  1359  0FE7                     	;# 
  1360  0FE8                     	;# 
  1361  0FE9                     	;# 
  1362  0FEA                     	;# 
  1363  0FEB                     	;# 
  1364  0FED                     	;# 
  1365  0FEE                     	;# 
  1366  0FEF                     	;# 
  1367  0000                     	;# 
  1368  0001                     	;# 
  1369  0002                     	;# 
  1370  0003                     	;# 
  1371  0004                     	;# 
  1372  0005                     	;# 
  1373  0006                     	;# 
  1374  0007                     	;# 
  1375  0008                     	;# 
  1376  0009                     	;# 
  1377  000A                     	;# 
  1378  000B                     	;# 
  1379  000C                     	;# 
  1380  000D                     	;# 
  1381  0011                     	;# 
  1382  0012                     	;# 
  1383  0013                     	;# 
  1384  0014                     	;# 
  1385  0015                     	;# 
  1386  0016                     	;# 
  1387  0016                     	;# 
  1388  0017                     	;# 
  1389  0018                     	;# 
  1390  0019                     	;# 
  1391  001A                     	;# 
  1392  001B                     	;# 
  1393  001C                     	;# 
  1394  001E                     	;# 
  1395  001F                     	;# 
  1396  008C                     	;# 
  1397  008D                     	;# 
  1398  0091                     	;# 
  1399  0092                     	;# 
  1400  0093                     	;# 
  1401  0094                     	;# 
  1402  0095                     	;# 
  1403  0096                     	;# 
  1404  0097                     	;# 
  1405  0098                     	;# 
  1406  0099                     	;# 
  1407  009A                     	;# 
  1408  009B                     	;# 
  1409  009B                     	;# 
  1410  009C                     	;# 
  1411  009D                     	;# 
  1412  009E                     	;# 
  1413  010C                     	;# 
  1414  010D                     	;# 
  1415  0111                     	;# 
  1416  0112                     	;# 
  1417  0113                     	;# 
  1418  0114                     	;# 
  1419  0115                     	;# 
  1420  0116                     	;# 
  1421  0117                     	;# 
  1422  0118                     	;# 
  1423  0119                     	;# 
  1424  011A                     	;# 
  1425  011B                     	;# 
  1426  011D                     	;# 
  1427  011E                     	;# 
  1428  018C                     	;# 
  1429  018D                     	;# 
  1430  0191                     	;# 
  1431  0191                     	;# 
  1432  0192                     	;# 
  1433  0193                     	;# 
  1434  0193                     	;# 
  1435  0193                     	;# 
  1436  0194                     	;# 
  1437  0195                     	;# 
  1438  0196                     	;# 
  1439  0199                     	;# 
  1440  019A                     	;# 
  1441  019B                     	;# 
  1442  019B                     	;# 
  1443  019B                     	;# 
  1444  019B                     	;# 
  1445  019C                     	;# 
  1446  019C                     	;# 
  1447  019D                     	;# 
  1448  019E                     	;# 
  1449  019F                     	;# 
  1450  020C                     	;# 
  1451  020D                     	;# 
  1452  0211                     	;# 
  1453  0211                     	;# 
  1454  0212                     	;# 
  1455  0212                     	;# 
  1456  0213                     	;# 
  1457  0213                     	;# 
  1458  0214                     	;# 
  1459  0214                     	;# 
  1460  0215                     	;# 
  1461  0215                     	;# 
  1462  0215                     	;# 
  1463  0216                     	;# 
  1464  0216                     	;# 
  1465  0217                     	;# 
  1466  0217                     	;# 
  1467  0219                     	;# 
  1468  021A                     	;# 
  1469  021B                     	;# 
  1470  021C                     	;# 
  1471  021D                     	;# 
  1472  021E                     	;# 
  1473  021F                     	;# 
  1474  0291                     	;# 
  1475  0291                     	;# 
  1476  0292                     	;# 
  1477  0293                     	;# 
  1478  0294                     	;# 
  1479  0295                     	;# 
  1480  0295                     	;# 
  1481  0296                     	;# 
  1482  0298                     	;# 
  1483  0298                     	;# 
  1484  0299                     	;# 
  1485  029A                     	;# 
  1486  029B                     	;# 
  1487  029C                     	;# 
  1488  029C                     	;# 
  1489  029D                     	;# 
  1490  029E                     	;# 
  1491  029E                     	;# 
  1492  0311                     	;# 
  1493  0311                     	;# 
  1494  0312                     	;# 
  1495  0313                     	;# 
  1496  0318                     	;# 
  1497  0318                     	;# 
  1498  0319                     	;# 
  1499  031A                     	;# 
  1500  0394                     	;# 
  1501  0395                     	;# 
  1502  0396                     	;# 
  1503  039A                     	;# 
  1504  039C                     	;# 
  1505  039D                     	;# 
  1506  039E                     	;# 
  1507  039F                     	;# 
  1508  0415                     	;# 
  1509  0416                     	;# 
  1510  0417                     	;# 
  1511  041C                     	;# 
  1512  041D                     	;# 
  1513  041E                     	;# 
  1514  0FE4                     	;# 
  1515  0FE5                     	;# 
  1516  0FE6                     	;# 
  1517  0FE7                     	;# 
  1518  0FE8                     	;# 
  1519  0FE9                     	;# 
  1520  0FEA                     	;# 
  1521  0FEB                     	;# 
  1522  0FED                     	;# 
  1523  0FEE                     	;# 
  1524  0FEF                     	;# 
  1525  0000                     	;# 
  1526  0001                     	;# 
  1527  0002                     	;# 
  1528  0003                     	;# 
  1529  0004                     	;# 
  1530  0005                     	;# 
  1531  0006                     	;# 
  1532  0007                     	;# 
  1533  0008                     	;# 
  1534  0009                     	;# 
  1535  000A                     	;# 
  1536  000B                     	;# 
  1537  000C                     	;# 
  1538  000D                     	;# 
  1539  0011                     	;# 
  1540  0012                     	;# 
  1541  0013                     	;# 
  1542  0014                     	;# 
  1543  0015                     	;# 
  1544  0016                     	;# 
  1545  0016                     	;# 
  1546  0017                     	;# 
  1547  0018                     	;# 
  1548  0019                     	;# 
  1549  001A                     	;# 
  1550  001B                     	;# 
  1551  001C                     	;# 
  1552  001E                     	;# 
  1553  001F                     	;# 
  1554  008C                     	;# 
  1555  008D                     	;# 
  1556  0091                     	;# 
  1557  0092                     	;# 
  1558  0093                     	;# 
  1559  0094                     	;# 
  1560  0095                     	;# 
  1561  0096                     	;# 
  1562  0097                     	;# 
  1563  0098                     	;# 
  1564  0099                     	;# 
  1565  009A                     	;# 
  1566  009B                     	;# 
  1567  009B                     	;# 
  1568  009C                     	;# 
  1569  009D                     	;# 
  1570  009E                     	;# 
  1571  010C                     	;# 
  1572  010D                     	;# 
  1573  0111                     	;# 
  1574  0112                     	;# 
  1575  0113                     	;# 
  1576  0114                     	;# 
  1577  0115                     	;# 
  1578  0116                     	;# 
  1579  0117                     	;# 
  1580  0118                     	;# 
  1581  0119                     	;# 
  1582  011A                     	;# 
  1583  011B                     	;# 
  1584  011D                     	;# 
  1585  011E                     	;# 
  1586  018C                     	;# 
  1587  018D                     	;# 
  1588  0191                     	;# 
  1589  0191                     	;# 
  1590  0192                     	;# 
  1591  0193                     	;# 
  1592  0193                     	;# 
  1593  0193                     	;# 
  1594  0194                     	;# 
  1595  0195                     	;# 
  1596  0196                     	;# 
  1597  0199                     	;# 
  1598  019A                     	;# 
  1599  019B                     	;# 
  1600  019B                     	;# 
  1601  019B                     	;# 
  1602  019B                     	;# 
  1603  019C                     	;# 
  1604  019C                     	;# 
  1605  019D                     	;# 
  1606  019E                     	;# 
  1607  019F                     	;# 
  1608  020C                     	;# 
  1609  020D                     	;# 
  1610  0211                     	;# 
  1611  0211                     	;# 
  1612  0212                     	;# 
  1613  0212                     	;# 
  1614  0213                     	;# 
  1615  0213                     	;# 
  1616  0214                     	;# 
  1617  0214                     	;# 
  1618  0215                     	;# 
  1619  0215                     	;# 
  1620  0215                     	;# 
  1621  0216                     	;# 
  1622  0216                     	;# 
  1623  0217                     	;# 
  1624  0217                     	;# 
  1625  0219                     	;# 
  1626  021A                     	;# 
  1627  021B                     	;# 
  1628  021C                     	;# 
  1629  021D                     	;# 
  1630  021E                     	;# 
  1631  021F                     	;# 
  1632  0291                     	;# 
  1633  0291                     	;# 
  1634  0292                     	;# 
  1635  0293                     	;# 
  1636  0294                     	;# 
  1637  0295                     	;# 
  1638  0295                     	;# 
  1639  0296                     	;# 
  1640  0298                     	;# 
  1641  0298                     	;# 
  1642  0299                     	;# 
  1643  029A                     	;# 
  1644  029B                     	;# 
  1645  029C                     	;# 
  1646  029C                     	;# 
  1647  029D                     	;# 
  1648  029E                     	;# 
  1649  029E                     	;# 
  1650  0311                     	;# 
  1651  0311                     	;# 
  1652  0312                     	;# 
  1653  0313                     	;# 
  1654  0318                     	;# 
  1655  0318                     	;# 
  1656  0319                     	;# 
  1657  031A                     	;# 
  1658  0394                     	;# 
  1659  0395                     	;# 
  1660  0396                     	;# 
  1661  039A                     	;# 
  1662  039C                     	;# 
  1663  039D                     	;# 
  1664  039E                     	;# 
  1665  039F                     	;# 
  1666  0415                     	;# 
  1667  0416                     	;# 
  1668  0417                     	;# 
  1669  041C                     	;# 
  1670  041D                     	;# 
  1671  041E                     	;# 
  1672  0FE4                     	;# 
  1673  0FE5                     	;# 
  1674  0FE6                     	;# 
  1675  0FE7                     	;# 
  1676  0FE8                     	;# 
  1677  0FE9                     	;# 
  1678  0FEA                     	;# 
  1679  0FEB                     	;# 
  1680  0FED                     	;# 
  1681  0FEE                     	;# 
  1682  0FEF                     	;# 
  1683  0000                     	;# 
  1684  0001                     	;# 
  1685  0002                     	;# 
  1686  0003                     	;# 
  1687  0004                     	;# 
  1688  0005                     	;# 
  1689  0006                     	;# 
  1690  0007                     	;# 
  1691  0008                     	;# 
  1692  0009                     	;# 
  1693  000A                     	;# 
  1694  000B                     	;# 
  1695  000C                     	;# 
  1696  000D                     	;# 
  1697  0011                     	;# 
  1698  0012                     	;# 
  1699  0013                     	;# 
  1700  0014                     	;# 
  1701  0015                     	;# 
  1702  0016                     	;# 
  1703  0016                     	;# 
  1704  0017                     	;# 
  1705  0018                     	;# 
  1706  0019                     	;# 
  1707  001A                     	;# 
  1708  001B                     	;# 
  1709  001C                     	;# 
  1710  001E                     	;# 
  1711  001F                     	;# 
  1712  008C                     	;# 
  1713  008D                     	;# 
  1714  0091                     	;# 
  1715  0092                     	;# 
  1716  0093                     	;# 
  1717  0094                     	;# 
  1718  0095                     	;# 
  1719  0096                     	;# 
  1720  0097                     	;# 
  1721  0098                     	;# 
  1722  0099                     	;# 
  1723  009A                     	;# 
  1724  009B                     	;# 
  1725  009B                     	;# 
  1726  009C                     	;# 
  1727  009D                     	;# 
  1728  009E                     	;# 
  1729  010C                     	;# 
  1730  010D                     	;# 
  1731  0111                     	;# 
  1732  0112                     	;# 
  1733  0113                     	;# 
  1734  0114                     	;# 
  1735  0115                     	;# 
  1736  0116                     	;# 
  1737  0117                     	;# 
  1738  0118                     	;# 
  1739  0119                     	;# 
  1740  011A                     	;# 
  1741  011B                     	;# 
  1742  011D                     	;# 
  1743  011E                     	;# 
  1744  018C                     	;# 
  1745  018D                     	;# 
  1746  0191                     	;# 
  1747  0191                     	;# 
  1748  0192                     	;# 
  1749  0193                     	;# 
  1750  0193                     	;# 
  1751  0193                     	;# 
  1752  0194                     	;# 
  1753  0195                     	;# 
  1754  0196                     	;# 
  1755  0199                     	;# 
  1756  019A                     	;# 
  1757  019B                     	;# 
  1758  019B                     	;# 
  1759  019B                     	;# 
  1760  019B                     	;# 
  1761  019C                     	;# 
  1762  019C                     	;# 
  1763  019D                     	;# 
  1764  019E                     	;# 
  1765  019F                     	;# 
  1766  020C                     	;# 
  1767  020D                     	;# 
  1768  0211                     	;# 
  1769  0211                     	;# 
  1770  0212                     	;# 
  1771  0212                     	;# 
  1772  0213                     	;# 
  1773  0213                     	;# 
  1774  0214                     	;# 
  1775  0214                     	;# 
  1776  0215                     	;# 
  1777  0215                     	;# 
  1778  0215                     	;# 
  1779  0216                     	;# 
  1780  0216                     	;# 
  1781  0217                     	;# 
  1782  0217                     	;# 
  1783  0219                     	;# 
  1784  021A                     	;# 
  1785  021B                     	;# 
  1786  021C                     	;# 
  1787  021D                     	;# 
  1788  021E                     	;# 
  1789  021F                     	;# 
  1790  0291                     	;# 
  1791  0291                     	;# 
  1792  0292                     	;# 
  1793  0293                     	;# 
  1794  0294                     	;# 
  1795  0295                     	;# 
  1796  0295                     	;# 
  1797  0296                     	;# 
  1798  0298                     	;# 
  1799  0298                     	;# 
  1800  0299                     	;# 
  1801  029A                     	;# 
  1802  029B                     	;# 
  1803  029C                     	;# 
  1804  029C                     	;# 
  1805  029D                     	;# 
  1806  029E                     	;# 
  1807  029E                     	;# 
  1808  0311                     	;# 
  1809  0311                     	;# 
  1810  0312                     	;# 
  1811  0313                     	;# 
  1812  0318                     	;# 
  1813  0318                     	;# 
  1814  0319                     	;# 
  1815  031A                     	;# 
  1816  0394                     	;# 
  1817  0395                     	;# 
  1818  0396                     	;# 
  1819  039A                     	;# 
  1820  039C                     	;# 
  1821  039D                     	;# 
  1822  039E                     	;# 
  1823  039F                     	;# 
  1824  0415                     	;# 
  1825  0416                     	;# 
  1826  0417                     	;# 
  1827  041C                     	;# 
  1828  041D                     	;# 
  1829  041E                     	;# 
  1830  0FE4                     	;# 
  1831  0FE5                     	;# 
  1832  0FE6                     	;# 
  1833  0FE7                     	;# 
  1834  0FE8                     	;# 
  1835  0FE9                     	;# 
  1836  0FEA                     	;# 
  1837  0FEB                     	;# 
  1838  0FED                     	;# 
  1839  0FEE                     	;# 
  1840  0FEF                     	;# 
  1841  0000                     	;# 
  1842  0001                     	;# 
  1843  0002                     	;# 
  1844  0003                     	;# 
  1845  0004                     	;# 
  1846  0005                     	;# 
  1847  0006                     	;# 
  1848  0007                     	;# 
  1849  0008                     	;# 
  1850  0009                     	;# 
  1851  000A                     	;# 
  1852  000B                     	;# 
  1853  000C                     	;# 
  1854  000D                     	;# 
  1855  0011                     	;# 
  1856  0012                     	;# 
  1857  0013                     	;# 
  1858  0014                     	;# 
  1859  0015                     	;# 
  1860  0016                     	;# 
  1861  0016                     	;# 
  1862  0017                     	;# 
  1863  0018                     	;# 
  1864  0019                     	;# 
  1865  001A                     	;# 
  1866  001B                     	;# 
  1867  001C                     	;# 
  1868  001E                     	;# 
  1869  001F                     	;# 
  1870  008C                     	;# 
  1871  008D                     	;# 
  1872  0091                     	;# 
  1873  0092                     	;# 
  1874  0093                     	;# 
  1875  0094                     	;# 
  1876  0095                     	;# 
  1877  0096                     	;# 
  1878  0097                     	;# 
  1879  0098                     	;# 
  1880  0099                     	;# 
  1881  009A                     	;# 
  1882  009B                     	;# 
  1883  009B                     	;# 
  1884  009C                     	;# 
  1885  009D                     	;# 
  1886  009E                     	;# 
  1887  010C                     	;# 
  1888  010D                     	;# 
  1889  0111                     	;# 
  1890  0112                     	;# 
  1891  0113                     	;# 
  1892  0114                     	;# 
  1893  0115                     	;# 
  1894  0116                     	;# 
  1895  0117                     	;# 
  1896  0118                     	;# 
  1897  0119                     	;# 
  1898  011A                     	;# 
  1899  011B                     	;# 
  1900  011D                     	;# 
  1901  011E                     	;# 
  1902  018C                     	;# 
  1903  018D                     	;# 
  1904  0191                     	;# 
  1905  0191                     	;# 
  1906  0192                     	;# 
  1907  0193                     	;# 
  1908  0193                     	;# 
  1909  0193                     	;# 
  1910  0194                     	;# 
  1911  0195                     	;# 
  1912  0196                     	;# 
  1913  0199                     	;# 
  1914  019A                     	;# 
  1915  019B                     	;# 
  1916  019B                     	;# 
  1917  019B                     	;# 
  1918  019B                     	;# 
  1919  019C                     	;# 
  1920  019C                     	;# 
  1921  019D                     	;# 
  1922  019E                     	;# 
  1923  019F                     	;# 
  1924  020C                     	;# 
  1925  020D                     	;# 
  1926  0211                     	;# 
  1927  0211                     	;# 
  1928  0212                     	;# 
  1929  0212                     	;# 
  1930  0213                     	;# 
  1931  0213                     	;# 
  1932  0214                     	;# 
  1933  0214                     	;# 
  1934  0215                     	;# 
  1935  0215                     	;# 
  1936  0215                     	;# 
  1937  0216                     	;# 
  1938  0216                     	;# 
  1939  0217                     	;# 
  1940  0217                     	;# 
  1941  0219                     	;# 
  1942  021A                     	;# 
  1943  021B                     	;# 
  1944  021C                     	;# 
  1945  021D                     	;# 
  1946  021E                     	;# 
  1947  021F                     	;# 
  1948  0291                     	;# 
  1949  0291                     	;# 
  1950  0292                     	;# 
  1951  0293                     	;# 
  1952  0294                     	;# 
  1953  0295                     	;# 
  1954  0295                     	;# 
  1955  0296                     	;# 
  1956  0298                     	;# 
  1957  0298                     	;# 
  1958  0299                     	;# 
  1959  029A                     	;# 
  1960  029B                     	;# 
  1961  029C                     	;# 
  1962  029C                     	;# 
  1963  029D                     	;# 
  1964  029E                     	;# 
  1965  029E                     	;# 
  1966  0311                     	;# 
  1967  0311                     	;# 
  1968  0312                     	;# 
  1969  0313                     	;# 
  1970  0318                     	;# 
  1971  0318                     	;# 
  1972  0319                     	;# 
  1973  031A                     	;# 
  1974  0394                     	;# 
  1975  0395                     	;# 
  1976  0396                     	;# 
  1977  039A                     	;# 
  1978  039C                     	;# 
  1979  039D                     	;# 
  1980  039E                     	;# 
  1981  039F                     	;# 
  1982  0415                     	;# 
  1983  0416                     	;# 
  1984  0417                     	;# 
  1985  041C                     	;# 
  1986  041D                     	;# 
  1987  041E                     	;# 
  1988  0FE4                     	;# 
  1989  0FE5                     	;# 
  1990  0FE6                     	;# 
  1991  0FE7                     	;# 
  1992  0FE8                     	;# 
  1993  0FE9                     	;# 
  1994  0FEA                     	;# 
  1995  0FEB                     	;# 
  1996  0FED                     	;# 
  1997  0FEE                     	;# 
  1998  0FEF                     	;# 
  1999  0000                     	;# 
  2000  0001                     	;# 
  2001  0002                     	;# 
  2002  0003                     	;# 
  2003  0004                     	;# 
  2004  0005                     	;# 
  2005  0006                     	;# 
  2006  0007                     	;# 
  2007  0008                     	;# 
  2008  0009                     	;# 
  2009  000A                     	;# 
  2010  000B                     	;# 
  2011  000C                     	;# 
  2012  000D                     	;# 
  2013  0011                     	;# 
  2014  0012                     	;# 
  2015  0013                     	;# 
  2016  0014                     	;# 
  2017  0015                     	;# 
  2018  0016                     	;# 
  2019  0016                     	;# 
  2020  0017                     	;# 
  2021  0018                     	;# 
  2022  0019                     	;# 
  2023  001A                     	;# 
  2024  001B                     	;# 
  2025  001C                     	;# 
  2026  001E                     	;# 
  2027  001F                     	;# 
  2028  008C                     	;# 
  2029  008D                     	;# 
  2030  0091                     	;# 
  2031  0092                     	;# 
  2032  0093                     	;# 
  2033  0094                     	;# 
  2034  0095                     	;# 
  2035  0096                     	;# 
  2036  0097                     	;# 
  2037  0098                     	;# 
  2038  0099                     	;# 
  2039  009A                     	;# 
  2040  009B                     	;# 
  2041  009B                     	;# 
  2042  009C                     	;# 
  2043  009D                     	;# 
  2044  009E                     	;# 
  2045  010C                     	;# 
  2046  010D                     	;# 
  2047  0111                     	;# 
  2048  0112                     	;# 
  2049  0113                     	;# 
  2050  0114                     	;# 
  2051  0115                     	;# 
  2052  0116                     	;# 
  2053  0117                     	;# 
  2054  0118                     	;# 
  2055  0119                     	;# 
  2056  011A                     	;# 
  2057  011B                     	;# 
  2058  011D                     	;# 
  2059  011E                     	;# 
  2060  018C                     	;# 
  2061  018D                     	;# 
  2062  0191                     	;# 
  2063  0191                     	;# 
  2064  0192                     	;# 
  2065  0193                     	;# 
  2066  0193                     	;# 
  2067  0193                     	;# 
  2068  0194                     	;# 
  2069  0195                     	;# 
  2070  0196                     	;# 
  2071  0199                     	;# 
  2072  019A                     	;# 
  2073  019B                     	;# 
  2074  019B                     	;# 
  2075  019B                     	;# 
  2076  019B                     	;# 
  2077  019C                     	;# 
  2078  019C                     	;# 
  2079  019D                     	;# 
  2080  019E                     	;# 
  2081  019F                     	;# 
  2082  020C                     	;# 
  2083  020D                     	;# 
  2084  0211                     	;# 
  2085  0211                     	;# 
  2086  0212                     	;# 
  2087  0212                     	;# 
  2088  0213                     	;# 
  2089  0213                     	;# 
  2090  0214                     	;# 
  2091  0214                     	;# 
  2092  0215                     	;# 
  2093  0215                     	;# 
  2094  0215                     	;# 
  2095  0216                     	;# 
  2096  0216                     	;# 
  2097  0217                     	;# 
  2098  0217                     	;# 
  2099  0219                     	;# 
  2100  021A                     	;# 
  2101  021B                     	;# 
  2102  021C                     	;# 
  2103  021D                     	;# 
  2104  021E                     	;# 
  2105  021F                     	;# 
  2106  0291                     	;# 
  2107  0291                     	;# 
  2108  0292                     	;# 
  2109  0293                     	;# 
  2110  0294                     	;# 
  2111  0295                     	;# 
  2112  0295                     	;# 
  2113  0296                     	;# 
  2114  0298                     	;# 
  2115  0298                     	;# 
  2116  0299                     	;# 
  2117  029A                     	;# 
  2118  029B                     	;# 
  2119  029C                     	;# 
  2120  029C                     	;# 
  2121  029D                     	;# 
  2122  029E                     	;# 
  2123  029E                     	;# 
  2124  0311                     	;# 
  2125  0311                     	;# 
  2126  0312                     	;# 
  2127  0313                     	;# 
  2128  0318                     	;# 
  2129  0318                     	;# 
  2130  0319                     	;# 
  2131  031A                     	;# 
  2132  0394                     	;# 
  2133  0395                     	;# 
  2134  0396                     	;# 
  2135  039A                     	;# 
  2136  039C                     	;# 
  2137  039D                     	;# 
  2138  039E                     	;# 
  2139  039F                     	;# 
  2140  0415                     	;# 
  2141  0416                     	;# 
  2142  0417                     	;# 
  2143  041C                     	;# 
  2144  041D                     	;# 
  2145  041E                     	;# 
  2146  0FE4                     	;# 
  2147  0FE5                     	;# 
  2148  0FE6                     	;# 
  2149  0FE7                     	;# 
  2150  0FE8                     	;# 
  2151  0FE9                     	;# 
  2152  0FEA                     	;# 
  2153  0FEB                     	;# 
  2154  0FED                     	;# 
  2155  0FEE                     	;# 
  2156  0FEF                     	;# 
  2157  0000                     	;# 
  2158  0001                     	;# 
  2159  0002                     	;# 
  2160  0003                     	;# 
  2161  0004                     	;# 
  2162  0005                     	;# 
  2163  0006                     	;# 
  2164  0007                     	;# 
  2165  0008                     	;# 
  2166  0009                     	;# 
  2167  000A                     	;# 
  2168  000B                     	;# 
  2169  000C                     	;# 
  2170  000D                     	;# 
  2171  0011                     	;# 
  2172  0012                     	;# 
  2173  0013                     	;# 
  2174  0014                     	;# 
  2175  0015                     	;# 
  2176  0016                     	;# 
  2177  0016                     	;# 
  2178  0017                     	;# 
  2179  0018                     	;# 
  2180  0019                     	;# 
  2181  001A                     	;# 
  2182  001B                     	;# 
  2183  001C                     	;# 
  2184  001E                     	;# 
  2185  001F                     	;# 
  2186  008C                     	;# 
  2187  008D                     	;# 
  2188  0091                     	;# 
  2189  0092                     	;# 
  2190  0093                     	;# 
  2191  0094                     	;# 
  2192  0095                     	;# 
  2193  0096                     	;# 
  2194  0097                     	;# 
  2195  0098                     	;# 
  2196  0099                     	;# 
  2197  009A                     	;# 
  2198  009B                     	;# 
  2199  009B                     	;# 
  2200  009C                     	;# 
  2201  009D                     	;# 
  2202  009E                     	;# 
  2203  010C                     	;# 
  2204  010D                     	;# 
  2205  0111                     	;# 
  2206  0112                     	;# 
  2207  0113                     	;# 
  2208  0114                     	;# 
  2209  0115                     	;# 
  2210  0116                     	;# 
  2211  0117                     	;# 
  2212  0118                     	;# 
  2213  0119                     	;# 
  2214  011A                     	;# 
  2215  011B                     	;# 
  2216  011D                     	;# 
  2217  011E                     	;# 
  2218  018C                     	;# 
  2219  018D                     	;# 
  2220  0191                     	;# 
  2221  0191                     	;# 
  2222  0192                     	;# 
  2223  0193                     	;# 
  2224  0193                     	;# 
  2225  0193                     	;# 
  2226  0194                     	;# 
  2227  0195                     	;# 
  2228  0196                     	;# 
  2229  0199                     	;# 
  2230  019A                     	;# 
  2231  019B                     	;# 
  2232  019B                     	;# 
  2233  019B                     	;# 
  2234  019B                     	;# 
  2235  019C                     	;# 
  2236  019C                     	;# 
  2237  019D                     	;# 
  2238  019E                     	;# 
  2239  019F                     	;# 
  2240  020C                     	;# 
  2241  020D                     	;# 
  2242  0211                     	;# 
  2243  0211                     	;# 
  2244  0212                     	;# 
  2245  0212                     	;# 
  2246  0213                     	;# 
  2247  0213                     	;# 
  2248  0214                     	;# 
  2249  0214                     	;# 
  2250  0215                     	;# 
  2251  0215                     	;# 
  2252  0215                     	;# 
  2253  0216                     	;# 
  2254  0216                     	;# 
  2255  0217                     	;# 
  2256  0217                     	;# 
  2257  0219                     	;# 
  2258  021A                     	;# 
  2259  021B                     	;# 
  2260  021C                     	;# 
  2261  021D                     	;# 
  2262  021E                     	;# 
  2263  021F                     	;# 
  2264  0291                     	;# 
  2265  0291                     	;# 
  2266  0292                     	;# 
  2267  0293                     	;# 
  2268  0294                     	;# 
  2269  0295                     	;# 
  2270  0295                     	;# 
  2271  0296                     	;# 
  2272  0298                     	;# 
  2273  0298                     	;# 
  2274  0299                     	;# 
  2275  029A                     	;# 
  2276  029B                     	;# 
  2277  029C                     	;# 
  2278  029C                     	;# 
  2279  029D                     	;# 
  2280  029E                     	;# 
  2281  029E                     	;# 
  2282  0311                     	;# 
  2283  0311                     	;# 
  2284  0312                     	;# 
  2285  0313                     	;# 
  2286  0318                     	;# 
  2287  0318                     	;# 
  2288  0319                     	;# 
  2289  031A                     	;# 
  2290  0394                     	;# 
  2291  0395                     	;# 
  2292  0396                     	;# 
  2293  039A                     	;# 
  2294  039C                     	;# 
  2295  039D                     	;# 
  2296  039E                     	;# 
  2297  039F                     	;# 
  2298  0415                     	;# 
  2299  0416                     	;# 
  2300  0417                     	;# 
  2301  041C                     	;# 
  2302  041D                     	;# 
  2303  041E                     	;# 
  2304  0FE4                     	;# 
  2305  0FE5                     	;# 
  2306  0FE6                     	;# 
  2307  0FE7                     	;# 
  2308  0FE8                     	;# 
  2309  0FE9                     	;# 
  2310  0FEA                     	;# 
  2311  0FEB                     	;# 
  2312  0FED                     	;# 
  2313  0FEE                     	;# 
  2314  0FEF                     	;# 
  2315  0000                     	;# 
  2316  0001                     	;# 
  2317  0002                     	;# 
  2318  0003                     	;# 
  2319  0004                     	;# 
  2320  0005                     	;# 
  2321  0006                     	;# 
  2322  0007                     	;# 
  2323  0008                     	;# 
  2324  0009                     	;# 
  2325  000A                     	;# 
  2326  000B                     	;# 
  2327  000C                     	;# 
  2328  000D                     	;# 
  2329  0011                     	;# 
  2330  0012                     	;# 
  2331  0013                     	;# 
  2332  0014                     	;# 
  2333  0015                     	;# 
  2334  0016                     	;# 
  2335  0016                     	;# 
  2336  0017                     	;# 
  2337  0018                     	;# 
  2338  0019                     	;# 
  2339  001A                     	;# 
  2340  001B                     	;# 
  2341  001C                     	;# 
  2342  001E                     	;# 
  2343  001F                     	;# 
  2344  008C                     	;# 
  2345  008D                     	;# 
  2346  0091                     	;# 
  2347  0092                     	;# 
  2348  0093                     	;# 
  2349  0094                     	;# 
  2350  0095                     	;# 
  2351  0096                     	;# 
  2352  0097                     	;# 
  2353  0098                     	;# 
  2354  0099                     	;# 
  2355  009A                     	;# 
  2356  009B                     	;# 
  2357  009B                     	;# 
  2358  009C                     	;# 
  2359  009D                     	;# 
  2360  009E                     	;# 
  2361  010C                     	;# 
  2362  010D                     	;# 
  2363  0111                     	;# 
  2364  0112                     	;# 
  2365  0113                     	;# 
  2366  0114                     	;# 
  2367  0115                     	;# 
  2368  0116                     	;# 
  2369  0117                     	;# 
  2370  0118                     	;# 
  2371  0119                     	;# 
  2372  011A                     	;# 
  2373  011B                     	;# 
  2374  011D                     	;# 
  2375  011E                     	;# 
  2376  018C                     	;# 
  2377  018D                     	;# 
  2378  0191                     	;# 
  2379  0191                     	;# 
  2380  0192                     	;# 
  2381  0193                     	;# 
  2382  0193                     	;# 
  2383  0193                     	;# 
  2384  0194                     	;# 
  2385  0195                     	;# 
  2386  0196                     	;# 
  2387  0199                     	;# 
  2388  019A                     	;# 
  2389  019B                     	;# 
  2390  019B                     	;# 
  2391  019B                     	;# 
  2392  019B                     	;# 
  2393  019C                     	;# 
  2394  019C                     	;# 
  2395  019D                     	;# 
  2396  019E                     	;# 
  2397  019F                     	;# 
  2398  020C                     	;# 
  2399  020D                     	;# 
  2400  0211                     	;# 
  2401  0211                     	;# 
  2402  0212                     	;# 
  2403  0212                     	;# 
  2404  0213                     	;# 
  2405  0213                     	;# 
  2406  0214                     	;# 
  2407  0214                     	;# 
  2408  0215                     	;# 
  2409  0215                     	;# 
  2410  0215                     	;# 
  2411  0216                     	;# 
  2412  0216                     	;# 
  2413  0217                     	;# 
  2414  0217                     	;# 
  2415  0219                     	;# 
  2416  021A                     	;# 
  2417  021B                     	;# 
  2418  021C                     	;# 
  2419  021D                     	;# 
  2420  021E                     	;# 
  2421  021F                     	;# 
  2422  0291                     	;# 
  2423  0291                     	;# 
  2424  0292                     	;# 
  2425  0293                     	;# 
  2426  0294                     	;# 
  2427  0295                     	;# 
  2428  0295                     	;# 
  2429  0296                     	;# 
  2430  0298                     	;# 
  2431  0298                     	;# 
  2432  0299                     	;# 
  2433  029A                     	;# 
  2434  029B                     	;# 
  2435  029C                     	;# 
  2436  029C                     	;# 
  2437  029D                     	;# 
  2438  029E                     	;# 
  2439  029E                     	;# 
  2440  0311                     	;# 
  2441  0311                     	;# 
  2442  0312                     	;# 
  2443  0313                     	;# 
  2444  0318                     	;# 
  2445  0318                     	;# 
  2446  0319                     	;# 
  2447  031A                     	;# 
  2448  0394                     	;# 
  2449  0395                     	;# 
  2450  0396                     	;# 
  2451  039A                     	;# 
  2452  039C                     	;# 
  2453  039D                     	;# 
  2454  039E                     	;# 
  2455  039F                     	;# 
  2456  0415                     	;# 
  2457  0416                     	;# 
  2458  0417                     	;# 
  2459  041C                     	;# 
  2460  041D                     	;# 
  2461  041E                     	;# 
  2462  0FE4                     	;# 
  2463  0FE5                     	;# 
  2464  0FE6                     	;# 
  2465  0FE7                     	;# 
  2466  0FE8                     	;# 
  2467  0FE9                     	;# 
  2468  0FEA                     	;# 
  2469  0FEB                     	;# 
  2470  0FED                     	;# 
  2471  0FEE                     	;# 
  2472  0FEF                     	;# 
  2473                           
  2474 ;; Function _EUSART_DefaultFramingErrorHandler is unused but had its address taken
  2475  0000                     
  2476 ;; Function _EUSART_DefaultOverrunErrorHandler is unused but had its address taken
  2477  0000                     
  2478 ;; Function _EUSART_DefaultErrorHandler is unused but had its address taken
  2479  0000                     
  2480                           	psect	idataBANK0
  2481  0554                     __pidataBANK0:
  2482                           
  2483                           ;initializer for _subindo
  2484  0554  3401               	retlw	1
  2485                           
  2486                           	psect	stringtext1
  2487  04BD                     __pstringtext1:
  2488  04BD                     _matrix_conf:
  2489  04BD  3409               	retlw	9
  2490  04BE  3400               	retlw	0
  2491  04BF  340A               	retlw	10
  2492  04C0  3400               	retlw	0
  2493  04C1  340B               	retlw	11
  2494  04C2  3407               	retlw	7
  2495  04C3  340C               	retlw	12
  2496  04C4  3401               	retlw	1
  2497  04C5  340F               	retlw	15
  2498  04C6  3401               	retlw	1
  2499  04C7  340F               	retlw	15
  2500  04C8  3400               	retlw	0
  2501  04C9                     __end_of_matrix_conf:
  2502                           
  2503                           	psect	stringtext2
  2504  0548                     __pstringtext2:
  2505  0548                     _spi1_configuration:
  2506  0548  3400               	retlw	0
  2507  0549  3440               	retlw	64
  2508  054A  3401               	retlw	1
  2509  054B  3400               	retlw	0
  2510  054C                     __end_of_spi1_configuration:
  2511                           
  2512                           	psect	nvBANK0
  2513  0042                     __pnvBANK0:
  2514  0042                     _TMR0_InterruptHandler:
  2515  0042                     	ds	2
  2516  0044                     _TMR1_InterruptHandler:
  2517  0044                     	ds	2
  2518  0046                     _timer1ReloadVal:
  2519  0046                     	ds	2
  2520  0048                     _EUSART_ErrorHandler:
  2521  0048                     	ds	2
  2522  004A                     _EUSART_OverrunErrorHandler:
  2523  004A                     	ds	2
  2524  004C                     _EUSART_FramingErrorHandler:
  2525  004C                     	ds	2
  2526  004E                     _IOCBF3_InterruptHandler:
  2527  004E                     	ds	2
  2528  0050                     _IOCBF0_InterruptHandler:
  2529  0050                     	ds	2
  2530  0015                     _TMR0	set	21
  2531  001C                     _T2CONbits	set	28
  2532  001C                     _T2CON	set	28
  2533  001A                     _TMR2	set	26
  2534  001B                     _PR2	set	27
  2535  0019                     _T1GCONbits	set	25
  2536  0018                     _T1CONbits	set	24
  2537  0018                     _T1CON	set	24
  2538  0016                     _TMR1L	set	22
  2539  0017                     _TMR1H	set	23
  2540  0019                     _T1GCON	set	25
  2541  0011                     _PIR1bits	set	17
  2542  000B                     _INTCONbits	set	11
  2543  0012                     _PIR2bits	set	18
  2544  0095                     _OPTION_REG	set	149
  2545  0091                     _PIE1bits	set	145
  2546  008D                     _TRISBbits	set	141
  2547  009D                     _ADCON0bits	set	157
  2548  009D                     _ADCON0	set	157
  2549  009C                     _ADRESH	set	156
  2550  009B                     _ADRESL	set	155
  2551  009E                     _ADCON1	set	158
  2552  0097                     _WDTCON	set	151
  2553  0098                     _OSCTUNE	set	152
  2554  0099                     _OSCCON	set	153
  2555  0095                     _OPTION_REGbits	set	149
  2556  008D                     _TRISB	set	141
  2557  008C                     _TRISA	set	140
  2558  0092                     _PIE2bits	set	146
  2559  010D                     _LATBbits	set	269
  2560  0117                     _FVRCONbits	set	279
  2561  0117                     _FVRCON	set	279
  2562  0116                     _BORCON	set	278
  2563  011E                     _APFCON1	set	286
  2564  011D                     _APFCON0	set	285
  2565  010D                     _LATB	set	269
  2566  010C                     _LATA	set	268
  2567  0112                     _CM1CON1	set	274
  2568  0111                     _CM1CON0	set	273
  2569  0115                     _CMOUTbits	set	277
  2570  0114                     _CM2CON1	set	276
  2571  0113                     _CM2CON0	set	275
  2572  019A                     _TXREG	set	410
  2573  0199                     _RCREG	set	409
  2574  019D                     _RCSTAbits	set	413
  2575  019E                     _TXSTAbits	set	414
  2576  019C                     _SPBRGH	set	412
  2577  019B                     _SPBRGL	set	411
  2578  019E                     _TXSTA	set	414
  2579  019D                     _RCSTA	set	413
  2580  019F                     _BAUDCON	set	415
  2581  018C                     _ANSELA	set	396
  2582  018D                     _ANSELB	set	397
  2583  0211                     _SSP1BUF	set	529
  2584  0216                     _SSP1CON2	set	534
  2585  0215                     _SSP1CON1bits	set	533
  2586  0212                     _SSP1ADD	set	530
  2587  0215                     _SSP1CON1	set	533
  2588  0214                     _SSP1STAT	set	532
  2589  020C                     _WPUA	set	524
  2590  020D                     _WPUB	set	525
  2591  029E                     _CCPTMRS0bits	set	670
  2592  0312                     _CCPR3H	set	786
  2593  0311                     _CCPR3L	set	785
  2594  0313                     _CCP3CON	set	787
  2595  0394                     _IOCBPbits	set	916
  2596  0395                     _IOCBNbits	set	917
  2597  0396                     _IOCBFbits	set	918
  2598                           
  2599                           	psect	cinit
  2600  004B                     start_initialization:	
  2601                           ; #config settings
  2602                           
  2603  004B                     __initialization:
  2604                           
  2605                           ; Initialize objects allocated to BANK0
  2606  004B  3185  2554  3180   	fcall	__pidataBANK0	;fetch initializer
  2607  004E  00D2               	movwf	__pdataBANK0& (0+127)
  2608                           
  2609                           ; Clear objects allocated to BANK0
  2610  004F  3020               	movlw	low __pbssBANK0
  2611  0050  0084               	movwf	4
  2612  0051  3000               	movlw	high __pbssBANK0
  2613  0052  0085               	movwf	5
  2614  0053  3011               	movlw	17
  2615  0054  3185  250C  3180   	fcall	clear_ram0
  2616  0057                     end_of_initialization:	
  2617                           ;End of C runtime variable initialization code
  2618                           
  2619  0057                     __end_of__initialization:
  2620  0057  107E               	bcf	int$flags,0	;clear compiler interrupt flag (level 1)
  2621  0058  0020               	movlb	0
  2622  0059  3183  2B9D         	ljmp	_main	;jump to C main() function
  2623                           
  2624                           	psect	bssBANK0
  2625  0020                     __pbssBANK0:
  2626  0020                     _MatrixLed:
  2627  0020                     	ds	8
  2628  0028                     TMR0_ISR@CountCallBack:
  2629  0028                     	ds	2
  2630  002A                     _ADC_InterruptHandler:
  2631  002A                     	ds	2
  2632  002C                     _timer0ReloadVal:
  2633  002C                     	ds	1
  2634  002D                     _eusartRxLastError:
  2635  002D                     	ds	1
  2636  002E                     _mov:
  2637  002E                     	ds	1
  2638  002F                     _destinoDesc:
  2639  002F                     	ds	1
  2640  0030                     _destinoSub:
  2641  0030                     	ds	1
  2642                           
  2643                           	psect	dataBANK0
  2644  0052                     __pdataBANK0:
  2645  0052                     _subindo:
  2646  0052                     	ds	1
  2647                           
  2648                           	psect	clrtext
  2649  050C                     clear_ram0:	
  2650                           ;	Called with FSR0 containing the base address, and
  2651                           ;	WREG with the size to clear
  2652                           
  2653  050C  0064               	clrwdt	;clear the watchdog before getting into this loop
  2654  050D                     clrloop0:
  2655  050D  0180               	clrf	0	;clear RAM location pointed to by FSR
  2656  050E  3101               	addfsr 0,1
  2657  050F  0B89               	decfsz	9,f	;Have we reached the end of clearing yet?
  2658  0510  2D0D               	goto	clrloop0	;have we reached the end yet?
  2659  0511  3400               	retlw	0	;all done for this memory range, return
  2660                           
  2661                           	psect	cstackCOMMON
  2662  0070                     __pcstackCOMMON:
  2663  0070                     ?_chegadaS4:
  2664  0070                     ?_chegadaS3:	
  2665                           ; 1 bytes @ 0x0
  2666                           
  2667  0070                     ?_IOCBF0_DefaultInterruptHandler:	
  2668                           ; 1 bytes @ 0x0
  2669                           
  2670  0070                     ??_IOCBF0_DefaultInterruptHandler:	
  2671                           ; 1 bytes @ 0x0
  2672                           
  2673  0070                     ?_IOCBF3_DefaultInterruptHandler:	
  2674                           ; 1 bytes @ 0x0
  2675                           
  2676  0070                     ??_IOCBF3_DefaultInterruptHandler:	
  2677                           ; 1 bytes @ 0x0
  2678                           
  2679  0070                     ?_IOCBF0_ISR:	
  2680                           ; 1 bytes @ 0x0
  2681                           
  2682  0070                     ??_IOCBF0_ISR:	
  2683                           ; 1 bytes @ 0x0
  2684                           
  2685  0070                     ?_IOCBF3_ISR:	
  2686                           ; 1 bytes @ 0x0
  2687                           
  2688  0070                     ?_SPI1_Initialize:	
  2689                           ; 1 bytes @ 0x0
  2690                           
  2691  0070                     ?_OSCILLATOR_Initialize:	
  2692                           ; 1 bytes @ 0x0
  2693                           
  2694  0070                     ?_WDT_Initialize:	
  2695                           ; 1 bytes @ 0x0
  2696                           
  2697  0070                     ?_FVR_Initialize:	
  2698                           ; 1 bytes @ 0x0
  2699                           
  2700  0070                     ?_TMR2_Initialize:	
  2701                           ; 1 bytes @ 0x0
  2702                           
  2703  0070                     ?_TMR0_Initialize:	
  2704                           ; 1 bytes @ 0x0
  2705                           
  2706  0070                     ?_ADC_Initialize:	
  2707                           ; 1 bytes @ 0x0
  2708                           
  2709  0070                     ?_TMR1_Initialize:	
  2710                           ; 1 bytes @ 0x0
  2711                           
  2712  0070                     ?_EUSART_Initialize:	
  2713                           ; 1 bytes @ 0x0
  2714                           
  2715  0070                     ?_TMR0_ISR:	
  2716                           ; 1 bytes @ 0x0
  2717                           
  2718  0070                     ??_TMR0_ISR:	
  2719                           ; 1 bytes @ 0x0
  2720                           
  2721  0070                     ?_TMR1_ISR:	
  2722                           ; 1 bytes @ 0x0
  2723                           
  2724  0070                     ?_TMR1_DefaultInterruptHandler:	
  2725                           ; 1 bytes @ 0x0
  2726                           
  2727  0070                     ??_TMR1_DefaultInterruptHandler:	
  2728                           ; 1 bytes @ 0x0
  2729                           
  2730  0070                     ?_TMR1_CallBack:	
  2731                           ; 1 bytes @ 0x0
  2732                           
  2733  0070                     ??_TMR1_CallBack:	
  2734                           ; 1 bytes @ 0x0
  2735                           
  2736  0070                     ?_TMR0_DefaultInterruptHandler:	
  2737                           ; 1 bytes @ 0x0
  2738                           
  2739  0070                     ??_TMR0_DefaultInterruptHandler:	
  2740                           ; 1 bytes @ 0x0
  2741                           
  2742  0070                     ?_TMR0_CallBack:	
  2743                           ; 1 bytes @ 0x0
  2744                           
  2745  0070                     ??_TMR0_CallBack:	
  2746                           ; 1 bytes @ 0x0
  2747                           
  2748  0070                     ?_PWM3_Initialize:	
  2749                           ; 1 bytes @ 0x0
  2750                           
  2751  0070                     ?_PWM3_LoadDutyValue:	
  2752                           ; 1 bytes @ 0x0
  2753                           
  2754  0070                     ?_CMP2_Initialize:	
  2755                           ; 1 bytes @ 0x0
  2756                           
  2757  0070                     ?_CMP2_ISR:	
  2758                           ; 1 bytes @ 0x0
  2759                           
  2760  0070                     ?_CMP1_Initialize:	
  2761                           ; 1 bytes @ 0x0
  2762                           
  2763  0070                     ?_CMP1_ISR:	
  2764                           ; 1 bytes @ 0x0
  2765                           
  2766  0070                     ?_PIN_MANAGER_Initialize:	
  2767                           ; 1 bytes @ 0x0
  2768                           
  2769  0070                     ?_PIN_MANAGER_IOC:	
  2770                           ; 1 bytes @ 0x0
  2771                           
  2772  0070                     ?_SYSTEM_Initialize:	
  2773                           ; 1 bytes @ 0x0
  2774                           
  2775  0070                     ?_SPI1_Open:	
  2776                           ; 1 bytes @ 0x0
  2777                           
  2778  0070                     ?_INTERRUPT_InterruptManager:	
  2779                           ; 1 bytes @ 0x0
  2780                           
  2781  0070                     ?_TMR1_WriteTimer:	
  2782                           ; 1 bytes @ 0x0
  2783                           
  2784  0070                     ?_matrixUpdate:	
  2785                           ; 1 bytes @ 0x0
  2786                           
  2787  0070                     ?_initMatrix:	
  2788                           ; 1 bytes @ 0x0
  2789                           
  2790  0070                     ?_controleMovimento:	
  2791                           ; 1 bytes @ 0x0
  2792                           
  2793  0070                     ?_chegadaS1:	
  2794                           ; 1 bytes @ 0x0
  2795                           
  2796  0070                     ?_chegadaS2:	
  2797                           ; 1 bytes @ 0x0
  2798                           
  2799  0070                     ?_main:	
  2800                           ; 1 bytes @ 0x0
  2801                           
  2802  0070                     ?i1_SPI1_ExchangeBlock:	
  2803                           ; 1 bytes @ 0x0
  2804                           
  2805  0070                     PWM3_LoadDutyValue@dutyValue:	
  2806                           ; 1 bytes @ 0x0
  2807                           
  2808  0070                     TMR1_WriteTimer@timerVal:	
  2809                           ; 2 bytes @ 0x0
  2810                           
  2811  0070                     i1SPI1_ExchangeBlock@blockSize:	
  2812                           ; 2 bytes @ 0x0
  2813                           
  2814                           
  2815                           ; 2 bytes @ 0x0
  2816  0070                     	ds	2
  2817  0072                     ??_TMR1_ISR:
  2818  0072                     ??_PWM3_LoadDutyValue:	
  2819                           ; 1 bytes @ 0x2
  2820                           
  2821  0072                     ??_TMR1_WriteTimer:	
  2822                           ; 1 bytes @ 0x2
  2823                           
  2824  0072                     ??i1_SPI1_ExchangeBlock:	
  2825                           ; 1 bytes @ 0x2
  2826                           
  2827                           
  2828                           ; 1 bytes @ 0x2
  2829  0072                     	ds	1
  2830  0073                     i1SPI1_ExchangeBlock@block:
  2831                           
  2832                           ; 1 bytes @ 0x3
  2833  0073                     	ds	1
  2834  0074                     ??_controleMovimento:
  2835  0074                     i1SPI1_ExchangeBlock@data:	
  2836                           ; 1 bytes @ 0x4
  2837                           
  2838                           
  2839                           ; 1 bytes @ 0x4
  2840  0074                     	ds	1
  2841  0075                     ?i1_txSpi:
  2842  0075                     i1txSpi@dataSize:	
  2843                           ; 1 bytes @ 0x5
  2844                           
  2845                           
  2846                           ; 2 bytes @ 0x5
  2847  0075                     	ds	2
  2848  0077                     ??i1_txSpi:
  2849  0077                     i1txSpi@data:	
  2850                           ; 1 bytes @ 0x7
  2851                           
  2852                           
  2853                           ; 1 bytes @ 0x7
  2854  0077                     	ds	1
  2855  0078                     ??_matrixUpdate:
  2856                           
  2857                           ; 1 bytes @ 0x8
  2858  0078                     	ds	1
  2859  0079                     matrixUpdate@data:
  2860                           
  2861                           ; 2 bytes @ 0x9
  2862  0079                     	ds	2
  2863  007B                     matrixUpdate@i:
  2864                           
  2865                           ; 1 bytes @ 0xB
  2866  007B                     	ds	1
  2867  007C                     ??_chegadaS4:
  2868  007C                     ??_chegadaS3:	
  2869                           ; 1 bytes @ 0xC
  2870                           
  2871  007C                     ??_chegadaS1:	
  2872                           ; 1 bytes @ 0xC
  2873                           
  2874  007C                     ??_chegadaS2:	
  2875                           ; 1 bytes @ 0xC
  2876                           
  2877                           
  2878                           ; 1 bytes @ 0xC
  2879  007C                     	ds	2
  2880  007E                     ??_IOCBF3_ISR:
  2881  007E                     ??_CMP2_ISR:	
  2882                           ; 1 bytes @ 0xE
  2883                           
  2884  007E                     ??_CMP1_ISR:	
  2885                           ; 1 bytes @ 0xE
  2886                           
  2887  007E                     ??_PIN_MANAGER_IOC:	
  2888                           ; 1 bytes @ 0xE
  2889                           
  2890  007E                     ??_INTERRUPT_InterruptManager:	
  2891                           ; 1 bytes @ 0xE
  2892                           
  2893                           
  2894                           	psect	cstackBANK0
  2895  0031                     __pcstackBANK0:	
  2896                           ; 1 bytes @ 0xE
  2897                           
  2898  0031                     ?_IOCBF0_SetInterruptHandler:
  2899  0031                     ?_IOCBF3_SetInterruptHandler:	
  2900                           ; 1 bytes @ 0x0
  2901                           
  2902  0031                     ??_SPI1_Initialize:	
  2903                           ; 1 bytes @ 0x0
  2904                           
  2905  0031                     ??_OSCILLATOR_Initialize:	
  2906                           ; 1 bytes @ 0x0
  2907                           
  2908  0031                     ??_WDT_Initialize:	
  2909                           ; 1 bytes @ 0x0
  2910                           
  2911  0031                     ??_FVR_Initialize:	
  2912                           ; 1 bytes @ 0x0
  2913                           
  2914  0031                     ??_TMR2_Initialize:	
  2915                           ; 1 bytes @ 0x0
  2916                           
  2917  0031                     ??_ADC_Initialize:	
  2918                           ; 1 bytes @ 0x0
  2919                           
  2920  0031                     ?_EUSART_SetFramingErrorHandler:	
  2921                           ; 1 bytes @ 0x0
  2922                           
  2923  0031                     ?_EUSART_SetOverrunErrorHandler:	
  2924                           ; 1 bytes @ 0x0
  2925                           
  2926  0031                     ?_EUSART_SetErrorHandler:	
  2927                           ; 1 bytes @ 0x0
  2928                           
  2929  0031                     ?_TMR1_SetInterruptHandler:	
  2930                           ; 1 bytes @ 0x0
  2931                           
  2932  0031                     ?_TMR0_SetInterruptHandler:	
  2933                           ; 1 bytes @ 0x0
  2934                           
  2935  0031                     ??_PWM3_Initialize:	
  2936                           ; 1 bytes @ 0x0
  2937                           
  2938  0031                     ??_CMP2_Initialize:	
  2939                           ; 1 bytes @ 0x0
  2940                           
  2941  0031                     ??_CMP1_Initialize:	
  2942                           ; 1 bytes @ 0x0
  2943                           
  2944  0031                     ??_SPI1_Open:	
  2945                           ; 1 bytes @ 0x0
  2946                           
  2947  0031                     ?_SPI1_ExchangeBlock:	
  2948                           ; 1 bytes @ 0x0
  2949                           
  2950  0031                     IOCBF0_SetInterruptHandler@InterruptHandler:	
  2951                           ; 1 bytes @ 0x0
  2952                           
  2953  0031                     IOCBF3_SetInterruptHandler@InterruptHandler:	
  2954                           ; 2 bytes @ 0x0
  2955                           
  2956  0031                     EUSART_SetFramingErrorHandler@interruptHandler:	
  2957                           ; 2 bytes @ 0x0
  2958                           
  2959  0031                     EUSART_SetOverrunErrorHandler@interruptHandler:	
  2960                           ; 2 bytes @ 0x0
  2961                           
  2962  0031                     EUSART_SetErrorHandler@interruptHandler:	
  2963                           ; 2 bytes @ 0x0
  2964                           
  2965  0031                     SPI1_ExchangeBlock@blockSize:	
  2966                           ; 2 bytes @ 0x0
  2967                           
  2968  0031                     TMR1_SetInterruptHandler@InterruptHandler:	
  2969                           ; 2 bytes @ 0x0
  2970                           
  2971  0031                     TMR0_SetInterruptHandler@InterruptHandler:	
  2972                           ; 2 bytes @ 0x0
  2973                           
  2974                           
  2975                           ; 2 bytes @ 0x0
  2976  0031                     	ds	2
  2977  0033                     ??_IOCBF0_SetInterruptHandler:
  2978  0033                     ??_IOCBF3_SetInterruptHandler:	
  2979                           ; 1 bytes @ 0x2
  2980                           
  2981  0033                     ??_TMR0_Initialize:	
  2982                           ; 1 bytes @ 0x2
  2983                           
  2984  0033                     ??_TMR1_Initialize:	
  2985                           ; 1 bytes @ 0x2
  2986                           
  2987  0033                     ??_EUSART_Initialize:	
  2988                           ; 1 bytes @ 0x2
  2989                           
  2990  0033                     ??_EUSART_SetFramingErrorHandler:	
  2991                           ; 1 bytes @ 0x2
  2992                           
  2993  0033                     ??_EUSART_SetOverrunErrorHandler:	
  2994                           ; 1 bytes @ 0x2
  2995                           
  2996  0033                     ??_EUSART_SetErrorHandler:	
  2997                           ; 1 bytes @ 0x2
  2998                           
  2999  0033                     ??_TMR1_SetInterruptHandler:	
  3000                           ; 1 bytes @ 0x2
  3001                           
  3002  0033                     ??_TMR0_SetInterruptHandler:	
  3003                           ; 1 bytes @ 0x2
  3004                           
  3005  0033                     ??_PIN_MANAGER_Initialize:	
  3006                           ; 1 bytes @ 0x2
  3007                           
  3008  0033                     ??_SYSTEM_Initialize:	
  3009                           ; 1 bytes @ 0x2
  3010                           
  3011  0033                     ??_SPI1_ExchangeBlock:	
  3012                           ; 1 bytes @ 0x2
  3013                           
  3014                           
  3015                           ; 1 bytes @ 0x2
  3016  0033                     	ds	1
  3017  0034                     SPI1_Open@spi1UniqueConfiguration:
  3018  0034                     SPI1_ExchangeBlock@block:	
  3019                           ; 1 bytes @ 0x3
  3020                           
  3021                           
  3022                           ; 1 bytes @ 0x3
  3023  0034                     	ds	1
  3024  0035                     SPI1_ExchangeBlock@data:
  3025                           
  3026                           ; 1 bytes @ 0x4
  3027  0035                     	ds	1
  3028  0036                     ?_txSpi:
  3029  0036                     txSpi@dataSize:	
  3030                           ; 1 bytes @ 0x5
  3031                           
  3032                           
  3033                           ; 2 bytes @ 0x5
  3034  0036                     	ds	2
  3035  0038                     ??_txSpi:
  3036  0038                     txSpi@data:	
  3037                           ; 1 bytes @ 0x7
  3038                           
  3039                           
  3040                           ; 1 bytes @ 0x7
  3041  0038                     	ds	1
  3042  0039                     ??_initMatrix:
  3043                           
  3044                           ; 1 bytes @ 0x8
  3045  0039                     	ds	1
  3046  003A                     initMatrix@data:
  3047                           
  3048                           ; 4 bytes @ 0x9
  3049  003A                     	ds	4
  3050  003E                     initMatrix@k:
  3051                           
  3052                           ; 1 bytes @ 0xD
  3053  003E                     	ds	1
  3054  003F                     initMatrix@i:
  3055                           
  3056                           ; 1 bytes @ 0xE
  3057  003F                     	ds	1
  3058  0040                     initMatrix@i_1322:
  3059                           
  3060                           ; 1 bytes @ 0xF
  3061  0040                     	ds	1
  3062  0041                     initMatrix@j:
  3063                           
  3064                           ; 1 bytes @ 0x10
  3065  0041                     	ds	1
  3066  0042                     ??_main:
  3067                           
  3068                           	psect	maintext
  3069  039D                     __pmaintext:	
  3070                           ; 1 bytes @ 0x11
  3071 ;;
  3072 ;;Main: autosize = 0, tempsize = 0, incstack = 0, save=0
  3073 ;;
  3074 ;; *************** function _main *****************
  3075 ;; Defined at:
  3076 ;;		line 264 in file "main.c"
  3077 ;; Parameters:    Size  Location     Type
  3078 ;;		None
  3079 ;; Auto vars:     Size  Location     Type
  3080 ;;		None
  3081 ;; Return value:  Size  Location     Type
  3082 ;;                  1    wreg      void 
  3083 ;; Registers used:
  3084 ;;		wreg, fsr0l, fsr0h, fsr1l, fsr1h, status,2, status,0, pclath, cstack
  3085 ;; Tracked objects:
  3086 ;;		On entry : B1F/0
  3087 ;;		On exit  : 0/0
  3088 ;;		Unchanged: 0/0
  3089 ;; Data sizes:     COMMON   BANK0   BANK1   BANK2   BANK3   BANK4
  3090 ;;      Params:         0       0       0       0       0       0
  3091 ;;      Locals:         0       0       0       0       0       0
  3092 ;;      Temps:          0       0       0       0       0       0
  3093 ;;      Totals:         0       0       0       0       0       0
  3094 ;;Total ram usage:        0 bytes
  3095 ;; Hardware stack levels required when called: 10
  3096 ;; This function calls:
  3097 ;;		_IOCBF3_SetInterruptHandler
  3098 ;;		_SPI1_Open
  3099 ;;		_SYSTEM_Initialize
  3100 ;;		_initMatrix
  3101 ;; This function is called by:
  3102 ;;		Startup code after reset
  3103 ;; This function uses a non-reentrant model
  3104 ;;
  3105                           
  3106  039D                     _main:	
  3107                           ;psect for function _main
  3108                           
  3109  039D                     l2512:	
  3110                           ;incstack = 0
  3111                           ; Regs used in _main: [wreg-fsr1h+status,2+status,0+pclath+cstack]
  3112                           
  3113                           
  3114                           ;main.c: 267:     SYSTEM_Initialize();
  3115  039D  3183  2350  3183   	fcall	_SYSTEM_Initialize
  3116                           
  3117                           ;main.c: 275:     IOCBF3_SetInterruptHandler(chegadaS1);
  3118  03A0  3087               	movlw	low _chegadaS1
  3119  03A1  0020               	movlb	0	; select bank0
  3120  03A2  00B1               	movwf	IOCBF3_SetInterruptHandler@InterruptHandler
  3121  03A3  3002               	movlw	high _chegadaS1
  3122  03A4  00B2               	movwf	IOCBF3_SetInterruptHandler@InterruptHandler+1
  3123  03A5  3185  251E  3183   	fcall	_IOCBF3_SetInterruptHandler
  3124                           
  3125                           ;main.c: 276:     IOCBF3_SetInterruptHandler(chegadaS2);
  3126  03A8  3031               	movlw	low _chegadaS2
  3127  03A9  0020               	movlb	0	; select bank0
  3128  03AA  00B1               	movwf	IOCBF3_SetInterruptHandler@InterruptHandler
  3129  03AB  3001               	movlw	high _chegadaS2
  3130  03AC  00B2               	movwf	IOCBF3_SetInterruptHandler@InterruptHandler+1
  3131  03AD  3185  251E  3183   	fcall	_IOCBF3_SetInterruptHandler
  3132  03B0                     l2514:
  3133  03B0  0022               	movlb	2	; select bank2
  3134  03B1  148D               	bsf	13,1	;volatile
  3135  03B2                     l2516:
  3136                           
  3137                           ;main.c: 281:     SPI1_Open(SPI1_DEFAULT);
  3138  03B2  3000               	movlw	0
  3139  03B3  3181  21EC  3183   	fcall	_SPI1_Open
  3140  03B6                     l2518:
  3141                           
  3142                           ;main.c: 282:     initMatrix();
  3143  03B6  3181  2195  3183   	fcall	_initMatrix
  3144  03B9                     l2520:
  3145                           
  3146                           ;main.c: 285:     (INTCONbits.GIE = 1);
  3147  03B9  178B               	bsf	11,7	;volatile
  3148  03BA                     l2522:
  3149                           
  3150                           ;main.c: 288:     (INTCONbits.PEIE = 1);
  3151  03BA  170B               	bsf	11,6	;volatile
  3152  03BB                     l661:	
  3153                           ;main.c: 296:     while (1)
  3154                           
  3155  03BB                     l662:	
  3156                           ;main.c: 297:     {;main.c: 299:     }
  3157                           
  3158  03BB  2BBB               	goto	l661
  3159  03BC  3180  2849         	ljmp	start
  3160  03BE                     __end_of_main:
  3161                           
  3162                           	psect	text1
  3163  0195                     __ptext1:	
  3164 ;; *************** function _initMatrix *****************
  3165 ;; Defined at:
  3166 ;;		line 82 in file "main.c"
  3167 ;; Parameters:    Size  Location     Type
  3168 ;;		None
  3169 ;; Auto vars:     Size  Location     Type
  3170 ;;  j               1   16[BANK0 ] unsigned char 
  3171 ;;  i               1   15[BANK0 ] unsigned char 
  3172 ;;  i               1   14[BANK0 ] unsigned char 
  3173 ;;  data            4    9[BANK0 ] unsigned char [4]
  3174 ;;  k               1   13[BANK0 ] unsigned char 
  3175 ;; Return value:  Size  Location     Type
  3176 ;;                  1    wreg      void 
  3177 ;; Registers used:
  3178 ;;		wreg, fsr0l, fsr0h, fsr1l, fsr1h, status,2, status,0, pclath, cstack
  3179 ;; Tracked objects:
  3180 ;;		On entry : 0/0
  3181 ;;		On exit  : 0/0
  3182 ;;		Unchanged: 0/0
  3183 ;; Data sizes:     COMMON   BANK0   BANK1   BANK2   BANK3   BANK4
  3184 ;;      Params:         0       0       0       0       0       0
  3185 ;;      Locals:         0       8       0       0       0       0
  3186 ;;      Temps:          0       1       0       0       0       0
  3187 ;;      Totals:         0       9       0       0       0       0
  3188 ;;Total ram usage:        9 bytes
  3189 ;; Hardware stack levels used: 1
  3190 ;; Hardware stack levels required when called: 9
  3191 ;; This function calls:
  3192 ;;		_txSpi
  3193 ;; This function is called by:
  3194 ;;		_main
  3195 ;; This function uses a non-reentrant model
  3196 ;;
  3197                           
  3198  0195                     _initMatrix:	
  3199                           ;psect for function _initMatrix
  3200                           
  3201  0195                     l2424:	
  3202                           ;incstack = 0
  3203                           ; Regs used in _initMatrix: [wreg-fsr1h+status,2+status,0+pclath+cstack]
  3204                           
  3205                           
  3206                           ;main.c: 83:     uint8_t data[4];;main.c: 84:     uint8_t k=0;
  3207  0195  0020               	movlb	0	; select bank0
  3208  0196  01BE               	clrf	initMatrix@k
  3209                           
  3210                           ;main.c: 85:    for(uint8_t i =0; i<8; i++){
  3211  0197  01BF               	clrf	initMatrix@i
  3212  0198                     l2430:
  3213                           
  3214                           ;main.c: 86:             MatrixLed[i] = 0;
  3215  0198  083F               	movf	initMatrix@i,w
  3216  0199  3E20               	addlw	(low (_MatrixLed| 0))& (0+255)
  3217  019A  0086               	movwf	6
  3218  019B  0187               	clrf	7
  3219  019C  0181               	clrf	1
  3220  019D                     l2432:
  3221                           
  3222                           ;main.c: 87:         }
  3223  019D  3001               	movlw	1
  3224  019E  00B9               	movwf	??_initMatrix
  3225  019F  0839               	movf	??_initMatrix,w
  3226  01A0  07BF               	addwf	initMatrix@i,f
  3227  01A1                     l2434:
  3228  01A1  3008               	movlw	8
  3229  01A2  023F               	subwf	initMatrix@i,w
  3230  01A3  1C03               	skipc
  3231  01A4  29A6               	goto	u771
  3232  01A5  29A7               	goto	u770
  3233  01A6                     u771:
  3234  01A6  2998               	goto	l2430
  3235  01A7                     u770:
  3236  01A7                     l2436:
  3237                           
  3238                           ;main.c: 88:     for(uint8_t i=0;i<6;i++){
  3239  01A7  01C0               	clrf	initMatrix@i_1322
  3240  01A8                     l2442:
  3241                           
  3242                           ;main.c: 89:         for(uint8_t j=0;j<4;j=j+2){
  3243  01A8  01C1               	clrf	initMatrix@j
  3244  01A9                     l2448:
  3245                           
  3246                           ;main.c: 90:             data[j]= matrix_conf[k];
  3247  01A9  083E               	movf	initMatrix@k,w
  3248  01AA  3EBD               	addlw	low (_matrix_conf| (0+32768))
  3249  01AB  0084               	movwf	4
  3250  01AC  3084               	movlw	high (_matrix_conf| (0+32768))
  3251  01AD  1803               	skipnc
  3252  01AE  3E01               	addlw	1
  3253  01AF  0085               	movwf	5
  3254  01B0  0800               	movf	0,w	;code access
  3255  01B1  00B9               	movwf	??_initMatrix
  3256  01B2  0841               	movf	initMatrix@j,w
  3257  01B3  3E3A               	addlw	(low (initMatrix@data| 0))& (0+255)
  3258  01B4  0086               	movwf	6
  3259  01B5  0187               	clrf	7
  3260  01B6  0839               	movf	??_initMatrix,w
  3261  01B7  0081               	movwf	1
  3262                           
  3263                           ;main.c: 91:             data[j+1]= matrix_conf[k+1];
  3264  01B8  083E               	movf	initMatrix@k,w
  3265  01B9  3EBE               	addlw	low ((_matrix_conf+1)| (0+32768))
  3266  01BA  0084               	movwf	4
  3267  01BB  3084               	movlw	high ((_matrix_conf+1)| (0+32768))
  3268  01BC  1803               	skipnc
  3269  01BD  3E01               	addlw	1
  3270  01BE  0085               	movwf	5
  3271  01BF  0800               	movf	0,w	;code access
  3272  01C0  00B9               	movwf	??_initMatrix
  3273  01C1  0841               	movf	initMatrix@j,w
  3274  01C2  3E01               	addlw	1
  3275  01C3  3E3A               	addlw	(low (initMatrix@data| 0))& (0+255)
  3276  01C4  0086               	movwf	6
  3277  01C5  0187               	clrf	7
  3278  01C6  0839               	movf	??_initMatrix,w
  3279  01C7  0081               	movwf	1
  3280  01C8                     l2450:
  3281                           
  3282                           ;main.c: 92:         }
  3283  01C8  0841               	movf	initMatrix@j,w
  3284  01C9  3E02               	addlw	2
  3285  01CA  00B9               	movwf	??_initMatrix
  3286  01CB  0839               	movf	??_initMatrix,w
  3287  01CC  00C1               	movwf	initMatrix@j
  3288  01CD                     l2452:
  3289  01CD  3004               	movlw	4
  3290  01CE  0241               	subwf	initMatrix@j,w
  3291  01CF  1C03               	skipc
  3292  01D0  29D2               	goto	u781
  3293  01D1  29D3               	goto	u780
  3294  01D2                     u781:
  3295  01D2  29A9               	goto	l2448
  3296  01D3                     u780:
  3297  01D3                     l2454:
  3298                           
  3299                           ;main.c: 93:         k=k+2;
  3300  01D3  083E               	movf	initMatrix@k,w
  3301  01D4  3E02               	addlw	2
  3302  01D5  00B9               	movwf	??_initMatrix
  3303  01D6  0839               	movf	??_initMatrix,w
  3304  01D7  00BE               	movwf	initMatrix@k
  3305  01D8                     l2456:
  3306                           
  3307                           ;main.c: 94:         txSpi( data, 4);
  3308  01D8  3004               	movlw	4
  3309  01D9  00B6               	movwf	txSpi@dataSize
  3310  01DA  3000               	movlw	0
  3311  01DB  00B7               	movwf	txSpi@dataSize+1
  3312  01DC  303A               	movlw	(low (initMatrix@data| 0))& (0+255)
  3313  01DD  3184  245A  3181   	fcall	_txSpi
  3314  01E0                     l2460:
  3315                           
  3316                           ;main.c: 98:     }
  3317  01E0  3001               	movlw	1
  3318  01E1  0020               	movlb	0	; select bank0
  3319  01E2  00B9               	movwf	??_initMatrix
  3320  01E3  0839               	movf	??_initMatrix,w
  3321  01E4  07C0               	addwf	initMatrix@i_1322,f
  3322  01E5                     l2462:
  3323  01E5  3006               	movlw	6
  3324  01E6  0240               	subwf	initMatrix@i_1322,w
  3325  01E7  1C03               	skipc
  3326  01E8  29EA               	goto	u791
  3327  01E9  29EB               	goto	u790
  3328  01EA                     u791:
  3329  01EA  29A8               	goto	l2442
  3330  01EB                     u790:
  3331  01EB                     l620:
  3332  01EB  0008               	return
  3333  01EC                     __end_of_initMatrix:
  3334                           
  3335                           	psect	text2
  3336  045A                     __ptext2:	
  3337 ;; *************** function _txSpi *****************
  3338 ;; Defined at:
  3339 ;;		line 54 in file "main.c"
  3340 ;; Parameters:    Size  Location     Type
  3341 ;;  data            1    wreg     PTR unsigned char 
  3342 ;;		 -> initMatrix@data(4), matrixUpdate@data(2), 
  3343 ;;  dataSize        2    5[BANK0 ] unsigned int 
  3344 ;; Auto vars:     Size  Location     Type
  3345 ;;  data            1    7[BANK0 ] PTR unsigned char 
  3346 ;;		 -> initMatrix@data(4), matrixUpdate@data(2), 
  3347 ;; Return value:  Size  Location     Type
  3348 ;;                  1    wreg      void 
  3349 ;; Registers used:
  3350 ;;		wreg, fsr1l, fsr1h, status,2, status,0, pclath, cstack
  3351 ;; Tracked objects:
  3352 ;;		On entry : 0/0
  3353 ;;		On exit  : 0/0
  3354 ;;		Unchanged: 0/0
  3355 ;; Data sizes:     COMMON   BANK0   BANK1   BANK2   BANK3   BANK4
  3356 ;;      Params:         0       2       0       0       0       0
  3357 ;;      Locals:         0       1       0       0       0       0
  3358 ;;      Temps:          0       0       0       0       0       0
  3359 ;;      Totals:         0       3       0       0       0       0
  3360 ;;Total ram usage:        3 bytes
  3361 ;; Hardware stack levels used: 1
  3362 ;; Hardware stack levels required when called: 8
  3363 ;; This function calls:
  3364 ;;		_SPI1_ExchangeBlock
  3365 ;; This function is called by:
  3366 ;;		_initMatrix
  3367 ;; This function uses a non-reentrant model
  3368 ;;
  3369                           
  3370  045A                     _txSpi:	
  3371                           ;psect for function _txSpi
  3372                           
  3373                           
  3374                           ;incstack = 0
  3375                           ; Regs used in _txSpi: [wreg+fsr1l+fsr1h+status,2+status,0+pclath+cstack]
  3376                           ;txSpi@data stored from wreg
  3377  045A  0020               	movlb	0	; select bank0
  3378  045B  00B8               	movwf	txSpi@data
  3379  045C                     l597:	
  3380                           ;main.c: 55:     do { LATBbits.LATB1 = 0; } while(0);
  3381                           
  3382  045C  0022               	movlb	2	; select bank2
  3383  045D  108D               	bcf	13,1	;volatile
  3384  045E                     l2376:
  3385                           
  3386                           ;main.c: 56:     SPI1_ExchangeBlock(data,dataSize);
  3387  045E  0020               	movlb	0	; select bank0
  3388  045F  0837               	movf	txSpi@dataSize+1,w
  3389  0460  00B2               	movwf	SPI1_ExchangeBlock@blockSize+1
  3390  0461  0836               	movf	txSpi@dataSize,w
  3391  0462  00B1               	movwf	SPI1_ExchangeBlock@blockSize
  3392  0463  0838               	movf	txSpi@data,w
  3393  0464  3182  22F8  3184   	fcall	_SPI1_ExchangeBlock
  3394  0467                     l2378:
  3395  0467  0022               	movlb	2	; select bank2
  3396  0468  148D               	bsf	13,1	;volatile
  3397  0469                     l601:
  3398  0469  0008               	return
  3399  046A                     __end_of_txSpi:
  3400                           
  3401                           	psect	text3
  3402  02F8                     __ptext3:	
  3403 ;; *************** function _SPI1_ExchangeBlock *****************
  3404 ;; Defined at:
  3405 ;;		line 100 in file "mcc_generated_files/spi1.c"
  3406 ;; Parameters:    Size  Location     Type
  3407 ;;  block           1    wreg     PTR void 
  3408 ;;		 -> initMatrix@data(4), matrixUpdate@data(2), 
  3409 ;;  blockSize       2    0[BANK0 ] unsigned int 
  3410 ;; Auto vars:     Size  Location     Type
  3411 ;;  block           1    3[BANK0 ] PTR void 
  3412 ;;		 -> initMatrix@data(4), matrixUpdate@data(2), 
  3413 ;;  data            1    4[BANK0 ] PTR unsigned char 
  3414 ;;		 -> initMatrix@data(4), matrixUpdate@data(2), 
  3415 ;; Return value:  Size  Location     Type
  3416 ;;                  1    wreg      void 
  3417 ;; Registers used:
  3418 ;;		wreg, fsr1l, fsr1h, status,2, status,0
  3419 ;; Tracked objects:
  3420 ;;		On entry : 0/0
  3421 ;;		On exit  : 0/0
  3422 ;;		Unchanged: 0/0
  3423 ;; Data sizes:     COMMON   BANK0   BANK1   BANK2   BANK3   BANK4
  3424 ;;      Params:         0       2       0       0       0       0
  3425 ;;      Locals:         0       2       0       0       0       0
  3426 ;;      Temps:          0       1       0       0       0       0
  3427 ;;      Totals:         0       5       0       0       0       0
  3428 ;;Total ram usage:        5 bytes
  3429 ;; Hardware stack levels used: 1
  3430 ;; Hardware stack levels required when called: 7
  3431 ;; This function calls:
  3432 ;;		Nothing
  3433 ;; This function is called by:
  3434 ;;		_txSpi
  3435 ;; This function uses a non-reentrant model
  3436 ;;
  3437                           
  3438  02F8                     _SPI1_ExchangeBlock:	
  3439                           ;psect for function _SPI1_ExchangeBlock
  3440                           
  3441                           
  3442                           ;incstack = 0
  3443                           ; Regs used in _SPI1_ExchangeBlock: [wreg+fsr1l+fsr1h+status,2+status,0]
  3444                           ;SPI1_ExchangeBlock@block stored from wreg
  3445  02F8  0020               	movlb	0	; select bank0
  3446  02F9  00B4               	movwf	SPI1_ExchangeBlock@block
  3447  02FA                     l2062:
  3448                           
  3449                           ;mcc_generated_files/spi1.c: 100: void SPI1_ExchangeBlock(void *block, size_t blockSize)
      +                          ;mcc_generated_files/spi1.c: 101: {;mcc_generated_files/spi1.c: 102:     uint8_t *data =
      +                           block;
  3450  02FA  0834               	movf	SPI1_ExchangeBlock@block,w
  3451  02FB  00B3               	movwf	??_SPI1_ExchangeBlock
  3452  02FC  0833               	movf	??_SPI1_ExchangeBlock,w
  3453  02FD  00B5               	movwf	SPI1_ExchangeBlock@data
  3454                           
  3455                           ;mcc_generated_files/spi1.c: 103:     while(blockSize--)
  3456  02FE  2B18               	goto	l2070
  3457  02FF                     l2064:
  3458                           
  3459                           ;mcc_generated_files/spi1.c: 104:     {;mcc_generated_files/spi1.c: 105:         SSP1BUF
      +                           = *data;
  3460  02FF  0835               	movf	SPI1_ExchangeBlock@data,w
  3461  0300  0086               	movwf	6
  3462  0301  0187               	clrf	7
  3463  0302  0801               	movf	1,w
  3464  0303  0024               	movlb	4	; select bank4
  3465  0304  0091               	movwf	17	;volatile
  3466  0305                     l372:	
  3467                           ;mcc_generated_files/spi1.c: 106:         while(!PIR1bits.SSP1IF);
  3468                           
  3469  0305  0020               	movlb	0	; select bank0
  3470  0306  1D91               	btfss	17,3	;volatile
  3471  0307  2B09               	goto	u571
  3472  0308  2B0A               	goto	u570
  3473  0309                     u571:
  3474  0309  2B05               	goto	l372
  3475  030A                     u570:
  3476  030A                     l374:
  3477                           
  3478                           ;mcc_generated_files/spi1.c: 107:         PIR1bits.SSP1IF = 0;
  3479  030A  1191               	bcf	17,3	;volatile
  3480  030B                     l2066:
  3481                           
  3482                           ;mcc_generated_files/spi1.c: 108:         *data++ = SSP1BUF;
  3483  030B  0024               	movlb	4	; select bank4
  3484  030C  0811               	movf	17,w	;volatile
  3485  030D  0020               	movlb	0	; select bank0
  3486  030E  00B3               	movwf	??_SPI1_ExchangeBlock
  3487  030F  0835               	movf	SPI1_ExchangeBlock@data,w
  3488  0310  0086               	movwf	6
  3489  0311  0187               	clrf	7
  3490  0312  0833               	movf	??_SPI1_ExchangeBlock,w
  3491  0313  0081               	movwf	1
  3492  0314                     l2068:
  3493  0314  3001               	movlw	1
  3494  0315  00B3               	movwf	??_SPI1_ExchangeBlock
  3495  0316  0833               	movf	??_SPI1_ExchangeBlock,w
  3496  0317  07B5               	addwf	SPI1_ExchangeBlock@data,f
  3497  0318                     l2070:
  3498                           
  3499                           ;mcc_generated_files/spi1.c: 103:     while(blockSize--)
  3500  0318  3001               	movlw	1
  3501  0319  02B1               	subwf	SPI1_ExchangeBlock@blockSize,f
  3502  031A  3000               	movlw	0
  3503  031B  3BB2               	subwfb	SPI1_ExchangeBlock@blockSize+1,f
  3504  031C  0A31               	incf	SPI1_ExchangeBlock@blockSize,w
  3505  031D  1D03               	skipz
  3506  031E  2B23               	goto	u581
  3507  031F  0A32               	incf	SPI1_ExchangeBlock@blockSize+1,w
  3508  0320  1D03               	btfss	3,2
  3509  0321  2B23               	goto	u581
  3510  0322  2B24               	goto	u580
  3511  0323                     u581:
  3512  0323  2AFF               	goto	l2064
  3513  0324                     u580:
  3514  0324                     l376:
  3515  0324  0008               	return
  3516  0325                     __end_of_SPI1_ExchangeBlock:
  3517                           
  3518                           	psect	text4
  3519  0350                     __ptext4:	
  3520 ;; *************** function _SYSTEM_Initialize *****************
  3521 ;; Defined at:
  3522 ;;		line 50 in file "mcc_generated_files/mcc.c"
  3523 ;; Parameters:    Size  Location     Type
  3524 ;;		None
  3525 ;; Auto vars:     Size  Location     Type
  3526 ;;		None
  3527 ;; Return value:  Size  Location     Type
  3528 ;;                  1    wreg      void 
  3529 ;; Registers used:
  3530 ;;		wreg, status,2, status,0, pclath, cstack
  3531 ;; Tracked objects:
  3532 ;;		On entry : 0/0
  3533 ;;		On exit  : 0/0
  3534 ;;		Unchanged: 0/0
  3535 ;; Data sizes:     COMMON   BANK0   BANK1   BANK2   BANK3   BANK4
  3536 ;;      Params:         0       0       0       0       0       0
  3537 ;;      Locals:         0       0       0       0       0       0
  3538 ;;      Temps:          0       0       0       0       0       0
  3539 ;;      Totals:         0       0       0       0       0       0
  3540 ;;Total ram usage:        0 bytes
  3541 ;; Hardware stack levels used: 1
  3542 ;; Hardware stack levels required when called: 9
  3543 ;; This function calls:
  3544 ;;		_ADC_Initialize
  3545 ;;		_CMP1_Initialize
  3546 ;;		_CMP2_Initialize
  3547 ;;		_EUSART_Initialize
  3548 ;;		_FVR_Initialize
  3549 ;;		_OSCILLATOR_Initialize
  3550 ;;		_PIN_MANAGER_Initialize
  3551 ;;		_PWM3_Initialize
  3552 ;;		_SPI1_Initialize
  3553 ;;		_TMR0_Initialize
  3554 ;;		_TMR1_Initialize
  3555 ;;		_TMR2_Initialize
  3556 ;;		_WDT_Initialize
  3557 ;; This function is called by:
  3558 ;;		_main
  3559 ;; This function uses a non-reentrant model
  3560 ;;
  3561                           
  3562  0350                     _SYSTEM_Initialize:	
  3563                           ;psect for function _SYSTEM_Initialize
  3564                           
  3565  0350                     l2396:	
  3566                           ;incstack = 0
  3567                           ; Regs used in _SYSTEM_Initialize: [wreg+status,2+status,0+pclath+cstack]
  3568                           
  3569                           
  3570                           ;mcc_generated_files/mcc.c: 53:     SPI1_Initialize();
  3571  0350  3184  24E1  3183   	fcall	_SPI1_Initialize
  3572                           
  3573                           ;mcc_generated_files/mcc.c: 54:     PIN_MANAGER_Initialize();
  3574  0353  3182  22C7  3183   	fcall	_PIN_MANAGER_Initialize
  3575                           
  3576                           ;mcc_generated_files/mcc.c: 55:     OSCILLATOR_Initialize();
  3577  0356  3185  2505  3183   	fcall	_OSCILLATOR_Initialize
  3578                           
  3579                           ;mcc_generated_files/mcc.c: 56:     WDT_Initialize();
  3580  0359  3185  254C  3183   	fcall	_WDT_Initialize
  3581                           
  3582                           ;mcc_generated_files/mcc.c: 57:     CMP2_Initialize();
  3583  035C  3184  24C9  3183   	fcall	_CMP2_Initialize
  3584                           
  3585                           ;mcc_generated_files/mcc.c: 58:     FVR_Initialize();
  3586  035F  3185  2550  3183   	fcall	_FVR_Initialize
  3587                           
  3588                           ;mcc_generated_files/mcc.c: 59:     TMR2_Initialize();
  3589  0362  3184  24F5  3183   	fcall	_TMR2_Initialize
  3590                           
  3591                           ;mcc_generated_files/mcc.c: 60:     TMR0_Initialize();
  3592  0365  3184  2426  3183   	fcall	_TMR0_Initialize
  3593                           
  3594                           ;mcc_generated_files/mcc.c: 61:     CMP1_Initialize();
  3595  0368  3184  24D5  3183   	fcall	_CMP1_Initialize
  3596                           
  3597                           ;mcc_generated_files/mcc.c: 62:     ADC_Initialize();
  3598  036B  3184  24FD  3183   	fcall	_ADC_Initialize
  3599                           
  3600                           ;mcc_generated_files/mcc.c: 63:     PWM3_Initialize();
  3601  036E  3184  24EC  3183   	fcall	_PWM3_Initialize
  3602                           
  3603                           ;mcc_generated_files/mcc.c: 64:     TMR1_Initialize();
  3604  0371  3183  23DE  3183   	fcall	_TMR1_Initialize
  3605                           
  3606                           ;mcc_generated_files/mcc.c: 65:     EUSART_Initialize();
  3607  0374  3183  2378  3183   	fcall	_EUSART_Initialize
  3608  0377                     l191:
  3609  0377  0008               	return
  3610  0378                     __end_of_SYSTEM_Initialize:
  3611                           
  3612                           	psect	text5
  3613  054C                     __ptext5:	
  3614 ;; *************** function _WDT_Initialize *****************
  3615 ;; Defined at:
  3616 ;;		line 78 in file "mcc_generated_files/mcc.c"
  3617 ;; Parameters:    Size  Location     Type
  3618 ;;		None
  3619 ;; Auto vars:     Size  Location     Type
  3620 ;;		None
  3621 ;; Return value:  Size  Location     Type
  3622 ;;                  1    wreg      void 
  3623 ;; Registers used:
  3624 ;;		wreg
  3625 ;; Tracked objects:
  3626 ;;		On entry : 0/0
  3627 ;;		On exit  : 0/0
  3628 ;;		Unchanged: 0/0
  3629 ;; Data sizes:     COMMON   BANK0   BANK1   BANK2   BANK3   BANK4
  3630 ;;      Params:         0       0       0       0       0       0
  3631 ;;      Locals:         0       0       0       0       0       0
  3632 ;;      Temps:          0       0       0       0       0       0
  3633 ;;      Totals:         0       0       0       0       0       0
  3634 ;;Total ram usage:        0 bytes
  3635 ;; Hardware stack levels used: 1
  3636 ;; Hardware stack levels required when called: 7
  3637 ;; This function calls:
  3638 ;;		Nothing
  3639 ;; This function is called by:
  3640 ;;		_SYSTEM_Initialize
  3641 ;; This function uses a non-reentrant model
  3642 ;;
  3643                           
  3644  054C                     _WDT_Initialize:	
  3645                           ;psect for function _WDT_Initialize
  3646                           
  3647  054C                     l2296:	
  3648                           ;incstack = 0
  3649                           ; Regs used in _WDT_Initialize: [wreg]
  3650                           
  3651                           
  3652                           ;mcc_generated_files/mcc.c: 81:     WDTCON = 0x16;
  3653  054C  3016               	movlw	22
  3654  054D  0021               	movlb	1	; select bank1
  3655  054E  0097               	movwf	23	;volatile
  3656  054F                     l197:
  3657  054F  0008               	return
  3658  0550                     __end_of_WDT_Initialize:
  3659                           
  3660                           	psect	text6
  3661  04F5                     __ptext6:	
  3662 ;; *************** function _TMR2_Initialize *****************
  3663 ;; Defined at:
  3664 ;;		line 62 in file "mcc_generated_files/tmr2.c"
  3665 ;; Parameters:    Size  Location     Type
  3666 ;;		None
  3667 ;; Auto vars:     Size  Location     Type
  3668 ;;		None
  3669 ;; Return value:  Size  Location     Type
  3670 ;;                  1    wreg      void 
  3671 ;; Registers used:
  3672 ;;		wreg, status,2
  3673 ;; Tracked objects:
  3674 ;;		On entry : 0/0
  3675 ;;		On exit  : 0/0
  3676 ;;		Unchanged: 0/0
  3677 ;; Data sizes:     COMMON   BANK0   BANK1   BANK2   BANK3   BANK4
  3678 ;;      Params:         0       0       0       0       0       0
  3679 ;;      Locals:         0       0       0       0       0       0
  3680 ;;      Temps:          0       0       0       0       0       0
  3681 ;;      Totals:         0       0       0       0       0       0
  3682 ;;Total ram usage:        0 bytes
  3683 ;; Hardware stack levels used: 1
  3684 ;; Hardware stack levels required when called: 7
  3685 ;; This function calls:
  3686 ;;		Nothing
  3687 ;; This function is called by:
  3688 ;;		_SYSTEM_Initialize
  3689 ;; This function uses a non-reentrant model
  3690 ;;
  3691                           
  3692  04F5                     _TMR2_Initialize:	
  3693                           ;psect for function _TMR2_Initialize
  3694                           
  3695  04F5                     l2300:	
  3696                           ;incstack = 0
  3697                           ; Regs used in _TMR2_Initialize: [wreg+status,2]
  3698                           
  3699                           
  3700                           ;mcc_generated_files/tmr2.c: 67:     PR2 = 0xFF;
  3701  04F5  30FF               	movlw	255
  3702  04F6  0020               	movlb	0	; select bank0
  3703  04F7  009B               	movwf	27	;volatile
  3704  04F8                     l2302:
  3705                           
  3706                           ;mcc_generated_files/tmr2.c: 70:     TMR2 = 0x00;
  3707  04F8  019A               	clrf	26	;volatile
  3708  04F9                     l2304:
  3709                           
  3710                           ;mcc_generated_files/tmr2.c: 73:     PIR1bits.TMR2IF = 0;
  3711  04F9  1091               	bcf	17,1	;volatile
  3712  04FA                     l2306:
  3713                           
  3714                           ;mcc_generated_files/tmr2.c: 76:     T2CON = 0x04;
  3715  04FA  3004               	movlw	4
  3716  04FB  009C               	movwf	28	;volatile
  3717  04FC                     l503:
  3718  04FC  0008               	return
  3719  04FD                     __end_of_TMR2_Initialize:
  3720                           
  3721                           	psect	text7
  3722  03DE                     __ptext7:	
  3723 ;; *************** function _TMR1_Initialize *****************
  3724 ;; Defined at:
  3725 ;;		line 64 in file "mcc_generated_files/tmr1.c"
  3726 ;; Parameters:    Size  Location     Type
  3727 ;;		None
  3728 ;; Auto vars:     Size  Location     Type
  3729 ;;		None
  3730 ;; Return value:  Size  Location     Type
  3731 ;;                  1    wreg      void 
  3732 ;; Registers used:
  3733 ;;		wreg, status,2, status,0, pclath, cstack
  3734 ;; Tracked objects:
  3735 ;;		On entry : 0/0
  3736 ;;		On exit  : 0/0
  3737 ;;		Unchanged: 0/0
  3738 ;; Data sizes:     COMMON   BANK0   BANK1   BANK2   BANK3   BANK4
  3739 ;;      Params:         0       0       0       0       0       0
  3740 ;;      Locals:         0       0       0       0       0       0
  3741 ;;      Temps:          0       0       0       0       0       0
  3742 ;;      Totals:         0       0       0       0       0       0
  3743 ;;Total ram usage:        0 bytes
  3744 ;; Hardware stack levels used: 1
  3745 ;; Hardware stack levels required when called: 8
  3746 ;; This function calls:
  3747 ;;		_TMR1_SetInterruptHandler
  3748 ;; This function is called by:
  3749 ;;		_SYSTEM_Initialize
  3750 ;; This function uses a non-reentrant model
  3751 ;;
  3752                           
  3753  03DE                     _TMR1_Initialize:	
  3754                           ;psect for function _TMR1_Initialize
  3755                           
  3756  03DE                     l2326:	
  3757                           ;incstack = 0
  3758                           ; Regs used in _TMR1_Initialize: [wreg+status,2+status,0+pclath+cstack]
  3759                           
  3760                           
  3761                           ;mcc_generated_files/tmr1.c: 69:     T1GCON = 0x00;
  3762  03DE  0020               	movlb	0	; select bank0
  3763  03DF  0199               	clrf	25	;volatile
  3764  03E0                     l2328:
  3765                           
  3766                           ;mcc_generated_files/tmr1.c: 72:     TMR1H = 0x6D;
  3767  03E0  306D               	movlw	109
  3768  03E1  0097               	movwf	23	;volatile
  3769  03E2                     l2330:
  3770                           
  3771                           ;mcc_generated_files/tmr1.c: 75:     TMR1L = 0x84;
  3772  03E2  3084               	movlw	132
  3773  03E3  0096               	movwf	22	;volatile
  3774  03E4                     l2332:
  3775                           
  3776                           ;mcc_generated_files/tmr1.c: 78:     PIR1bits.TMR1IF = 0;
  3777  03E4  1011               	bcf	17,0	;volatile
  3778  03E5                     l2334:
  3779                           
  3780                           ;mcc_generated_files/tmr1.c: 81:     timer1ReloadVal=(uint16_t)((TMR1H << 8) | TMR1L);
  3781  03E5  0817               	movf	23,w	;volatile
  3782  03E6  00C7               	movwf	_timer1ReloadVal+1	;volatile
  3783  03E7  0816               	movf	22,w	;volatile
  3784  03E8  00C6               	movwf	_timer1ReloadVal	;volatile
  3785  03E9                     l2336:
  3786                           
  3787                           ;mcc_generated_files/tmr1.c: 84:     PIE1bits.TMR1IE = 1;
  3788  03E9  0021               	movlb	1	; select bank1
  3789  03EA  1411               	bsf	17,0	;volatile
  3790  03EB                     l2338:
  3791                           
  3792                           ;mcc_generated_files/tmr1.c: 87:     TMR1_SetInterruptHandler(TMR1_DefaultInterruptHandl
      +                          er);
  3793  03EB  3055               	movlw	low _TMR1_DefaultInterruptHandler
  3794  03EC  0020               	movlb	0	; select bank0
  3795  03ED  00B1               	movwf	TMR1_SetInterruptHandler@InterruptHandler
  3796  03EE  3005               	movlw	high _TMR1_DefaultInterruptHandler
  3797  03EF  00B2               	movwf	TMR1_SetInterruptHandler@InterruptHandler+1
  3798  03F0  3185  2512  3183   	fcall	_TMR1_SetInterruptHandler
  3799  03F3                     l2340:
  3800                           
  3801                           ;mcc_generated_files/tmr1.c: 90:     T1CON = 0x31;
  3802  03F3  3031               	movlw	49
  3803  03F4  0020               	movlb	0	; select bank0
  3804  03F5  0098               	movwf	24	;volatile
  3805  03F6                     l454:
  3806  03F6  0008               	return
  3807  03F7                     __end_of_TMR1_Initialize:
  3808                           
  3809                           	psect	text8
  3810  0512                     __ptext8:	
  3811 ;; *************** function _TMR1_SetInterruptHandler *****************
  3812 ;; Defined at:
  3813 ;;		line 178 in file "mcc_generated_files/tmr1.c"
  3814 ;; Parameters:    Size  Location     Type
  3815 ;;  InterruptHan    2    0[BANK0 ] PTR FTN()void 
  3816 ;;		 -> TMR1_DefaultInterruptHandler(1), 
  3817 ;; Auto vars:     Size  Location     Type
  3818 ;;		None
  3819 ;; Return value:  Size  Location     Type
  3820 ;;                  1    wreg      void 
  3821 ;; Registers used:
  3822 ;;		wreg
  3823 ;; Tracked objects:
  3824 ;;		On entry : 0/0
  3825 ;;		On exit  : 0/0
  3826 ;;		Unchanged: 0/0
  3827 ;; Data sizes:     COMMON   BANK0   BANK1   BANK2   BANK3   BANK4
  3828 ;;      Params:         0       2       0       0       0       0
  3829 ;;      Locals:         0       0       0       0       0       0
  3830 ;;      Temps:          0       0       0       0       0       0
  3831 ;;      Totals:         0       2       0       0       0       0
  3832 ;;Total ram usage:        2 bytes
  3833 ;; Hardware stack levels used: 1
  3834 ;; Hardware stack levels required when called: 7
  3835 ;; This function calls:
  3836 ;;		Nothing
  3837 ;; This function is called by:
  3838 ;;		_TMR1_Initialize
  3839 ;; This function uses a non-reentrant model
  3840 ;;
  3841                           
  3842  0512                     _TMR1_SetInterruptHandler:	
  3843                           ;psect for function _TMR1_SetInterruptHandler
  3844                           
  3845  0512                     l2072:	
  3846                           ;incstack = 0
  3847                           ; Regs used in _TMR1_SetInterruptHandler: [wreg]
  3848                           
  3849                           
  3850                           ;mcc_generated_files/tmr1.c: 179:     TMR1_InterruptHandler = InterruptHandler;
  3851  0512  0020               	movlb	0	; select bank0
  3852  0513  0832               	movf	TMR1_SetInterruptHandler@InterruptHandler+1,w
  3853  0514  00C5               	movwf	_TMR1_InterruptHandler+1
  3854  0515  0831               	movf	TMR1_SetInterruptHandler@InterruptHandler,w
  3855  0516  00C4               	movwf	_TMR1_InterruptHandler
  3856  0517                     l487:
  3857  0517  0008               	return
  3858  0518                     __end_of_TMR1_SetInterruptHandler:
  3859                           
  3860                           	psect	text9
  3861  0426                     __ptext9:	
  3862 ;; *************** function _TMR0_Initialize *****************
  3863 ;; Defined at:
  3864 ;;		line 64 in file "mcc_generated_files/tmr0.c"
  3865 ;; Parameters:    Size  Location     Type
  3866 ;;		None
  3867 ;; Auto vars:     Size  Location     Type
  3868 ;;		None
  3869 ;; Return value:  Size  Location     Type
  3870 ;;                  1    wreg      void 
  3871 ;; Registers used:
  3872 ;;		wreg, status,2, status,0, pclath, cstack
  3873 ;; Tracked objects:
  3874 ;;		On entry : 0/0
  3875 ;;		On exit  : 0/0
  3876 ;;		Unchanged: 0/0
  3877 ;; Data sizes:     COMMON   BANK0   BANK1   BANK2   BANK3   BANK4
  3878 ;;      Params:         0       0       0       0       0       0
  3879 ;;      Locals:         0       0       0       0       0       0
  3880 ;;      Temps:          0       0       0       0       0       0
  3881 ;;      Totals:         0       0       0       0       0       0
  3882 ;;Total ram usage:        0 bytes
  3883 ;; Hardware stack levels used: 1
  3884 ;; Hardware stack levels required when called: 8
  3885 ;; This function calls:
  3886 ;;		_TMR0_SetInterruptHandler
  3887 ;; This function is called by:
  3888 ;;		_SYSTEM_Initialize
  3889 ;; This function uses a non-reentrant model
  3890 ;;
  3891                           
  3892  0426                     _TMR0_Initialize:	
  3893                           ;psect for function _TMR0_Initialize
  3894                           
  3895  0426                     l2308:	
  3896                           ;incstack = 0
  3897                           ; Regs used in _TMR0_Initialize: [wreg+status,2+status,0+pclath+cstack]
  3898                           
  3899                           
  3900                           ;mcc_generated_files/tmr0.c: 69:     OPTION_REG = (uint8_t)((OPTION_REG & 0xC0) | (0xD7 
      +                          & 0x3F));
  3901  0426  0021               	movlb	1	; select bank1
  3902  0427  0815               	movf	21,w	;volatile
  3903  0428  39C0               	andlw	192
  3904  0429  3817               	iorlw	23
  3905  042A  0095               	movwf	21	;volatile
  3906  042B                     l2310:
  3907                           
  3908                           ;mcc_generated_files/tmr0.c: 72:     TMR0 = 0x00;
  3909  042B  0020               	movlb	0	; select bank0
  3910  042C  0195               	clrf	21	;volatile
  3911  042D                     l2312:
  3912                           
  3913                           ;mcc_generated_files/tmr0.c: 75:     timer0ReloadVal= 0;
  3914  042D  01AC               	clrf	_timer0ReloadVal	;volatile
  3915  042E                     l2314:
  3916                           
  3917                           ;mcc_generated_files/tmr0.c: 78:     INTCONbits.TMR0IF = 0;
  3918  042E  110B               	bcf	11,2	;volatile
  3919  042F                     l2316:
  3920                           
  3921                           ;mcc_generated_files/tmr0.c: 81:     INTCONbits.TMR0IE = 1;
  3922  042F  168B               	bsf	11,5	;volatile
  3923  0430                     l2318:
  3924                           
  3925                           ;mcc_generated_files/tmr0.c: 84:     TMR0_SetInterruptHandler(TMR0_DefaultInterruptHandl
      +                          er);
  3926  0430  3056               	movlw	low _TMR0_DefaultInterruptHandler
  3927  0431  00B1               	movwf	TMR0_SetInterruptHandler@InterruptHandler
  3928  0432  3005               	movlw	high _TMR0_DefaultInterruptHandler
  3929  0433  00B2               	movwf	TMR0_SetInterruptHandler@InterruptHandler+1
  3930  0434  3185  2518  3184   	fcall	_TMR0_SetInterruptHandler
  3931  0437                     l541:
  3932  0437  0008               	return
  3933  0438                     __end_of_TMR0_Initialize:
  3934                           
  3935                           	psect	text10
  3936  0518                     __ptext10:	
  3937 ;; *************** function _TMR0_SetInterruptHandler *****************
  3938 ;; Defined at:
  3939 ;;		line 140 in file "mcc_generated_files/tmr0.c"
  3940 ;; Parameters:    Size  Location     Type
  3941 ;;  InterruptHan    2    0[BANK0 ] PTR FTN()void 
  3942 ;;		 -> TMR0_DefaultInterruptHandler(1), 
  3943 ;; Auto vars:     Size  Location     Type
  3944 ;;		None
  3945 ;; Return value:  Size  Location     Type
  3946 ;;                  1    wreg      void 
  3947 ;; Registers used:
  3948 ;;		wreg
  3949 ;; Tracked objects:
  3950 ;;		On entry : 0/0
  3951 ;;		On exit  : 0/0
  3952 ;;		Unchanged: 0/0
  3953 ;; Data sizes:     COMMON   BANK0   BANK1   BANK2   BANK3   BANK4
  3954 ;;      Params:         0       2       0       0       0       0
  3955 ;;      Locals:         0       0       0       0       0       0
  3956 ;;      Temps:          0       0       0       0       0       0
  3957 ;;      Totals:         0       2       0       0       0       0
  3958 ;;Total ram usage:        2 bytes
  3959 ;; Hardware stack levels used: 1
  3960 ;; Hardware stack levels required when called: 7
  3961 ;; This function calls:
  3962 ;;		Nothing
  3963 ;; This function is called by:
  3964 ;;		_TMR0_Initialize
  3965 ;; This function uses a non-reentrant model
  3966 ;;
  3967                           
  3968  0518                     _TMR0_SetInterruptHandler:	
  3969                           ;psect for function _TMR0_SetInterruptHandler
  3970                           
  3971  0518                     l2074:	
  3972                           ;incstack = 0
  3973                           ; Regs used in _TMR0_SetInterruptHandler: [wreg]
  3974                           
  3975                           
  3976                           ;mcc_generated_files/tmr0.c: 141:     TMR0_InterruptHandler = InterruptHandler;
  3977  0518  0020               	movlb	0	; select bank0
  3978  0519  0832               	movf	TMR0_SetInterruptHandler@InterruptHandler+1,w
  3979  051A  00C3               	movwf	_TMR0_InterruptHandler+1
  3980  051B  0831               	movf	TMR0_SetInterruptHandler@InterruptHandler,w
  3981  051C  00C2               	movwf	_TMR0_InterruptHandler
  3982  051D                     l563:
  3983  051D  0008               	return
  3984  051E                     __end_of_TMR0_SetInterruptHandler:
  3985                           
  3986                           	psect	text11
  3987  04E1                     __ptext11:	
  3988 ;; *************** function _SPI1_Initialize *****************
  3989 ;; Defined at:
  3990 ;;		line 62 in file "mcc_generated_files/spi1.c"
  3991 ;; Parameters:    Size  Location     Type
  3992 ;;		None
  3993 ;; Auto vars:     Size  Location     Type
  3994 ;;		None
  3995 ;; Return value:  Size  Location     Type
  3996 ;;                  1    wreg      void 
  3997 ;; Registers used:
  3998 ;;		wreg, status,2
  3999 ;; Tracked objects:
  4000 ;;		On entry : 0/0
  4001 ;;		On exit  : 0/0
  4002 ;;		Unchanged: 0/0
  4003 ;; Data sizes:     COMMON   BANK0   BANK1   BANK2   BANK3   BANK4
  4004 ;;      Params:         0       0       0       0       0       0
  4005 ;;      Locals:         0       0       0       0       0       0
  4006 ;;      Temps:          0       0       0       0       0       0
  4007 ;;      Totals:         0       0       0       0       0       0
  4008 ;;Total ram usage:        0 bytes
  4009 ;; Hardware stack levels used: 1
  4010 ;; Hardware stack levels required when called: 7
  4011 ;; This function calls:
  4012 ;;		Nothing
  4013 ;; This function is called by:
  4014 ;;		_SYSTEM_Initialize
  4015 ;; This function uses a non-reentrant model
  4016 ;;
  4017                           
  4018  04E1                     _SPI1_Initialize:	
  4019                           ;psect for function _SPI1_Initialize
  4020                           
  4021  04E1                     l2280:	
  4022                           ;incstack = 0
  4023                           ; Regs used in _SPI1_Initialize: [wreg+status,2]
  4024                           
  4025                           
  4026                           ;mcc_generated_files/spi1.c: 65:     SSP1STAT = 0x40;
  4027  04E1  3040               	movlw	64
  4028  04E2  0024               	movlb	4	; select bank4
  4029  04E3  0094               	movwf	20	;volatile
  4030  04E4                     l2282:
  4031                           
  4032                           ;mcc_generated_files/spi1.c: 66:     SSP1CON1 = 0x00;
  4033  04E4  0195               	clrf	21	;volatile
  4034  04E5                     l2284:
  4035                           
  4036                           ;mcc_generated_files/spi1.c: 67:     SSP1ADD = 0x01;
  4037  04E5  3001               	movlw	1
  4038  04E6  0092               	movwf	18	;volatile
  4039  04E7                     l2286:
  4040                           
  4041                           ;mcc_generated_files/spi1.c: 68:     TRISBbits.TRISB4 = 0;
  4042  04E7  0021               	movlb	1	; select bank1
  4043  04E8  120D               	bcf	13,4	;volatile
  4044  04E9                     l2288:
  4045                           
  4046                           ;mcc_generated_files/spi1.c: 69:     SSP1CON1bits.SSPEN = 0;
  4047  04E9  0024               	movlb	4	; select bank4
  4048  04EA  1295               	bcf	21,5	;volatile
  4049  04EB                     l354:
  4050  04EB  0008               	return
  4051  04EC                     __end_of_SPI1_Initialize:
  4052                           
  4053                           	psect	text12
  4054  04EC                     __ptext12:	
  4055 ;; *************** function _PWM3_Initialize *****************
  4056 ;; Defined at:
  4057 ;;		line 64 in file "mcc_generated_files/pwm3.c"
  4058 ;; Parameters:    Size  Location     Type
  4059 ;;		None
  4060 ;; Auto vars:     Size  Location     Type
  4061 ;;		None
  4062 ;; Return value:  Size  Location     Type
  4063 ;;                  1    wreg      void 
  4064 ;; Registers used:
  4065 ;;		wreg, status,2, status,0
  4066 ;; Tracked objects:
  4067 ;;		On entry : 0/0
  4068 ;;		On exit  : 0/0
  4069 ;;		Unchanged: 0/0
  4070 ;; Data sizes:     COMMON   BANK0   BANK1   BANK2   BANK3   BANK4
  4071 ;;      Params:         0       0       0       0       0       0
  4072 ;;      Locals:         0       0       0       0       0       0
  4073 ;;      Temps:          0       0       0       0       0       0
  4074 ;;      Totals:         0       0       0       0       0       0
  4075 ;;Total ram usage:        0 bytes
  4076 ;; Hardware stack levels used: 1
  4077 ;; Hardware stack levels required when called: 7
  4078 ;; This function calls:
  4079 ;;		Nothing
  4080 ;; This function is called by:
  4081 ;;		_SYSTEM_Initialize
  4082 ;; This function uses a non-reentrant model
  4083 ;;
  4084                           
  4085  04EC                     _PWM3_Initialize:	
  4086                           ;psect for function _PWM3_Initialize
  4087                           
  4088  04EC                     l2138:	
  4089                           ;incstack = 0
  4090                           ; Regs used in _PWM3_Initialize: [wreg+status,2+status,0]
  4091                           
  4092                           
  4093                           ;mcc_generated_files/pwm3.c: 69:  CCP3CON = 0x0C;
  4094  04EC  300C               	movlw	12
  4095  04ED  0026               	movlb	6	; select bank6
  4096  04EE  0093               	movwf	19	;volatile
  4097  04EF                     l2140:
  4098                           
  4099                           ;mcc_generated_files/pwm3.c: 72:  CCPR3L = 0x00;
  4100  04EF  0191               	clrf	17	;volatile
  4101  04F0                     l2142:
  4102                           
  4103                           ;mcc_generated_files/pwm3.c: 75:  CCPR3H = 0x00;
  4104  04F0  0192               	clrf	18	;volatile
  4105  04F1                     l2144:
  4106                           
  4107                           ;mcc_generated_files/pwm3.c: 78:  CCPTMRS0bits.C3TSEL = 0x0;
  4108  04F1  30CF               	movlw	-49
  4109  04F2  0025               	movlb	5	; select bank5
  4110  04F3  059E               	andwf	30,f	;volatile
  4111  04F4                     l11:
  4112  04F4  0008               	return
  4113  04F5                     __end_of_PWM3_Initialize:
  4114                           
  4115                           	psect	text13
  4116  02C7                     __ptext13:	
  4117 ;; *************** function _PIN_MANAGER_Initialize *****************
  4118 ;; Defined at:
  4119 ;;		line 58 in file "mcc_generated_files/pin_manager.c"
  4120 ;; Parameters:    Size  Location     Type
  4121 ;;		None
  4122 ;; Auto vars:     Size  Location     Type
  4123 ;;		None
  4124 ;; Return value:  Size  Location     Type
  4125 ;;                  1    wreg      void 
  4126 ;; Registers used:
  4127 ;;		wreg, status,2, status,0, pclath, cstack
  4128 ;; Tracked objects:
  4129 ;;		On entry : 0/0
  4130 ;;		On exit  : 0/0
  4131 ;;		Unchanged: 0/0
  4132 ;; Data sizes:     COMMON   BANK0   BANK1   BANK2   BANK3   BANK4
  4133 ;;      Params:         0       0       0       0       0       0
  4134 ;;      Locals:         0       0       0       0       0       0
  4135 ;;      Temps:          0       0       0       0       0       0
  4136 ;;      Totals:         0       0       0       0       0       0
  4137 ;;Total ram usage:        0 bytes
  4138 ;; Hardware stack levels used: 1
  4139 ;; Hardware stack levels required when called: 8
  4140 ;; This function calls:
  4141 ;;		_IOCBF0_SetInterruptHandler
  4142 ;;		_IOCBF3_SetInterruptHandler
  4143 ;; This function is called by:
  4144 ;;		_SYSTEM_Initialize
  4145 ;; This function uses a non-reentrant model
  4146 ;;
  4147                           
  4148  02C7                     _PIN_MANAGER_Initialize:	
  4149                           ;psect for function _PIN_MANAGER_Initialize
  4150                           
  4151  02C7                     l2234:	
  4152                           ;incstack = 0
  4153                           ; Regs used in _PIN_MANAGER_Initialize: [wreg+status,2+status,0+pclath+cstack]
  4154                           
  4155                           
  4156                           ;mcc_generated_files/pin_manager.c: 63:     LATA = 0x00;
  4157  02C7  0022               	movlb	2	; select bank2
  4158  02C8  018C               	clrf	12	;volatile
  4159                           
  4160                           ;mcc_generated_files/pin_manager.c: 64:     LATB = 0x00;
  4161  02C9  018D               	clrf	13	;volatile
  4162  02CA                     l2236:
  4163                           
  4164                           ;mcc_generated_files/pin_manager.c: 69:     TRISA = 0x37;
  4165  02CA  3037               	movlw	55
  4166  02CB  0021               	movlb	1	; select bank1
  4167  02CC  008C               	movwf	12	;volatile
  4168  02CD                     l2238:
  4169                           
  4170                           ;mcc_generated_files/pin_manager.c: 70:     TRISB = 0xED;
  4171  02CD  30ED               	movlw	237
  4172  02CE  008D               	movwf	13	;volatile
  4173  02CF                     l2240:
  4174                           
  4175                           ;mcc_generated_files/pin_manager.c: 75:     ANSELB = 0xC0;
  4176  02CF  30C0               	movlw	192
  4177  02D0  0023               	movlb	3	; select bank3
  4178  02D1  008D               	movwf	13	;volatile
  4179  02D2                     l2242:
  4180                           
  4181                           ;mcc_generated_files/pin_manager.c: 76:     ANSELA = 0x0F;
  4182  02D2  300F               	movlw	15
  4183  02D3  008C               	movwf	12	;volatile
  4184  02D4                     l2244:
  4185                           
  4186                           ;mcc_generated_files/pin_manager.c: 81:     WPUB = 0x09;
  4187  02D4  3009               	movlw	9
  4188  02D5  0024               	movlb	4	; select bank4
  4189  02D6  008D               	movwf	13	;volatile
  4190  02D7                     l2246:
  4191                           
  4192                           ;mcc_generated_files/pin_manager.c: 82:     WPUA = 0x00;
  4193  02D7  018C               	clrf	12	;volatile
  4194  02D8                     l2248:
  4195                           
  4196                           ;mcc_generated_files/pin_manager.c: 83:     OPTION_REGbits.nWPUEN = 0;
  4197  02D8  0021               	movlb	1	; select bank1
  4198  02D9  1395               	bcf	21,7	;volatile
  4199                           
  4200                           ;mcc_generated_files/pin_manager.c: 89:     APFCON0 = 0xC0;
  4201  02DA  30C0               	movlw	192
  4202  02DB  0022               	movlb	2	; select bank2
  4203  02DC  009D               	movwf	29	;volatile
  4204                           
  4205                           ;mcc_generated_files/pin_manager.c: 90:     APFCON1 = 0x01;
  4206  02DD  3001               	movlw	1
  4207  02DE  009E               	movwf	30	;volatile
  4208  02DF                     l2250:
  4209                           
  4210                           ;mcc_generated_files/pin_manager.c: 96:     IOCBFbits.IOCBF0 = 0;
  4211  02DF  0027               	movlb	7	; select bank7
  4212  02E0  1016               	bcf	22,0	;volatile
  4213  02E1                     l2252:
  4214                           
  4215                           ;mcc_generated_files/pin_manager.c: 98:     IOCBFbits.IOCBF3 = 0;
  4216  02E1  1196               	bcf	22,3	;volatile
  4217  02E2                     l2254:
  4218                           
  4219                           ;mcc_generated_files/pin_manager.c: 100:     IOCBNbits.IOCBN0 = 1;
  4220  02E2  1415               	bsf	21,0	;volatile
  4221  02E3                     l2256:
  4222                           
  4223                           ;mcc_generated_files/pin_manager.c: 102:     IOCBNbits.IOCBN3 = 1;
  4224  02E3  1595               	bsf	21,3	;volatile
  4225  02E4                     l2258:
  4226                           
  4227                           ;mcc_generated_files/pin_manager.c: 104:     IOCBPbits.IOCBP0 = 0;
  4228  02E4  1014               	bcf	20,0	;volatile
  4229  02E5                     l2260:
  4230                           
  4231                           ;mcc_generated_files/pin_manager.c: 106:     IOCBPbits.IOCBP3 = 0;
  4232  02E5  1194               	bcf	20,3	;volatile
  4233  02E6                     l2262:
  4234                           
  4235                           ;mcc_generated_files/pin_manager.c: 111:     IOCBF0_SetInterruptHandler(IOCBF0_DefaultIn
      +                          terruptHandler);
  4236  02E6  3058               	movlw	low _IOCBF0_DefaultInterruptHandler
  4237  02E7  0020               	movlb	0	; select bank0
  4238  02E8  00B1               	movwf	IOCBF0_SetInterruptHandler@InterruptHandler
  4239  02E9  3005               	movlw	high _IOCBF0_DefaultInterruptHandler
  4240  02EA  00B2               	movwf	IOCBF0_SetInterruptHandler@InterruptHandler+1
  4241  02EB  3185  2524  3182   	fcall	_IOCBF0_SetInterruptHandler
  4242  02EE                     l2264:
  4243                           
  4244                           ;mcc_generated_files/pin_manager.c: 112:     IOCBF3_SetInterruptHandler(IOCBF3_DefaultIn
      +                          terruptHandler);
  4245  02EE  3057               	movlw	low _IOCBF3_DefaultInterruptHandler
  4246  02EF  0020               	movlb	0	; select bank0
  4247  02F0  00B1               	movwf	IOCBF3_SetInterruptHandler@InterruptHandler
  4248  02F1  3005               	movlw	high _IOCBF3_DefaultInterruptHandler
  4249  02F2  00B2               	movwf	IOCBF3_SetInterruptHandler@InterruptHandler+1
  4250  02F3  3185  251E  3182   	fcall	_IOCBF3_SetInterruptHandler
  4251  02F6                     l2266:
  4252                           
  4253                           ;mcc_generated_files/pin_manager.c: 115:     INTCONbits.IOCIE = 1;
  4254  02F6  158B               	bsf	11,3	;volatile
  4255  02F7                     l129:
  4256  02F7  0008               	return
  4257  02F8                     __end_of_PIN_MANAGER_Initialize:
  4258                           
  4259                           	psect	text14
  4260  051E                     __ptext14:	
  4261 ;; *************** function _IOCBF3_SetInterruptHandler *****************
  4262 ;; Defined at:
  4263 ;;		line 181 in file "mcc_generated_files/pin_manager.c"
  4264 ;; Parameters:    Size  Location     Type
  4265 ;;  InterruptHan    2    0[BANK0 ] PTR FTN()void 
  4266 ;;		 -> chegadaS2(1), chegadaS1(1), IOCBF3_DefaultInterruptHandler(1), 
  4267 ;; Auto vars:     Size  Location     Type
  4268 ;;		None
  4269 ;; Return value:  Size  Location     Type
  4270 ;;                  1    wreg      void 
  4271 ;; Registers used:
  4272 ;;		wreg
  4273 ;; Tracked objects:
  4274 ;;		On entry : 0/0
  4275 ;;		On exit  : 0/0
  4276 ;;		Unchanged: 0/0
  4277 ;; Data sizes:     COMMON   BANK0   BANK1   BANK2   BANK3   BANK4
  4278 ;;      Params:         0       2       0       0       0       0
  4279 ;;      Locals:         0       0       0       0       0       0
  4280 ;;      Temps:          0       0       0       0       0       0
  4281 ;;      Totals:         0       2       0       0       0       0
  4282 ;;Total ram usage:        2 bytes
  4283 ;; Hardware stack levels used: 1
  4284 ;; Hardware stack levels required when called: 7
  4285 ;; This function calls:
  4286 ;;		Nothing
  4287 ;; This function is called by:
  4288 ;;		_PIN_MANAGER_Initialize
  4289 ;;		_main
  4290 ;; This function uses a non-reentrant model
  4291 ;;
  4292                           
  4293  051E                     _IOCBF3_SetInterruptHandler:	
  4294                           ;psect for function _IOCBF3_SetInterruptHandler
  4295                           
  4296  051E                     l2054:	
  4297                           ;incstack = 0
  4298                           ; Regs used in _IOCBF3_SetInterruptHandler: [wreg]
  4299                           
  4300                           
  4301                           ;mcc_generated_files/pin_manager.c: 182:     IOCBF3_InterruptHandler = InterruptHandler;
  4302  051E  0020               	movlb	0	; select bank0
  4303  051F  0832               	movf	IOCBF3_SetInterruptHandler@InterruptHandler+1,w
  4304  0520  00CF               	movwf	_IOCBF3_InterruptHandler+1
  4305  0521  0831               	movf	IOCBF3_SetInterruptHandler@InterruptHandler,w
  4306  0522  00CE               	movwf	_IOCBF3_InterruptHandler
  4307  0523                     l151:
  4308  0523  0008               	return
  4309  0524                     __end_of_IOCBF3_SetInterruptHandler:
  4310                           
  4311                           	psect	text15
  4312  0524                     __ptext15:	
  4313 ;; *************** function _IOCBF0_SetInterruptHandler *****************
  4314 ;; Defined at:
  4315 ;;		line 151 in file "mcc_generated_files/pin_manager.c"
  4316 ;; Parameters:    Size  Location     Type
  4317 ;;  InterruptHan    2    0[BANK0 ] PTR FTN()void 
  4318 ;;		 -> IOCBF0_DefaultInterruptHandler(1), 
  4319 ;; Auto vars:     Size  Location     Type
  4320 ;;		None
  4321 ;; Return value:  Size  Location     Type
  4322 ;;                  1    wreg      void 
  4323 ;; Registers used:
  4324 ;;		wreg
  4325 ;; Tracked objects:
  4326 ;;		On entry : 0/0
  4327 ;;		On exit  : 0/0
  4328 ;;		Unchanged: 0/0
  4329 ;; Data sizes:     COMMON   BANK0   BANK1   BANK2   BANK3   BANK4
  4330 ;;      Params:         0       2       0       0       0       0
  4331 ;;      Locals:         0       0       0       0       0       0
  4332 ;;      Temps:          0       0       0       0       0       0
  4333 ;;      Totals:         0       2       0       0       0       0
  4334 ;;Total ram usage:        2 bytes
  4335 ;; Hardware stack levels used: 1
  4336 ;; Hardware stack levels required when called: 7
  4337 ;; This function calls:
  4338 ;;		Nothing
  4339 ;; This function is called by:
  4340 ;;		_PIN_MANAGER_Initialize
  4341 ;; This function uses a non-reentrant model
  4342 ;;
  4343                           
  4344  0524                     _IOCBF0_SetInterruptHandler:	
  4345                           ;psect for function _IOCBF0_SetInterruptHandler
  4346                           
  4347  0524                     l2052:	
  4348                           ;incstack = 0
  4349                           ; Regs used in _IOCBF0_SetInterruptHandler: [wreg]
  4350                           
  4351                           
  4352                           ;mcc_generated_files/pin_manager.c: 152:     IOCBF0_InterruptHandler = InterruptHandler;
  4353  0524  0020               	movlb	0	; select bank0
  4354  0525  0832               	movf	IOCBF0_SetInterruptHandler@InterruptHandler+1,w
  4355  0526  00D1               	movwf	_IOCBF0_InterruptHandler+1
  4356  0527  0831               	movf	IOCBF0_SetInterruptHandler@InterruptHandler,w
  4357  0528  00D0               	movwf	_IOCBF0_InterruptHandler
  4358  0529                     l141:
  4359  0529  0008               	return
  4360  052A                     __end_of_IOCBF0_SetInterruptHandler:
  4361                           
  4362                           	psect	text16
  4363  0505                     __ptext16:	
  4364 ;; *************** function _OSCILLATOR_Initialize *****************
  4365 ;; Defined at:
  4366 ;;		line 68 in file "mcc_generated_files/mcc.c"
  4367 ;; Parameters:    Size  Location     Type
  4368 ;;		None
  4369 ;; Auto vars:     Size  Location     Type
  4370 ;;		None
  4371 ;; Return value:  Size  Location     Type
  4372 ;;                  1    wreg      void 
  4373 ;; Registers used:
  4374 ;;		wreg, status,2
  4375 ;; Tracked objects:
  4376 ;;		On entry : 0/0
  4377 ;;		On exit  : 0/0
  4378 ;;		Unchanged: 0/0
  4379 ;; Data sizes:     COMMON   BANK0   BANK1   BANK2   BANK3   BANK4
  4380 ;;      Params:         0       0       0       0       0       0
  4381 ;;      Locals:         0       0       0       0       0       0
  4382 ;;      Temps:          0       0       0       0       0       0
  4383 ;;      Totals:         0       0       0       0       0       0
  4384 ;;Total ram usage:        0 bytes
  4385 ;; Hardware stack levels used: 1
  4386 ;; Hardware stack levels required when called: 7
  4387 ;; This function calls:
  4388 ;;		Nothing
  4389 ;; This function is called by:
  4390 ;;		_SYSTEM_Initialize
  4391 ;; This function uses a non-reentrant model
  4392 ;;
  4393                           
  4394  0505                     _OSCILLATOR_Initialize:	
  4395                           ;psect for function _OSCILLATOR_Initialize
  4396                           
  4397  0505                     l2290:	
  4398                           ;incstack = 0
  4399                           ; Regs used in _OSCILLATOR_Initialize: [wreg+status,2]
  4400                           
  4401                           
  4402                           ;mcc_generated_files/mcc.c: 71:     OSCCON = 0x68;
  4403  0505  3068               	movlw	104
  4404  0506  0021               	movlb	1	; select bank1
  4405  0507  0099               	movwf	25	;volatile
  4406  0508                     l2292:
  4407                           
  4408                           ;mcc_generated_files/mcc.c: 73:     OSCTUNE = 0x00;
  4409  0508  0198               	clrf	24	;volatile
  4410  0509                     l2294:
  4411                           
  4412                           ;mcc_generated_files/mcc.c: 75:     BORCON = 0x00;
  4413  0509  0022               	movlb	2	; select bank2
  4414  050A  0196               	clrf	22	;volatile
  4415  050B                     l194:
  4416  050B  0008               	return
  4417  050C                     __end_of_OSCILLATOR_Initialize:
  4418                           
  4419                           	psect	text17
  4420  0550                     __ptext17:	
  4421 ;; *************** function _FVR_Initialize *****************
  4422 ;; Defined at:
  4423 ;;		line 58 in file "mcc_generated_files/fvr.c"
  4424 ;; Parameters:    Size  Location     Type
  4425 ;;		None
  4426 ;; Auto vars:     Size  Location     Type
  4427 ;;		None
  4428 ;; Return value:  Size  Location     Type
  4429 ;;                  1    wreg      void 
  4430 ;; Registers used:
  4431 ;;		wreg
  4432 ;; Tracked objects:
  4433 ;;		On entry : 0/0
  4434 ;;		On exit  : 0/0
  4435 ;;		Unchanged: 0/0
  4436 ;; Data sizes:     COMMON   BANK0   BANK1   BANK2   BANK3   BANK4
  4437 ;;      Params:         0       0       0       0       0       0
  4438 ;;      Locals:         0       0       0       0       0       0
  4439 ;;      Temps:          0       0       0       0       0       0
  4440 ;;      Totals:         0       0       0       0       0       0
  4441 ;;Total ram usage:        0 bytes
  4442 ;; Hardware stack levels used: 1
  4443 ;; Hardware stack levels required when called: 7
  4444 ;; This function calls:
  4445 ;;		Nothing
  4446 ;; This function is called by:
  4447 ;;		_SYSTEM_Initialize
  4448 ;; This function uses a non-reentrant model
  4449 ;;
  4450                           
  4451  0550                     _FVR_Initialize:	
  4452                           ;psect for function _FVR_Initialize
  4453                           
  4454  0550                     l2298:	
  4455                           ;incstack = 0
  4456                           ; Regs used in _FVR_Initialize: [wreg]
  4457                           
  4458                           
  4459                           ;mcc_generated_files/fvr.c: 61:     FVRCON = 0x89;
  4460  0550  3089               	movlw	137
  4461  0551  0022               	movlb	2	; select bank2
  4462  0552  0097               	movwf	23	;volatile
  4463  0553                     l242:
  4464  0553  0008               	return
  4465  0554                     __end_of_FVR_Initialize:
  4466                           
  4467                           	psect	text18
  4468  0378                     __ptext18:	
  4469 ;; *************** function _EUSART_Initialize *****************
  4470 ;; Defined at:
  4471 ;;		line 66 in file "mcc_generated_files/eusart.c"
  4472 ;; Parameters:    Size  Location     Type
  4473 ;;		None
  4474 ;; Auto vars:     Size  Location     Type
  4475 ;;		None
  4476 ;; Return value:  Size  Location     Type
  4477 ;;                  1    wreg      void 
  4478 ;; Registers used:
  4479 ;;		wreg, status,2, status,0, pclath, cstack
  4480 ;; Tracked objects:
  4481 ;;		On entry : 0/0
  4482 ;;		On exit  : 0/0
  4483 ;;		Unchanged: 0/0
  4484 ;; Data sizes:     COMMON   BANK0   BANK1   BANK2   BANK3   BANK4
  4485 ;;      Params:         0       0       0       0       0       0
  4486 ;;      Locals:         0       0       0       0       0       0
  4487 ;;      Temps:          0       0       0       0       0       0
  4488 ;;      Totals:         0       0       0       0       0       0
  4489 ;;Total ram usage:        0 bytes
  4490 ;; Hardware stack levels used: 1
  4491 ;; Hardware stack levels required when called: 8
  4492 ;; This function calls:
  4493 ;;		_EUSART_SetErrorHandler
  4494 ;;		_EUSART_SetFramingErrorHandler
  4495 ;;		_EUSART_SetOverrunErrorHandler
  4496 ;; This function is called by:
  4497 ;;		_SYSTEM_Initialize
  4498 ;; This function uses a non-reentrant model
  4499 ;;
  4500                           
  4501  0378                     _EUSART_Initialize:	
  4502                           ;psect for function _EUSART_Initialize
  4503                           
  4504  0378                     l2342:	
  4505                           ;incstack = 0
  4506                           ; Regs used in _EUSART_Initialize: [wreg+status,2+status,0+pclath+cstack]
  4507                           
  4508                           
  4509                           ;mcc_generated_files/eusart.c: 71:     BAUDCON = 0x08;
  4510  0378  3008               	movlw	8
  4511  0379  0023               	movlb	3	; select bank3
  4512  037A  009F               	movwf	31	;volatile
  4513                           
  4514                           ;mcc_generated_files/eusart.c: 74:     RCSTA = 0x90;
  4515  037B  3090               	movlw	144
  4516  037C  009D               	movwf	29	;volatile
  4517                           
  4518                           ;mcc_generated_files/eusart.c: 77:     TXSTA = 0x24;
  4519  037D  3024               	movlw	36
  4520  037E  009E               	movwf	30	;volatile
  4521                           
  4522                           ;mcc_generated_files/eusart.c: 80:     SPBRGL = 0x33;
  4523  037F  3033               	movlw	51
  4524  0380  009B               	movwf	27	;volatile
  4525  0381                     l2344:
  4526                           
  4527                           ;mcc_generated_files/eusart.c: 83:     SPBRGH = 0x00;
  4528  0381  019C               	clrf	28	;volatile
  4529  0382                     l2346:
  4530                           
  4531                           ;mcc_generated_files/eusart.c: 86:     EUSART_SetFramingErrorHandler(EUSART_DefaultFrami
      +                          ngErrorHandler);
  4532  0382  3000               	movlw	0
  4533  0383  0020               	movlb	0	; select bank0
  4534  0384  00B1               	movwf	EUSART_SetFramingErrorHandler@interruptHandler
  4535  0385  3000               	movlw	0
  4536  0386  00B2               	movwf	EUSART_SetFramingErrorHandler@interruptHandler+1
  4537  0387  3185  2530  3183   	fcall	_EUSART_SetFramingErrorHandler
  4538  038A                     l2348:
  4539                           
  4540                           ;mcc_generated_files/eusart.c: 87:     EUSART_SetOverrunErrorHandler(EUSART_DefaultOverr
      +                          unErrorHandler);
  4541  038A  3000               	movlw	0
  4542  038B  0020               	movlb	0	; select bank0
  4543  038C  00B1               	movwf	EUSART_SetOverrunErrorHandler@interruptHandler
  4544  038D  3000               	movlw	0
  4545  038E  00B2               	movwf	EUSART_SetOverrunErrorHandler@interruptHandler+1
  4546  038F  3185  252A  3183   	fcall	_EUSART_SetOverrunErrorHandler
  4547  0392                     l2350:
  4548                           
  4549                           ;mcc_generated_files/eusart.c: 88:     EUSART_SetErrorHandler(EUSART_DefaultErrorHandler
      +                          );
  4550  0392  3000               	movlw	0
  4551  0393  0020               	movlb	0	; select bank0
  4552  0394  00B1               	movwf	EUSART_SetErrorHandler@interruptHandler
  4553  0395  3000               	movlw	0
  4554  0396  00B2               	movwf	EUSART_SetErrorHandler@interruptHandler+1
  4555  0397  3185  2536  3183   	fcall	_EUSART_SetErrorHandler
  4556  039A                     l2352:
  4557                           
  4558                           ;mcc_generated_files/eusart.c: 90:     eusartRxLastError.status = 0;
  4559  039A  0020               	movlb	0	; select bank0
  4560  039B  01AD               	clrf	_eusartRxLastError	;volatile
  4561  039C                     l288:
  4562  039C  0008               	return
  4563  039D                     __end_of_EUSART_Initialize:
  4564                           
  4565                           	psect	text19
  4566  052A                     __ptext19:	
  4567 ;; *************** function _EUSART_SetOverrunErrorHandler *****************
  4568 ;; Defined at:
  4569 ;;		line 161 in file "mcc_generated_files/eusart.c"
  4570 ;; Parameters:    Size  Location     Type
  4571 ;;  interruptHan    2    0[BANK0 ] PTR FTN()void 
  4572 ;;		 -> EUSART_DefaultOverrunErrorHandler(1), 
  4573 ;; Auto vars:     Size  Location     Type
  4574 ;;		None
  4575 ;; Return value:  Size  Location     Type
  4576 ;;                  1    wreg      void 
  4577 ;; Registers used:
  4578 ;;		wreg
  4579 ;; Tracked objects:
  4580 ;;		On entry : 0/0
  4581 ;;		On exit  : 0/0
  4582 ;;		Unchanged: 0/0
  4583 ;; Data sizes:     COMMON   BANK0   BANK1   BANK2   BANK3   BANK4
  4584 ;;      Params:         0       2       0       0       0       0
  4585 ;;      Locals:         0       0       0       0       0       0
  4586 ;;      Temps:          0       0       0       0       0       0
  4587 ;;      Totals:         0       2       0       0       0       0
  4588 ;;Total ram usage:        2 bytes
  4589 ;; Hardware stack levels used: 1
  4590 ;; Hardware stack levels required when called: 7
  4591 ;; This function calls:
  4592 ;;		Nothing
  4593 ;; This function is called by:
  4594 ;;		_EUSART_Initialize
  4595 ;; This function uses a non-reentrant model
  4596 ;;
  4597                           
  4598  052A                     _EUSART_SetOverrunErrorHandler:	
  4599                           ;psect for function _EUSART_SetOverrunErrorHandler
  4600                           
  4601  052A                     l2058:	
  4602                           ;incstack = 0
  4603                           ; Regs used in _EUSART_SetOverrunErrorHandler: [wreg]
  4604                           
  4605                           
  4606                           ;mcc_generated_files/eusart.c: 162:     EUSART_OverrunErrorHandler = interruptHandler;
  4607  052A  0020               	movlb	0	; select bank0
  4608  052B  0832               	movf	EUSART_SetOverrunErrorHandler@interruptHandler+1,w
  4609  052C  00CB               	movwf	_EUSART_OverrunErrorHandler+1
  4610  052D  0831               	movf	EUSART_SetOverrunErrorHandler@interruptHandler,w
  4611  052E  00CA               	movwf	_EUSART_OverrunErrorHandler
  4612  052F                     l330:
  4613  052F  0008               	return
  4614  0530                     __end_of_EUSART_SetOverrunErrorHandler:
  4615                           
  4616                           	psect	text20
  4617  0530                     __ptext20:	
  4618 ;; *************** function _EUSART_SetFramingErrorHandler *****************
  4619 ;; Defined at:
  4620 ;;		line 157 in file "mcc_generated_files/eusart.c"
  4621 ;; Parameters:    Size  Location     Type
  4622 ;;  interruptHan    2    0[BANK0 ] PTR FTN()void 
  4623 ;;		 -> EUSART_DefaultFramingErrorHandler(1), 
  4624 ;; Auto vars:     Size  Location     Type
  4625 ;;		None
  4626 ;; Return value:  Size  Location     Type
  4627 ;;                  1    wreg      void 
  4628 ;; Registers used:
  4629 ;;		wreg
  4630 ;; Tracked objects:
  4631 ;;		On entry : 0/0
  4632 ;;		On exit  : 0/0
  4633 ;;		Unchanged: 0/0
  4634 ;; Data sizes:     COMMON   BANK0   BANK1   BANK2   BANK3   BANK4
  4635 ;;      Params:         0       2       0       0       0       0
  4636 ;;      Locals:         0       0       0       0       0       0
  4637 ;;      Temps:          0       0       0       0       0       0
  4638 ;;      Totals:         0       2       0       0       0       0
  4639 ;;Total ram usage:        2 bytes
  4640 ;; Hardware stack levels used: 1
  4641 ;; Hardware stack levels required when called: 7
  4642 ;; This function calls:
  4643 ;;		Nothing
  4644 ;; This function is called by:
  4645 ;;		_EUSART_Initialize
  4646 ;; This function uses a non-reentrant model
  4647 ;;
  4648                           
  4649  0530                     _EUSART_SetFramingErrorHandler:	
  4650                           ;psect for function _EUSART_SetFramingErrorHandler
  4651                           
  4652  0530                     l2056:	
  4653                           ;incstack = 0
  4654                           ; Regs used in _EUSART_SetFramingErrorHandler: [wreg]
  4655                           
  4656                           
  4657                           ;mcc_generated_files/eusart.c: 158:     EUSART_FramingErrorHandler = interruptHandler;
  4658  0530  0020               	movlb	0	; select bank0
  4659  0531  0832               	movf	EUSART_SetFramingErrorHandler@interruptHandler+1,w
  4660  0532  00CD               	movwf	_EUSART_FramingErrorHandler+1
  4661  0533  0831               	movf	EUSART_SetFramingErrorHandler@interruptHandler,w
  4662  0534  00CC               	movwf	_EUSART_FramingErrorHandler
  4663  0535                     l327:
  4664  0535  0008               	return
  4665  0536                     __end_of_EUSART_SetFramingErrorHandler:
  4666                           
  4667                           	psect	text21
  4668  0536                     __ptext21:	
  4669 ;; *************** function _EUSART_SetErrorHandler *****************
  4670 ;; Defined at:
  4671 ;;		line 165 in file "mcc_generated_files/eusart.c"
  4672 ;; Parameters:    Size  Location     Type
  4673 ;;  interruptHan    2    0[BANK0 ] PTR FTN()void 
  4674 ;;		 -> EUSART_DefaultErrorHandler(1), 
  4675 ;; Auto vars:     Size  Location     Type
  4676 ;;		None
  4677 ;; Return value:  Size  Location     Type
  4678 ;;                  1    wreg      void 
  4679 ;; Registers used:
  4680 ;;		wreg
  4681 ;; Tracked objects:
  4682 ;;		On entry : 0/0
  4683 ;;		On exit  : 0/0
  4684 ;;		Unchanged: 0/0
  4685 ;; Data sizes:     COMMON   BANK0   BANK1   BANK2   BANK3   BANK4
  4686 ;;      Params:         0       2       0       0       0       0
  4687 ;;      Locals:         0       0       0       0       0       0
  4688 ;;      Temps:          0       0       0       0       0       0
  4689 ;;      Totals:         0       2       0       0       0       0
  4690 ;;Total ram usage:        2 bytes
  4691 ;; Hardware stack levels used: 1
  4692 ;; Hardware stack levels required when called: 7
  4693 ;; This function calls:
  4694 ;;		Nothing
  4695 ;; This function is called by:
  4696 ;;		_EUSART_Initialize
  4697 ;; This function uses a non-reentrant model
  4698 ;;
  4699                           
  4700  0536                     _EUSART_SetErrorHandler:	
  4701                           ;psect for function _EUSART_SetErrorHandler
  4702                           
  4703  0536                     l2060:	
  4704                           ;incstack = 0
  4705                           ; Regs used in _EUSART_SetErrorHandler: [wreg]
  4706                           
  4707                           
  4708                           ;mcc_generated_files/eusart.c: 166:     EUSART_ErrorHandler = interruptHandler;
  4709  0536  0020               	movlb	0	; select bank0
  4710  0537  0832               	movf	EUSART_SetErrorHandler@interruptHandler+1,w
  4711  0538  00C9               	movwf	_EUSART_ErrorHandler+1
  4712  0539  0831               	movf	EUSART_SetErrorHandler@interruptHandler,w
  4713  053A  00C8               	movwf	_EUSART_ErrorHandler
  4714  053B                     l333:
  4715  053B  0008               	return
  4716  053C                     __end_of_EUSART_SetErrorHandler:
  4717                           
  4718                           	psect	text22
  4719  04C9                     __ptext22:	
  4720 ;; *************** function _CMP2_Initialize *****************
  4721 ;; Defined at:
  4722 ;;		line 59 in file "mcc_generated_files/cmp2.c"
  4723 ;; Parameters:    Size  Location     Type
  4724 ;;		None
  4725 ;; Auto vars:     Size  Location     Type
  4726 ;;		None
  4727 ;; Return value:  Size  Location     Type
  4728 ;;                  1    wreg      void 
  4729 ;; Registers used:
  4730 ;;		wreg
  4731 ;; Tracked objects:
  4732 ;;		On entry : 0/0
  4733 ;;		On exit  : 0/0
  4734 ;;		Unchanged: 0/0
  4735 ;; Data sizes:     COMMON   BANK0   BANK1   BANK2   BANK3   BANK4
  4736 ;;      Params:         0       0       0       0       0       0
  4737 ;;      Locals:         0       0       0       0       0       0
  4738 ;;      Temps:          0       0       0       0       0       0
  4739 ;;      Totals:         0       0       0       0       0       0
  4740 ;;Total ram usage:        0 bytes
  4741 ;; Hardware stack levels used: 1
  4742 ;; Hardware stack levels required when called: 7
  4743 ;; This function calls:
  4744 ;;		Nothing
  4745 ;; This function is called by:
  4746 ;;		_SYSTEM_Initialize
  4747 ;; This function uses a non-reentrant model
  4748 ;;
  4749                           
  4750  04C9                     _CMP2_Initialize:	
  4751                           ;psect for function _CMP2_Initialize
  4752                           
  4753  04C9                     l2146:	
  4754                           ;incstack = 0
  4755                           ; Regs used in _CMP2_Initialize: [wreg]
  4756                           
  4757                           
  4758                           ;mcc_generated_files/cmp2.c: 66:     PIE2bits.C2IE = 0;
  4759  04C9  0021               	movlb	1	; select bank1
  4760  04CA  1312               	bcf	18,6	;volatile
  4761  04CB                     l2148:
  4762                           
  4763                           ;mcc_generated_files/cmp2.c: 69:     CM2CON0 = 0x84;
  4764  04CB  3084               	movlw	132
  4765  04CC  0022               	movlb	2	; select bank2
  4766  04CD  0093               	movwf	19	;volatile
  4767                           
  4768                           ;mcc_generated_files/cmp2.c: 72:     CM2CON1 = 0xA1;
  4769  04CE  30A1               	movlw	161
  4770  04CF  0094               	movwf	20	;volatile
  4771  04D0                     l2150:
  4772                           
  4773                           ;mcc_generated_files/cmp2.c: 75:     PIR2bits.C2IF = 0;
  4774  04D0  0020               	movlb	0	; select bank0
  4775  04D1  1312               	bcf	18,6	;volatile
  4776  04D2                     l2152:
  4777                           
  4778                           ;mcc_generated_files/cmp2.c: 78:     PIE2bits.C2IE = 1;
  4779  04D2  0021               	movlb	1	; select bank1
  4780  04D3  1712               	bsf	18,6	;volatile
  4781  04D4                     l41:
  4782  04D4  0008               	return
  4783  04D5                     __end_of_CMP2_Initialize:
  4784                           
  4785                           	psect	text23
  4786  04D5                     __ptext23:	
  4787 ;; *************** function _CMP1_Initialize *****************
  4788 ;; Defined at:
  4789 ;;		line 59 in file "mcc_generated_files/cmp1.c"
  4790 ;; Parameters:    Size  Location     Type
  4791 ;;		None
  4792 ;; Auto vars:     Size  Location     Type
  4793 ;;		None
  4794 ;; Return value:  Size  Location     Type
  4795 ;;                  1    wreg      void 
  4796 ;; Registers used:
  4797 ;;		wreg
  4798 ;; Tracked objects:
  4799 ;;		On entry : 0/0
  4800 ;;		On exit  : 0/0
  4801 ;;		Unchanged: 0/0
  4802 ;; Data sizes:     COMMON   BANK0   BANK1   BANK2   BANK3   BANK4
  4803 ;;      Params:         0       0       0       0       0       0
  4804 ;;      Locals:         0       0       0       0       0       0
  4805 ;;      Temps:          0       0       0       0       0       0
  4806 ;;      Totals:         0       0       0       0       0       0
  4807 ;;Total ram usage:        0 bytes
  4808 ;; Hardware stack levels used: 1
  4809 ;; Hardware stack levels required when called: 7
  4810 ;; This function calls:
  4811 ;;		Nothing
  4812 ;; This function is called by:
  4813 ;;		_SYSTEM_Initialize
  4814 ;; This function uses a non-reentrant model
  4815 ;;
  4816                           
  4817  04D5                     _CMP1_Initialize:	
  4818                           ;psect for function _CMP1_Initialize
  4819                           
  4820  04D5                     l2190:	
  4821                           ;incstack = 0
  4822                           ; Regs used in _CMP1_Initialize: [wreg]
  4823                           
  4824                           
  4825                           ;mcc_generated_files/cmp1.c: 66:     PIE2bits.C1IE = 0;
  4826  04D5  0021               	movlb	1	; select bank1
  4827  04D6  1292               	bcf	18,5	;volatile
  4828  04D7                     l2192:
  4829                           
  4830                           ;mcc_generated_files/cmp1.c: 69:     CM1CON0 = 0x84;
  4831  04D7  3084               	movlw	132
  4832  04D8  0022               	movlb	2	; select bank2
  4833  04D9  0091               	movwf	17	;volatile
  4834                           
  4835                           ;mcc_generated_files/cmp1.c: 72:     CM1CON1 = 0xA0;
  4836  04DA  30A0               	movlw	160
  4837  04DB  0092               	movwf	18	;volatile
  4838  04DC                     l2194:
  4839                           
  4840                           ;mcc_generated_files/cmp1.c: 75:     PIR2bits.C1IF = 0;
  4841  04DC  0020               	movlb	0	; select bank0
  4842  04DD  1292               	bcf	18,5	;volatile
  4843  04DE                     l2196:
  4844                           
  4845                           ;mcc_generated_files/cmp1.c: 78:     PIE2bits.C1IE = 1;
  4846  04DE  0021               	movlb	1	; select bank1
  4847  04DF  1692               	bsf	18,5	;volatile
  4848  04E0                     l74:
  4849  04E0  0008               	return
  4850  04E1                     __end_of_CMP1_Initialize:
  4851                           
  4852                           	psect	text24
  4853  04FD                     __ptext24:	
  4854 ;; *************** function _ADC_Initialize *****************
  4855 ;; Defined at:
  4856 ;;		line 67 in file "mcc_generated_files/adc.c"
  4857 ;; Parameters:    Size  Location     Type
  4858 ;;		None
  4859 ;; Auto vars:     Size  Location     Type
  4860 ;;		None
  4861 ;; Return value:  Size  Location     Type
  4862 ;;                  1    wreg      void 
  4863 ;; Registers used:
  4864 ;;		wreg, status,2
  4865 ;; Tracked objects:
  4866 ;;		On entry : 0/0
  4867 ;;		On exit  : 0/0
  4868 ;;		Unchanged: 0/0
  4869 ;; Data sizes:     COMMON   BANK0   BANK1   BANK2   BANK3   BANK4
  4870 ;;      Params:         0       0       0       0       0       0
  4871 ;;      Locals:         0       0       0       0       0       0
  4872 ;;      Temps:          0       0       0       0       0       0
  4873 ;;      Totals:         0       0       0       0       0       0
  4874 ;;Total ram usage:        0 bytes
  4875 ;; Hardware stack levels used: 1
  4876 ;; Hardware stack levels required when called: 7
  4877 ;; This function calls:
  4878 ;;		Nothing
  4879 ;; This function is called by:
  4880 ;;		_SYSTEM_Initialize
  4881 ;; This function uses a non-reentrant model
  4882 ;;
  4883                           
  4884  04FD                     _ADC_Initialize:	
  4885                           ;psect for function _ADC_Initialize
  4886                           
  4887  04FD                     l2320:	
  4888                           ;incstack = 0
  4889                           ; Regs used in _ADC_Initialize: [wreg+status,2]
  4890                           
  4891                           
  4892                           ;mcc_generated_files/adc.c: 72:     ADCON1 = 0xC3;
  4893  04FD  30C3               	movlw	195
  4894  04FE  0021               	movlb	1	; select bank1
  4895  04FF  009E               	movwf	30	;volatile
  4896  0500                     l2322:
  4897                           
  4898                           ;mcc_generated_files/adc.c: 75:     ADRESL = 0x00;
  4899  0500  019B               	clrf	27	;volatile
  4900  0501                     l2324:
  4901                           
  4902                           ;mcc_generated_files/adc.c: 78:     ADRESH = 0x00;
  4903  0501  019C               	clrf	28	;volatile
  4904                           
  4905                           ;mcc_generated_files/adc.c: 81:     ADCON0 = 0x01;
  4906  0502  3001               	movlw	1
  4907  0503  009D               	movwf	29	;volatile
  4908  0504                     l214:
  4909  0504  0008               	return
  4910  0505                     __end_of_ADC_Initialize:
  4911                           
  4912                           	psect	text25
  4913  01EC                     __ptext25:	
  4914 ;; *************** function _SPI1_Open *****************
  4915 ;; Defined at:
  4916 ;;		line 72 in file "mcc_generated_files/spi1.c"
  4917 ;; Parameters:    Size  Location     Type
  4918 ;;  spi1UniqueCo    1    wreg     enum E355
  4919 ;; Auto vars:     Size  Location     Type
  4920 ;;  spi1UniqueCo    1    3[BANK0 ] enum E355
  4921 ;; Return value:  Size  Location     Type
  4922 ;;                  1    wreg      _Bool 
  4923 ;; Registers used:
  4924 ;;		wreg, fsr0l, fsr0h, status,2, status,0, pclath
  4925 ;; Tracked objects:
  4926 ;;		On entry : 0/0
  4927 ;;		On exit  : 0/0
  4928 ;;		Unchanged: 0/0
  4929 ;; Data sizes:     COMMON   BANK0   BANK1   BANK2   BANK3   BANK4
  4930 ;;      Params:         0       0       0       0       0       0
  4931 ;;      Locals:         0       1       0       0       0       0
  4932 ;;      Temps:          0       3       0       0       0       0
  4933 ;;      Totals:         0       4       0       0       0       0
  4934 ;;Total ram usage:        4 bytes
  4935 ;; Hardware stack levels used: 1
  4936 ;; Hardware stack levels required when called: 7
  4937 ;; This function calls:
  4938 ;;		Nothing
  4939 ;; This function is called by:
  4940 ;;		_main
  4941 ;; This function uses a non-reentrant model
  4942 ;;
  4943                           
  4944  01EC                     _SPI1_Open:	
  4945                           ;psect for function _SPI1_Open
  4946                           
  4947                           
  4948                           ;incstack = 0
  4949                           ; Regs used in _SPI1_Open: [wreg-fsr0h+status,2+status,0+pclath]
  4950                           ;SPI1_Open@spi1UniqueConfiguration stored from wreg
  4951  01EC  0020               	movlb	0	; select bank0
  4952  01ED  00B4               	movwf	SPI1_Open@spi1UniqueConfiguration
  4953  01EE                     l2398:
  4954                           
  4955                           ;mcc_generated_files/spi1.c: 72: _Bool SPI1_Open(spi1_modes_t spi1UniqueConfiguration);m
      +                          cc_generated_files/spi1.c: 73: {;mcc_generated_files/spi1.c: 74:     if(!SSP1CON1bits.SS
      +                          PEN)
  4956  01EE  0024               	movlb	4	; select bank4
  4957  01EF  1A95               	btfsc	21,5	;volatile
  4958  01F0  29F2               	goto	u751
  4959  01F1  29F3               	goto	u750
  4960  01F2                     u751:
  4961  01F2  2A42               	goto	l358
  4962  01F3                     u750:
  4963  01F3                     l2400:
  4964                           
  4965                           ;mcc_generated_files/spi1.c: 75:     {;mcc_generated_files/spi1.c: 76:         SSP1STAT 
      +                          = spi1_configuration[spi1UniqueConfiguration].stat;
  4966  01F3  0020               	movlb	0	; select bank0
  4967  01F4  0834               	movf	SPI1_Open@spi1UniqueConfiguration,w
  4968  01F5  00B1               	movwf	??_SPI1_Open
  4969  01F6  01B2               	clrf	??_SPI1_Open+1
  4970  01F7  35B1               	lslf	??_SPI1_Open,f
  4971  01F8  0DB2               	rlf	??_SPI1_Open+1,f
  4972  01F9  35B1               	lslf	??_SPI1_Open,f
  4973  01FA  0DB2               	rlf	??_SPI1_Open+1,f
  4974  01FB  3049               	movlw	low ((_spi1_configuration+1)| (0+32768))
  4975  01FC  0731               	addwf	??_SPI1_Open,w
  4976  01FD  0084               	movwf	4
  4977  01FE  3085               	movlw	high ((_spi1_configuration+1)| (0+32768))
  4978  01FF  3D32               	addwfc	??_SPI1_Open+1,w
  4979  0200  0085               	movwf	5
  4980  0201  0800               	movf	0,w	;code access
  4981  0202  0024               	movlb	4	; select bank4
  4982  0203  0094               	movwf	20	;volatile
  4983                           
  4984                           ;mcc_generated_files/spi1.c: 77:         SSP1CON1 = spi1_configuration[spi1UniqueConfigu
      +                          ration].con1;
  4985  0204  0020               	movlb	0	; select bank0
  4986  0205  0834               	movf	SPI1_Open@spi1UniqueConfiguration,w
  4987  0206  00B1               	movwf	??_SPI1_Open
  4988  0207  01B2               	clrf	??_SPI1_Open+1
  4989  0208  35B1               	lslf	??_SPI1_Open,f
  4990  0209  0DB2               	rlf	??_SPI1_Open+1,f
  4991  020A  35B1               	lslf	??_SPI1_Open,f
  4992  020B  0DB2               	rlf	??_SPI1_Open+1,f
  4993  020C  3048               	movlw	low (_spi1_configuration| (0+32768))
  4994  020D  0731               	addwf	??_SPI1_Open,w
  4995  020E  0084               	movwf	4
  4996  020F  3085               	movlw	high (_spi1_configuration| (0+32768))
  4997  0210  3D32               	addwfc	??_SPI1_Open+1,w
  4998  0211  0085               	movwf	5
  4999  0212  0800               	movf	0,w	;code access
  5000  0213  0024               	movlb	4	; select bank4
  5001  0214  0095               	movwf	21	;volatile
  5002  0215                     l2402:
  5003                           
  5004                           ;mcc_generated_files/spi1.c: 78:         SSP1CON2 = 0x00;
  5005  0215  0196               	clrf	22	;volatile
  5006  0216                     l2404:
  5007                           
  5008                           ;mcc_generated_files/spi1.c: 79:         SSP1ADD = spi1_configuration[spi1UniqueConfigur
      +                          ation].add;
  5009  0216  0020               	movlb	0	; select bank0
  5010  0217  0834               	movf	SPI1_Open@spi1UniqueConfiguration,w
  5011  0218  00B1               	movwf	??_SPI1_Open
  5012  0219  01B2               	clrf	??_SPI1_Open+1
  5013  021A  35B1               	lslf	??_SPI1_Open,f
  5014  021B  0DB2               	rlf	??_SPI1_Open+1,f
  5015  021C  35B1               	lslf	??_SPI1_Open,f
  5016  021D  0DB2               	rlf	??_SPI1_Open+1,f
  5017  021E  304A               	movlw	low ((_spi1_configuration+2)| (0+32768))
  5018  021F  0731               	addwf	??_SPI1_Open,w
  5019  0220  0084               	movwf	4
  5020  0221  3085               	movlw	high ((_spi1_configuration+2)| (0+32768))
  5021  0222  3D32               	addwfc	??_SPI1_Open+1,w
  5022  0223  0085               	movwf	5
  5023  0224  0800               	movf	0,w	;code access
  5024  0225  0024               	movlb	4	; select bank4
  5025  0226  0092               	movwf	18	;volatile
  5026  0227                     l2406:
  5027                           
  5028                           ;mcc_generated_files/spi1.c: 80:         TRISBbits.TRISB4 = spi1_configuration[spi1Uniqu
      +                          eConfiguration].operation;
  5029  0227  0020               	movlb	0	; select bank0
  5030  0228  0834               	movf	SPI1_Open@spi1UniqueConfiguration,w
  5031  0229  00B1               	movwf	??_SPI1_Open
  5032  022A  01B2               	clrf	??_SPI1_Open+1
  5033  022B  35B1               	lslf	??_SPI1_Open,f
  5034  022C  0DB2               	rlf	??_SPI1_Open+1,f
  5035  022D  35B1               	lslf	??_SPI1_Open,f
  5036  022E  0DB2               	rlf	??_SPI1_Open+1,f
  5037  022F  304B               	movlw	low ((_spi1_configuration+3)| (0+32768))
  5038  0230  0731               	addwf	??_SPI1_Open,w
  5039  0231  0084               	movwf	4
  5040  0232  3085               	movlw	high ((_spi1_configuration+3)| (0+32768))
  5041  0233  3D32               	addwfc	??_SPI1_Open+1,w
  5042  0234  0085               	movwf	5
  5043  0235  0800               	movf	0,w	;code access
  5044  0236  00B3               	movwf	??_SPI1_Open+2
  5045  0237  0EB3               	swapf	??_SPI1_Open+2,f
  5046  0238  0021               	movlb	1	; select bank1
  5047  0239  080D               	movf	13,w	;volatile
  5048  023A  0020               	movlb	0	; select bank0
  5049  023B  0633               	xorwf	??_SPI1_Open+2,w
  5050  023C  39EF               	andlw	-17
  5051  023D  0633               	xorwf	??_SPI1_Open+2,w
  5052  023E  0021               	movlb	1	; select bank1
  5053  023F  008D               	movwf	13	;volatile
  5054  0240                     l2408:
  5055                           
  5056                           ;mcc_generated_files/spi1.c: 81:         SSP1CON1bits.SSPEN = 1;
  5057  0240  0024               	movlb	4	; select bank4
  5058  0241  1695               	bsf	21,5	;volatile
  5059  0242                     l358:
  5060  0242  0008               	return
  5061  0243                     __end_of_SPI1_Open:
  5062                           
  5063                           	psect	intentry
  5064  0004                     __pintentry:	
  5065 ;; *************** function _INTERRUPT_InterruptManager *****************
  5066 ;; Defined at:
  5067 ;;		line 52 in file "mcc_generated_files/interrupt_manager.c"
  5068 ;; Parameters:    Size  Location     Type
  5069 ;;		None
  5070 ;; Auto vars:     Size  Location     Type
  5071 ;;		None
  5072 ;; Return value:  Size  Location     Type
  5073 ;;                  1    wreg      void 
  5074 ;; Registers used:
  5075 ;;		wreg, fsr0l, fsr0h, fsr1l, fsr1h, status,2, status,0, pclath, cstack
  5076 ;; Tracked objects:
  5077 ;;		On entry : 0/0
  5078 ;;		On exit  : 0/0
  5079 ;;		Unchanged: 0/0
  5080 ;; Data sizes:     COMMON   BANK0   BANK1   BANK2   BANK3   BANK4
  5081 ;;      Params:         0       0       0       0       0       0
  5082 ;;      Locals:         0       0       0       0       0       0
  5083 ;;      Temps:          0       0       0       0       0       0
  5084 ;;      Totals:         0       0       0       0       0       0
  5085 ;;Total ram usage:        0 bytes
  5086 ;; Hardware stack levels used: 1
  5087 ;; Hardware stack levels required when called: 6
  5088 ;; This function calls:
  5089 ;;		_CMP1_ISR
  5090 ;;		_CMP2_ISR
  5091 ;;		_PIN_MANAGER_IOC
  5092 ;;		_TMR0_ISR
  5093 ;;		_TMR1_ISR
  5094 ;; This function is called by:
  5095 ;;		Interrupt level 1
  5096 ;; This function uses a non-reentrant model
  5097 ;;
  5098                           
  5099  0004                     _INTERRUPT_InterruptManager:
  5100                           
  5101                           ;incstack = 0
  5102  0004  147E               	bsf	int$flags,0	;set compiler interrupt flag (level 1)
  5103                           
  5104                           ; Regs used in _INTERRUPT_InterruptManager: [wreg-fsr1h+status,2+status,0+pclath+cstack]
  5105  0005  3180               	pagesel	$
  5106  0006                     i1l2476:
  5107                           
  5108                           ;mcc_generated_files/interrupt_manager.c: 55:     if(INTCONbits.TMR0IE == 1 && INTCONbit
      +                          s.TMR0IF == 1)
  5109  0006  1E8B               	btfss	11,5	;volatile
  5110  0007  2809               	goto	u82_21
  5111  0008  280A               	goto	u82_20
  5112  0009                     u82_21:
  5113  0009  2811               	goto	i1l2482
  5114  000A                     u82_20:
  5115  000A                     i1l2478:
  5116  000A  1D0B               	btfss	11,2	;volatile
  5117  000B  280D               	goto	u83_21
  5118  000C  280E               	goto	u83_20
  5119  000D                     u83_21:
  5120  000D  2811               	goto	i1l2482
  5121  000E                     u83_20:
  5122  000E                     i1l2480:
  5123                           
  5124                           ;mcc_generated_files/interrupt_manager.c: 56:     {;mcc_generated_files/interrupt_manage
      +                          r.c: 57:         TMR0_ISR();
  5125  000E  3183  23F7  3180   	fcall	_TMR0_ISR
  5126  0011                     i1l2482:
  5127                           
  5128                           ;mcc_generated_files/interrupt_manager.c: 59:     if(INTCONbits.IOCIE == 1 && INTCONbits
      +                          .IOCIF == 1)
  5129  0011  1D8B               	btfss	11,3	;volatile
  5130  0012  2814               	goto	u84_21
  5131  0013  2815               	goto	u84_20
  5132  0014                     u84_21:
  5133  0014  281C               	goto	i1l2488
  5134  0015                     u84_20:
  5135  0015                     i1l2484:
  5136  0015  1C0B               	btfss	11,0	;volatile
  5137  0016  2818               	goto	u85_21
  5138  0017  2819               	goto	u85_20
  5139  0018                     u85_21:
  5140  0018  281C               	goto	i1l2488
  5141  0019                     u85_20:
  5142  0019                     i1l2486:
  5143                           
  5144                           ;mcc_generated_files/interrupt_manager.c: 60:     {;mcc_generated_files/interrupt_manage
      +                          r.c: 61:         PIN_MANAGER_IOC();
  5145  0019  3184  2449  3180   	fcall	_PIN_MANAGER_IOC
  5146  001C                     i1l2488:
  5147                           
  5148                           ;mcc_generated_files/interrupt_manager.c: 63:     if(INTCONbits.PEIE == 1)
  5149  001C  1F0B               	btfss	11,6	;volatile
  5150  001D  281F               	goto	u86_21
  5151  001E  2820               	goto	u86_20
  5152  001F                     u86_21:
  5153  001F  2847               	goto	i1l425
  5154  0020                     u86_20:
  5155  0020                     i1l2490:
  5156                           
  5157                           ;mcc_generated_files/interrupt_manager.c: 64:     {;mcc_generated_files/interrupt_manage
      +                          r.c: 65:         if(PIE2bits.C1IE == 1 && PIR2bits.C1IF == 1)
  5158  0020  0021               	movlb	1	; select bank1
  5159  0021  1E92               	btfss	18,5	;volatile
  5160  0022  2824               	goto	u87_21
  5161  0023  2825               	goto	u87_20
  5162  0024                     u87_21:
  5163  0024  282D               	goto	i1l2496
  5164  0025                     u87_20:
  5165  0025                     i1l2492:
  5166  0025  0020               	movlb	0	; select bank0
  5167  0026  1E92               	btfss	18,5	;volatile
  5168  0027  2829               	goto	u88_21
  5169  0028  282A               	goto	u88_20
  5170  0029                     u88_21:
  5171  0029  282D               	goto	i1l2496
  5172  002A                     u88_20:
  5173  002A                     i1l2494:
  5174                           
  5175                           ;mcc_generated_files/interrupt_manager.c: 66:         {;mcc_generated_files/interrupt_ma
      +                          nager.c: 67:             CMP1_ISR();
  5176  002A  3185  2542  3180   	fcall	_CMP1_ISR
  5177  002D                     i1l2496:
  5178                           
  5179                           ;mcc_generated_files/interrupt_manager.c: 69:         if(PIE2bits.C2IE == 1 && PIR2bits.
      +                          C2IF == 1)
  5180  002D  0021               	movlb	1	; select bank1
  5181  002E  1F12               	btfss	18,6	;volatile
  5182  002F  2831               	goto	u89_21
  5183  0030  2832               	goto	u89_20
  5184  0031                     u89_21:
  5185  0031  283A               	goto	i1l2502
  5186  0032                     u89_20:
  5187  0032                     i1l2498:
  5188  0032  0020               	movlb	0	; select bank0
  5189  0033  1F12               	btfss	18,6	;volatile
  5190  0034  2836               	goto	u90_21
  5191  0035  2837               	goto	u90_20
  5192  0036                     u90_21:
  5193  0036  283A               	goto	i1l2502
  5194  0037                     u90_20:
  5195  0037                     i1l2500:
  5196                           
  5197                           ;mcc_generated_files/interrupt_manager.c: 70:         {;mcc_generated_files/interrupt_ma
      +                          nager.c: 71:             CMP2_ISR();
  5198  0037  3185  253C  3180   	fcall	_CMP2_ISR
  5199  003A                     i1l2502:
  5200                           
  5201                           ;mcc_generated_files/interrupt_manager.c: 73:         if(PIE1bits.TMR1IE == 1 && PIR1bit
      +                          s.TMR1IF == 1)
  5202  003A  0021               	movlb	1	; select bank1
  5203  003B  1C11               	btfss	17,0	;volatile
  5204  003C  283E               	goto	u91_21
  5205  003D  283F               	goto	u91_20
  5206  003E                     u91_21:
  5207  003E  2847               	goto	i1l425
  5208  003F                     u91_20:
  5209  003F                     i1l2504:
  5210  003F  0020               	movlb	0	; select bank0
  5211  0040  1C11               	btfss	17,0	;volatile
  5212  0041  2843               	goto	u92_21
  5213  0042  2844               	goto	u92_20
  5214  0043                     u92_21:
  5215  0043  2847               	goto	i1l425
  5216  0044                     u92_20:
  5217  0044                     i1l2506:
  5218                           
  5219                           ;mcc_generated_files/interrupt_manager.c: 74:         {;mcc_generated_files/interrupt_ma
      +                          nager.c: 75:             TMR1_ISR();
  5220  0044  3184  2496  3180   	fcall	_TMR1_ISR
  5221  0047                     i1l425:
  5222  0047  107E               	bcf	int$flags,0	;clear compiler interrupt flag (level 1)
  5223  0048  0009               	retfie
  5224  0049                     __end_of_INTERRUPT_InterruptManager:
  5225                           
  5226                           	psect	text27
  5227  0496                     __ptext27:	
  5228 ;; *************** function _TMR1_ISR *****************
  5229 ;; Defined at:
  5230 ;;		line 157 in file "mcc_generated_files/tmr1.c"
  5231 ;; Parameters:    Size  Location     Type
  5232 ;;		None
  5233 ;; Auto vars:     Size  Location     Type
  5234 ;;		None
  5235 ;; Return value:  Size  Location     Type
  5236 ;;                  1    wreg      void 
  5237 ;; Registers used:
  5238 ;;		wreg, status,2, status,0, pclath, cstack
  5239 ;; Tracked objects:
  5240 ;;		On entry : 0/0
  5241 ;;		On exit  : 0/0
  5242 ;;		Unchanged: 0/0
  5243 ;; Data sizes:     COMMON   BANK0   BANK1   BANK2   BANK3   BANK4
  5244 ;;      Params:         0       0       0       0       0       0
  5245 ;;      Locals:         0       0       0       0       0       0
  5246 ;;      Temps:          0       0       0       0       0       0
  5247 ;;      Totals:         0       0       0       0       0       0
  5248 ;;Total ram usage:        0 bytes
  5249 ;; Hardware stack levels used: 1
  5250 ;; Hardware stack levels required when called: 2
  5251 ;; This function calls:
  5252 ;;		_TMR1_CallBack
  5253 ;;		_TMR1_WriteTimer
  5254 ;; This function is called by:
  5255 ;;		_INTERRUPT_InterruptManager
  5256 ;; This function uses a non-reentrant model
  5257 ;;
  5258                           
  5259  0496                     _TMR1_ISR:	
  5260                           ;psect for function _TMR1_ISR
  5261                           
  5262  0496                     i1l2420:	
  5263                           ;incstack = 0
  5264                           ; Regs used in _TMR1_ISR: [wreg+status,2+status,0+pclath+cstack]
  5265                           
  5266                           
  5267                           ;mcc_generated_files/tmr1.c: 161:     PIR1bits.TMR1IF = 0;
  5268  0496  0020               	movlb	0	; select bank0
  5269  0497  1011               	bcf	17,0	;volatile
  5270  0498                     i1l2422:
  5271                           
  5272                           ;mcc_generated_files/tmr1.c: 162:     TMR1_WriteTimer(timer1ReloadVal);
  5273  0498  0847               	movf	_timer1ReloadVal+1,w	;volatile
  5274  0499  00F1               	movwf	TMR1_WriteTimer@timerVal+1
  5275  049A  0846               	movf	_timer1ReloadVal,w	;volatile
  5276  049B  00F0               	movwf	TMR1_WriteTimer@timerVal
  5277  049C  3184  2438  3184   	fcall	_TMR1_WriteTimer
  5278                           
  5279                           ;mcc_generated_files/tmr1.c: 166:     TMR1_CallBack();
  5280  049F  3184  24A3  3184   	fcall	_TMR1_CallBack
  5281  04A2                     i1l480:
  5282  04A2  0008               	return
  5283  04A3                     __end_of_TMR1_ISR:
  5284                           
  5285                           	psect	text28
  5286  0438                     __ptext28:	
  5287 ;; *************** function _TMR1_WriteTimer *****************
  5288 ;; Defined at:
  5289 ;;		line 120 in file "mcc_generated_files/tmr1.c"
  5290 ;; Parameters:    Size  Location     Type
  5291 ;;  timerVal        2    0[COMMON] unsigned short 
  5292 ;; Auto vars:     Size  Location     Type
  5293 ;;		None
  5294 ;; Return value:  Size  Location     Type
  5295 ;;                  1    wreg      void 
  5296 ;; Registers used:
  5297 ;;		wreg, status,2
  5298 ;; Tracked objects:
  5299 ;;		On entry : 0/0
  5300 ;;		On exit  : 0/0
  5301 ;;		Unchanged: 0/0
  5302 ;; Data sizes:     COMMON   BANK0   BANK1   BANK2   BANK3   BANK4
  5303 ;;      Params:         2       0       0       0       0       0
  5304 ;;      Locals:         0       0       0       0       0       0
  5305 ;;      Temps:          0       0       0       0       0       0
  5306 ;;      Totals:         2       0       0       0       0       0
  5307 ;;Total ram usage:        2 bytes
  5308 ;; Hardware stack levels used: 1
  5309 ;; This function calls:
  5310 ;;		Nothing
  5311 ;; This function is called by:
  5312 ;;		_TMR1_ISR
  5313 ;;		_TMR1_Reload
  5314 ;; This function uses a non-reentrant model
  5315 ;;
  5316                           
  5317  0438                     _TMR1_WriteTimer:	
  5318                           ;psect for function _TMR1_WriteTimer
  5319                           
  5320  0438                     i1l2354:	
  5321                           ;incstack = 0
  5322                           ; Regs used in _TMR1_WriteTimer: [wreg+status,2]
  5323                           
  5324                           
  5325                           ;mcc_generated_files/tmr1.c: 120: void TMR1_WriteTimer(uint16_t timerVal);mcc_generated_
      +                          files/tmr1.c: 121: {;mcc_generated_files/tmr1.c: 122:     if (T1CONbits.nT1SYNC == 1)
  5326  0438  0020               	movlb	0	; select bank0
  5327  0439  1D18               	btfss	24,2	;volatile
  5328  043A  2C3C               	goto	u70_21
  5329  043B  2C3D               	goto	u70_20
  5330  043C                     u70_21:
  5331  043C  2C44               	goto	i1l2364
  5332  043D                     u70_20:
  5333  043D                     i1l2356:
  5334                           
  5335                           ;mcc_generated_files/tmr1.c: 123:     {;mcc_generated_files/tmr1.c: 125:         T1CONbi
      +                          ts.TMR1ON = 0;
  5336  043D  1018               	bcf	24,0	;volatile
  5337  043E                     i1l2358:
  5338                           
  5339                           ;mcc_generated_files/tmr1.c: 128:         TMR1H = (uint8_t)(timerVal >> 8);
  5340  043E  0871               	movf	TMR1_WriteTimer@timerVal+1,w
  5341  043F  0097               	movwf	23	;volatile
  5342  0440                     i1l2360:
  5343                           
  5344                           ;mcc_generated_files/tmr1.c: 129:         TMR1L = (uint8_t)timerVal;
  5345  0440  0870               	movf	TMR1_WriteTimer@timerVal,w
  5346  0441  0096               	movwf	22	;volatile
  5347  0442                     i1l2362:
  5348                           
  5349                           ;mcc_generated_files/tmr1.c: 132:         T1CONbits.TMR1ON =1;
  5350  0442  1418               	bsf	24,0	;volatile
  5351                           
  5352                           ;mcc_generated_files/tmr1.c: 133:     }
  5353  0443  2C48               	goto	i1l468
  5354  0444                     i1l2364:
  5355                           
  5356                           ;mcc_generated_files/tmr1.c: 135:     {;mcc_generated_files/tmr1.c: 137:         TMR1H =
      +                           (uint8_t)(timerVal >> 8);
  5357  0444  0871               	movf	TMR1_WriteTimer@timerVal+1,w
  5358  0445  0097               	movwf	23	;volatile
  5359  0446                     i1l2366:
  5360                           
  5361                           ;mcc_generated_files/tmr1.c: 138:         TMR1L = (uint8_t)timerVal;
  5362  0446  0870               	movf	TMR1_WriteTimer@timerVal,w
  5363  0447  0096               	movwf	22	;volatile
  5364  0448                     i1l468:
  5365  0448  0008               	return
  5366  0449                     __end_of_TMR1_WriteTimer:
  5367                           
  5368                           	psect	text29
  5369  04A3                     __ptext29:	
  5370 ;; *************** function _TMR1_CallBack *****************
  5371 ;; Defined at:
  5372 ;;		line 169 in file "mcc_generated_files/tmr1.c"
  5373 ;; Parameters:    Size  Location     Type
  5374 ;;		None
  5375 ;; Auto vars:     Size  Location     Type
  5376 ;;		None
  5377 ;; Return value:  Size  Location     Type
  5378 ;;                  1    wreg      void 
  5379 ;; Registers used:
  5380 ;;		wreg, status,2, status,0, pclath, cstack
  5381 ;; Tracked objects:
  5382 ;;		On entry : 0/0
  5383 ;;		On exit  : 0/0
  5384 ;;		Unchanged: 0/0
  5385 ;; Data sizes:     COMMON   BANK0   BANK1   BANK2   BANK3   BANK4
  5386 ;;      Params:         0       0       0       0       0       0
  5387 ;;      Locals:         0       0       0       0       0       0
  5388 ;;      Temps:          0       0       0       0       0       0
  5389 ;;      Totals:         0       0       0       0       0       0
  5390 ;;Total ram usage:        0 bytes
  5391 ;; Hardware stack levels used: 1
  5392 ;; Hardware stack levels required when called: 1
  5393 ;; This function calls:
  5394 ;;		Absolute function
  5395 ;;		_TMR1_DefaultInterruptHandler
  5396 ;; This function is called by:
  5397 ;;		_TMR1_ISR
  5398 ;; This function uses a non-reentrant model
  5399 ;;
  5400                           
  5401  04A3                     _TMR1_CallBack:	
  5402                           ;psect for function _TMR1_CallBack
  5403                           
  5404  04A3                     i1l2368:	
  5405                           ;incstack = 0
  5406                           ; Regs used in _TMR1_CallBack: [wreg+status,2+status,0+pclath+cstack]
  5407                           
  5408                           
  5409                           ;mcc_generated_files/tmr1.c: 172:     if(TMR1_InterruptHandler)
  5410  04A3  0020               	movlb	0	; select bank0
  5411  04A4  0844               	movf	_TMR1_InterruptHandler,w
  5412  04A5  0445               	iorwf	_TMR1_InterruptHandler+1,w
  5413  04A6  1903               	btfsc	3,2
  5414  04A7  2CA9               	goto	u71_21
  5415  04A8  2CAA               	goto	u71_20
  5416  04A9                     u71_21:
  5417  04A9  2CAF               	goto	i1l484
  5418  04AA                     u71_20:
  5419  04AA                     i1l2370:
  5420                           
  5421                           ;mcc_generated_files/tmr1.c: 173:     {;mcc_generated_files/tmr1.c: 174:         TMR1_In
      +                          terruptHandler();
  5422  04AA  0845               	movf	_TMR1_InterruptHandler+1,w
  5423  04AB  008A               	movwf	10
  5424  04AC  0844               	movf	_TMR1_InterruptHandler,w
  5425  04AD  000A               	callw
  5426  04AE  3184               	pagesel	$
  5427  04AF                     i1l484:
  5428  04AF  0008               	return
  5429  04B0                     __end_of_TMR1_CallBack:
  5430                           
  5431                           	psect	text30
  5432  0555                     __ptext30:	
  5433 ;; *************** function _TMR1_DefaultInterruptHandler *****************
  5434 ;; Defined at:
  5435 ;;		line 182 in file "mcc_generated_files/tmr1.c"
  5436 ;; Parameters:    Size  Location     Type
  5437 ;;		None
  5438 ;; Auto vars:     Size  Location     Type
  5439 ;;		None
  5440 ;; Return value:  Size  Location     Type
  5441 ;;                  1    wreg      void 
  5442 ;; Registers used:
  5443 ;;		None
  5444 ;; Tracked objects:
  5445 ;;		On entry : 0/0
  5446 ;;		On exit  : 0/0
  5447 ;;		Unchanged: 0/0
  5448 ;; Data sizes:     COMMON   BANK0   BANK1   BANK2   BANK3   BANK4
  5449 ;;      Params:         0       0       0       0       0       0
  5450 ;;      Locals:         0       0       0       0       0       0
  5451 ;;      Temps:          0       0       0       0       0       0
  5452 ;;      Totals:         0       0       0       0       0       0
  5453 ;;Total ram usage:        0 bytes
  5454 ;; Hardware stack levels used: 1
  5455 ;; This function calls:
  5456 ;;		Nothing
  5457 ;; This function is called by:
  5458 ;;		_TMR1_Initialize
  5459 ;;		_TMR1_CallBack
  5460 ;; This function uses a non-reentrant model
  5461 ;;
  5462                           
  5463  0555                     _TMR1_DefaultInterruptHandler:	
  5464                           ;psect for function _TMR1_DefaultInterruptHandler
  5465                           
  5466  0555                     i1l490:	
  5467                           ;incstack = 0
  5468                           ; Regs used in _TMR1_DefaultInterruptHandler: []
  5469                           
  5470  0555  0008               	return
  5471  0556                     __end_of_TMR1_DefaultInterruptHandler:
  5472                           
  5473                           	psect	text31
  5474  03F7                     __ptext31:	
  5475 ;; *************** function _TMR0_ISR *****************
  5476 ;; Defined at:
  5477 ;;		line 108 in file "mcc_generated_files/tmr0.c"
  5478 ;; Parameters:    Size  Location     Type
  5479 ;;		None
  5480 ;; Auto vars:     Size  Location     Type
  5481 ;;		None
  5482 ;; Return value:  Size  Location     Type
  5483 ;;                  1    wreg      void 
  5484 ;; Registers used:
  5485 ;;		wreg, status,2, status,0, pclath, cstack
  5486 ;; Tracked objects:
  5487 ;;		On entry : 0/0
  5488 ;;		On exit  : 0/0
  5489 ;;		Unchanged: 0/0
  5490 ;; Data sizes:     COMMON   BANK0   BANK1   BANK2   BANK3   BANK4
  5491 ;;      Params:         0       0       0       0       0       0
  5492 ;;      Locals:         0       0       0       0       0       0
  5493 ;;      Temps:          0       0       0       0       0       0
  5494 ;;      Totals:         0       0       0       0       0       0
  5495 ;;Total ram usage:        0 bytes
  5496 ;; Hardware stack levels used: 1
  5497 ;; Hardware stack levels required when called: 2
  5498 ;; This function calls:
  5499 ;;		_TMR0_CallBack
  5500 ;; This function is called by:
  5501 ;;		_INTERRUPT_InterruptManager
  5502 ;; This function uses a non-reentrant model
  5503 ;;
  5504                           
  5505  03F7                     _TMR0_ISR:	
  5506                           ;psect for function _TMR0_ISR
  5507                           
  5508  03F7                     i1l2412:	
  5509                           ;incstack = 0
  5510                           ; Regs used in _TMR0_ISR: [wreg+status,2+status,0+pclath+cstack]
  5511                           
  5512                           
  5513                           ;mcc_generated_files/tmr0.c: 110:     static volatile uint16_t CountCallBack = 0;;mcc_ge
      +                          nerated_files/tmr0.c: 113:     INTCONbits.TMR0IF = 0;
  5514  03F7  110B               	bcf	11,2	;volatile
  5515  03F8                     i1l2414:
  5516                           
  5517                           ;mcc_generated_files/tmr0.c: 115:     TMR0 = timer0ReloadVal;
  5518  03F8  0020               	movlb	0	; select bank0
  5519  03F9  082C               	movf	_timer0ReloadVal,w	;volatile
  5520  03FA  0095               	movwf	21	;volatile
  5521                           
  5522                           ;mcc_generated_files/tmr0.c: 118:     if (++CountCallBack >= 32)
  5523  03FB  3001               	movlw	1
  5524  03FC  07A8               	addwf	TMR0_ISR@CountCallBack,f	;volatile
  5525  03FD  3000               	movlw	0
  5526  03FE  3DA9               	addwfc	TMR0_ISR@CountCallBack+1,f	;volatile
  5527  03FF  3000               	movlw	0
  5528  0400  0229               	subwf	TMR0_ISR@CountCallBack+1,w	;volatile
  5529  0401  3020               	movlw	32
  5530  0402  1903               	skipnz
  5531  0403  0228               	subwf	TMR0_ISR@CountCallBack,w	;volatile
  5532  0404  1C03               	skipc
  5533  0405  2C07               	goto	u76_21
  5534  0406  2C08               	goto	u76_20
  5535  0407                     u76_21:
  5536  0407  2C0E               	goto	i1l556
  5537  0408                     u76_20:
  5538  0408                     i1l2416:
  5539                           
  5540                           ;mcc_generated_files/tmr0.c: 119:     {;mcc_generated_files/tmr0.c: 121:         TMR0_Ca
      +                          llBack();
  5541  0408  3184  24B0  3183   	fcall	_TMR0_CallBack
  5542  040B                     i1l2418:
  5543                           
  5544                           ;mcc_generated_files/tmr0.c: 124:         CountCallBack = 0;
  5545  040B  0020               	movlb	0	; select bank0
  5546  040C  01A8               	clrf	TMR0_ISR@CountCallBack	;volatile
  5547  040D  01A9               	clrf	TMR0_ISR@CountCallBack+1	;volatile
  5548  040E                     i1l556:
  5549  040E  0008               	return
  5550  040F                     __end_of_TMR0_ISR:
  5551                           
  5552                           	psect	text32
  5553  04B0                     __ptext32:	
  5554 ;; *************** function _TMR0_CallBack *****************
  5555 ;; Defined at:
  5556 ;;		line 130 in file "mcc_generated_files/tmr0.c"
  5557 ;; Parameters:    Size  Location     Type
  5558 ;;		None
  5559 ;; Auto vars:     Size  Location     Type
  5560 ;;		None
  5561 ;; Return value:  Size  Location     Type
  5562 ;;                  1    wreg      void 
  5563 ;; Registers used:
  5564 ;;		wreg, status,2, status,0, pclath, cstack
  5565 ;; Tracked objects:
  5566 ;;		On entry : 0/0
  5567 ;;		On exit  : 0/0
  5568 ;;		Unchanged: 0/0
  5569 ;; Data sizes:     COMMON   BANK0   BANK1   BANK2   BANK3   BANK4
  5570 ;;      Params:         0       0       0       0       0       0
  5571 ;;      Locals:         0       0       0       0       0       0
  5572 ;;      Temps:          0       0       0       0       0       0
  5573 ;;      Totals:         0       0       0       0       0       0
  5574 ;;Total ram usage:        0 bytes
  5575 ;; Hardware stack levels used: 1
  5576 ;; Hardware stack levels required when called: 1
  5577 ;; This function calls:
  5578 ;;		Absolute function
  5579 ;;		_TMR0_DefaultInterruptHandler
  5580 ;; This function is called by:
  5581 ;;		_TMR0_ISR
  5582 ;; This function uses a non-reentrant model
  5583 ;;
  5584                           
  5585  04B0                     _TMR0_CallBack:	
  5586                           ;psect for function _TMR0_CallBack
  5587                           
  5588  04B0                     i1l2372:	
  5589                           ;incstack = 0
  5590                           ; Regs used in _TMR0_CallBack: [wreg+status,2+status,0+pclath+cstack]
  5591                           
  5592                           
  5593                           ;mcc_generated_files/tmr0.c: 134:     if(TMR0_InterruptHandler)
  5594  04B0  0020               	movlb	0	; select bank0
  5595  04B1  0842               	movf	_TMR0_InterruptHandler,w
  5596  04B2  0443               	iorwf	_TMR0_InterruptHandler+1,w
  5597  04B3  1903               	btfsc	3,2
  5598  04B4  2CB6               	goto	u72_21
  5599  04B5  2CB7               	goto	u72_20
  5600  04B6                     u72_21:
  5601  04B6  2CBC               	goto	i1l560
  5602  04B7                     u72_20:
  5603  04B7                     i1l2374:
  5604                           
  5605                           ;mcc_generated_files/tmr0.c: 135:     {;mcc_generated_files/tmr0.c: 136:         TMR0_In
      +                          terruptHandler();
  5606  04B7  0843               	movf	_TMR0_InterruptHandler+1,w
  5607  04B8  008A               	movwf	10
  5608  04B9  0842               	movf	_TMR0_InterruptHandler,w
  5609  04BA  000A               	callw
  5610  04BB  3184               	pagesel	$
  5611  04BC                     i1l560:
  5612  04BC  0008               	return
  5613  04BD                     __end_of_TMR0_CallBack:
  5614                           
  5615                           	psect	text33
  5616  0556                     __ptext33:	
  5617 ;; *************** function _TMR0_DefaultInterruptHandler *****************
  5618 ;; Defined at:
  5619 ;;		line 144 in file "mcc_generated_files/tmr0.c"
  5620 ;; Parameters:    Size  Location     Type
  5621 ;;		None
  5622 ;; Auto vars:     Size  Location     Type
  5623 ;;		None
  5624 ;; Return value:  Size  Location     Type
  5625 ;;                  1    wreg      void 
  5626 ;; Registers used:
  5627 ;;		None
  5628 ;; Tracked objects:
  5629 ;;		On entry : 0/0
  5630 ;;		On exit  : 0/0
  5631 ;;		Unchanged: 0/0
  5632 ;; Data sizes:     COMMON   BANK0   BANK1   BANK2   BANK3   BANK4
  5633 ;;      Params:         0       0       0       0       0       0
  5634 ;;      Locals:         0       0       0       0       0       0
  5635 ;;      Temps:          0       0       0       0       0       0
  5636 ;;      Totals:         0       0       0       0       0       0
  5637 ;;Total ram usage:        0 bytes
  5638 ;; Hardware stack levels used: 1
  5639 ;; This function calls:
  5640 ;;		Nothing
  5641 ;; This function is called by:
  5642 ;;		_TMR0_Initialize
  5643 ;;		_TMR0_CallBack
  5644 ;; This function uses a non-reentrant model
  5645 ;;
  5646                           
  5647  0556                     _TMR0_DefaultInterruptHandler:	
  5648                           ;psect for function _TMR0_DefaultInterruptHandler
  5649                           
  5650  0556                     i1l566:	
  5651                           ;incstack = 0
  5652                           ; Regs used in _TMR0_DefaultInterruptHandler: []
  5653                           
  5654  0556  0008               	return
  5655  0557                     __end_of_TMR0_DefaultInterruptHandler:
  5656                           
  5657                           	psect	text34
  5658  0449                     __ptext34:	
  5659 ;; *************** function _PIN_MANAGER_IOC *****************
  5660 ;; Defined at:
  5661 ;;		line 119 in file "mcc_generated_files/pin_manager.c"
  5662 ;; Parameters:    Size  Location     Type
  5663 ;;		None
  5664 ;; Auto vars:     Size  Location     Type
  5665 ;;		None
  5666 ;; Return value:  Size  Location     Type
  5667 ;;                  1    wreg      void 
  5668 ;; Registers used:
  5669 ;;		wreg, fsr0l, fsr0h, fsr1l, fsr1h, status,2, status,0, pclath, cstack
  5670 ;; Tracked objects:
  5671 ;;		On entry : 0/0
  5672 ;;		On exit  : 0/0
  5673 ;;		Unchanged: 0/0
  5674 ;; Data sizes:     COMMON   BANK0   BANK1   BANK2   BANK3   BANK4
  5675 ;;      Params:         0       0       0       0       0       0
  5676 ;;      Locals:         0       0       0       0       0       0
  5677 ;;      Temps:          0       0       0       0       0       0
  5678 ;;      Totals:         0       0       0       0       0       0
  5679 ;;Total ram usage:        0 bytes
  5680 ;; Hardware stack levels used: 1
  5681 ;; Hardware stack levels required when called: 5
  5682 ;; This function calls:
  5683 ;;		_IOCBF0_ISR
  5684 ;;		_IOCBF3_ISR
  5685 ;; This function is called by:
  5686 ;;		_INTERRUPT_InterruptManager
  5687 ;; This function uses a non-reentrant model
  5688 ;;
  5689                           
  5690  0449                     _PIN_MANAGER_IOC:	
  5691                           ;psect for function _PIN_MANAGER_IOC
  5692                           
  5693  0449                     i1l2388:	
  5694                           ;incstack = 0
  5695                           ; Regs used in _PIN_MANAGER_IOC: [wreg-fsr1h+status,2+status,0+pclath+cstack]
  5696                           
  5697                           
  5698                           ;mcc_generated_files/pin_manager.c: 122:     if(IOCBFbits.IOCBF0 == 1)
  5699  0449  0027               	movlb	7	; select bank7
  5700  044A  1C16               	btfss	22,0	;volatile
  5701  044B  2C4D               	goto	u73_21
  5702  044C  2C4E               	goto	u73_20
  5703  044D                     u73_21:
  5704  044D  2C51               	goto	i1l2392
  5705  044E                     u73_20:
  5706  044E                     i1l2390:
  5707                           
  5708                           ;mcc_generated_files/pin_manager.c: 123:     {;mcc_generated_files/pin_manager.c: 124:  
      +                                 IOCBF0_ISR();
  5709  044E  3184  2479  3184   	fcall	_IOCBF0_ISR
  5710  0451                     i1l2392:
  5711                           
  5712                           ;mcc_generated_files/pin_manager.c: 127:     if(IOCBFbits.IOCBF3 == 1)
  5713  0451  0027               	movlb	7	; select bank7
  5714  0452  1D96               	btfss	22,3	;volatile
  5715  0453  2C55               	goto	u74_21
  5716  0454  2C56               	goto	u74_20
  5717  0455                     u74_21:
  5718  0455  2C59               	goto	i1l134
  5719  0456                     u74_20:
  5720  0456                     i1l2394:
  5721                           
  5722                           ;mcc_generated_files/pin_manager.c: 128:     {;mcc_generated_files/pin_manager.c: 129:  
      +                                 IOCBF3_ISR();
  5723  0456  3184  246A  3184   	fcall	_IOCBF3_ISR
  5724  0459                     i1l134:
  5725  0459  0008               	return
  5726  045A                     __end_of_PIN_MANAGER_IOC:
  5727                           
  5728                           	psect	text35
  5729  046A                     __ptext35:	
  5730 ;; *************** function _IOCBF3_ISR *****************
  5731 ;; Defined at:
  5732 ;;		line 166 in file "mcc_generated_files/pin_manager.c"
  5733 ;; Parameters:    Size  Location     Type
  5734 ;;		None
  5735 ;; Auto vars:     Size  Location     Type
  5736 ;;		None
  5737 ;; Return value:  Size  Location     Type
  5738 ;;                  1    wreg      void 
  5739 ;; Registers used:
  5740 ;;		wreg, fsr0l, fsr0h, fsr1l, fsr1h, status,2, status,0, pclath, cstack
  5741 ;; Tracked objects:
  5742 ;;		On entry : 0/0
  5743 ;;		On exit  : 0/0
  5744 ;;		Unchanged: 0/0
  5745 ;; Data sizes:     COMMON   BANK0   BANK1   BANK2   BANK3   BANK4
  5746 ;;      Params:         0       0       0       0       0       0
  5747 ;;      Locals:         0       0       0       0       0       0
  5748 ;;      Temps:          0       0       0       0       0       0
  5749 ;;      Totals:         0       0       0       0       0       0
  5750 ;;Total ram usage:        0 bytes
  5751 ;; Hardware stack levels used: 1
  5752 ;; Hardware stack levels required when called: 4
  5753 ;; This function calls:
  5754 ;;		Absolute function
  5755 ;;		_IOCBF3_DefaultInterruptHandler
  5756 ;;		_chegadaS1
  5757 ;;		_chegadaS2
  5758 ;; This function is called by:
  5759 ;;		_PIN_MANAGER_IOC
  5760 ;; This function uses a non-reentrant model
  5761 ;;
  5762                           
  5763  046A                     _IOCBF3_ISR:	
  5764                           ;psect for function _IOCBF3_ISR
  5765                           
  5766  046A                     i1l2274:	
  5767                           ;incstack = 0
  5768                           ; Regs used in _IOCBF3_ISR: [wreg-fsr1h+status,2+status,0+pclath+cstack]
  5769                           
  5770                           
  5771                           ;mcc_generated_files/pin_manager.c: 171:     if(IOCBF3_InterruptHandler)
  5772  046A  0020               	movlb	0	; select bank0
  5773  046B  084E               	movf	_IOCBF3_InterruptHandler,w
  5774  046C  044F               	iorwf	_IOCBF3_InterruptHandler+1,w
  5775  046D  1903               	btfsc	3,2
  5776  046E  2C70               	goto	u69_21
  5777  046F  2C71               	goto	u69_20
  5778  0470                     u69_21:
  5779  0470  2C76               	goto	i1l2278
  5780  0471                     u69_20:
  5781  0471                     i1l2276:
  5782                           
  5783                           ;mcc_generated_files/pin_manager.c: 172:     {;mcc_generated_files/pin_manager.c: 173:  
      +                                 IOCBF3_InterruptHandler();
  5784  0471  084F               	movf	_IOCBF3_InterruptHandler+1,w
  5785  0472  008A               	movwf	10
  5786  0473  084E               	movf	_IOCBF3_InterruptHandler,w
  5787  0474  000A               	callw
  5788  0475  3184               	pagesel	$
  5789  0476                     i1l2278:
  5790                           
  5791                           ;mcc_generated_files/pin_manager.c: 175:     IOCBFbits.IOCBF3 = 0;
  5792  0476  0027               	movlb	7	; select bank7
  5793  0477  1196               	bcf	22,3	;volatile
  5794  0478                     i1l148:
  5795  0478  0008               	return
  5796  0479                     __end_of_IOCBF3_ISR:
  5797                           
  5798                           	psect	text36
  5799  0287                     __ptext36:	
  5800 ;; *************** function _chegadaS1 *****************
  5801 ;; Defined at:
  5802 ;;		line 129 in file "main.c"
  5803 ;; Parameters:    Size  Location     Type
  5804 ;;		None
  5805 ;; Auto vars:     Size  Location     Type
  5806 ;;		None
  5807 ;; Return value:  Size  Location     Type
  5808 ;;                  1    wreg      void 
  5809 ;; Registers used:
  5810 ;;		wreg, fsr1l, fsr1h, status,2, status,0, pclath, cstack
  5811 ;; Tracked objects:
  5812 ;;		On entry : 0/0
  5813 ;;		On exit  : 0/0
  5814 ;;		Unchanged: 0/0
  5815 ;; Data sizes:     COMMON   BANK0   BANK1   BANK2   BANK3   BANK4
  5816 ;;      Params:         0       0       0       0       0       0
  5817 ;;      Locals:         0       0       0       0       0       0
  5818 ;;      Temps:          1       0       0       0       0       0
  5819 ;;      Totals:         1       0       0       0       0       0
  5820 ;;Total ram usage:        1 bytes
  5821 ;; Hardware stack levels used: 1
  5822 ;; Hardware stack levels required when called: 3
  5823 ;; This function calls:
  5824 ;;		_PWM3_LoadDutyValue
  5825 ;;		_matrixUpdate
  5826 ;; This function is called by:
  5827 ;;		_main
  5828 ;;		_IOCBF3_ISR
  5829 ;; This function uses a non-reentrant model
  5830 ;;
  5831                           
  5832  0287                     _chegadaS1:	
  5833                           ;psect for function _chegadaS1
  5834                           
  5835  0287                     i1l2076:	
  5836                           ;incstack = 0
  5837                           ; Regs used in _chegadaS1: [wreg+fsr1l+fsr1h+status,2+status,0+pclath+cstack]
  5838                           
  5839                           
  5840                           ;main.c: 130:     PWM3_LoadDutyValue(0);
  5841  0287  3000               	movlw	0
  5842  0288  00F0               	movwf	PWM3_LoadDutyValue@dutyValue
  5843  0289  00F1               	movwf	PWM3_LoadDutyValue@dutyValue+1
  5844  028A  3184  240F  3182   	fcall	_PWM3_LoadDutyValue
  5845  028D                     i1l2078:
  5846                           
  5847                           ;main.c: 133:     mov = Repouso;
  5848  028D  0020               	movlb	0	; select bank0
  5849  028E  01AE               	clrf	_mov
  5850  028F                     i1l2080:
  5851                           
  5852                           ;main.c: 135:     MatrixLed[0] = 0b01111110;
  5853  028F  307E               	movlw	126
  5854  0290  00FC               	movwf	??_chegadaS1
  5855  0291  087C               	movf	??_chegadaS1,w
  5856  0292  00A0               	movwf	_MatrixLed
  5857  0293                     i1l2082:
  5858                           
  5859                           ;main.c: 136:     MatrixLed[1] = 0b10000001;
  5860  0293  3081               	movlw	129
  5861  0294  00FC               	movwf	??_chegadaS1
  5862  0295  087C               	movf	??_chegadaS1,w
  5863  0296  00A1               	movwf	_MatrixLed+1
  5864  0297                     i1l2084:
  5865                           
  5866                           ;main.c: 137:     MatrixLed[2] = 0b10000001;
  5867  0297  3081               	movlw	129
  5868  0298  00FC               	movwf	??_chegadaS1
  5869  0299  087C               	movf	??_chegadaS1,w
  5870  029A  00A2               	movwf	_MatrixLed+2
  5871  029B                     i1l2086:
  5872                           
  5873                           ;main.c: 138:     MatrixLed[3] = 0b01111110;
  5874  029B  307E               	movlw	126
  5875  029C  00FC               	movwf	??_chegadaS1
  5876  029D  087C               	movf	??_chegadaS1,w
  5877  029E  00A3               	movwf	_MatrixLed+3
  5878  029F                     i1l2088:
  5879                           
  5880                           ;main.c: 139:     MatrixLed[4] = 0;
  5881  029F  01A4               	clrf	_MatrixLed+4
  5882  02A0                     i1l2090:
  5883                           
  5884                           ;main.c: 140:     if(subindo){
  5885  02A0  0852               	movf	_subindo,w
  5886  02A1  1903               	btfsc	3,2
  5887  02A2  2AA4               	goto	u59_21
  5888  02A3  2AA5               	goto	u59_20
  5889  02A4                     u59_21:
  5890  02A4  2AB2               	goto	i1l2094
  5891  02A5                     u59_20:
  5892  02A5                     i1l2092:
  5893                           
  5894                           ;main.c: 141:         MatrixLed[5] = 0b01100000;
  5895  02A5  3060               	movlw	96
  5896  02A6  00FC               	movwf	??_chegadaS1
  5897  02A7  087C               	movf	??_chegadaS1,w
  5898  02A8  00A5               	movwf	_MatrixLed+5
  5899                           
  5900                           ;main.c: 142:         MatrixLed[6] = 0b11000000;
  5901  02A9  30C0               	movlw	192
  5902  02AA  00FC               	movwf	??_chegadaS1
  5903  02AB  087C               	movf	??_chegadaS1,w
  5904  02AC  00A6               	movwf	_MatrixLed+6
  5905                           
  5906                           ;main.c: 143:         MatrixLed[7] = 0b01100000;
  5907  02AD  3060               	movlw	96
  5908  02AE  00FC               	movwf	??_chegadaS1
  5909  02AF  087C               	movf	??_chegadaS1,w
  5910  02B0  00A7               	movwf	_MatrixLed+7
  5911                           
  5912                           ;main.c: 144:     }else{
  5913  02B1  2AC3               	goto	i1l2098
  5914  02B2                     i1l2094:
  5915                           
  5916                           ;main.c: 145:         MatrixLed[5] = 0b11000000;
  5917  02B2  30C0               	movlw	192
  5918  02B3  00FC               	movwf	??_chegadaS1
  5919  02B4  087C               	movf	??_chegadaS1,w
  5920  02B5  00A5               	movwf	_MatrixLed+5
  5921                           
  5922                           ;main.c: 146:         MatrixLed[6] = 0b01100000;
  5923  02B6  3060               	movlw	96
  5924  02B7  00FC               	movwf	??_chegadaS1
  5925  02B8  087C               	movf	??_chegadaS1,w
  5926  02B9  00A6               	movwf	_MatrixLed+6
  5927                           
  5928                           ;main.c: 147:         MatrixLed[7] = 0b11000000;
  5929  02BA  30C0               	movlw	192
  5930  02BB  00FC               	movwf	??_chegadaS1
  5931  02BC  087C               	movf	??_chegadaS1,w
  5932  02BD  00A7               	movwf	_MatrixLed+7
  5933  02BE                     i1l2096:
  5934                           
  5935                           ;main.c: 148:         destinoDesc = destinoDesc & 0b11111110;
  5936  02BE  082F               	movf	_destinoDesc,w
  5937  02BF  39FE               	andlw	254
  5938  02C0  00FC               	movwf	??_chegadaS1
  5939  02C1  087C               	movf	??_chegadaS1,w
  5940  02C2  00AF               	movwf	_destinoDesc
  5941  02C3                     i1l2098:
  5942                           
  5943                           ;main.c: 150:     matrixUpdate();
  5944  02C3  3183  23BE  3182   	fcall	_matrixUpdate
  5945  02C6                     i1l636:
  5946  02C6  0008               	return
  5947  02C7                     __end_of_chegadaS1:
  5948                           
  5949                           	psect	text37
  5950  0557                     __ptext37:	
  5951 ;; *************** function _IOCBF3_DefaultInterruptHandler *****************
  5952 ;; Defined at:
  5953 ;;		line 188 in file "mcc_generated_files/pin_manager.c"
  5954 ;; Parameters:    Size  Location     Type
  5955 ;;		None
  5956 ;; Auto vars:     Size  Location     Type
  5957 ;;		None
  5958 ;; Return value:  Size  Location     Type
  5959 ;;                  1    wreg      void 
  5960 ;; Registers used:
  5961 ;;		None
  5962 ;; Tracked objects:
  5963 ;;		On entry : 0/0
  5964 ;;		On exit  : 0/0
  5965 ;;		Unchanged: 0/0
  5966 ;; Data sizes:     COMMON   BANK0   BANK1   BANK2   BANK3   BANK4
  5967 ;;      Params:         0       0       0       0       0       0
  5968 ;;      Locals:         0       0       0       0       0       0
  5969 ;;      Temps:          0       0       0       0       0       0
  5970 ;;      Totals:         0       0       0       0       0       0
  5971 ;;Total ram usage:        0 bytes
  5972 ;; Hardware stack levels used: 1
  5973 ;; This function calls:
  5974 ;;		Nothing
  5975 ;; This function is called by:
  5976 ;;		_PIN_MANAGER_Initialize
  5977 ;;		_IOCBF3_ISR
  5978 ;; This function uses a non-reentrant model
  5979 ;;
  5980                           
  5981  0557                     _IOCBF3_DefaultInterruptHandler:	
  5982                           ;psect for function _IOCBF3_DefaultInterruptHandler
  5983                           
  5984  0557                     i1l154:	
  5985                           ;incstack = 0
  5986                           ; Regs used in _IOCBF3_DefaultInterruptHandler: []
  5987                           
  5988  0557  0008               	return
  5989  0558                     __end_of_IOCBF3_DefaultInterruptHandler:
  5990                           
  5991                           	psect	text38
  5992  0131                     __ptext38:	
  5993 ;; *************** function _chegadaS2 *****************
  5994 ;; Defined at:
  5995 ;;		line 157 in file "main.c"
  5996 ;; Parameters:    Size  Location     Type
  5997 ;;		None
  5998 ;; Auto vars:     Size  Location     Type
  5999 ;;		None
  6000 ;; Return value:  Size  Location     Type
  6001 ;;                  1    wreg      void 
  6002 ;; Registers used:
  6003 ;;		wreg, fsr0l, fsr0h, fsr1l, fsr1h, status,2, status,0, pclath, cstack
  6004 ;; Tracked objects:
  6005 ;;		On entry : 0/0
  6006 ;;		On exit  : 0/0
  6007 ;;		Unchanged: 0/0
  6008 ;; Data sizes:     COMMON   BANK0   BANK1   BANK2   BANK3   BANK4
  6009 ;;      Params:         0       0       0       0       0       0
  6010 ;;      Locals:         0       0       0       0       0       0
  6011 ;;      Temps:          2       0       0       0       0       0
  6012 ;;      Totals:         2       0       0       0       0       0
  6013 ;;Total ram usage:        2 bytes
  6014 ;; Hardware stack levels used: 1
  6015 ;; Hardware stack levels required when called: 3
  6016 ;; This function calls:
  6017 ;;		_PWM3_LoadDutyValue
  6018 ;;		_controleMovimento
  6019 ;;		_matrixUpdate
  6020 ;; This function is called by:
  6021 ;;		_main
  6022 ;;		_IOCBF3_ISR
  6023 ;; This function uses a non-reentrant model
  6024 ;;
  6025                           
  6026  0131                     _chegadaS2:	
  6027                           ;psect for function _chegadaS2
  6028                           
  6029  0131                     i1l2100:	
  6030                           ;incstack = 0
  6031                           ; Regs used in _chegadaS2: [wreg-fsr1h+status,2+status,0+pclath+cstack]
  6032                           
  6033                           
  6034                           ;main.c: 158:     PWM3_LoadDutyValue(0);
  6035  0131  3000               	movlw	0
  6036  0132  00F0               	movwf	PWM3_LoadDutyValue@dutyValue
  6037  0133  00F1               	movwf	PWM3_LoadDutyValue@dutyValue+1
  6038  0134  3184  240F  3181   	fcall	_PWM3_LoadDutyValue
  6039  0137                     i1l2102:
  6040                           
  6041                           ;main.c: 161:     MatrixLed[0] = 0b00000000;
  6042  0137  0020               	movlb	0	; select bank0
  6043  0138  01A0               	clrf	_MatrixLed
  6044  0139                     i1l2104:
  6045                           
  6046                           ;main.c: 162:     MatrixLed[1] = 0b01000001;
  6047  0139  3041               	movlw	65
  6048  013A  00FC               	movwf	??_chegadaS2
  6049  013B  087C               	movf	??_chegadaS2,w
  6050  013C  00A1               	movwf	_MatrixLed+1
  6051  013D                     i1l2106:
  6052                           
  6053                           ;main.c: 163:     MatrixLed[2] = 0b11111111;
  6054  013D  30FF               	movlw	255
  6055  013E  00FC               	movwf	??_chegadaS2
  6056  013F  087C               	movf	??_chegadaS2,w
  6057  0140  00A2               	movwf	_MatrixLed+2
  6058  0141                     i1l2108:
  6059                           
  6060                           ;main.c: 164:     MatrixLed[3] = 0b00000001;
  6061  0141  01A3               	clrf	_MatrixLed+3
  6062  0142  0AA3               	incf	_MatrixLed+3,f
  6063  0143                     i1l2110:
  6064                           
  6065                           ;main.c: 165:     MatrixLed[4] = 0;
  6066  0143  01A4               	clrf	_MatrixLed+4
  6067  0144                     i1l2112:
  6068                           
  6069                           ;main.c: 166:     if(subindo){
  6070  0144  0852               	movf	_subindo,w
  6071  0145  1903               	btfsc	3,2
  6072  0146  2948               	goto	u60_21
  6073  0147  2949               	goto	u60_20
  6074  0148                     u60_21:
  6075  0148  295F               	goto	i1l2120
  6076  0149                     u60_20:
  6077  0149                     i1l2114:
  6078                           
  6079                           ;main.c: 167:         MatrixLed[5] = 0b01100000;
  6080  0149  3060               	movlw	96
  6081  014A  00FC               	movwf	??_chegadaS2
  6082  014B  087C               	movf	??_chegadaS2,w
  6083  014C  00A5               	movwf	_MatrixLed+5
  6084                           
  6085                           ;main.c: 168:         MatrixLed[6] = 0b11000000;
  6086  014D  30C0               	movlw	192
  6087  014E  00FC               	movwf	??_chegadaS2
  6088  014F  087C               	movf	??_chegadaS2,w
  6089  0150  00A6               	movwf	_MatrixLed+6
  6090                           
  6091                           ;main.c: 169:         MatrixLed[7] = 0b01100000;
  6092  0151  3060               	movlw	96
  6093  0152  00FC               	movwf	??_chegadaS2
  6094  0153  087C               	movf	??_chegadaS2,w
  6095  0154  00A7               	movwf	_MatrixLed+7
  6096  0155                     i1l2116:
  6097                           
  6098                           ;main.c: 170:         destinoSub = destinoSub & 0b11111101;
  6099  0155  0830               	movf	_destinoSub,w
  6100  0156  39FD               	andlw	253
  6101  0157  00FC               	movwf	??_chegadaS2
  6102  0158  087C               	movf	??_chegadaS2,w
  6103  0159  00B0               	movwf	_destinoSub
  6104  015A                     i1l2118:
  6105                           
  6106                           ;main.c: 172:         mov = EmTrajeto;
  6107  015A  3002               	movlw	2
  6108  015B  00FC               	movwf	??_chegadaS2
  6109  015C  087C               	movf	??_chegadaS2,w
  6110  015D  00AE               	movwf	_mov
  6111                           
  6112                           ;main.c: 173:     }else{
  6113  015E  2979               	goto	i1l2128
  6114  015F                     i1l2120:
  6115                           
  6116                           ;main.c: 174:         MatrixLed[5] = 0b11000000;
  6117  015F  30C0               	movlw	192
  6118  0160  00FC               	movwf	??_chegadaS2
  6119  0161  087C               	movf	??_chegadaS2,w
  6120  0162  00A5               	movwf	_MatrixLed+5
  6121                           
  6122                           ;main.c: 175:         MatrixLed[6] = 0b01100000;
  6123  0163  3060               	movlw	96
  6124  0164  00FC               	movwf	??_chegadaS2
  6125  0165  087C               	movf	??_chegadaS2,w
  6126  0166  00A6               	movwf	_MatrixLed+6
  6127                           
  6128                           ;main.c: 176:         MatrixLed[7] = 0b11000000;
  6129  0167  30C0               	movlw	192
  6130  0168  00FC               	movwf	??_chegadaS2
  6131  0169  087C               	movf	??_chegadaS2,w
  6132  016A  00A7               	movwf	_MatrixLed+7
  6133  016B                     i1l2122:
  6134                           
  6135                           ;main.c: 177:         destinoDesc = destinoDesc & 0b11111101;
  6136  016B  082F               	movf	_destinoDesc,w
  6137  016C  39FD               	andlw	253
  6138  016D  00FC               	movwf	??_chegadaS2
  6139  016E  087C               	movf	??_chegadaS2,w
  6140  016F  00AF               	movwf	_destinoDesc
  6141  0170                     i1l2124:
  6142                           
  6143                           ;main.c: 180:         if(destinoDesc == 0){
  6144  0170  082F               	movf	_destinoDesc,w
  6145  0171  1D03               	btfss	3,2
  6146  0172  2974               	goto	u61_21
  6147  0173  2975               	goto	u61_20
  6148  0174                     u61_21:
  6149  0174  2979               	goto	i1l2128
  6150  0175                     u61_20:
  6151  0175                     i1l2126:
  6152                           
  6153                           ;main.c: 181:             mov = RetornaS0;
  6154  0175  3003               	movlw	3
  6155  0176  00FC               	movwf	??_chegadaS2
  6156  0177  087C               	movf	??_chegadaS2,w
  6157  0178  00AE               	movwf	_mov
  6158  0179                     i1l2128:
  6159                           
  6160                           ;main.c: 184:     MatrixLed[7] = MatrixLed[7] | destinoSub;
  6161  0179  0827               	movf	_MatrixLed+7,w
  6162  017A  0430               	iorwf	_destinoSub,w
  6163  017B  00FC               	movwf	??_chegadaS2
  6164  017C  087C               	movf	??_chegadaS2,w
  6165  017D  00A7               	movwf	_MatrixLed+7
  6166  017E                     i1l2130:
  6167                           
  6168                           ;main.c: 185:     MatrixLed[6] = MatrixLed[6] | destinoDesc;
  6169  017E  0826               	movf	_MatrixLed+6,w
  6170  017F  042F               	iorwf	_destinoDesc,w
  6171  0180  00FC               	movwf	??_chegadaS2
  6172  0181  087C               	movf	??_chegadaS2,w
  6173  0182  00A6               	movwf	_MatrixLed+6
  6174  0183                     i1l2132:
  6175                           
  6176                           ;main.c: 186:     matrixUpdate();
  6177  0183  3183  23BE  3181   	fcall	_matrixUpdate
  6178  0186                     i1l2134:
  6179                           
  6180                           ;main.c: 190:     _delay((unsigned long)((500)*(4000000/4000.0)));
  6181  0186  3003               	movlw	3
  6182  0187  00FD               	movwf	??_chegadaS2+1
  6183  0188  308A               	movlw	138
  6184  0189  00FC               	movwf	??_chegadaS2
  6185  018A  3056               	movlw	86
  6186  018B                     u93_27:
  6187  018B  0B89               	decfsz	9,f
  6188  018C  298B               	goto	u93_27
  6189  018D  0BFC               	decfsz	??_chegadaS2,f
  6190  018E  298B               	goto	u93_27
  6191  018F  0BFD               	decfsz	??_chegadaS2+1,f
  6192  0190  298B               	goto	u93_27
  6193  0191                     i1l2136:
  6194                           
  6195                           ;main.c: 191:     controleMovimento();
  6196  0191  3182  2243  3181   	fcall	_controleMovimento
  6197  0194                     i1l642:
  6198  0194  0008               	return
  6199  0195                     __end_of_chegadaS2:
  6200                           
  6201                           	psect	text39
  6202  0479                     __ptext39:	
  6203 ;; *************** function _IOCBF0_ISR *****************
  6204 ;; Defined at:
  6205 ;;		line 136 in file "mcc_generated_files/pin_manager.c"
  6206 ;; Parameters:    Size  Location     Type
  6207 ;;		None
  6208 ;; Auto vars:     Size  Location     Type
  6209 ;;		None
  6210 ;; Return value:  Size  Location     Type
  6211 ;;                  1    wreg      void 
  6212 ;; Registers used:
  6213 ;;		wreg, status,2, status,0, pclath, cstack
  6214 ;; Tracked objects:
  6215 ;;		On entry : 0/0
  6216 ;;		On exit  : 0/0
  6217 ;;		Unchanged: 0/0
  6218 ;; Data sizes:     COMMON   BANK0   BANK1   BANK2   BANK3   BANK4
  6219 ;;      Params:         0       0       0       0       0       0
  6220 ;;      Locals:         0       0       0       0       0       0
  6221 ;;      Temps:          0       0       0       0       0       0
  6222 ;;      Totals:         0       0       0       0       0       0
  6223 ;;Total ram usage:        0 bytes
  6224 ;; Hardware stack levels used: 1
  6225 ;; Hardware stack levels required when called: 1
  6226 ;; This function calls:
  6227 ;;		Absolute function
  6228 ;;		_IOCBF0_DefaultInterruptHandler
  6229 ;; This function is called by:
  6230 ;;		_PIN_MANAGER_IOC
  6231 ;; This function uses a non-reentrant model
  6232 ;;
  6233                           
  6234  0479                     _IOCBF0_ISR:	
  6235                           ;psect for function _IOCBF0_ISR
  6236                           
  6237  0479                     i1l2268:	
  6238                           ;incstack = 0
  6239                           ; Regs used in _IOCBF0_ISR: [wreg+status,2+status,0+pclath+cstack]
  6240                           
  6241                           
  6242                           ;mcc_generated_files/pin_manager.c: 141:     if(IOCBF0_InterruptHandler)
  6243  0479  0020               	movlb	0	; select bank0
  6244  047A  0850               	movf	_IOCBF0_InterruptHandler,w
  6245  047B  0451               	iorwf	_IOCBF0_InterruptHandler+1,w
  6246  047C  1903               	btfsc	3,2
  6247  047D  2C7F               	goto	u68_21
  6248  047E  2C80               	goto	u68_20
  6249  047F                     u68_21:
  6250  047F  2C85               	goto	i1l2272
  6251  0480                     u68_20:
  6252  0480                     i1l2270:
  6253                           
  6254                           ;mcc_generated_files/pin_manager.c: 142:     {;mcc_generated_files/pin_manager.c: 143:  
      +                                 IOCBF0_InterruptHandler();
  6255  0480  0851               	movf	_IOCBF0_InterruptHandler+1,w
  6256  0481  008A               	movwf	10
  6257  0482  0850               	movf	_IOCBF0_InterruptHandler,w
  6258  0483  000A               	callw
  6259  0484  3184               	pagesel	$
  6260  0485                     i1l2272:
  6261                           
  6262                           ;mcc_generated_files/pin_manager.c: 145:     IOCBFbits.IOCBF0 = 0;
  6263  0485  0027               	movlb	7	; select bank7
  6264  0486  1016               	bcf	22,0	;volatile
  6265  0487                     i1l138:
  6266  0487  0008               	return
  6267  0488                     __end_of_IOCBF0_ISR:
  6268                           
  6269                           	psect	text40
  6270  0558                     __ptext40:	
  6271 ;; *************** function _IOCBF0_DefaultInterruptHandler *****************
  6272 ;; Defined at:
  6273 ;;		line 158 in file "mcc_generated_files/pin_manager.c"
  6274 ;; Parameters:    Size  Location     Type
  6275 ;;		None
  6276 ;; Auto vars:     Size  Location     Type
  6277 ;;		None
  6278 ;; Return value:  Size  Location     Type
  6279 ;;                  1    wreg      void 
  6280 ;; Registers used:
  6281 ;;		None
  6282 ;; Tracked objects:
  6283 ;;		On entry : 0/0
  6284 ;;		On exit  : 0/0
  6285 ;;		Unchanged: 0/0
  6286 ;; Data sizes:     COMMON   BANK0   BANK1   BANK2   BANK3   BANK4
  6287 ;;      Params:         0       0       0       0       0       0
  6288 ;;      Locals:         0       0       0       0       0       0
  6289 ;;      Temps:          0       0       0       0       0       0
  6290 ;;      Totals:         0       0       0       0       0       0
  6291 ;;Total ram usage:        0 bytes
  6292 ;; Hardware stack levels used: 1
  6293 ;; This function calls:
  6294 ;;		Nothing
  6295 ;; This function is called by:
  6296 ;;		_PIN_MANAGER_Initialize
  6297 ;;		_IOCBF0_ISR
  6298 ;; This function uses a non-reentrant model
  6299 ;;
  6300                           
  6301  0558                     _IOCBF0_DefaultInterruptHandler:	
  6302                           ;psect for function _IOCBF0_DefaultInterruptHandler
  6303                           
  6304  0558                     i1l144:	
  6305                           ;incstack = 0
  6306                           ; Regs used in _IOCBF0_DefaultInterruptHandler: []
  6307                           
  6308  0558  0008               	return
  6309  0559                     __end_of_IOCBF0_DefaultInterruptHandler:
  6310                           
  6311                           	psect	text41
  6312  053C                     __ptext41:	
  6313 ;; *************** function _CMP2_ISR *****************
  6314 ;; Defined at:
  6315 ;;		line 86 in file "mcc_generated_files/cmp2.c"
  6316 ;; Parameters:    Size  Location     Type
  6317 ;;		None
  6318 ;; Auto vars:     Size  Location     Type
  6319 ;;		None
  6320 ;; Return value:  Size  Location     Type
  6321 ;;                  1    wreg      void 
  6322 ;; Registers used:
  6323 ;;		wreg, fsr0l, fsr0h, fsr1l, fsr1h, status,2, status,0, pclath, cstack
  6324 ;; Tracked objects:
  6325 ;;		On entry : 0/0
  6326 ;;		On exit  : 0/0
  6327 ;;		Unchanged: 0/0
  6328 ;; Data sizes:     COMMON   BANK0   BANK1   BANK2   BANK3   BANK4
  6329 ;;      Params:         0       0       0       0       0       0
  6330 ;;      Locals:         0       0       0       0       0       0
  6331 ;;      Temps:          0       0       0       0       0       0
  6332 ;;      Totals:         0       0       0       0       0       0
  6333 ;;Total ram usage:        0 bytes
  6334 ;; Hardware stack levels used: 1
  6335 ;; Hardware stack levels required when called: 4
  6336 ;; This function calls:
  6337 ;;		_chegadaS4
  6338 ;; This function is called by:
  6339 ;;		_INTERRUPT_InterruptManager
  6340 ;; This function uses a non-reentrant model
  6341 ;;
  6342                           
  6343  053C                     _CMP2_ISR:	
  6344                           ;psect for function _CMP2_ISR
  6345                           
  6346  053C                     i1l2380:	
  6347                           ;incstack = 0
  6348                           ; Regs used in _CMP2_ISR: [wreg-fsr1h+status,2+status,0+pclath+cstack]
  6349                           
  6350                           
  6351                           ;mcc_generated_files/cmp2.c: 89:     PIR2bits.C2IF = 0;
  6352  053C  0020               	movlb	0	; select bank0
  6353  053D  1312               	bcf	18,6	;volatile
  6354  053E                     i1l2382:
  6355                           
  6356                           ;mcc_generated_files/cmp2.c: 90:     chegadaS4();
  6357  053E  3180  205B  3185   	fcall	_chegadaS4
  6358  0541                     i1l47:
  6359  0541  0008               	return
  6360  0542                     __end_of_CMP2_ISR:
  6361                           
  6362                           	psect	text42
  6363  005B                     __ptext42:	
  6364 ;; *************** function _chegadaS4 *****************
  6365 ;; Defined at:
  6366 ;;		line 228 in file "main.c"
  6367 ;; Parameters:    Size  Location     Type
  6368 ;;		None
  6369 ;; Auto vars:     Size  Location     Type
  6370 ;;		None
  6371 ;; Return value:  Size  Location     Type
  6372 ;;                  1    wreg      void 
  6373 ;; Registers used:
  6374 ;;		wreg, fsr0l, fsr0h, fsr1l, fsr1h, status,2, status,0, pclath, cstack
  6375 ;; Tracked objects:
  6376 ;;		On entry : 0/0
  6377 ;;		On exit  : 0/0
  6378 ;;		Unchanged: 0/0
  6379 ;; Data sizes:     COMMON   BANK0   BANK1   BANK2   BANK3   BANK4
  6380 ;;      Params:         0       0       0       0       0       0
  6381 ;;      Locals:         0       0       0       0       0       0
  6382 ;;      Temps:          2       0       0       0       0       0
  6383 ;;      Totals:         2       0       0       0       0       0
  6384 ;;Total ram usage:        2 bytes
  6385 ;; Hardware stack levels used: 1
  6386 ;; Hardware stack levels required when called: 3
  6387 ;; This function calls:
  6388 ;;		_PWM3_LoadDutyValue
  6389 ;;		_controleMovimento
  6390 ;;		_matrixUpdate
  6391 ;; This function is called by:
  6392 ;;		_CMP2_ISR
  6393 ;; This function uses a non-reentrant model
  6394 ;;
  6395                           
  6396  005B                     _chegadaS4:	
  6397                           ;psect for function _chegadaS4
  6398                           
  6399  005B                     i1l2154:	
  6400                           ;incstack = 0
  6401                           ; Regs used in _chegadaS4: [wreg-fsr1h+status,2+status,0+pclath+cstack]
  6402                           
  6403                           
  6404                           ;main.c: 229:     PWM3_LoadDutyValue(0);
  6405  005B  3000               	movlw	0
  6406  005C  00F0               	movwf	PWM3_LoadDutyValue@dutyValue
  6407  005D  00F1               	movwf	PWM3_LoadDutyValue@dutyValue+1
  6408  005E  3184  240F  3180   	fcall	_PWM3_LoadDutyValue
  6409  0061                     i1l2156:
  6410                           
  6411                           ;main.c: 232:     MatrixLed[0] = 0b10000001;
  6412  0061  3081               	movlw	129
  6413  0062  00FC               	movwf	??_chegadaS4
  6414  0063  087C               	movf	??_chegadaS4,w
  6415  0064  0020               	movlb	0	; select bank0
  6416  0065  00A0               	movwf	_MatrixLed
  6417  0066                     i1l2158:
  6418                           
  6419                           ;main.c: 233:     MatrixLed[1] = 0b10010001;
  6420  0066  3091               	movlw	145
  6421  0067  00FC               	movwf	??_chegadaS4
  6422  0068  087C               	movf	??_chegadaS4,w
  6423  0069  00A1               	movwf	_MatrixLed+1
  6424  006A                     i1l2160:
  6425                           
  6426                           ;main.c: 234:     MatrixLed[2] = 0b10010001;
  6427  006A  3091               	movlw	145
  6428  006B  00FC               	movwf	??_chegadaS4
  6429  006C  087C               	movf	??_chegadaS4,w
  6430  006D  00A2               	movwf	_MatrixLed+2
  6431  006E                     i1l2162:
  6432                           
  6433                           ;main.c: 235:     MatrixLed[3] = 0b01101110;
  6434  006E  306E               	movlw	110
  6435  006F  00FC               	movwf	??_chegadaS4
  6436  0070  087C               	movf	??_chegadaS4,w
  6437  0071  00A3               	movwf	_MatrixLed+3
  6438  0072                     i1l2164:
  6439                           
  6440                           ;main.c: 236:     MatrixLed[4] = 0;
  6441  0072  01A4               	clrf	_MatrixLed+4
  6442  0073                     i1l2166:
  6443                           
  6444                           ;main.c: 237:     if(subindo){
  6445  0073  0852               	movf	_subindo,w
  6446  0074  1903               	btfsc	3,2
  6447  0075  2877               	goto	u62_21
  6448  0076  2878               	goto	u62_20
  6449  0077                     u62_21:
  6450  0077  288A               	goto	i1l2172
  6451  0078                     u62_20:
  6452  0078                     i1l2168:
  6453                           
  6454                           ;main.c: 238:         MatrixLed[5] = 0b01100000;
  6455  0078  3060               	movlw	96
  6456  0079  00FC               	movwf	??_chegadaS4
  6457  007A  087C               	movf	??_chegadaS4,w
  6458  007B  00A5               	movwf	_MatrixLed+5
  6459                           
  6460                           ;main.c: 239:         MatrixLed[6] = 0b11000000;
  6461  007C  30C0               	movlw	192
  6462  007D  00FC               	movwf	??_chegadaS4
  6463  007E  087C               	movf	??_chegadaS4,w
  6464  007F  00A6               	movwf	_MatrixLed+6
  6465                           
  6466                           ;main.c: 240:         MatrixLed[7] = 0b01100000;
  6467  0080  3060               	movlw	96
  6468  0081  00FC               	movwf	??_chegadaS4
  6469  0082  087C               	movf	??_chegadaS4,w
  6470  0083  00A7               	movwf	_MatrixLed+7
  6471  0084                     i1l2170:
  6472                           
  6473                           ;main.c: 241:         destinoSub = destinoSub & 0b11110111;
  6474  0084  0830               	movf	_destinoSub,w
  6475  0085  39F7               	andlw	247
  6476  0086  00FC               	movwf	??_chegadaS4
  6477  0087  087C               	movf	??_chegadaS4,w
  6478  0088  00B0               	movwf	_destinoSub
  6479                           
  6480                           ;main.c: 242:     }else{
  6481  0089  289B               	goto	i1l2176
  6482  008A                     i1l2172:
  6483                           
  6484                           ;main.c: 243:         MatrixLed[5] = 0b11000000;
  6485  008A  30C0               	movlw	192
  6486  008B  00FC               	movwf	??_chegadaS4
  6487  008C  087C               	movf	??_chegadaS4,w
  6488  008D  00A5               	movwf	_MatrixLed+5
  6489                           
  6490                           ;main.c: 244:         MatrixLed[6] = 0b01100000;
  6491  008E  3060               	movlw	96
  6492  008F  00FC               	movwf	??_chegadaS4
  6493  0090  087C               	movf	??_chegadaS4,w
  6494  0091  00A6               	movwf	_MatrixLed+6
  6495                           
  6496                           ;main.c: 245:         MatrixLed[7] = 0b11000000;
  6497  0092  30C0               	movlw	192
  6498  0093  00FC               	movwf	??_chegadaS4
  6499  0094  087C               	movf	??_chegadaS4,w
  6500  0095  00A7               	movwf	_MatrixLed+7
  6501  0096                     i1l2174:
  6502                           
  6503                           ;main.c: 246:         destinoDesc = destinoDesc & 0b11110111;
  6504  0096  082F               	movf	_destinoDesc,w
  6505  0097  39F7               	andlw	247
  6506  0098  00FC               	movwf	??_chegadaS4
  6507  0099  087C               	movf	??_chegadaS4,w
  6508  009A  00AF               	movwf	_destinoDesc
  6509  009B                     i1l2176:
  6510                           
  6511                           ;main.c: 248:     MatrixLed[7] = MatrixLed[7] | destinoSub;
  6512  009B  0827               	movf	_MatrixLed+7,w
  6513  009C  0430               	iorwf	_destinoSub,w
  6514  009D  00FC               	movwf	??_chegadaS4
  6515  009E  087C               	movf	??_chegadaS4,w
  6516  009F  00A7               	movwf	_MatrixLed+7
  6517  00A0                     i1l2178:
  6518                           
  6519                           ;main.c: 249:     MatrixLed[6] = MatrixLed[6] | destinoDesc;
  6520  00A0  0826               	movf	_MatrixLed+6,w
  6521  00A1  042F               	iorwf	_destinoDesc,w
  6522  00A2  00FC               	movwf	??_chegadaS4
  6523  00A3  087C               	movf	??_chegadaS4,w
  6524  00A4  00A6               	movwf	_MatrixLed+6
  6525  00A5                     i1l2180:
  6526                           
  6527                           ;main.c: 250:     matrixUpdate();
  6528  00A5  3183  23BE  3180   	fcall	_matrixUpdate
  6529  00A8                     i1l2182:
  6530                           
  6531                           ;main.c: 253:     if(destinoDesc ==0 && destinoSub == 0){
  6532  00A8  0020               	movlb	0	; select bank0
  6533  00A9  082F               	movf	_destinoDesc,w
  6534  00AA  1D03               	btfss	3,2
  6535  00AB  28AD               	goto	u63_21
  6536  00AC  28AE               	goto	u63_20
  6537  00AD                     u63_21:
  6538  00AD  28B7               	goto	i1l653
  6539  00AE                     u63_20:
  6540  00AE                     i1l2184:
  6541  00AE  0830               	movf	_destinoSub,w
  6542  00AF  1D03               	btfss	3,2
  6543  00B0  28B2               	goto	u64_21
  6544  00B1  28B3               	goto	u64_20
  6545  00B2                     u64_21:
  6546  00B2  28B7               	goto	i1l653
  6547  00B3                     u64_20:
  6548  00B3                     i1l2186:
  6549                           
  6550                           ;main.c: 254:         mov = RetornaS0;
  6551  00B3  3003               	movlw	3
  6552  00B4  00FC               	movwf	??_chegadaS4
  6553  00B5  087C               	movf	??_chegadaS4,w
  6554  00B6  00AE               	movwf	_mov
  6555  00B7                     i1l653:	
  6556                           ;main.c: 255:     }
  6557                           
  6558                           
  6559                           ;main.c: 258:     _delay((unsigned long)((500)*(4000000/4000.0)));
  6560  00B7  3003               	movlw	3
  6561  00B8  00FD               	movwf	??_chegadaS4+1
  6562  00B9  308A               	movlw	138
  6563  00BA  00FC               	movwf	??_chegadaS4
  6564  00BB  3056               	movlw	86
  6565  00BC                     u94_27:
  6566  00BC  0B89               	decfsz	9,f
  6567  00BD  28BC               	goto	u94_27
  6568  00BE  0BFC               	decfsz	??_chegadaS4,f
  6569  00BF  28BC               	goto	u94_27
  6570  00C0  0BFD               	decfsz	??_chegadaS4+1,f
  6571  00C1  28BC               	goto	u94_27
  6572  00C2                     i1l2188:
  6573                           
  6574                           ;main.c: 259:     controleMovimento();
  6575  00C2  3182  2243  3180   	fcall	_controleMovimento
  6576  00C5                     i1l654:
  6577  00C5  0008               	return
  6578  00C6                     __end_of_chegadaS4:
  6579                           
  6580                           	psect	text43
  6581  0542                     __ptext43:	
  6582 ;; *************** function _CMP1_ISR *****************
  6583 ;; Defined at:
  6584 ;;		line 86 in file "mcc_generated_files/cmp1.c"
  6585 ;; Parameters:    Size  Location     Type
  6586 ;;		None
  6587 ;; Auto vars:     Size  Location     Type
  6588 ;;		None
  6589 ;; Return value:  Size  Location     Type
  6590 ;;                  1    wreg      void 
  6591 ;; Registers used:
  6592 ;;		wreg, fsr0l, fsr0h, fsr1l, fsr1h, status,2, status,0, pclath, cstack
  6593 ;; Tracked objects:
  6594 ;;		On entry : 0/0
  6595 ;;		On exit  : 0/0
  6596 ;;		Unchanged: 0/0
  6597 ;; Data sizes:     COMMON   BANK0   BANK1   BANK2   BANK3   BANK4
  6598 ;;      Params:         0       0       0       0       0       0
  6599 ;;      Locals:         0       0       0       0       0       0
  6600 ;;      Temps:          0       0       0       0       0       0
  6601 ;;      Totals:         0       0       0       0       0       0
  6602 ;;Total ram usage:        0 bytes
  6603 ;; Hardware stack levels used: 1
  6604 ;; Hardware stack levels required when called: 4
  6605 ;; This function calls:
  6606 ;;		_chegadaS3
  6607 ;; This function is called by:
  6608 ;;		_INTERRUPT_InterruptManager
  6609 ;; This function uses a non-reentrant model
  6610 ;;
  6611                           
  6612  0542                     _CMP1_ISR:	
  6613                           ;psect for function _CMP1_ISR
  6614                           
  6615  0542                     i1l2384:	
  6616                           ;incstack = 0
  6617                           ; Regs used in _CMP1_ISR: [wreg-fsr1h+status,2+status,0+pclath+cstack]
  6618                           
  6619                           
  6620                           ;mcc_generated_files/cmp1.c: 89:     PIR2bits.C1IF = 0;
  6621  0542  0020               	movlb	0	; select bank0
  6622  0543  1292               	bcf	18,5	;volatile
  6623  0544                     i1l2386:
  6624                           
  6625                           ;mcc_generated_files/cmp1.c: 90:     chegadaS3();
  6626  0544  3180  20C6  3185   	fcall	_chegadaS3
  6627  0547                     i1l80:
  6628  0547  0008               	return
  6629  0548                     __end_of_CMP1_ISR:
  6630                           
  6631                           	psect	text44
  6632  00C6                     __ptext44:	
  6633 ;; *************** function _chegadaS3 *****************
  6634 ;; Defined at:
  6635 ;;		line 194 in file "main.c"
  6636 ;; Parameters:    Size  Location     Type
  6637 ;;		None
  6638 ;; Auto vars:     Size  Location     Type
  6639 ;;		None
  6640 ;; Return value:  Size  Location     Type
  6641 ;;                  1    wreg      void 
  6642 ;; Registers used:
  6643 ;;		wreg, fsr0l, fsr0h, fsr1l, fsr1h, status,2, status,0, pclath, cstack
  6644 ;; Tracked objects:
  6645 ;;		On entry : 0/0
  6646 ;;		On exit  : 0/0
  6647 ;;		Unchanged: 0/0
  6648 ;; Data sizes:     COMMON   BANK0   BANK1   BANK2   BANK3   BANK4
  6649 ;;      Params:         0       0       0       0       0       0
  6650 ;;      Locals:         0       0       0       0       0       0
  6651 ;;      Temps:          2       0       0       0       0       0
  6652 ;;      Totals:         2       0       0       0       0       0
  6653 ;;Total ram usage:        2 bytes
  6654 ;; Hardware stack levels used: 1
  6655 ;; Hardware stack levels required when called: 3
  6656 ;; This function calls:
  6657 ;;		_PWM3_LoadDutyValue
  6658 ;;		_controleMovimento
  6659 ;;		_matrixUpdate
  6660 ;; This function is called by:
  6661 ;;		_CMP1_ISR
  6662 ;; This function uses a non-reentrant model
  6663 ;;
  6664                           
  6665  00C6                     _chegadaS3:	
  6666                           ;psect for function _chegadaS3
  6667                           
  6668  00C6                     i1l2198:	
  6669                           ;incstack = 0
  6670                           ; Regs used in _chegadaS3: [wreg-fsr1h+status,2+status,0+pclath+cstack]
  6671                           
  6672                           
  6673                           ;main.c: 195:     PWM3_LoadDutyValue(0);
  6674  00C6  3000               	movlw	0
  6675  00C7  00F0               	movwf	PWM3_LoadDutyValue@dutyValue
  6676  00C8  00F1               	movwf	PWM3_LoadDutyValue@dutyValue+1
  6677  00C9  3184  240F  3180   	fcall	_PWM3_LoadDutyValue
  6678  00CC                     i1l2200:
  6679                           
  6680                           ;main.c: 198:     MatrixLed[0] = 0b01000011;
  6681  00CC  3043               	movlw	67
  6682  00CD  00FC               	movwf	??_chegadaS3
  6683  00CE  087C               	movf	??_chegadaS3,w
  6684  00CF  0020               	movlb	0	; select bank0
  6685  00D0  00A0               	movwf	_MatrixLed
  6686  00D1                     i1l2202:
  6687                           
  6688                           ;main.c: 199:     MatrixLed[1] = 0b10000101;
  6689  00D1  3085               	movlw	133
  6690  00D2  00FC               	movwf	??_chegadaS3
  6691  00D3  087C               	movf	??_chegadaS3,w
  6692  00D4  00A1               	movwf	_MatrixLed+1
  6693  00D5                     i1l2204:
  6694                           
  6695                           ;main.c: 200:     MatrixLed[2] = 0b10001001;
  6696  00D5  3089               	movlw	137
  6697  00D6  00FC               	movwf	??_chegadaS3
  6698  00D7  087C               	movf	??_chegadaS3,w
  6699  00D8  00A2               	movwf	_MatrixLed+2
  6700  00D9                     i1l2206:
  6701                           
  6702                           ;main.c: 201:     MatrixLed[3] = 0b01110001;
  6703  00D9  3071               	movlw	113
  6704  00DA  00FC               	movwf	??_chegadaS3
  6705  00DB  087C               	movf	??_chegadaS3,w
  6706  00DC  00A3               	movwf	_MatrixLed+3
  6707  00DD                     i1l2208:
  6708                           
  6709                           ;main.c: 202:     MatrixLed[4] = 0;
  6710  00DD  01A4               	clrf	_MatrixLed+4
  6711  00DE                     i1l2210:
  6712                           
  6713                           ;main.c: 203:     if(subindo){
  6714  00DE  0852               	movf	_subindo,w
  6715  00DF  1903               	btfsc	3,2
  6716  00E0  28E2               	goto	u65_21
  6717  00E1  28E3               	goto	u65_20
  6718  00E2                     u65_21:
  6719  00E2  28F5               	goto	i1l2216
  6720  00E3                     u65_20:
  6721  00E3                     i1l2212:
  6722                           
  6723                           ;main.c: 204:         MatrixLed[5] = 0b01100000;
  6724  00E3  3060               	movlw	96
  6725  00E4  00FC               	movwf	??_chegadaS3
  6726  00E5  087C               	movf	??_chegadaS3,w
  6727  00E6  00A5               	movwf	_MatrixLed+5
  6728                           
  6729                           ;main.c: 205:         MatrixLed[6] = 0b11000000;
  6730  00E7  30C0               	movlw	192
  6731  00E8  00FC               	movwf	??_chegadaS3
  6732  00E9  087C               	movf	??_chegadaS3,w
  6733  00EA  00A6               	movwf	_MatrixLed+6
  6734                           
  6735                           ;main.c: 206:         MatrixLed[7] = 0b01100000;
  6736  00EB  3060               	movlw	96
  6737  00EC  00FC               	movwf	??_chegadaS3
  6738  00ED  087C               	movf	??_chegadaS3,w
  6739  00EE  00A7               	movwf	_MatrixLed+7
  6740  00EF                     i1l2214:
  6741                           
  6742                           ;main.c: 207:         destinoSub = destinoSub & 0b11111011;
  6743  00EF  0830               	movf	_destinoSub,w
  6744  00F0  39FB               	andlw	251
  6745  00F1  00FC               	movwf	??_chegadaS3
  6746  00F2  087C               	movf	??_chegadaS3,w
  6747  00F3  00B0               	movwf	_destinoSub
  6748                           
  6749                           ;main.c: 208:     }else{
  6750  00F4  2906               	goto	i1l2220
  6751  00F5                     i1l2216:
  6752                           
  6753                           ;main.c: 209:         MatrixLed[5] = 0b11000000;
  6754  00F5  30C0               	movlw	192
  6755  00F6  00FC               	movwf	??_chegadaS3
  6756  00F7  087C               	movf	??_chegadaS3,w
  6757  00F8  00A5               	movwf	_MatrixLed+5
  6758                           
  6759                           ;main.c: 210:         MatrixLed[6] = 0b01100000;
  6760  00F9  3060               	movlw	96
  6761  00FA  00FC               	movwf	??_chegadaS3
  6762  00FB  087C               	movf	??_chegadaS3,w
  6763  00FC  00A6               	movwf	_MatrixLed+6
  6764                           
  6765                           ;main.c: 211:         MatrixLed[7] = 0b11000000;
  6766  00FD  30C0               	movlw	192
  6767  00FE  00FC               	movwf	??_chegadaS3
  6768  00FF  087C               	movf	??_chegadaS3,w
  6769  0100  00A7               	movwf	_MatrixLed+7
  6770  0101                     i1l2218:
  6771                           
  6772                           ;main.c: 212:         destinoDesc = destinoDesc & 0b11111011;
  6773  0101  082F               	movf	_destinoDesc,w
  6774  0102  39FB               	andlw	251
  6775  0103  00FC               	movwf	??_chegadaS3
  6776  0104  087C               	movf	??_chegadaS3,w
  6777  0105  00AF               	movwf	_destinoDesc
  6778  0106                     i1l2220:
  6779                           
  6780                           ;main.c: 214:     MatrixLed[7] = MatrixLed[7] | destinoSub;
  6781  0106  0827               	movf	_MatrixLed+7,w
  6782  0107  0430               	iorwf	_destinoSub,w
  6783  0108  00FC               	movwf	??_chegadaS3
  6784  0109  087C               	movf	??_chegadaS3,w
  6785  010A  00A7               	movwf	_MatrixLed+7
  6786  010B                     i1l2222:
  6787                           
  6788                           ;main.c: 215:     MatrixLed[6] = MatrixLed[6] | destinoDesc;
  6789  010B  0826               	movf	_MatrixLed+6,w
  6790  010C  042F               	iorwf	_destinoDesc,w
  6791  010D  00FC               	movwf	??_chegadaS3
  6792  010E  087C               	movf	??_chegadaS3,w
  6793  010F  00A6               	movwf	_MatrixLed+6
  6794  0110                     i1l2224:
  6795                           
  6796                           ;main.c: 216:     matrixUpdate();
  6797  0110  3183  23BE  3180   	fcall	_matrixUpdate
  6798  0113                     i1l2226:
  6799                           
  6800                           ;main.c: 219:     if(destinoDesc ==0 && destinoSub == 0){
  6801  0113  0020               	movlb	0	; select bank0
  6802  0114  082F               	movf	_destinoDesc,w
  6803  0115  1D03               	btfss	3,2
  6804  0116  2918               	goto	u66_21
  6805  0117  2919               	goto	u66_20
  6806  0118                     u66_21:
  6807  0118  2922               	goto	i1l647
  6808  0119                     u66_20:
  6809  0119                     i1l2228:
  6810  0119  0830               	movf	_destinoSub,w
  6811  011A  1D03               	btfss	3,2
  6812  011B  291D               	goto	u67_21
  6813  011C  291E               	goto	u67_20
  6814  011D                     u67_21:
  6815  011D  2922               	goto	i1l647
  6816  011E                     u67_20:
  6817  011E                     i1l2230:
  6818                           
  6819                           ;main.c: 220:         mov = RetornaS0;
  6820  011E  3003               	movlw	3
  6821  011F  00FC               	movwf	??_chegadaS3
  6822  0120  087C               	movf	??_chegadaS3,w
  6823  0121  00AE               	movwf	_mov
  6824  0122                     i1l647:	
  6825                           ;main.c: 221:     }
  6826                           
  6827                           
  6828                           ;main.c: 224:     _delay((unsigned long)((500)*(4000000/4000.0)));
  6829  0122  3003               	movlw	3
  6830  0123  00FD               	movwf	??_chegadaS3+1
  6831  0124  308A               	movlw	138
  6832  0125  00FC               	movwf	??_chegadaS3
  6833  0126  3056               	movlw	86
  6834  0127                     u95_27:
  6835  0127  0B89               	decfsz	9,f
  6836  0128  2927               	goto	u95_27
  6837  0129  0BFC               	decfsz	??_chegadaS3,f
  6838  012A  2927               	goto	u95_27
  6839  012B  0BFD               	decfsz	??_chegadaS3+1,f
  6840  012C  2927               	goto	u95_27
  6841  012D                     i1l2232:
  6842                           
  6843                           ;main.c: 225:     controleMovimento();
  6844  012D  3182  2243  3180   	fcall	_controleMovimento
  6845  0130                     i1l648:
  6846  0130  0008               	return
  6847  0131                     __end_of_chegadaS3:
  6848                           
  6849                           	psect	text45
  6850  03BE                     __ptext45:	
  6851 ;; *************** function _matrixUpdate *****************
  6852 ;; Defined at:
  6853 ;;		line 62 in file "main.c"
  6854 ;; Parameters:    Size  Location     Type
  6855 ;;		None
  6856 ;; Auto vars:     Size  Location     Type
  6857 ;;  i               1    0        unsigned char 
  6858 ;;  i               1   11[COMMON] unsigned char 
  6859 ;;  index           1    0        unsigned char 
  6860 ;;  data            2    9[COMMON] unsigned char [2]
  6861 ;; Return value:  Size  Location     Type
  6862 ;;                  1    wreg      void 
  6863 ;; Registers used:
  6864 ;;		wreg, fsr1l, fsr1h, status,2, status,0, pclath, cstack
  6865 ;; Tracked objects:
  6866 ;;		On entry : 0/0
  6867 ;;		On exit  : 0/0
  6868 ;;		Unchanged: 0/0
  6869 ;; Data sizes:     COMMON   BANK0   BANK1   BANK2   BANK3   BANK4
  6870 ;;      Params:         0       0       0       0       0       0
  6871 ;;      Locals:         3       0       0       0       0       0
  6872 ;;      Temps:          1       0       0       0       0       0
  6873 ;;      Totals:         4       0       0       0       0       0
  6874 ;;Total ram usage:        4 bytes
  6875 ;; Hardware stack levels used: 1
  6876 ;; Hardware stack levels required when called: 2
  6877 ;; This function calls:
  6878 ;;		i1_txSpi
  6879 ;; This function is called by:
  6880 ;;		_chegadaS1
  6881 ;;		_chegadaS2
  6882 ;;		_chegadaS3
  6883 ;;		_chegadaS4
  6884 ;; This function uses a non-reentrant model
  6885 ;;
  6886                           
  6887  03BE                     _matrixUpdate:	
  6888                           ;psect for function _matrixUpdate
  6889                           
  6890  03BE                     i1l1990:	
  6891                           ;incstack = 0
  6892                           ; Regs used in _matrixUpdate: [wreg+fsr1l+fsr1h+status,2+status,0+pclath+cstack]
  6893                           
  6894                           
  6895                           ;main.c: 65:         for(uint8_t i=8;i>0;i--){
  6896  03BE  3008               	movlw	8
  6897  03BF  00F8               	movwf	??_matrixUpdate
  6898  03C0  0878               	movf	??_matrixUpdate,w
  6899  03C1  00FB               	movwf	matrixUpdate@i
  6900  03C2                     i1l1996:
  6901                           
  6902                           ;main.c: 66:             data[0] = i;
  6903  03C2  087B               	movf	matrixUpdate@i,w
  6904  03C3  00F8               	movwf	??_matrixUpdate
  6905  03C4  0878               	movf	??_matrixUpdate,w
  6906  03C5  00F9               	movwf	matrixUpdate@data
  6907  03C6                     i1l1998:
  6908                           
  6909                           ;main.c: 67:             data[1] = MatrixLed[i-1];
  6910  03C6  087B               	movf	matrixUpdate@i,w
  6911  03C7  3E1F               	addlw	(low ((_MatrixLed| 0+255)))& (0+255)
  6912  03C8  0086               	movwf	6
  6913  03C9  0187               	clrf	7
  6914  03CA  0801               	movf	1,w
  6915  03CB  00F8               	movwf	??_matrixUpdate
  6916  03CC  0878               	movf	??_matrixUpdate,w
  6917  03CD  00FA               	movwf	matrixUpdate@data+1
  6918  03CE                     i1l2000:
  6919                           
  6920                           ;main.c: 68:             txSpi(data, 2);
  6921  03CE  3002               	movlw	2
  6922  03CF  00F5               	movwf	i1txSpi@dataSize
  6923  03D0  3000               	movlw	0
  6924  03D1  00F6               	movwf	i1txSpi@dataSize+1
  6925  03D2  3079               	movlw	(low (matrixUpdate@data| 0))& (0+255)
  6926  03D3  3184  2488  3183   	fcall	i1_txSpi
  6927  03D6                     i1l2002:
  6928                           
  6929                           ;main.c: 69:         }
  6930  03D6  3001               	movlw	1
  6931  03D7  02FB               	subwf	matrixUpdate@i,f
  6932  03D8                     i1l2004:
  6933  03D8  087B               	movf	matrixUpdate@i,w
  6934  03D9  1D03               	btfss	3,2
  6935  03DA  2BDC               	goto	u54_21
  6936  03DB  2BDD               	goto	u54_20
  6937  03DC                     u54_21:
  6938  03DC  2BC2               	goto	i1l1996
  6939  03DD                     u54_20:
  6940  03DD                     i1l610:
  6941  03DD  0008               	return
  6942  03DE                     __end_of_matrixUpdate:
  6943                           
  6944                           	psect	text46
  6945  0488                     __ptext46:	
  6946 ;; *************** function i1_txSpi *****************
  6947 ;; Defined at:
  6948 ;;		line 54 in file "main.c"
  6949 ;; Parameters:    Size  Location     Type
  6950 ;;  data            1    wreg     PTR unsigned char 
  6951 ;;		 -> initMatrix@data(4), matrixUpdate@data(2), 
  6952 ;;  dataSize        2    5[COMMON] unsigned int 
  6953 ;; Auto vars:     Size  Location     Type
  6954 ;;  data            1    7[COMMON] PTR unsigned char 
  6955 ;;		 -> initMatrix@data(4), matrixUpdate@data(2), 
  6956 ;; Return value:  Size  Location     Type
  6957 ;;                  1    wreg      void 
  6958 ;; Registers used:
  6959 ;;		wreg, fsr1l, fsr1h, status,2, status,0, pclath, cstack
  6960 ;; Tracked objects:
  6961 ;;		On entry : 0/0
  6962 ;;		On exit  : 0/0
  6963 ;;		Unchanged: 0/0
  6964 ;; Data sizes:     COMMON   BANK0   BANK1   BANK2   BANK3   BANK4
  6965 ;;      Params:         2       0       0       0       0       0
  6966 ;;      Locals:         1       0       0       0       0       0
  6967 ;;      Temps:          0       0       0       0       0       0
  6968 ;;      Totals:         3       0       0       0       0       0
  6969 ;;Total ram usage:        3 bytes
  6970 ;; Hardware stack levels used: 1
  6971 ;; Hardware stack levels required when called: 1
  6972 ;; This function calls:
  6973 ;;		i1_SPI1_ExchangeBlock
  6974 ;; This function is called by:
  6975 ;;		_matrixUpdate
  6976 ;; This function uses a non-reentrant model
  6977 ;;
  6978                           
  6979  0488                     i1_txSpi:	
  6980                           ;psect for function i1_txSpi
  6981                           
  6982                           
  6983                           ;incstack = 0
  6984                           ; Regs used in i1_txSpi: [wreg+fsr1l+fsr1h+status,2+status,0+pclath+cstack]
  6985                           ;i1txSpi@data stored from wreg
  6986  0488  00F7               	movwf	i1txSpi@data
  6987  0489                     i1l597:	
  6988                           ;main.c: 55:     do { LATBbits.LATB1 = 0; } while(0);
  6989                           
  6990  0489  0022               	movlb	2	; select bank2
  6991  048A  108D               	bcf	13,1	;volatile
  6992  048B                     i1l1986:
  6993                           
  6994                           ;main.c: 56:     SPI1_ExchangeBlock(data,dataSize);
  6995  048B  0876               	movf	i1txSpi@dataSize+1,w
  6996  048C  00F1               	movwf	i1SPI1_ExchangeBlock@blockSize+1
  6997  048D  0875               	movf	i1txSpi@dataSize,w
  6998  048E  00F0               	movwf	i1SPI1_ExchangeBlock@blockSize
  6999  048F  0877               	movf	i1txSpi@data,w
  7000  0490  3183  2325  3184   	fcall	i1_SPI1_ExchangeBlock
  7001  0493                     i1l1988:
  7002  0493  0022               	movlb	2	; select bank2
  7003  0494  148D               	bsf	13,1	;volatile
  7004  0495                     i1l601:
  7005  0495  0008               	return
  7006  0496                     __end_ofi1_txSpi:
  7007                           
  7008                           	psect	text47
  7009  0325                     __ptext47:	
  7010 ;; *************** function i1_SPI1_ExchangeBlock *****************
  7011 ;; Defined at:
  7012 ;;		line 100 in file "mcc_generated_files/spi1.c"
  7013 ;; Parameters:    Size  Location     Type
  7014 ;;  block           1    wreg     PTR void 
  7015 ;;		 -> initMatrix@data(4), matrixUpdate@data(2), 
  7016 ;;  blockSize       2    0[COMMON] unsigned int 
  7017 ;; Auto vars:     Size  Location     Type
  7018 ;;  block           1    3[COMMON] PTR void 
  7019 ;;		 -> initMatrix@data(4), matrixUpdate@data(2), 
  7020 ;;  data            1    4[COMMON] PTR unsigned char 
  7021 ;;		 -> initMatrix@data(4), matrixUpdate@data(2), 
  7022 ;; Return value:  Size  Location     Type
  7023 ;;                  1    wreg      void 
  7024 ;; Registers used:
  7025 ;;		wreg, fsr1l, fsr1h, status,2, status,0
  7026 ;; Tracked objects:
  7027 ;;		On entry : 0/0
  7028 ;;		On exit  : 0/0
  7029 ;;		Unchanged: 0/0
  7030 ;; Data sizes:     COMMON   BANK0   BANK1   BANK2   BANK3   BANK4
  7031 ;;      Params:         2       0       0       0       0       0
  7032 ;;      Locals:         2       0       0       0       0       0
  7033 ;;      Temps:          1       0       0       0       0       0
  7034 ;;      Totals:         5       0       0       0       0       0
  7035 ;;Total ram usage:        5 bytes
  7036 ;; Hardware stack levels used: 1
  7037 ;; This function calls:
  7038 ;;		Nothing
  7039 ;; This function is called by:
  7040 ;;		i1_txSpi
  7041 ;; This function uses a non-reentrant model
  7042 ;;
  7043                           
  7044  0325                     i1_SPI1_ExchangeBlock:	
  7045                           ;psect for function i1_SPI1_ExchangeBlock
  7046                           
  7047                           
  7048                           ;incstack = 0
  7049                           ; Regs used in i1_SPI1_ExchangeBlock: [wreg+fsr1l+fsr1h+status,2+status,0]
  7050                           ;i1SPI1_ExchangeBlock@block stored from wreg
  7051  0325  00F3               	movwf	i1SPI1_ExchangeBlock@block
  7052  0326                     i1l1974:
  7053                           
  7054                           ;mcc_generated_files/spi1.c: 100: void SPI1_ExchangeBlock(void *block, size_t blockSize)
      +                          ;mcc_generated_files/spi1.c: 101: {;mcc_generated_files/spi1.c: 102:     uint8_t *data =
      +                           block;
  7055  0326  0873               	movf	i1SPI1_ExchangeBlock@block,w
  7056  0327  00F2               	movwf	??i1_SPI1_ExchangeBlock
  7057  0328  0872               	movf	??i1_SPI1_ExchangeBlock,w
  7058  0329  00F4               	movwf	i1SPI1_ExchangeBlock@data
  7059                           
  7060                           ;mcc_generated_files/spi1.c: 103:     while(blockSize--)
  7061  032A  2B43               	goto	i1l1982
  7062  032B                     i1l1976:
  7063                           
  7064                           ;mcc_generated_files/spi1.c: 104:     {;mcc_generated_files/spi1.c: 105:         SSP1BUF
      +                           = *data;
  7065  032B  0874               	movf	i1SPI1_ExchangeBlock@data,w
  7066  032C  0086               	movwf	6
  7067  032D  0187               	clrf	7
  7068  032E  0801               	movf	1,w
  7069  032F  0024               	movlb	4	; select bank4
  7070  0330  0091               	movwf	17	;volatile
  7071  0331                     i1l372:	
  7072                           ;mcc_generated_files/spi1.c: 106:         while(!PIR1bits.SSP1IF);
  7073                           
  7074  0331  0020               	movlb	0	; select bank0
  7075  0332  1D91               	btfss	17,3	;volatile
  7076  0333  2B35               	goto	u51_21
  7077  0334  2B36               	goto	u51_20
  7078  0335                     u51_21:
  7079  0335  2B31               	goto	i1l372
  7080  0336                     u51_20:
  7081  0336                     i1l374:
  7082                           
  7083                           ;mcc_generated_files/spi1.c: 107:         PIR1bits.SSP1IF = 0;
  7084  0336  1191               	bcf	17,3	;volatile
  7085  0337                     i1l1978:
  7086                           
  7087                           ;mcc_generated_files/spi1.c: 108:         *data++ = SSP1BUF;
  7088  0337  0024               	movlb	4	; select bank4
  7089  0338  0811               	movf	17,w	;volatile
  7090  0339  00F2               	movwf	??i1_SPI1_ExchangeBlock
  7091  033A  0874               	movf	i1SPI1_ExchangeBlock@data,w
  7092  033B  0086               	movwf	6
  7093  033C  0187               	clrf	7
  7094  033D  0872               	movf	??i1_SPI1_ExchangeBlock,w
  7095  033E  0081               	movwf	1
  7096  033F                     i1l1980:
  7097  033F  3001               	movlw	1
  7098  0340  00F2               	movwf	??i1_SPI1_ExchangeBlock
  7099  0341  0872               	movf	??i1_SPI1_ExchangeBlock,w
  7100  0342  07F4               	addwf	i1SPI1_ExchangeBlock@data,f
  7101  0343                     i1l1982:
  7102                           
  7103                           ;mcc_generated_files/spi1.c: 103:     while(blockSize--)
  7104  0343  3001               	movlw	1
  7105  0344  02F0               	subwf	i1SPI1_ExchangeBlock@blockSize,f
  7106  0345  3000               	movlw	0
  7107  0346  3BF1               	subwfb	i1SPI1_ExchangeBlock@blockSize+1,f
  7108  0347  0A70               	incf	i1SPI1_ExchangeBlock@blockSize,w
  7109  0348  1D03               	skipz
  7110  0349  2B4E               	goto	u52_21
  7111  034A  0A71               	incf	i1SPI1_ExchangeBlock@blockSize+1,w
  7112  034B  1D03               	btfss	3,2
  7113  034C  2B4E               	goto	u52_21
  7114  034D  2B4F               	goto	u52_20
  7115  034E                     u52_21:
  7116  034E  2B2B               	goto	i1l1976
  7117  034F                     u52_20:
  7118  034F                     i1l376:
  7119  034F  0008               	return
  7120  0350                     __end_ofi1_SPI1_ExchangeBlock:
  7121                           
  7122                           	psect	text48
  7123  0243                     __ptext48:	
  7124 ;; *************** function _controleMovimento *****************
  7125 ;; Defined at:
  7126 ;;		line 102 in file "main.c"
  7127 ;; Parameters:    Size  Location     Type
  7128 ;;		None
  7129 ;; Auto vars:     Size  Location     Type
  7130 ;;		None
  7131 ;; Return value:  Size  Location     Type
  7132 ;;                  1    wreg      void 
  7133 ;; Registers used:
  7134 ;;		wreg, fsr0l, fsr0h, status,2, status,0, pclath, cstack
  7135 ;; Tracked objects:
  7136 ;;		On entry : 0/0
  7137 ;;		On exit  : 0/0
  7138 ;;		Unchanged: 0/0
  7139 ;; Data sizes:     COMMON   BANK0   BANK1   BANK2   BANK3   BANK4
  7140 ;;      Params:         0       0       0       0       0       0
  7141 ;;      Locals:         0       0       0       0       0       0
  7142 ;;      Temps:          2       0       0       0       0       0
  7143 ;;      Totals:         2       0       0       0       0       0
  7144 ;;Total ram usage:        2 bytes
  7145 ;; Hardware stack levels used: 1
  7146 ;; Hardware stack levels required when called: 1
  7147 ;; This function calls:
  7148 ;;		_PWM3_LoadDutyValue
  7149 ;; This function is called by:
  7150 ;;		_chegadaS2
  7151 ;;		_chegadaS3
  7152 ;;		_chegadaS4
  7153 ;; This function uses a non-reentrant model
  7154 ;;
  7155                           
  7156  0243                     _controleMovimento:	
  7157                           ;psect for function _controleMovimento
  7158                           
  7159  0243                     i1l2024:	
  7160                           ;incstack = 0
  7161                           ; Regs used in _controleMovimento: [wreg-fsr0h+status,2+status,0+pclath+cstack]
  7162                           
  7163                           
  7164                           ;main.c: 103:     switch(mov){
  7165  0243  2A5F               	goto	i1l2038
  7166  0244                     i1l2026:
  7167                           
  7168                           ;main.c: 105:             PWM3_LoadDutyValue(0);
  7169  0244  3000               	movlw	0
  7170  0245  00F0               	movwf	PWM3_LoadDutyValue@dutyValue
  7171  0246  00F1               	movwf	PWM3_LoadDutyValue@dutyValue+1
  7172  0247  3184  240F  3182   	fcall	_PWM3_LoadDutyValue
  7173                           
  7174                           ;main.c: 106:             break;
  7175  024A  2A76               	goto	i1l2040
  7176  024B                     i1l2028:
  7177                           
  7178                           ;main.c: 108:             PWM3_LoadDutyValue(511);
  7179  024B  30FF               	movlw	255
  7180  024C  00F0               	movwf	PWM3_LoadDutyValue@dutyValue
  7181  024D  3001               	movlw	1
  7182  024E  00F1               	movwf	PWM3_LoadDutyValue@dutyValue+1
  7183  024F  3184  240F  3182   	fcall	_PWM3_LoadDutyValue
  7184                           
  7185                           ;main.c: 109:             break;
  7186  0252  2A76               	goto	i1l2040
  7187  0253                     i1l2032:
  7188                           
  7189                           ;main.c: 114:             _delay((unsigned long)((1500)*(4000000/4000.0)));
  7190  0253  3008               	movlw	8
  7191  0254  00F5               	movwf	??_controleMovimento+1
  7192  0255  309D               	movlw	157
  7193  0256  00F4               	movwf	??_controleMovimento
  7194  0257  3006               	movlw	6
  7195  0258                     u96_27:
  7196  0258  0B89               	decfsz	9,f
  7197  0259  2A58               	goto	u96_27
  7198  025A  0BF4               	decfsz	??_controleMovimento,f
  7199  025B  2A58               	goto	u96_27
  7200  025C  0BF5               	decfsz	??_controleMovimento+1,f
  7201  025D  2A58               	goto	u96_27
  7202  025E  2A4B               	goto	i1l2028
  7203  025F                     i1l2038:
  7204  025F  0020               	movlb	0	; select bank0
  7205  0260  082E               	movf	_mov,w
  7206  0261  00F4               	movwf	??_controleMovimento
  7207  0262  01F5               	clrf	??_controleMovimento+1
  7208                           
  7209                           ; Switch on 2 bytes has been partitioned into a top level switch of size 1, and 1 sub-sw
      +                          itches
  7210                           ; Switch size 1, requested type "simple"
  7211                           ; Number of cases is 1, Range of values is 0 to 0
  7212                           ; switch strategies available:
  7213                           ; Name         Instructions Cycles
  7214                           ; simple_byte            4     3 (average)
  7215                           ; direct_byte            8     6 (fixed)
  7216                           ; jumptable            260     6 (fixed)
  7217                           ;	Chosen strategy is simple_byte
  7218  0263  0875               	movf	??_controleMovimento+1,w
  7219  0264  3A00               	xorlw	0	; case 0
  7220  0265  1903               	skipnz
  7221  0266  2A68               	goto	i1l2544
  7222  0267  2A76               	goto	i1l2040
  7223  0268                     i1l2544:
  7224                           
  7225                           ; Switch size 1, requested type "simple"
  7226                           ; Number of cases is 4, Range of values is 0 to 3
  7227                           ; switch strategies available:
  7228                           ; Name         Instructions Cycles
  7229                           ; simple_byte           13     7 (average)
  7230                           ; direct_byte           14     6 (fixed)
  7231                           ; jumptable            260     6 (fixed)
  7232                           ;	Chosen strategy is simple_byte
  7233  0268  0874               	movf	??_controleMovimento,w
  7234  0269  3A00               	xorlw	0	; case 0
  7235  026A  1903               	skipnz
  7236  026B  2A44               	goto	i1l2026
  7237  026C  3A01               	xorlw	1	; case 1
  7238  026D  1903               	skipnz
  7239  026E  2A4B               	goto	i1l2028
  7240  026F  3A03               	xorlw	3	; case 2
  7241  0270  1903               	skipnz
  7242  0271  2A4B               	goto	i1l2028
  7243  0272  3A01               	xorlw	1	; case 3
  7244  0273  1903               	skipnz
  7245  0274  2A53               	goto	i1l2032
  7246  0275  2A76               	goto	i1l2040
  7247  0276                     i1l2040:
  7248                           
  7249                           ;main.c: 119:     if(destinoSub != 0 && mov != RetornaS0 ){
  7250  0276  0020               	movlb	0	; select bank0
  7251  0277  0830               	movf	_destinoSub,w
  7252  0278  1903               	btfsc	3,2
  7253  0279  2A7B               	goto	u55_21
  7254  027A  2A7C               	goto	u55_20
  7255  027B                     u55_21:
  7256  027B  2A85               	goto	i1l2046
  7257  027C                     u55_20:
  7258  027C                     i1l2042:
  7259  027C  3003               	movlw	3
  7260  027D  062E               	xorwf	_mov,w
  7261  027E  1903               	btfsc	3,2
  7262  027F  2A81               	goto	u56_21
  7263  0280  2A82               	goto	u56_20
  7264  0281                     u56_21:
  7265  0281  2A85               	goto	i1l2046
  7266  0282                     u56_20:
  7267  0282                     i1l2044:
  7268                           
  7269                           ;main.c: 121:         subindo = 1;
  7270  0282  01D2               	clrf	_subindo
  7271  0283  0AD2               	incf	_subindo,f
  7272                           
  7273                           ;main.c: 122:     }else{
  7274  0284  2A86               	goto	i1l631
  7275  0285                     i1l2046:
  7276                           
  7277                           ;main.c: 124:         subindo = 0;
  7278  0285  01D2               	clrf	_subindo
  7279  0286                     i1l631:
  7280  0286  0008               	return
  7281  0287                     __end_of_controleMovimento:
  7282                           
  7283                           	psect	text49
  7284  040F                     __ptext49:	
  7285 ;; *************** function _PWM3_LoadDutyValue *****************
  7286 ;; Defined at:
  7287 ;;		line 82 in file "mcc_generated_files/pwm3.c"
  7288 ;; Parameters:    Size  Location     Type
  7289 ;;  dutyValue       2    0[COMMON] unsigned short 
  7290 ;; Auto vars:     Size  Location     Type
  7291 ;;		None
  7292 ;; Return value:  Size  Location     Type
  7293 ;;                  1    wreg      void 
  7294 ;; Registers used:
  7295 ;;		wreg, status,2, status,0
  7296 ;; Tracked objects:
  7297 ;;		On entry : 0/0
  7298 ;;		On exit  : 0/0
  7299 ;;		Unchanged: 0/0
  7300 ;; Data sizes:     COMMON   BANK0   BANK1   BANK2   BANK3   BANK4
  7301 ;;      Params:         2       0       0       0       0       0
  7302 ;;      Locals:         0       0       0       0       0       0
  7303 ;;      Temps:          2       0       0       0       0       0
  7304 ;;      Totals:         4       0       0       0       0       0
  7305 ;;Total ram usage:        4 bytes
  7306 ;; Hardware stack levels used: 1
  7307 ;; This function calls:
  7308 ;;		Nothing
  7309 ;; This function is called by:
  7310 ;;		_controleMovimento
  7311 ;;		_chegadaS1
  7312 ;;		_chegadaS2
  7313 ;;		_chegadaS3
  7314 ;;		_chegadaS4
  7315 ;; This function uses a non-reentrant model
  7316 ;;
  7317                           
  7318  040F                     _PWM3_LoadDutyValue:	
  7319                           ;psect for function _PWM3_LoadDutyValue
  7320                           
  7321  040F                     i1l1984:	
  7322                           ;incstack = 0
  7323                           ; Regs used in _PWM3_LoadDutyValue: [wreg+status,2+status,0]
  7324                           
  7325                           
  7326                           ;mcc_generated_files/pwm3.c: 82: void PWM3_LoadDutyValue(uint16_t dutyValue);mcc_generat
      +                          ed_files/pwm3.c: 83: {;mcc_generated_files/pwm3.c: 85:     CCPR3L = ((dutyValue & 0x03FC
      +                          )>>2);
  7327  040F  0871               	movf	PWM3_LoadDutyValue@dutyValue+1,w
  7328  0410  00F3               	movwf	??_PWM3_LoadDutyValue+1
  7329  0411  0870               	movf	PWM3_LoadDutyValue@dutyValue,w
  7330  0412  00F2               	movwf	??_PWM3_LoadDutyValue
  7331  0413  36F3               	lsrf	??_PWM3_LoadDutyValue+1,f
  7332  0414  0CF2               	rrf	??_PWM3_LoadDutyValue,f
  7333  0415  36F3               	lsrf	??_PWM3_LoadDutyValue+1,f
  7334  0416  0CF2               	rrf	??_PWM3_LoadDutyValue,f
  7335  0417  0872               	movf	??_PWM3_LoadDutyValue,w
  7336  0418  0026               	movlb	6	; select bank6
  7337  0419  0091               	movwf	17	;volatile
  7338                           
  7339                           ;mcc_generated_files/pwm3.c: 88:     CCP3CON = ((uint8_t)(CCP3CON & 0xCF) | ((dutyValue 
      +                          & 0x0003)<<4));
  7340  041A  0870               	movf	PWM3_LoadDutyValue@dutyValue,w
  7341  041B  3903               	andlw	3
  7342  041C  00F2               	movwf	??_PWM3_LoadDutyValue
  7343  041D  3004               	movlw	4
  7344  041E                     u53_25:
  7345  041E  35F2               	lslf	??_PWM3_LoadDutyValue,f
  7346  041F  0B89               	decfsz	9,f
  7347  0420  2C1E               	goto	u53_25
  7348  0421  0813               	movf	19,w	;volatile
  7349  0422  39CF               	andlw	207
  7350  0423  0472               	iorwf	??_PWM3_LoadDutyValue,w
  7351  0424  0093               	movwf	19	;volatile
  7352  0425                     i1l14:
  7353  0425  0008               	return
  7354  0426                     __end_of_PWM3_LoadDutyValue:
  7355  007E                     btemp	set	126	;btemp
  7356  007E                     int$flags	set	126
  7357  007E                     wtemp0	set	126
  7358                           
  7359                           	psect	idloc
  7360                           
  7361                           ;Config register IDLOC0 @ 0x8000
  7362                           ;	unspecified, using default values
  7363  8000                     	org	32768
  7364  8000  3FFF               	dw	16383
  7365                           
  7366                           ;Config register IDLOC1 @ 0x8001
  7367                           ;	unspecified, using default values
  7368  8001                     	org	32769
  7369  8001  3FFF               	dw	16383
  7370                           
  7371                           ;Config register IDLOC2 @ 0x8002
  7372                           ;	unspecified, using default values
  7373  8002                     	org	32770
  7374  8002  3FFF               	dw	16383
  7375                           
  7376                           ;Config register IDLOC3 @ 0x8003
  7377                           ;	unspecified, using default values
  7378  8003                     	org	32771
  7379  8003  3FFF               	dw	16383
  7380                           
  7381                           	psect	config
  7382                           
  7383                           ;Config register CONFIG1 @ 0x8007
  7384                           ;	Oscillator Selection
  7385                           ;	FOSC = INTOSC, INTOSC oscillator: I/O function on CLKIN pin
  7386                           ;	Watchdog Timer Enable
  7387                           ;	WDTE = OFF, WDT disabled
  7388                           ;	Power-up Timer Enable
  7389                           ;	PWRTE = OFF, PWRT disabled
  7390                           ;	MCLR Pin Function Select
  7391                           ;	MCLRE = ON, MCLR/VPP pin function is MCLR
  7392                           ;	Flash Program Memory Code Protection
  7393                           ;	CP = OFF, Program memory code protection is disabled
  7394                           ;	Data Memory Code Protection
  7395                           ;	CPD = OFF, Data memory code protection is disabled
  7396                           ;	Brown-out Reset Enable
  7397                           ;	BOREN = ON, Brown-out Reset enabled
  7398                           ;	Clock Out Enable
  7399                           ;	CLKOUTEN = OFF, CLKOUT function is disabled. I/O or oscillator function on the CLKOUT 
      +                          pin
  7400                           ;	Internal/External Switchover
  7401                           ;	IESO = ON, Internal/External Switchover mode is enabled
  7402                           ;	Fail-Safe Clock Monitor Enable
  7403                           ;	FCMEN = ON, Fail-Safe Clock Monitor is enabled
  7404  8007                     	org	32775
  7405  8007  3FE4               	dw	16356
  7406                           
  7407                           ;Config register CONFIG2 @ 0x8008
  7408                           ;	Flash Memory Self-Write Protection
  7409                           ;	WRT = OFF, Write protection off
  7410                           ;	PLL Enable
  7411                           ;	PLLEN = OFF, 4x PLL disabled
  7412                           ;	Stack Overflow/Underflow Reset Enable
  7413                           ;	STVREN = ON, Stack Overflow or Underflow will cause a Reset
  7414                           ;	Brown-out Reset Voltage Selection
  7415                           ;	BORV = LO, Brown-out Reset Voltage (Vbor), low trip point selected.
  7416                           ;	Low-Voltage Programming Enable
  7417                           ;	LVP = ON, Low-voltage programming enabled
  7418  8008                     	org	32776
  7419  8008  3EFF               	dw	16127

Data Sizes:
    Strings     0
    Constant    16
    Data        1
    BSS         17
    Persistent  48
    Stack       0

Auto Spaces:
    Space          Size  Autos    Used
    COMMON           14     14      14
    BANK0            80     17      51
    BANK1            80      0       0
    BANK2            80      0       0
    BANK3            80      0       0
    BANK4            48      0       0

Pointer List with Targets:

    ADC_InterruptHandler	PTR FTN()void  size(2) Largest target is 1
		 -> Absolute function(), 

    txSpi@data	PTR unsigned char  size(1) Largest target is 4
		 -> initMatrix@data(BANK0[4]), matrixUpdate@data(COMMON[2]), 

    TMR0_SetInterruptHandler@InterruptHandler	PTR FTN()void  size(2) Largest target is 1
		 -> TMR0_DefaultInterruptHandler(), 

    TMR0_InterruptHandler	PTR FTN()void  size(2) Largest target is 1
		 -> TMR0_DefaultInterruptHandler(), Absolute function(), 

    TMR1_SetInterruptHandler@InterruptHandler	PTR FTN()void  size(2) Largest target is 1
		 -> TMR1_DefaultInterruptHandler(), 

    TMR1_InterruptHandler	PTR FTN()void  size(2) Largest target is 1
		 -> TMR1_DefaultInterruptHandler(), Absolute function(), 

    SPI1_ExchangeBlock@block	PTR void  size(1) Largest target is 4
		 -> initMatrix@data(BANK0[4]), matrixUpdate@data(COMMON[2]), 

    SPI1_ExchangeBlock@data	PTR unsigned char  size(1) Largest target is 4
		 -> initMatrix@data(BANK0[4]), matrixUpdate@data(COMMON[2]), 

    EUSART_SetErrorHandler@interruptHandler	PTR FTN()void  size(2) Largest target is 1
		 -> EUSART_DefaultErrorHandler(), 

    EUSART_ErrorHandler	PTR FTN()void  size(2) Largest target is 1
		 -> EUSART_DefaultErrorHandler(), Absolute function(), 

    EUSART_SetOverrunErrorHandler@interruptHandler	PTR FTN()void  size(2) Largest target is 1
		 -> EUSART_DefaultOverrunErrorHandler(), 

    EUSART_OverrunErrorHandler	PTR FTN()void  size(2) Largest target is 1
		 -> EUSART_DefaultOverrunErrorHandler(), Absolute function(), 

    EUSART_SetFramingErrorHandler@interruptHandler	PTR FTN()void  size(2) Largest target is 1
		 -> EUSART_DefaultFramingErrorHandler(), 

    EUSART_FramingErrorHandler	PTR FTN()void  size(2) Largest target is 1
		 -> EUSART_DefaultFramingErrorHandler(), Absolute function(), 

    IOCBF3_SetInterruptHandler@InterruptHandler	PTR FTN()void  size(2) Largest target is 1
		 -> chegadaS2(), chegadaS1(), IOCBF3_DefaultInterruptHandler(), 

    IOCBF3_InterruptHandler	PTR FTN()void  size(2) Largest target is 1
		 -> chegadaS2(), chegadaS1(), Absolute function(), IOCBF3_DefaultInterruptHandler(), 

    IOCBF0_SetInterruptHandler@InterruptHandler	PTR FTN()void  size(2) Largest target is 1
		 -> IOCBF0_DefaultInterruptHandler(), 

    IOCBF0_InterruptHandler	PTR FTN()void  size(2) Largest target is 1
		 -> Absolute function(), IOCBF0_DefaultInterruptHandler(), 


Critical Paths under _main in COMMON

    None.

Critical Paths under _INTERRUPT_InterruptManager in COMMON

    _TMR1_ISR->_TMR1_WriteTimer
    _IOCBF3_ISR->_chegadaS2
    _chegadaS2->_matrixUpdate
    _chegadaS1->_matrixUpdate
    _CMP2_ISR->_chegadaS4
    _chegadaS4->_matrixUpdate
    _CMP1_ISR->_chegadaS3
    _chegadaS3->_matrixUpdate
    _matrixUpdate->i1_txSpi
    i1_txSpi->i1_SPI1_ExchangeBlock
    _controleMovimento->_PWM3_LoadDutyValue

Critical Paths under _main in BANK0

    _main->_initMatrix
    _initMatrix->_txSpi
    _txSpi->_SPI1_ExchangeBlock
    _TMR1_Initialize->_TMR1_SetInterruptHandler
    _TMR0_Initialize->_TMR0_SetInterruptHandler
    _PIN_MANAGER_Initialize->_IOCBF0_SetInterruptHandler
    _PIN_MANAGER_Initialize->_IOCBF3_SetInterruptHandler
    _EUSART_Initialize->_EUSART_SetErrorHandler
    _EUSART_Initialize->_EUSART_SetFramingErrorHandler
    _EUSART_Initialize->_EUSART_SetOverrunErrorHandler

Critical Paths under _INTERRUPT_InterruptManager in BANK0

    None.

Critical Paths under _main in BANK1

    None.

Critical Paths under _INTERRUPT_InterruptManager in BANK1

    None.

Critical Paths under _main in BANK2

    None.

Critical Paths under _INTERRUPT_InterruptManager in BANK2

    None.

Critical Paths under _main in BANK3

    None.

Critical Paths under _INTERRUPT_InterruptManager in BANK3

    None.

Critical Paths under _main in BANK4

    None.

Critical Paths under _INTERRUPT_InterruptManager in BANK4

    None.

Call Graph Tables:

 ---------------------------------------------------------------------------------
 (Depth) Function   	        Calls       Base Space   Used Autos Params    Refs
 ---------------------------------------------------------------------------------
 (0) _main                                                 0     0      0    2086
         _IOCBF3_SetInterruptHandler
                          _SPI1_Open
                  _SYSTEM_Initialize
                         _initMatrix
 ---------------------------------------------------------------------------------
 (1) _initMatrix                                           9     9      0     910
                                              8 BANK0      9     9      0
                              _txSpi
 ---------------------------------------------------------------------------------
 (2) _txSpi                                                3     1      2     518
                                              5 BANK0      3     1      2
                 _SPI1_ExchangeBlock
 ---------------------------------------------------------------------------------
 (3) _SPI1_ExchangeBlock                                   5     3      2     199
                                              0 BANK0      5     3      2
 ---------------------------------------------------------------------------------
 (1) _SYSTEM_Initialize                                    0     0      0     838
                     _ADC_Initialize
                    _CMP1_Initialize
                    _CMP2_Initialize
                  _EUSART_Initialize
                     _FVR_Initialize
              _OSCILLATOR_Initialize
             _PIN_MANAGER_Initialize
                    _PWM3_Initialize
                    _SPI1_Initialize
                    _TMR0_Initialize
                    _TMR1_Initialize
                    _TMR2_Initialize
                     _WDT_Initialize
 ---------------------------------------------------------------------------------
 (2) _WDT_Initialize                                       0     0      0       0
 ---------------------------------------------------------------------------------
 (2) _TMR2_Initialize                                      0     0      0       0
 ---------------------------------------------------------------------------------
 (2) _TMR1_Initialize                                      0     0      0      98
           _TMR1_SetInterruptHandler
 ---------------------------------------------------------------------------------
 (3) _TMR1_SetInterruptHandler                             2     0      2      98
                                              0 BANK0      2     0      2
 ---------------------------------------------------------------------------------
 (2) _TMR0_Initialize                                      0     0      0      98
           _TMR0_SetInterruptHandler
 ---------------------------------------------------------------------------------
 (3) _TMR0_SetInterruptHandler                             2     0      2      98
                                              0 BANK0      2     0      2
 ---------------------------------------------------------------------------------
 (2) _SPI1_Initialize                                      0     0      0       0
 ---------------------------------------------------------------------------------
 (2) _PWM3_Initialize                                      0     0      0       0
 ---------------------------------------------------------------------------------
 (2) _PIN_MANAGER_Initialize                               0     0      0     348
         _IOCBF0_SetInterruptHandler
         _IOCBF3_SetInterruptHandler
 ---------------------------------------------------------------------------------
 (3) _IOCBF3_SetInterruptHandler                           2     0      2     250
                                              0 BANK0      2     0      2
 ---------------------------------------------------------------------------------
 (3) _IOCBF0_SetInterruptHandler                           2     0      2      98
                                              0 BANK0      2     0      2
 ---------------------------------------------------------------------------------
 (2) _OSCILLATOR_Initialize                                0     0      0       0
 ---------------------------------------------------------------------------------
 (2) _FVR_Initialize                                       0     0      0       0
 ---------------------------------------------------------------------------------
 (2) _EUSART_Initialize                                    0     0      0     294
             _EUSART_SetErrorHandler
      _EUSART_SetFramingErrorHandler
      _EUSART_SetOverrunErrorHandler
 ---------------------------------------------------------------------------------
 (3) _EUSART_SetOverrunErrorHandler                        2     0      2      98
                                              0 BANK0      2     0      2
 ---------------------------------------------------------------------------------
 (3) _EUSART_SetFramingErrorHandler                        2     0      2      98
                                              0 BANK0      2     0      2
 ---------------------------------------------------------------------------------
 (3) _EUSART_SetErrorHandler                               2     0      2      98
                                              0 BANK0      2     0      2
 ---------------------------------------------------------------------------------
 (2) _CMP2_Initialize                                      0     0      0       0
 ---------------------------------------------------------------------------------
 (2) _CMP1_Initialize                                      0     0      0       0
 ---------------------------------------------------------------------------------
 (2) _ADC_Initialize                                       0     0      0       0
 ---------------------------------------------------------------------------------
 (1) _SPI1_Open                                            4     4      0      88
                                              0 BANK0      4     4      0
 ---------------------------------------------------------------------------------
 Estimated maximum stack depth 3
 ---------------------------------------------------------------------------------
 (Depth) Function   	        Calls       Base Space   Used Autos Params    Refs
 ---------------------------------------------------------------------------------
 (4) _INTERRUPT_InterruptManager                           0     0      0    6780
                           _CMP1_ISR
                           _CMP2_ISR
                    _PIN_MANAGER_IOC
                           _TMR0_ISR
                           _TMR1_ISR
 ---------------------------------------------------------------------------------
 (5) _TMR1_ISR                                             0     0      0     240
                      _TMR1_CallBack
                    _TMR1_WriteTimer
 ---------------------------------------------------------------------------------
 (6) _TMR1_WriteTimer                                      2     0      2     240
                                              0 COMMON     2     0      2
 ---------------------------------------------------------------------------------
 (6) _TMR1_CallBack                                        0     0      0       0
                   Absolute function *
       _TMR1_DefaultInterruptHandler *
 ---------------------------------------------------------------------------------
 (7) _TMR1_DefaultInterruptHandler                         0     0      0       0
 ---------------------------------------------------------------------------------
 (5) _TMR0_ISR                                             0     0      0       0
                      _TMR0_CallBack
 ---------------------------------------------------------------------------------
 (6) _TMR0_CallBack                                        0     0      0       0
                   Absolute function *
       _TMR0_DefaultInterruptHandler *
 ---------------------------------------------------------------------------------
 (7) _TMR0_DefaultInterruptHandler                         0     0      0       0
 ---------------------------------------------------------------------------------
 (5) _PIN_MANAGER_IOC                                      0     0      0    2944
                         _IOCBF0_ISR
                         _IOCBF3_ISR
 ---------------------------------------------------------------------------------
 (6) _IOCBF3_ISR                                           0     0      0    2944
                   Absolute function *
     _IOCBF3_DefaultInterruptHandler *
                          _chegadaS1 *
                          _chegadaS2 *
 ---------------------------------------------------------------------------------
 (7) _chegadaS2                                            2     2      0    1798
                                             12 COMMON     2     2      0
                 _PWM3_LoadDutyValue
                  _controleMovimento
                       _matrixUpdate
 ---------------------------------------------------------------------------------
 (7) _chegadaS1                                            1     1      0    1146
                                             12 COMMON     1     1      0
                 _PWM3_LoadDutyValue
                       _matrixUpdate
 ---------------------------------------------------------------------------------
 (7) _IOCBF3_DefaultInterruptHandler                       0     0      0       0
 ---------------------------------------------------------------------------------
 (6) _IOCBF0_ISR                                           0     0      0       0
                   Absolute function *
     _IOCBF0_DefaultInterruptHandler *
 ---------------------------------------------------------------------------------
 (7) _IOCBF0_DefaultInterruptHandler                       0     0      0       0
 ---------------------------------------------------------------------------------
 (7) Absolute function(Fake)                               0     0      0       0
 ---------------------------------------------------------------------------------
 (5) _CMP2_ISR                                             0     0      0    1798
                          _chegadaS4
 ---------------------------------------------------------------------------------
 (6) _chegadaS4                                            2     2      0    1798
                                             12 COMMON     2     2      0
                 _PWM3_LoadDutyValue
                  _controleMovimento
                       _matrixUpdate
 ---------------------------------------------------------------------------------
 (5) _CMP1_ISR                                             0     0      0    1798
                          _chegadaS3
 ---------------------------------------------------------------------------------
 (6) _chegadaS3                                            2     2      0    1798
                                             12 COMMON     2     2      0
                 _PWM3_LoadDutyValue
                  _controleMovimento
                       _matrixUpdate
 ---------------------------------------------------------------------------------
 (8) _matrixUpdate                                         6     6      0     494
                                              8 COMMON     4     4      0
                            i1_txSpi
 ---------------------------------------------------------------------------------
 (9) i1_txSpi                                              3     1      2     212
                                              5 COMMON     3     1      2
               i1_SPI1_ExchangeBlock
 ---------------------------------------------------------------------------------
 (10) i1_SPI1_ExchangeBlock                                5     3      2     116
                                              0 COMMON     5     3      2
 ---------------------------------------------------------------------------------
 (8) _controleMovimento                                    2     2      0     652
                                              4 COMMON     2     2      0
                 _PWM3_LoadDutyValue
 ---------------------------------------------------------------------------------
 (9) _PWM3_LoadDutyValue                                   4     2      2     652
                                              0 COMMON     4     2      2
 ---------------------------------------------------------------------------------
 Estimated maximum stack depth 10
 ---------------------------------------------------------------------------------

 Call Graph Graphs:

 _main (ROOT)
   _IOCBF3_SetInterruptHandler
   _SPI1_Open
   _SYSTEM_Initialize
     _ADC_Initialize
     _CMP1_Initialize
     _CMP2_Initialize
     _EUSART_Initialize
       _EUSART_SetErrorHandler
       _EUSART_SetFramingErrorHandler
       _EUSART_SetOverrunErrorHandler
     _FVR_Initialize
     _OSCILLATOR_Initialize
     _PIN_MANAGER_Initialize
       _IOCBF0_SetInterruptHandler
       _IOCBF3_SetInterruptHandler
     _PWM3_Initialize
     _SPI1_Initialize
     _TMR0_Initialize
       _TMR0_SetInterruptHandler
     _TMR1_Initialize
       _TMR1_SetInterruptHandler
     _TMR2_Initialize
     _WDT_Initialize
   _initMatrix
     _txSpi
       _SPI1_ExchangeBlock

 _INTERRUPT_InterruptManager (ROOT)
   _CMP1_ISR
     _chegadaS3
       _PWM3_LoadDutyValue
       _controleMovimento
         _PWM3_LoadDutyValue
       _matrixUpdate
         i1_txSpi
           i1_SPI1_ExchangeBlock
   _CMP2_ISR
     _chegadaS4
       _PWM3_LoadDutyValue
       _controleMovimento
       _matrixUpdate
   _PIN_MANAGER_IOC
     _IOCBF0_ISR
       Absolute function(Fake) *
       _IOCBF0_DefaultInterruptHandler *
     _IOCBF3_ISR
       Absolute function(Fake) *
       _IOCBF3_DefaultInterruptHandler *
       _chegadaS1 *
         _PWM3_LoadDutyValue
         _matrixUpdate
       _chegadaS2 *
         _PWM3_LoadDutyValue
         _controleMovimento
         _matrixUpdate
   _TMR0_ISR
     _TMR0_CallBack
       Absolute function(Fake) *
       _TMR0_DefaultInterruptHandler *
   _TMR1_ISR
     _TMR1_CallBack
       Absolute function(Fake) *
       _TMR1_DefaultInterruptHandler *
     _TMR1_WriteTimer

 Address spaces:
Name               Size   Autos  Total    Cost      Usage
BIGRAM             170      0       0       0        0.0%
EEDATA             100      0       0       0        0.0%
NULL                 0      0       0       0        0.0%
CODE                 0      0       0       0        0.0%
BITCOMMON            E      0       0       1        0.0%
BITSFR0              0      0       0       1        0.0%
SFR0                 0      0       0       1        0.0%
COMMON               E      E       E       2      100.0%
BITSFR1              0      0       0       2        0.0%
SFR1                 0      0       0       2        0.0%
BITSFR2              0      0       0       3        0.0%
SFR2                 0      0       0       3        0.0%
STACK                0      0       0       3        0.0%
BITSFR3              0      0       0       4        0.0%
SFR3                 0      0       0       4        0.0%
ABS                  0      0      41       4        0.0%
BITBANK0            50      0       0       5        0.0%
BITSFR4              0      0       0       5        0.0%
SFR4                 0      0       0       5        0.0%
BANK0               50     11      33       6       63.7%
BITSFR5              0      0       0       6        0.0%
SFR5                 0      0       0       6        0.0%
BITBANK1            50      0       0       7        0.0%
BITSFR6              0      0       0       7        0.0%
SFR6                 0      0       0       7        0.0%
BANK1               50      0       0       8        0.0%
BITSFR7              0      0       0       8        0.0%
SFR7                 0      0       0       8        0.0%
BITBANK2            50      0       0       9        0.0%
BITSFR8              0      0       0       9        0.0%
SFR8                 0      0       0       9        0.0%
BANK2               50      0       0      10        0.0%
BITSFR9              0      0       0      10        0.0%
SFR9                 0      0       0      10        0.0%
BITBANK3            50      0       0      11        0.0%
BITSFR10             0      0       0      11        0.0%
SFR10                0      0       0      11        0.0%
BANK3               50      0       0      12        0.0%
BITSFR11             0      0       0      12        0.0%
SFR11                0      0       0      12        0.0%
BITBANK4            30      0       0      13        0.0%
BITSFR12             0      0       0      13        0.0%
SFR12                0      0       0      13        0.0%
BANK4               30      0       0      14        0.0%
BITSFR13             0      0       0      14        0.0%
SFR13                0      0       0      14        0.0%
BITSFR14             0      0       0      15        0.0%
SFR14                0      0       0      15        0.0%
DATA                 0      0      41      15        0.0%
BITSFR15             0      0       0      16        0.0%
SFR15                0      0       0      16        0.0%
BITSFR16             0      0       0      17        0.0%
SFR16                0      0       0      17        0.0%
BITSFR17             0      0       0      18        0.0%
SFR17                0      0       0      18        0.0%
BITSFR18             0      0       0      19        0.0%
SFR18                0      0       0      19        0.0%
BITSFR19             0      0       0      20        0.0%
SFR19                0      0       0      20        0.0%
BITSFR20             0      0       0      21        0.0%
SFR20                0      0       0      21        0.0%
BITSFR21             0      0       0      22        0.0%
SFR21                0      0       0      22        0.0%
BITSFR22             0      0       0      23        0.0%
SFR22                0      0       0      23        0.0%
BITSFR23             0      0       0      24        0.0%
SFR23                0      0       0      24        0.0%
BITSFR24             0      0       0      25        0.0%
SFR24                0      0       0      25        0.0%
BITSFR25             0      0       0      26        0.0%
SFR25                0      0       0      26        0.0%
BITSFR26             0      0       0      27        0.0%
SFR26                0      0       0      27        0.0%
BITSFR27             0      0       0      28        0.0%
SFR27                0      0       0      28        0.0%
BITSFR28             0      0       0      29        0.0%
SFR28                0      0       0      29        0.0%
BITSFR29             0      0       0      30        0.0%
SFR29                0      0       0      30        0.0%
BITSFR30             0      0       0      31        0.0%
SFR30                0      0       0      31        0.0%
BITSFR31             0      0       0      32        0.0%
SFR31                0      0       0      32        0.0%


Microchip Technology PIC Macro Assembler V2.36 build 20220127204148 
Symbol Table                                                                                   Sat Jul 15 18:53:36 2023

             ??_IOCBF3_DefaultInterruptHandler 0070                ?_IOCBF3_DefaultInterruptHandler 0070  
                           _SPI1_ExchangeBlock 02F8                                             l11 04F4  
                                           l41 04D4                                             l74 04E0  
                            ??_CMP1_Initialize 0031                         __end_of_FVR_Initialize 0554  
                              _timer0ReloadVal 002C                                            l141 0529  
                                          l214 0504                                            l151 0523  
                                          l129 02F7                                            l330 052F  
                                          l242 0553                                            l333 053B  
                                          l327 0535                                            l503 04FC  
                                          l191 0377                                            l601 0469  
                                          l194 050B                                            l354 04EB  
                                          l372 0305                                            l620 01EB  
                                          l541 0437                                            l197 054F  
                                          l358 0242                                            l454 03F6  
                                          l374 030A                                            l288 039C  
                                          l376 0324                                            l563 051D  
                                          l661 03BB                                            l662 03BB  
                                          l487 0517                                            l597 045C  
                                          _PR2 001B                                            u570 030A  
                                          u571 0309                                            u580 0324  
                                          u581 0323                                            u750 01F3  
                                          u751 01F2                                            u770 01A7  
                                          u771 01A6                                            u780 01D3  
                                          u781 01D2                                            u790 01EB  
                                          u791 01EA                            ?_SPI1_ExchangeBlock 0031  
                              _timer1ReloadVal 0046                                            _mov 002E  
               ?_EUSART_SetFramingErrorHandler 0031                                _TMR2_Initialize 04F5  
                                          wreg 0009                        SPI1_ExchangeBlock@block 0034  
                                         l2060 0536                                           l2052 0524  
                                         l2140 04EF                                           l2300 04F5  
                                         l2150 04D0                                           l2054 051E  
                                         l2142 04F0                                           l2310 042B  
                                         l2302 04F8                                           l2070 0318  
                                         l2062 02FA                                           l2400 01F3  
                                         l2320 04FD                                           l2152 04D2  
                                         l2056 0530                                           l2240 02CF  
                                         l2144 04F1                                           l2312 042D  
                                         l2072 0512                                           l2304 04F9  
                                         l2064 02FF                                           l2402 0215  
                                         l2322 0500                                           l2146 04C9  
                                         l2058 052A                                           l2250 02DF  
                                         l2242 02D2                                           l2234 02C7  
                                         l2138 04EC                                           l2074 0518  
                                         l2314 042E                                           l2330 03E2  
                                         l2306 04FA                                           l2066 030B  
                                         l2404 0216                                           l2324 0501  
                                         l2148 04CB                                           l2260 02E5  
                                         l2252 02E1                                           l2244 02D4  
                                         l2236 02CA                                           l2316 042F  
                                         l2308 0426                                           l2340 03F3  
                                         l2332 03E4                                           l2068 0314  
                                         l2406 0227                                           l2190 04D5  
                                         l2350 0392                                           l2342 0378  
                                         l2262 02E6                                           l2254 02E2  
                                         l2246 02D7                                           l2238 02CD  
                                         l2318 0430                                           l2334 03E5  
                                         l2326 03DE                                           l2430 0198  
                                         l2408 0240                                           l2192 04D7  
                                         l2352 039A                                           l2344 0381  
                                         l2264 02EE                                           l2256 02E3  
                                         l2248 02D8                                           l2280 04E1  
                                         l2336 03E9                                           l2328 03E0  
                                         l2432 019D                                           l2424 0195  
                                         l2520 03B9                                           l2512 039D  
                                         l2194 04DC                                           l2346 0382  
                                         l2290 0505                                           l2266 02F6  
                                         l2258 02E4                                           l2282 04E4  
                                         l2338 03EB                                           l2450 01C8  
                                         l2442 01A8                                           l2434 01A1  
                                         l2522 03BA                                           l2514 03B0  
                                         l2196 04DE                                           l2348 038A  
                                         l2292 0508                                           l2284 04E5  
                                         l2460 01E0                                           l2452 01CD  
                                         l2436 01A7                                           l2516 03B2  
                                         l2294 0509                                           l2286 04E7  
                                         l2462 01E5                                           l2454 01D3  
                                         l2518 03B6                                           l2288 04E9  
                                         l2296 054C                                           l2376 045E  
                                         l2456 01D8                                           l2448 01A9  
                                         l2298 0550                                           l2378 0467  
                                         l2396 0350                                           l2398 01EE  
                                         _LATA 010C                                           _LATB 010D  
                            ??_CMP2_Initialize 0031                                           i1l14 0425  
                                         i1l47 0541                                           i1l80 0547  
                                         _TMR0 0015                                           _TMR2 001A  
                                         _WPUA 020C                                           _WPUB 020D  
                                         _main 039D                                           fsr0h 0005  
                                         fsr1h 0007                                           indf0 0000  
                                         fsr0l 0004                                           indf1 0001  
                                         fsr1l 0006                                           btemp 007E  
                         ??_SPI1_ExchangeBlock 0033                      i1SPI1_ExchangeBlock@block 0073  
                                         start 0049                                __end_ofi1_txSpi 0496  
                             __end_of_CMP1_ISR 0548                               __end_of_CMP2_ISR 0542  
                   ??_TMR1_SetInterruptHandler 0033                        __end_of_TMR0_Initialize 0438  
               ??_TMR0_DefaultInterruptHandler 0070                                ?_FVR_Initialize 0070  
                __end_of_OSCILLATOR_Initialize 050C                                          ?_main 0070  
             SPI1_Open@spi1UniqueConfiguration 0034                                          _T1CON 0018  
                                        _T2CON 001C                                          i1l134 0459  
                                        i1l144 0558                                          i1l138 0487  
                                        i1l154 0557                                          i1l148 0478  
                                        i1l601 0495                                          i1l425 0047  
                                        i1l610 03DD                                          i1l372 0331  
                                        i1l374 0336                                          i1l631 0286  
                                        i1l376 034F                                          i1l560 04BC  
                                        i1l480 04A2                                          i1l642 0194  
                                        i1l490 0555                                          i1l636 02C6  
                                        i1l556 040E                                          i1l484 04AF  
                                        i1l468 0448                                          i1l653 00B7  
                                        i1l654 00C5                                          i1l566 0556  
                                        i1l647 0122                                          i1l648 0130  
                                        i1l597 0489                                          _RCREG 0199  
                                        _RCSTA 019D                                          _TMR1H 0017  
                                        _TMR1L 0016                                          u51_20 0336  
                                        u51_21 0335                                          u52_20 034F  
                                        u60_20 0149                                          u52_21 034E  
                                        u60_21 0148                                          u61_20 0175  
                                        u61_21 0174                                          u53_25 041E  
                                        u54_20 03DD                                          u62_20 0078  
                                        u70_20 043D                                          u54_21 03DC  
                                        u62_21 0077                                          u70_21 043C  
                                        u55_20 027C                                          u63_20 00AE  
                                        u71_20 04AA                                          u55_21 027B  
                                        u63_21 00AD                                          u71_21 04A9  
                                        u56_20 0282                                          u64_20 00B3  
                                        u72_20 04B7                                          u56_21 0281  
                                        u64_21 00B2                                          u72_21 04B6  
                                        u65_20 00E3                                          u73_20 044E  
                                        u65_21 00E2                                          u73_21 044D  
                                        _TRISA 008C                                          _TRISB 008D  
                                        u66_20 0119                                          u74_20 0456  
                                        u90_20 0037                                          u82_20 000A  
                                        u66_21 0118                                          u74_21 0455  
                                        u90_21 0036                                          u82_21 0009  
                                        u67_20 011E                                          u59_20 02A5  
                                        u91_20 003F                                          u83_20 000E  
                                        u67_21 011D                                          u59_21 02A4  
                                        u91_21 003E                                          u83_21 000D  
                                        u68_20 0480                                          u76_20 0408  
                                        u92_20 0044                                          u84_20 0015  
                                        u68_21 047F                                          u76_21 0407  
                                        u92_21 0043                                          u84_21 0014  
                                        u69_20 0471                                          u85_20 0019  
                                        u69_21 0470                                          u85_21 0018  
                                        u93_27 018B                                          u86_20 0020  
                                        u86_21 001F                                          u94_27 00BC  
                                        u87_20 0025                                          u87_21 0024  
                                        u95_27 0127                                          u88_20 002A  
                                        u88_21 0029                                          u96_27 0258  
                                        u89_20 0032                                          u89_21 0031  
                                        _TXREG 019A                                          _TXSTA 019E  
                    ?_TMR0_SetInterruptHandler 0031                               __end_of_TMR0_ISR 040F  
                             __end_of_TMR1_ISR 04A3                        __end_of_PIN_MANAGER_IOC 045A  
                               _WDT_Initialize 054C                                          _txSpi 045A  
                      __end_of_PWM3_Initialize 04F5                        __end_of_TMR1_Initialize 03F7  
                                        pclath 000A                                          status 0003  
                                        wtemp0 007E                                _TMR1_WriteTimer 0438  
                                txSpi@dataSize 0036                                __initialization 004B  
                                 __end_of_main 03BE                        __end_of_TMR2_Initialize 04FD  
                  ?_INTERRUPT_InterruptManager 0070                                         ??_main 0042  
                      _IOCBF0_InterruptHandler 0050                         __end_of_WDT_Initialize 0550  
            _EUSART_DefaultFramingErrorHandler 0000                                         _ADCON0 009D  
                                       _ADCON1 009E                     _EUSART_OverrunErrorHandler 004A  
                                       _ADRESH 009C                                         _ADRESL 009B  
                                       _CCPR3H 0312                                         _CCPR3L 0311  
                                       ?_txSpi 0036                                         _ANSELA 018C  
                                       _ANSELB 018D                                         _BORCON 0116  
                                       _T1GCON 0019                                         i1l2000 03CE  
                                       i1l2002 03D6                        TMR1_WriteTimer@timerVal 0070  
                                       i1l2004 03D8                                         i1l2100 0131  
                                       i1l2110 0143                                         i1l2102 0137  
                                       i1l2032 0253                                         i1l2040 0276  
                                       i1l2024 0243                                         i1l2200 00CC  
                                       i1l2120 015F                                         i1l2112 0144  
                                       i1l2104 0139                                         i1l2042 027C  
                                       i1l2026 0244                                         i1l2210 00DE  
                                       i1l2202 00D1                                         i1l2130 017E  
                                       i1l2122 016B                                         i1l2114 0149  
                                       i1l2106 013D                                         i1l2044 0282  
                                       i1l2028 024B                                         i1l2220 0106  
                                       i1l2212 00E3                                         i1l2204 00D5  
                                       i1l2132 0183                                         i1l2124 0170  
                                       i1l2116 0155                                         i1l2108 0141  
                                       i1l2046 0285                                         i1l2038 025F  
                                       i1l2230 011E                                         i1l2222 010B  
                                       i1l2214 00EF                                         i1l2206 00D9  
                                       i1l2134 0186                                         i1l2126 0175  
                                       i1l2118 015A                                         i1l2232 012D  
                                       i1l2224 0110                                         i1l2216 00F5  
                                       i1l2208 00DD                                         i1l2160 006A  
                                       i1l2136 0191                                         i1l2128 0179  
                                       i1l2080 028F                                         i1l2226 0113  
                                       i1l2218 0101                                         i1l2170 0084  
                                       i1l2162 006E                                         i1l2154 005B  
                                       i1l2090 02A0                                         i1l2082 0293  
                                       i1l2228 0119                                         i1l2180 00A5  
                                       i1l2172 008A                                         i1l2164 0072  
                                       i1l2156 0061                                         i1l2092 02A5  
                                       i1l2084 0297                                         i1l2076 0287  
                                       i1l2412 03F7                                         i1l2420 0496  
                                       i1l2500 0037                                         i1l2182 00A8  
                                       i1l2174 0096                                         i1l2166 0073  
                                       i1l2158 0066                                         i1l2270 0480  
                                       i1l2094 02B2                                         i1l2086 029B  
                                       i1l2078 028D                                         i1l2414 03F8  
                                       i1l2422 0498                                         i1l2502 003A  
                                       i1l2184 00AE                                         i1l2176 009B  
                                       i1l2168 0078                                         i1l2272 0485  
                                       i1l2096 02BE                                         i1l2088 029F  
                                       i1l2416 0408                                         i1l2360 0440  
                                       i1l2504 003F                                         i1l2186 00B3  
                                       i1l2178 00A0                                         i1l2098 02C3  
                                       i1l2274 046A                                         i1l2418 040B  
                                       i1l2370 04AA                                         i1l2362 0442  
                                       i1l2354 0438                                         i1l2506 0044  
                                       i1l2188 00C2                                         i1l2380 053C  
                                       i1l2268 0479                                         i1l2276 0471  
                                       i1l2372 04B0                                         i1l2356 043D  
                                       i1l2364 0444                                         i1l2198 00C6  
                                       i1l2382 053E                                         i1l2278 0476  
                                       i1l2390 044E                                         i1l2374 04B7  
                                       i1l2366 0446                                         i1l2358 043E  
                                       i1l2544 0268                                         i1l2384 0542  
                                       i1l2392 0451                                         i1l2368 04A3  
                                       i1l2480 000E                                         i1l2386 0544  
                                       i1l2394 0456                                         i1l2490 0020  
                                       i1l2482 0011                                         i1l2388 0449  
                                       i1l2492 0025                                         i1l2484 0015  
                                       i1l2476 0006                                         i1l2494 002A  
                                       i1l2486 0019                                         i1l2478 000A  
                                       i1l2496 002D                                         i1l2488 001C  
                                       i1l2498 0032                                         i1l1980 033F  
                                       i1l1982 0343                                         i1l1974 0326  
                                       i1l1990 03BE                                         i1l1984 040F  
                                       i1l1976 032B                                         i1l1978 0337  
                                       i1l1986 048B                                         i1l1988 0493  
                                       i1l1996 03C2                                         i1l1998 03C6  
                                  initMatrix@i 003F                                    initMatrix@j 0041  
                                  initMatrix@k 003E                                         _FVRCON 0117  
                                       _OSCCON 0099                                      ??i1_txSpi 0077  
                                       _SPBRGH 019C                                         _SPBRGL 019B  
                                       _WDTCON 0097                              __end_of_SPI1_Open 0243  
         __end_of_TMR1_DefaultInterruptHandler 0556                   _TMR1_DefaultInterruptHandler 0555  
                                 _CCPTMRS0bits 029E                                  ?_matrixUpdate 0070  
                             ?_TMR0_Initialize 0070                                ?_WDT_Initialize 0070  
                     i1SPI1_ExchangeBlock@data 0074                                      ?_CMP1_ISR 0070  
                        __end_of_TMR0_CallBack 04BD                                      ?_CMP2_ISR 0070  
     TMR0_SetInterruptHandler@InterruptHandler 0031       TMR1_SetInterruptHandler@InterruptHandler 0031  
   IOCBF3_SetInterruptHandler@InterruptHandler 0031     IOCBF0_SetInterruptHandler@InterruptHandler 0031  
                             ?_PIN_MANAGER_IOC 0070                        __end_of_TMR1_WriteTimer 0449  
                                 ??_IOCBF0_ISR 0070                                   ??_IOCBF3_ISR 007E  
                        __end_of_TMR1_CallBack 04B0                               ?_PWM3_Initialize 0070  
                             ?_TMR1_Initialize 0070                              _SYSTEM_Initialize 0350  
                      __end_of__initialization 0057                                _CMP1_Initialize 04D5  
                           ?_SYSTEM_Initialize 0070                                    i1txSpi@data 0077  
                               __pcstackCOMMON 0070                                   __pidataBANK0 0554  
                          ??_SYSTEM_Initialize 0033                                      ?_TMR0_ISR 0070  
                              i1txSpi@dataSize 0075                                 ??_matrixUpdate 0078  
                                    ?_TMR1_ISR 0070                  ?_TMR1_DefaultInterruptHandler 0070  
                            ??_SPI1_Initialize 0031         __end_of_IOCBF0_DefaultInterruptHandler 0559  
               _IOCBF0_DefaultInterruptHandler 0558                                  __end_of_txSpi 046A  
                             ?_TMR2_Initialize 0070                             __end_of_IOCBF0_ISR 0488  
                           __end_of_IOCBF3_ISR 0479                                _CMP2_Initialize 04C9  
                           _spi1_configuration 0548                                 _OPTION_REGbits 0095  
                        TMR0_ISR@CountCallBack 0028                ??_EUSART_SetOverrunErrorHandler 0033  
       __end_of_IOCBF3_DefaultInterruptHandler 0558                 _IOCBF3_DefaultInterruptHandler 0557  
                                   ??_CMP1_ISR 007E                                     ??_CMP2_ISR 007E  
                    __end_of_SYSTEM_Initialize 0378                                        ??_txSpi 0038  
                                   __pbssBANK0 0020                               ??_FVR_Initialize 0031  
                                   __pmaintext 039D               __end_of_TMR0_SetInterruptHandler 051E  
                                   ??_TMR0_ISR 0070                                     ??_TMR1_ISR 0072  
                                   __pintentry 0004                                        _CM1CON0 0111  
                                      _CM1CON1 0112                                        _CM2CON0 0113  
                                      _CM2CON1 0114                                        _CCP3CON 0313  
                                      _BAUDCON 019F                                        _APFCON0 011D  
                                      _APFCON1 011E                                     _destinoSub 0030  
                                      _OSCTUNE 0098                                        _SSP1ADD 0212  
                                      _SSP1BUF 0211                        __end_of_CMP1_Initialize 04E1  
                     ??_EUSART_SetErrorHandler 0033                              __end_of_chegadaS1 02C7  
                            __end_of_chegadaS2 0195                              __end_of_chegadaS3 0131  
                            __end_of_chegadaS4 00C6                               ?_TMR1_WriteTimer 0070  
                                      i1_txSpi 0488                           _ADC_InterruptHandler 002A  
                                   _initMatrix 0195                        __end_of_CMP2_Initialize 04D5  
                                      __ptext1 0195                                        __ptext2 045A  
                                      __ptext3 02F8                                        __ptext4 0350  
                                      __ptext5 054C                                        __ptext6 04F5  
                                      __ptext7 03DE                                        __ptext8 0512  
                                      __ptext9 0426                 ??_TMR1_DefaultInterruptHandler 0070  
                                    _T1CONbits 0018                          _OSCILLATOR_Initialize 0505  
                                    _T2CONbits 001C                                      _CMOUTbits 0115  
                     ??_PIN_MANAGER_Initialize 0033                      ?_TMR1_SetInterruptHandler 0031  
                                    _IOCBFbits 0396                                      _IOCBNbits 0395  
                                    _IOCBPbits 0394                                        _subindo 0052  
                                      clrloop0 050D                           end_of_initialization 0057  
                         __end_of_matrixUpdate 03DE                                 initMatrix@data 003A  
        __end_of_EUSART_SetOverrunErrorHandler 0530                  _EUSART_SetOverrunErrorHandler 052A  
                            _EUSART_Initialize 0378                             ?_EUSART_Initialize 0070  
                                    _RCSTAbits 019D                                      _SPI1_Open 01EC  
                          ??_EUSART_Initialize 0033                               ??_WDT_Initialize 0031  
                     _TMR0_SetInterruptHandler 0518                                      _TRISBbits 008D  
                 ??_IOCBF0_SetInterruptHandler 0033                   ??_IOCBF3_SetInterruptHandler 0033  
                             ?_CMP1_Initialize 0070                         SPI1_ExchangeBlock@data 0035  
                    __end_of_EUSART_Initialize 039D                                _SPI1_Initialize 04E1  
                                    _TXSTAbits 019E                     __end_of_PWM3_LoadDutyValue 0426  
                                  ?_initMatrix 0070                               ?_CMP2_Initialize 0070  
                                   ?_SPI1_Open 0070                     _EUSART_DefaultErrorHandler 0000  
                               _ADC_Initialize 04FD                         ?_OSCILLATOR_Initialize 0070  
                          start_initialization 004B                   __end_ofi1_SPI1_ExchangeBlock 0350  
                                    _MatrixLed 0020                 ?_EUSART_SetOverrunErrorHandler 0031  
                   _EUSART_FramingErrorHandler 004C                         _EUSART_SetErrorHandler 0536  
                       __end_of_ADC_Initialize 0505                                    __pdataBANK0 0052  
                                    ___latbits 0001                                  __pcstackBANK0 0031  
                      __end_of_SPI1_Initialize 04EC                                       ?i1_txSpi 0075  
                                    _chegadaS1 0287                                      _chegadaS2 0131  
                                    _chegadaS3 00C6                                      _chegadaS4 005B  
                        _TMR0_InterruptHandler 0042                                      __pnvBANK0 0042  
                      _IOCBF3_InterruptHandler 004E                         _PIN_MANAGER_Initialize 02C7  
             __end_of_TMR1_SetInterruptHandler 0518                                    ??_SPI1_Open 0031  
                              ?_ADC_Initialize 0070                              _controleMovimento 0243  
                                 _matrixUpdate 03BE                   ??_INTERRUPT_InterruptManager 007E  
                           ?_controleMovimento 0070             __end_of_IOCBF0_SetInterruptHandler 052A  
                   _IOCBF0_SetInterruptHandler 0524             __end_of_IOCBF3_SetInterruptHandler 0524  
                   _IOCBF3_SetInterruptHandler 051E                            ??_controleMovimento 0074  
                                     _CMP1_ISR 0542                                       _CMP2_ISR 053C  
                                _TMR0_CallBack 04B0                     __end_of_SPI1_ExchangeBlock 0325  
                                _TMR1_CallBack 04A3                              ??_TMR0_Initialize 0033  
                                  _destinoDesc 002F         EUSART_SetErrorHandler@interruptHandler 0031  
                                     _LATBbits 010D                                     ?_chegadaS1 0070  
                                   ?_chegadaS2 0070                                     ?_chegadaS3 0070  
                                   ?_chegadaS4 0070                            __end_of_matrix_conf 04C9  
                                    clear_ram0 050C                                       _PIE1bits 0091  
                                     _PIE2bits 0092                              _eusartRxLastError 002D  
                   ??_TMR0_SetInterruptHandler 0033                                       _PIR1bits 0011  
              ??_EUSART_SetFramingErrorHandler 0033                                       _PIR2bits 0012  
                    __end_of_controleMovimento 0287                                       _SSP1CON1 0215  
                                     _SSP1CON2 0216                           i1_SPI1_ExchangeBlock 0325  
                                     _TMR0_ISR 03F7              _EUSART_DefaultOverrunErrorHandler 0000  
                                     _TMR1_ISR 0496                                       _SSP1STAT 0214  
                            ??_PIN_MANAGER_IOC 007E                              ??_TMR1_Initialize 0033  
                            ??_PWM3_Initialize 0031                                     _ADCON0bits 009D  
                               ?_TMR0_CallBack 0070                               initMatrix@i_1322 0040  
                             ?_SPI1_Initialize 0070                                 ?_TMR1_CallBack 0070  
                            ??_TMR2_Initialize 0031                                   ??_initMatrix 0039  
                        ?i1_SPI1_ExchangeBlock 0070                        ??_OSCILLATOR_Initialize 0031  
                          _EUSART_ErrorHandler 0048                       _TMR1_SetInterruptHandler 0512  
                           _PWM3_LoadDutyValue 040F                          _TMR1_InterruptHandler 0044  
                                     __ptext10 0518                                       __ptext11 04E1  
                                     __ptext20 0530                                       __ptext12 04EC  
                                     __ptext21 0536                                       __ptext13 02C7  
                                   _T1GCONbits 0019                                       __ptext30 0555  
                                     __ptext22 04C9                                       __ptext14 051E  
                                     __ptext31 03F7                                       __ptext23 04D5  
                                     __ptext15 0524                                       __ptext40 0558  
                                     __ptext32 04B0                                       __ptext24 04FD  
                                     __ptext16 0505                                       __ptext41 053C  
                                     __ptext33 0556                                       __ptext25 01EC  
                                     __ptext17 0550                                       __ptext42 005B  
                                     __ptext34 0449                                       __ptext18 0378  
                                     __ptext43 0542                                       __ptext35 046A  
                                     __ptext27 0496                                       __ptext19 052A  
                                     __ptext44 00C6                                       __ptext36 0287  
                                     __ptext28 0438                                       __ptext45 03BE  
                                     __ptext37 0557                                       __ptext29 04A3  
                                     __ptext46 0488                                       __ptext38 0131  
                                     __ptext47 0325                                       __ptext39 0479  
                                     __ptext48 0243                                       __ptext49 040F  
                          ?_PWM3_LoadDutyValue 0070                                   _SSP1CON1bits 0215  
                                  _matrix_conf 04BD                             __end_of_initMatrix 01EC  
                                   _IOCBF0_ISR 0479                                     _IOCBF3_ISR 046A  
                                  ??_chegadaS1 007C                                    ??_chegadaS2 007C  
                                  ??_chegadaS3 007C                                    ??_chegadaS4 007C  
         __end_of_TMR0_DefaultInterruptHandler 0557                   _TMR0_DefaultInterruptHandler 0556  
                      ?_EUSART_SetErrorHandler 0031                  i1SPI1_ExchangeBlock@blockSize 0070  
EUSART_SetOverrunErrorHandler@interruptHandler 0031                           ??_PWM3_LoadDutyValue 0072  
                                     int$flags 007E             __end_of_INTERRUPT_InterruptManager 0049  
                   _INTERRUPT_InterruptManager 0004          __end_of_EUSART_SetFramingErrorHandler 0536  
                _EUSART_SetFramingErrorHandler 0530                              ??_TMR1_WriteTimer 0072  
                                    txSpi@data 0038                    SPI1_ExchangeBlock@blockSize 0031  
                             matrixUpdate@data 0079                                     _INTCONbits 000B  
                              ??_TMR0_CallBack 0070                                     _FVRCONbits 0117  
                              ??_TMR1_CallBack 0070                                       intlevel1 0000  
                      ?_PIN_MANAGER_Initialize 0070                 __end_of_EUSART_SetErrorHandler 053C  
                             ??_ADC_Initialize 0031                         ??i1_SPI1_ExchangeBlock 0072  
                ?_TMR0_DefaultInterruptHandler 0070  EUSART_SetFramingErrorHandler@interruptHandler 0031  
                  PWM3_LoadDutyValue@dutyValue 0070                                  __pstringtext1 04BD  
                                __pstringtext2 0548                                 _FVR_Initialize 0550  
                                   _OPTION_REG 0095                                _TMR0_Initialize 0426  
                  ?_IOCBF0_SetInterruptHandler 0031                    ?_IOCBF3_SetInterruptHandler 0031  
                                  ?_IOCBF0_ISR 0070                                    ?_IOCBF3_ISR 0070  
               __end_of_PIN_MANAGER_Initialize 02F8               ??_IOCBF0_DefaultInterruptHandler 0070  
              ?_IOCBF0_DefaultInterruptHandler 0070                                  matrixUpdate@i 007B  
                              _PIN_MANAGER_IOC 0449                                _TMR1_Initialize 03DE  
                              _PWM3_Initialize 04EC                     __end_of_spi1_configuration 054C  
