

Microchip MPLAB XC8 Assembler V2.36 build 20220127204148 
                                                                                               Sun Jul 16 11:46:38 2023

Microchip MPLAB XC8 C Compiler v2.36 (Free license) build 20220127204148 Og1 
     1                           	processor	16F1827
     2                           	pagewidth 120
     3                           	opt	flic
     4                           	psect	idataBANK0,global,class=CODE,delta=2,noexec
     5                           	psect	stringtext1,global,class=STRCODE,delta=2,noexec
     6                           	psect	stringtext2,global,class=STRCODE,delta=2,noexec
     7                           	psect	nvBANK0,global,class=BANK0,space=1,delta=1,noexec
     8                           	psect	cinit,global,class=CODE,merge=1,delta=2
     9                           	psect	bssCOMMON,global,class=COMMON,space=1,delta=1,noexec
    10                           	psect	bssBANK0,global,class=BANK0,space=1,delta=1,noexec
    11                           	psect	dataBANK0,global,class=BANK0,space=1,delta=1,noexec
    12                           	psect	clrtext,global,class=CODE,delta=2
    13                           	psect	cstackCOMMON,global,class=COMMON,space=1,delta=1,noexec
    14                           	psect	cstackBANK0,global,class=BANK0,space=1,delta=1,noexec
    15                           	psect	maintext,global,class=CODE,merge=1,split=1,delta=2
    16                           	psect	text1,local,class=CODE,merge=1,delta=2
    17                           	psect	text2,local,class=CODE,merge=1,delta=2
    18                           	psect	text3,local,class=CODE,merge=1,delta=2
    19                           	psect	text4,local,class=CODE,merge=1,delta=2
    20                           	psect	text5,local,class=CODE,merge=1,delta=2
    21                           	psect	text6,local,class=CODE,merge=1,delta=2
    22                           	psect	text7,local,class=CODE,merge=1,delta=2
    23                           	psect	text8,local,class=CODE,merge=1,delta=2
    24                           	psect	text9,local,class=CODE,merge=1,delta=2
    25                           	psect	text10,local,class=CODE,merge=1,delta=2
    26                           	psect	text11,local,class=CODE,merge=1,delta=2
    27                           	psect	text12,local,class=CODE,merge=1,delta=2
    28                           	psect	text13,local,class=CODE,merge=1,delta=2
    29                           	psect	text14,local,class=CODE,merge=1,delta=2
    30                           	psect	text15,local,class=CODE,merge=1,delta=2
    31                           	psect	text16,local,class=CODE,merge=1,delta=2
    32                           	psect	text17,local,class=CODE,merge=1,delta=2
    33                           	psect	text18,local,class=CODE,merge=1,delta=2
    34                           	psect	text19,local,class=CODE,merge=1,delta=2
    35                           	psect	text20,local,class=CODE,merge=1,delta=2
    36                           	psect	text21,local,class=CODE,merge=1,delta=2
    37                           	psect	text22,local,class=CODE,merge=1,delta=2
    38                           	psect	text23,local,class=CODE,merge=1,delta=2
    39                           	psect	text24,local,class=CODE,merge=1,delta=2
    40                           	psect	text25,local,class=CODE,merge=1,delta=2
    41                           	psect	intentry,global,class=CODE,delta=2
    42                           	psect	text27,local,class=CODE,merge=1,delta=2
    43                           	psect	text28,local,class=CODE,merge=1,delta=2
    44                           	psect	text29,local,class=CODE,merge=1,delta=2
    45                           	psect	text30,local,class=CODE,merge=1,delta=2
    46                           	psect	text31,local,class=CODE,merge=1,delta=2
    47                           	psect	text32,local,class=CODE,merge=1,delta=2
    48                           	psect	text33,local,class=CODE,merge=1,delta=2
    49                           	psect	text34,local,class=CODE,merge=1,delta=2
    50                           	psect	text35,local,class=CODE,merge=1,delta=2
    51                           	psect	text36,local,class=CODE,merge=1,delta=2
    52                           	psect	text37,local,class=CODE,merge=1,delta=2
    53                           	psect	text38,local,class=CODE,merge=1,delta=2
    54                           	psect	text39,local,class=CODE,merge=1,delta=2
    55                           	psect	text40,local,class=CODE,merge=1,delta=2
    56                           	psect	text41,local,class=CODE,merge=1,delta=2
    57                           	psect	text42,local,class=CODE,merge=1,delta=2
    58                           	psect	text43,local,class=CODE,merge=1,delta=2
    59                           	psect	text44,local,class=CODE,merge=1,delta=2
    60                           	psect	text45,local,class=CODE,merge=1,delta=2
    61                           	psect	text46,local,class=CODE,merge=1,delta=2
    62                           	psect	text47,local,class=CODE,merge=1,delta=2
    63                           	psect	text48,local,class=CODE,merge=1,delta=2
    64                           	psect	text49,local,class=CODE,merge=1,delta=2
    65                           	psect	text50,local,class=CODE,merge=1,delta=2
    66                           	psect	text51,local,class=CODE,merge=1,delta=2
    67                           	psect	idloc,global,abs,ovrld,class=IDLOC,space=5,delta=2,noexec
    68                           	psect	config,global,abs,ovrld,class=CONFIG,space=4,delta=2,noexec
    69                           	dabs	1,0x7E,2
    70  0000                     
    71                           ; Version 2.40
    72                           ; Generated 17/11/2021 GMT
    73                           ; 
    74                           ; Copyright © 2021, Microchip Technology Inc. and its subsidiaries ("Microchip")
    75                           ; All rights reserved.
    76                           ; 
    77                           ; This software is developed by Microchip Technology Inc. and its subsidiaries ("Microch
      +                          ip").
    78                           ; 
    79                           ; Redistribution and use in source and binary forms, with or without modification, are
    80                           ; permitted provided that the following conditions are met:
    81                           ; 
    82                           ;     1. Redistributions of source code must retain the above copyright notice, this lis
      +                          t of
    83                           ;        conditions and the following disclaimer.
    84                           ; 
    85                           ;     2. Redistributions in binary form must reproduce the above copyright notice, this 
      +                          list
    86                           ;        of conditions and the following disclaimer in the documentation and/or other
    87                           ;        materials provided with the distribution. Publication is not required when
    88                           ;        this file is used in an embedded application.
    89                           ; 
    90                           ;     3. Microchip's name may not be used to endorse or promote products derived from th
      +                          is
    91                           ;        software without specific prior written permission.
    92                           ; 
    93                           ; THIS SOFTWARE IS PROVIDED BY MICROCHIP "AS IS" AND ANY EXPRESS OR IMPLIED WARRANTIES,
    94                           ; INCLUDING, BUT NOT LIMITED TO, THE IMPLIED WARRANTIES OF MERCHANTABILITY AND FITNESS F
      +                          OR
    95                           ; PURPOSE ARE DISCLAIMED.  IN NO EVENT SHALL MICROCHIP BE LIABLE FOR ANY DIRECT, INDIREC
      +                          T,
    96                           ; INCIDENTAL, SPECIAL, EXEMPLARY, OR CONSEQUENTIAL DAMAGES (INCLUDING BUT NOT LIMITED TO
    97                           ; PROCUREMENT OF SUBSTITUTE GOODS OR SERVICES; LOSS OF USE, DATA OR PROFITS; OR BUSINESS
    98                           ; INTERRUPTION) HOWSOEVER CAUSED AND ON ANY THEORY OF LIABILITY, WHETHER IN CONTRACT, ST
      +                          RICT
    99                           ; LIABILITY, OR TORT (INCLUDING NEGLIGENCE OR OTHERWISE) ARISING IN ANY WAY OUT OF THE U
      +                          SE OF
   100                           ; THIS SOFTWARE, EVEN IF ADVISED OF THE POSSIBILITY OF SUCH DAMAGE.
   101                           ; 
   102                           ; 
   103                           ; Code-generator required, PIC16F1827 Definitions
   104                           ; 
   105                           ; SFR Addresses
   106  0000                     	;# 
   107  0001                     	;# 
   108  0002                     	;# 
   109  0003                     	;# 
   110  0004                     	;# 
   111  0005                     	;# 
   112  0006                     	;# 
   113  0007                     	;# 
   114  0008                     	;# 
   115  0009                     	;# 
   116  000A                     	;# 
   117  000B                     	;# 
   118  000C                     	;# 
   119  000D                     	;# 
   120  0011                     	;# 
   121  0012                     	;# 
   122  0013                     	;# 
   123  0014                     	;# 
   124  0015                     	;# 
   125  0016                     	;# 
   126  0016                     	;# 
   127  0017                     	;# 
   128  0018                     	;# 
   129  0019                     	;# 
   130  001A                     	;# 
   131  001B                     	;# 
   132  001C                     	;# 
   133  001E                     	;# 
   134  001F                     	;# 
   135  008C                     	;# 
   136  008D                     	;# 
   137  0091                     	;# 
   138  0092                     	;# 
   139  0093                     	;# 
   140  0094                     	;# 
   141  0095                     	;# 
   142  0096                     	;# 
   143  0097                     	;# 
   144  0098                     	;# 
   145  0099                     	;# 
   146  009A                     	;# 
   147  009B                     	;# 
   148  009B                     	;# 
   149  009C                     	;# 
   150  009D                     	;# 
   151  009E                     	;# 
   152  010C                     	;# 
   153  010D                     	;# 
   154  0111                     	;# 
   155  0112                     	;# 
   156  0113                     	;# 
   157  0114                     	;# 
   158  0115                     	;# 
   159  0116                     	;# 
   160  0117                     	;# 
   161  0118                     	;# 
   162  0119                     	;# 
   163  011A                     	;# 
   164  011B                     	;# 
   165  011D                     	;# 
   166  011E                     	;# 
   167  018C                     	;# 
   168  018D                     	;# 
   169  0191                     	;# 
   170  0191                     	;# 
   171  0192                     	;# 
   172  0193                     	;# 
   173  0193                     	;# 
   174  0193                     	;# 
   175  0194                     	;# 
   176  0195                     	;# 
   177  0196                     	;# 
   178  0199                     	;# 
   179  019A                     	;# 
   180  019B                     	;# 
   181  019B                     	;# 
   182  019B                     	;# 
   183  019B                     	;# 
   184  019C                     	;# 
   185  019C                     	;# 
   186  019D                     	;# 
   187  019E                     	;# 
   188  019F                     	;# 
   189  020C                     	;# 
   190  020D                     	;# 
   191  0211                     	;# 
   192  0211                     	;# 
   193  0212                     	;# 
   194  0212                     	;# 
   195  0213                     	;# 
   196  0213                     	;# 
   197  0214                     	;# 
   198  0214                     	;# 
   199  0215                     	;# 
   200  0215                     	;# 
   201  0215                     	;# 
   202  0216                     	;# 
   203  0216                     	;# 
   204  0217                     	;# 
   205  0217                     	;# 
   206  0219                     	;# 
   207  021A                     	;# 
   208  021B                     	;# 
   209  021C                     	;# 
   210  021D                     	;# 
   211  021E                     	;# 
   212  021F                     	;# 
   213  0291                     	;# 
   214  0291                     	;# 
   215  0292                     	;# 
   216  0293                     	;# 
   217  0294                     	;# 
   218  0295                     	;# 
   219  0295                     	;# 
   220  0296                     	;# 
   221  0298                     	;# 
   222  0298                     	;# 
   223  0299                     	;# 
   224  029A                     	;# 
   225  029B                     	;# 
   226  029C                     	;# 
   227  029C                     	;# 
   228  029D                     	;# 
   229  029E                     	;# 
   230  029E                     	;# 
   231  0311                     	;# 
   232  0311                     	;# 
   233  0312                     	;# 
   234  0313                     	;# 
   235  0318                     	;# 
   236  0318                     	;# 
   237  0319                     	;# 
   238  031A                     	;# 
   239  0394                     	;# 
   240  0395                     	;# 
   241  0396                     	;# 
   242  039A                     	;# 
   243  039C                     	;# 
   244  039D                     	;# 
   245  039E                     	;# 
   246  039F                     	;# 
   247  0415                     	;# 
   248  0416                     	;# 
   249  0417                     	;# 
   250  041C                     	;# 
   251  041D                     	;# 
   252  041E                     	;# 
   253  0FE4                     	;# 
   254  0FE5                     	;# 
   255  0FE6                     	;# 
   256  0FE7                     	;# 
   257  0FE8                     	;# 
   258  0FE9                     	;# 
   259  0FEA                     	;# 
   260  0FEB                     	;# 
   261  0FED                     	;# 
   262  0FEE                     	;# 
   263  0FEF                     	;# 
   264  0000                     	;# 
   265  0001                     	;# 
   266  0002                     	;# 
   267  0003                     	;# 
   268  0004                     	;# 
   269  0005                     	;# 
   270  0006                     	;# 
   271  0007                     	;# 
   272  0008                     	;# 
   273  0009                     	;# 
   274  000A                     	;# 
   275  000B                     	;# 
   276  000C                     	;# 
   277  000D                     	;# 
   278  0011                     	;# 
   279  0012                     	;# 
   280  0013                     	;# 
   281  0014                     	;# 
   282  0015                     	;# 
   283  0016                     	;# 
   284  0016                     	;# 
   285  0017                     	;# 
   286  0018                     	;# 
   287  0019                     	;# 
   288  001A                     	;# 
   289  001B                     	;# 
   290  001C                     	;# 
   291  001E                     	;# 
   292  001F                     	;# 
   293  008C                     	;# 
   294  008D                     	;# 
   295  0091                     	;# 
   296  0092                     	;# 
   297  0093                     	;# 
   298  0094                     	;# 
   299  0095                     	;# 
   300  0096                     	;# 
   301  0097                     	;# 
   302  0098                     	;# 
   303  0099                     	;# 
   304  009A                     	;# 
   305  009B                     	;# 
   306  009B                     	;# 
   307  009C                     	;# 
   308  009D                     	;# 
   309  009E                     	;# 
   310  010C                     	;# 
   311  010D                     	;# 
   312  0111                     	;# 
   313  0112                     	;# 
   314  0113                     	;# 
   315  0114                     	;# 
   316  0115                     	;# 
   317  0116                     	;# 
   318  0117                     	;# 
   319  0118                     	;# 
   320  0119                     	;# 
   321  011A                     	;# 
   322  011B                     	;# 
   323  011D                     	;# 
   324  011E                     	;# 
   325  018C                     	;# 
   326  018D                     	;# 
   327  0191                     	;# 
   328  0191                     	;# 
   329  0192                     	;# 
   330  0193                     	;# 
   331  0193                     	;# 
   332  0193                     	;# 
   333  0194                     	;# 
   334  0195                     	;# 
   335  0196                     	;# 
   336  0199                     	;# 
   337  019A                     	;# 
   338  019B                     	;# 
   339  019B                     	;# 
   340  019B                     	;# 
   341  019B                     	;# 
   342  019C                     	;# 
   343  019C                     	;# 
   344  019D                     	;# 
   345  019E                     	;# 
   346  019F                     	;# 
   347  020C                     	;# 
   348  020D                     	;# 
   349  0211                     	;# 
   350  0211                     	;# 
   351  0212                     	;# 
   352  0212                     	;# 
   353  0213                     	;# 
   354  0213                     	;# 
   355  0214                     	;# 
   356  0214                     	;# 
   357  0215                     	;# 
   358  0215                     	;# 
   359  0215                     	;# 
   360  0216                     	;# 
   361  0216                     	;# 
   362  0217                     	;# 
   363  0217                     	;# 
   364  0219                     	;# 
   365  021A                     	;# 
   366  021B                     	;# 
   367  021C                     	;# 
   368  021D                     	;# 
   369  021E                     	;# 
   370  021F                     	;# 
   371  0291                     	;# 
   372  0291                     	;# 
   373  0292                     	;# 
   374  0293                     	;# 
   375  0294                     	;# 
   376  0295                     	;# 
   377  0295                     	;# 
   378  0296                     	;# 
   379  0298                     	;# 
   380  0298                     	;# 
   381  0299                     	;# 
   382  029A                     	;# 
   383  029B                     	;# 
   384  029C                     	;# 
   385  029C                     	;# 
   386  029D                     	;# 
   387  029E                     	;# 
   388  029E                     	;# 
   389  0311                     	;# 
   390  0311                     	;# 
   391  0312                     	;# 
   392  0313                     	;# 
   393  0318                     	;# 
   394  0318                     	;# 
   395  0319                     	;# 
   396  031A                     	;# 
   397  0394                     	;# 
   398  0395                     	;# 
   399  0396                     	;# 
   400  039A                     	;# 
   401  039C                     	;# 
   402  039D                     	;# 
   403  039E                     	;# 
   404  039F                     	;# 
   405  0415                     	;# 
   406  0416                     	;# 
   407  0417                     	;# 
   408  041C                     	;# 
   409  041D                     	;# 
   410  041E                     	;# 
   411  0FE4                     	;# 
   412  0FE5                     	;# 
   413  0FE6                     	;# 
   414  0FE7                     	;# 
   415  0FE8                     	;# 
   416  0FE9                     	;# 
   417  0FEA                     	;# 
   418  0FEB                     	;# 
   419  0FED                     	;# 
   420  0FEE                     	;# 
   421  0FEF                     	;# 
   422  0000                     	;# 
   423  0001                     	;# 
   424  0002                     	;# 
   425  0003                     	;# 
   426  0004                     	;# 
   427  0005                     	;# 
   428  0006                     	;# 
   429  0007                     	;# 
   430  0008                     	;# 
   431  0009                     	;# 
   432  000A                     	;# 
   433  000B                     	;# 
   434  000C                     	;# 
   435  000D                     	;# 
   436  0011                     	;# 
   437  0012                     	;# 
   438  0013                     	;# 
   439  0014                     	;# 
   440  0015                     	;# 
   441  0016                     	;# 
   442  0016                     	;# 
   443  0017                     	;# 
   444  0018                     	;# 
   445  0019                     	;# 
   446  001A                     	;# 
   447  001B                     	;# 
   448  001C                     	;# 
   449  001E                     	;# 
   450  001F                     	;# 
   451  008C                     	;# 
   452  008D                     	;# 
   453  0091                     	;# 
   454  0092                     	;# 
   455  0093                     	;# 
   456  0094                     	;# 
   457  0095                     	;# 
   458  0096                     	;# 
   459  0097                     	;# 
   460  0098                     	;# 
   461  0099                     	;# 
   462  009A                     	;# 
   463  009B                     	;# 
   464  009B                     	;# 
   465  009C                     	;# 
   466  009D                     	;# 
   467  009E                     	;# 
   468  010C                     	;# 
   469  010D                     	;# 
   470  0111                     	;# 
   471  0112                     	;# 
   472  0113                     	;# 
   473  0114                     	;# 
   474  0115                     	;# 
   475  0116                     	;# 
   476  0117                     	;# 
   477  0118                     	;# 
   478  0119                     	;# 
   479  011A                     	;# 
   480  011B                     	;# 
   481  011D                     	;# 
   482  011E                     	;# 
   483  018C                     	;# 
   484  018D                     	;# 
   485  0191                     	;# 
   486  0191                     	;# 
   487  0192                     	;# 
   488  0193                     	;# 
   489  0193                     	;# 
   490  0193                     	;# 
   491  0194                     	;# 
   492  0195                     	;# 
   493  0196                     	;# 
   494  0199                     	;# 
   495  019A                     	;# 
   496  019B                     	;# 
   497  019B                     	;# 
   498  019B                     	;# 
   499  019B                     	;# 
   500  019C                     	;# 
   501  019C                     	;# 
   502  019D                     	;# 
   503  019E                     	;# 
   504  019F                     	;# 
   505  020C                     	;# 
   506  020D                     	;# 
   507  0211                     	;# 
   508  0211                     	;# 
   509  0212                     	;# 
   510  0212                     	;# 
   511  0213                     	;# 
   512  0213                     	;# 
   513  0214                     	;# 
   514  0214                     	;# 
   515  0215                     	;# 
   516  0215                     	;# 
   517  0215                     	;# 
   518  0216                     	;# 
   519  0216                     	;# 
   520  0217                     	;# 
   521  0217                     	;# 
   522  0219                     	;# 
   523  021A                     	;# 
   524  021B                     	;# 
   525  021C                     	;# 
   526  021D                     	;# 
   527  021E                     	;# 
   528  021F                     	;# 
   529  0291                     	;# 
   530  0291                     	;# 
   531  0292                     	;# 
   532  0293                     	;# 
   533  0294                     	;# 
   534  0295                     	;# 
   535  0295                     	;# 
   536  0296                     	;# 
   537  0298                     	;# 
   538  0298                     	;# 
   539  0299                     	;# 
   540  029A                     	;# 
   541  029B                     	;# 
   542  029C                     	;# 
   543  029C                     	;# 
   544  029D                     	;# 
   545  029E                     	;# 
   546  029E                     	;# 
   547  0311                     	;# 
   548  0311                     	;# 
   549  0312                     	;# 
   550  0313                     	;# 
   551  0318                     	;# 
   552  0318                     	;# 
   553  0319                     	;# 
   554  031A                     	;# 
   555  0394                     	;# 
   556  0395                     	;# 
   557  0396                     	;# 
   558  039A                     	;# 
   559  039C                     	;# 
   560  039D                     	;# 
   561  039E                     	;# 
   562  039F                     	;# 
   563  0415                     	;# 
   564  0416                     	;# 
   565  0417                     	;# 
   566  041C                     	;# 
   567  041D                     	;# 
   568  041E                     	;# 
   569  0FE4                     	;# 
   570  0FE5                     	;# 
   571  0FE6                     	;# 
   572  0FE7                     	;# 
   573  0FE8                     	;# 
   574  0FE9                     	;# 
   575  0FEA                     	;# 
   576  0FEB                     	;# 
   577  0FED                     	;# 
   578  0FEE                     	;# 
   579  0FEF                     	;# 
   580  0000                     	;# 
   581  0001                     	;# 
   582  0002                     	;# 
   583  0003                     	;# 
   584  0004                     	;# 
   585  0005                     	;# 
   586  0006                     	;# 
   587  0007                     	;# 
   588  0008                     	;# 
   589  0009                     	;# 
   590  000A                     	;# 
   591  000B                     	;# 
   592  000C                     	;# 
   593  000D                     	;# 
   594  0011                     	;# 
   595  0012                     	;# 
   596  0013                     	;# 
   597  0014                     	;# 
   598  0015                     	;# 
   599  0016                     	;# 
   600  0016                     	;# 
   601  0017                     	;# 
   602  0018                     	;# 
   603  0019                     	;# 
   604  001A                     	;# 
   605  001B                     	;# 
   606  001C                     	;# 
   607  001E                     	;# 
   608  001F                     	;# 
   609  008C                     	;# 
   610  008D                     	;# 
   611  0091                     	;# 
   612  0092                     	;# 
   613  0093                     	;# 
   614  0094                     	;# 
   615  0095                     	;# 
   616  0096                     	;# 
   617  0097                     	;# 
   618  0098                     	;# 
   619  0099                     	;# 
   620  009A                     	;# 
   621  009B                     	;# 
   622  009B                     	;# 
   623  009C                     	;# 
   624  009D                     	;# 
   625  009E                     	;# 
   626  010C                     	;# 
   627  010D                     	;# 
   628  0111                     	;# 
   629  0112                     	;# 
   630  0113                     	;# 
   631  0114                     	;# 
   632  0115                     	;# 
   633  0116                     	;# 
   634  0117                     	;# 
   635  0118                     	;# 
   636  0119                     	;# 
   637  011A                     	;# 
   638  011B                     	;# 
   639  011D                     	;# 
   640  011E                     	;# 
   641  018C                     	;# 
   642  018D                     	;# 
   643  0191                     	;# 
   644  0191                     	;# 
   645  0192                     	;# 
   646  0193                     	;# 
   647  0193                     	;# 
   648  0193                     	;# 
   649  0194                     	;# 
   650  0195                     	;# 
   651  0196                     	;# 
   652  0199                     	;# 
   653  019A                     	;# 
   654  019B                     	;# 
   655  019B                     	;# 
   656  019B                     	;# 
   657  019B                     	;# 
   658  019C                     	;# 
   659  019C                     	;# 
   660  019D                     	;# 
   661  019E                     	;# 
   662  019F                     	;# 
   663  020C                     	;# 
   664  020D                     	;# 
   665  0211                     	;# 
   666  0211                     	;# 
   667  0212                     	;# 
   668  0212                     	;# 
   669  0213                     	;# 
   670  0213                     	;# 
   671  0214                     	;# 
   672  0214                     	;# 
   673  0215                     	;# 
   674  0215                     	;# 
   675  0215                     	;# 
   676  0216                     	;# 
   677  0216                     	;# 
   678  0217                     	;# 
   679  0217                     	;# 
   680  0219                     	;# 
   681  021A                     	;# 
   682  021B                     	;# 
   683  021C                     	;# 
   684  021D                     	;# 
   685  021E                     	;# 
   686  021F                     	;# 
   687  0291                     	;# 
   688  0291                     	;# 
   689  0292                     	;# 
   690  0293                     	;# 
   691  0294                     	;# 
   692  0295                     	;# 
   693  0295                     	;# 
   694  0296                     	;# 
   695  0298                     	;# 
   696  0298                     	;# 
   697  0299                     	;# 
   698  029A                     	;# 
   699  029B                     	;# 
   700  029C                     	;# 
   701  029C                     	;# 
   702  029D                     	;# 
   703  029E                     	;# 
   704  029E                     	;# 
   705  0311                     	;# 
   706  0311                     	;# 
   707  0312                     	;# 
   708  0313                     	;# 
   709  0318                     	;# 
   710  0318                     	;# 
   711  0319                     	;# 
   712  031A                     	;# 
   713  0394                     	;# 
   714  0395                     	;# 
   715  0396                     	;# 
   716  039A                     	;# 
   717  039C                     	;# 
   718  039D                     	;# 
   719  039E                     	;# 
   720  039F                     	;# 
   721  0415                     	;# 
   722  0416                     	;# 
   723  0417                     	;# 
   724  041C                     	;# 
   725  041D                     	;# 
   726  041E                     	;# 
   727  0FE4                     	;# 
   728  0FE5                     	;# 
   729  0FE6                     	;# 
   730  0FE7                     	;# 
   731  0FE8                     	;# 
   732  0FE9                     	;# 
   733  0FEA                     	;# 
   734  0FEB                     	;# 
   735  0FED                     	;# 
   736  0FEE                     	;# 
   737  0FEF                     	;# 
   738  0000                     	;# 
   739  0001                     	;# 
   740  0002                     	;# 
   741  0003                     	;# 
   742  0004                     	;# 
   743  0005                     	;# 
   744  0006                     	;# 
   745  0007                     	;# 
   746  0008                     	;# 
   747  0009                     	;# 
   748  000A                     	;# 
   749  000B                     	;# 
   750  000C                     	;# 
   751  000D                     	;# 
   752  0011                     	;# 
   753  0012                     	;# 
   754  0013                     	;# 
   755  0014                     	;# 
   756  0015                     	;# 
   757  0016                     	;# 
   758  0016                     	;# 
   759  0017                     	;# 
   760  0018                     	;# 
   761  0019                     	;# 
   762  001A                     	;# 
   763  001B                     	;# 
   764  001C                     	;# 
   765  001E                     	;# 
   766  001F                     	;# 
   767  008C                     	;# 
   768  008D                     	;# 
   769  0091                     	;# 
   770  0092                     	;# 
   771  0093                     	;# 
   772  0094                     	;# 
   773  0095                     	;# 
   774  0096                     	;# 
   775  0097                     	;# 
   776  0098                     	;# 
   777  0099                     	;# 
   778  009A                     	;# 
   779  009B                     	;# 
   780  009B                     	;# 
   781  009C                     	;# 
   782  009D                     	;# 
   783  009E                     	;# 
   784  010C                     	;# 
   785  010D                     	;# 
   786  0111                     	;# 
   787  0112                     	;# 
   788  0113                     	;# 
   789  0114                     	;# 
   790  0115                     	;# 
   791  0116                     	;# 
   792  0117                     	;# 
   793  0118                     	;# 
   794  0119                     	;# 
   795  011A                     	;# 
   796  011B                     	;# 
   797  011D                     	;# 
   798  011E                     	;# 
   799  018C                     	;# 
   800  018D                     	;# 
   801  0191                     	;# 
   802  0191                     	;# 
   803  0192                     	;# 
   804  0193                     	;# 
   805  0193                     	;# 
   806  0193                     	;# 
   807  0194                     	;# 
   808  0195                     	;# 
   809  0196                     	;# 
   810  0199                     	;# 
   811  019A                     	;# 
   812  019B                     	;# 
   813  019B                     	;# 
   814  019B                     	;# 
   815  019B                     	;# 
   816  019C                     	;# 
   817  019C                     	;# 
   818  019D                     	;# 
   819  019E                     	;# 
   820  019F                     	;# 
   821  020C                     	;# 
   822  020D                     	;# 
   823  0211                     	;# 
   824  0211                     	;# 
   825  0212                     	;# 
   826  0212                     	;# 
   827  0213                     	;# 
   828  0213                     	;# 
   829  0214                     	;# 
   830  0214                     	;# 
   831  0215                     	;# 
   832  0215                     	;# 
   833  0215                     	;# 
   834  0216                     	;# 
   835  0216                     	;# 
   836  0217                     	;# 
   837  0217                     	;# 
   838  0219                     	;# 
   839  021A                     	;# 
   840  021B                     	;# 
   841  021C                     	;# 
   842  021D                     	;# 
   843  021E                     	;# 
   844  021F                     	;# 
   845  0291                     	;# 
   846  0291                     	;# 
   847  0292                     	;# 
   848  0293                     	;# 
   849  0294                     	;# 
   850  0295                     	;# 
   851  0295                     	;# 
   852  0296                     	;# 
   853  0298                     	;# 
   854  0298                     	;# 
   855  0299                     	;# 
   856  029A                     	;# 
   857  029B                     	;# 
   858  029C                     	;# 
   859  029C                     	;# 
   860  029D                     	;# 
   861  029E                     	;# 
   862  029E                     	;# 
   863  0311                     	;# 
   864  0311                     	;# 
   865  0312                     	;# 
   866  0313                     	;# 
   867  0318                     	;# 
   868  0318                     	;# 
   869  0319                     	;# 
   870  031A                     	;# 
   871  0394                     	;# 
   872  0395                     	;# 
   873  0396                     	;# 
   874  039A                     	;# 
   875  039C                     	;# 
   876  039D                     	;# 
   877  039E                     	;# 
   878  039F                     	;# 
   879  0415                     	;# 
   880  0416                     	;# 
   881  0417                     	;# 
   882  041C                     	;# 
   883  041D                     	;# 
   884  041E                     	;# 
   885  0FE4                     	;# 
   886  0FE5                     	;# 
   887  0FE6                     	;# 
   888  0FE7                     	;# 
   889  0FE8                     	;# 
   890  0FE9                     	;# 
   891  0FEA                     	;# 
   892  0FEB                     	;# 
   893  0FED                     	;# 
   894  0FEE                     	;# 
   895  0FEF                     	;# 
   896  0000                     	;# 
   897  0001                     	;# 
   898  0002                     	;# 
   899  0003                     	;# 
   900  0004                     	;# 
   901  0005                     	;# 
   902  0006                     	;# 
   903  0007                     	;# 
   904  0008                     	;# 
   905  0009                     	;# 
   906  000A                     	;# 
   907  000B                     	;# 
   908  000C                     	;# 
   909  000D                     	;# 
   910  0011                     	;# 
   911  0012                     	;# 
   912  0013                     	;# 
   913  0014                     	;# 
   914  0015                     	;# 
   915  0016                     	;# 
   916  0016                     	;# 
   917  0017                     	;# 
   918  0018                     	;# 
   919  0019                     	;# 
   920  001A                     	;# 
   921  001B                     	;# 
   922  001C                     	;# 
   923  001E                     	;# 
   924  001F                     	;# 
   925  008C                     	;# 
   926  008D                     	;# 
   927  0091                     	;# 
   928  0092                     	;# 
   929  0093                     	;# 
   930  0094                     	;# 
   931  0095                     	;# 
   932  0096                     	;# 
   933  0097                     	;# 
   934  0098                     	;# 
   935  0099                     	;# 
   936  009A                     	;# 
   937  009B                     	;# 
   938  009B                     	;# 
   939  009C                     	;# 
   940  009D                     	;# 
   941  009E                     	;# 
   942  010C                     	;# 
   943  010D                     	;# 
   944  0111                     	;# 
   945  0112                     	;# 
   946  0113                     	;# 
   947  0114                     	;# 
   948  0115                     	;# 
   949  0116                     	;# 
   950  0117                     	;# 
   951  0118                     	;# 
   952  0119                     	;# 
   953  011A                     	;# 
   954  011B                     	;# 
   955  011D                     	;# 
   956  011E                     	;# 
   957  018C                     	;# 
   958  018D                     	;# 
   959  0191                     	;# 
   960  0191                     	;# 
   961  0192                     	;# 
   962  0193                     	;# 
   963  0193                     	;# 
   964  0193                     	;# 
   965  0194                     	;# 
   966  0195                     	;# 
   967  0196                     	;# 
   968  0199                     	;# 
   969  019A                     	;# 
   970  019B                     	;# 
   971  019B                     	;# 
   972  019B                     	;# 
   973  019B                     	;# 
   974  019C                     	;# 
   975  019C                     	;# 
   976  019D                     	;# 
   977  019E                     	;# 
   978  019F                     	;# 
   979  020C                     	;# 
   980  020D                     	;# 
   981  0211                     	;# 
   982  0211                     	;# 
   983  0212                     	;# 
   984  0212                     	;# 
   985  0213                     	;# 
   986  0213                     	;# 
   987  0214                     	;# 
   988  0214                     	;# 
   989  0215                     	;# 
   990  0215                     	;# 
   991  0215                     	;# 
   992  0216                     	;# 
   993  0216                     	;# 
   994  0217                     	;# 
   995  0217                     	;# 
   996  0219                     	;# 
   997  021A                     	;# 
   998  021B                     	;# 
   999  021C                     	;# 
  1000  021D                     	;# 
  1001  021E                     	;# 
  1002  021F                     	;# 
  1003  0291                     	;# 
  1004  0291                     	;# 
  1005  0292                     	;# 
  1006  0293                     	;# 
  1007  0294                     	;# 
  1008  0295                     	;# 
  1009  0295                     	;# 
  1010  0296                     	;# 
  1011  0298                     	;# 
  1012  0298                     	;# 
  1013  0299                     	;# 
  1014  029A                     	;# 
  1015  029B                     	;# 
  1016  029C                     	;# 
  1017  029C                     	;# 
  1018  029D                     	;# 
  1019  029E                     	;# 
  1020  029E                     	;# 
  1021  0311                     	;# 
  1022  0311                     	;# 
  1023  0312                     	;# 
  1024  0313                     	;# 
  1025  0318                     	;# 
  1026  0318                     	;# 
  1027  0319                     	;# 
  1028  031A                     	;# 
  1029  0394                     	;# 
  1030  0395                     	;# 
  1031  0396                     	;# 
  1032  039A                     	;# 
  1033  039C                     	;# 
  1034  039D                     	;# 
  1035  039E                     	;# 
  1036  039F                     	;# 
  1037  0415                     	;# 
  1038  0416                     	;# 
  1039  0417                     	;# 
  1040  041C                     	;# 
  1041  041D                     	;# 
  1042  041E                     	;# 
  1043  0FE4                     	;# 
  1044  0FE5                     	;# 
  1045  0FE6                     	;# 
  1046  0FE7                     	;# 
  1047  0FE8                     	;# 
  1048  0FE9                     	;# 
  1049  0FEA                     	;# 
  1050  0FEB                     	;# 
  1051  0FED                     	;# 
  1052  0FEE                     	;# 
  1053  0FEF                     	;# 
  1054  0000                     	;# 
  1055  0001                     	;# 
  1056  0002                     	;# 
  1057  0003                     	;# 
  1058  0004                     	;# 
  1059  0005                     	;# 
  1060  0006                     	;# 
  1061  0007                     	;# 
  1062  0008                     	;# 
  1063  0009                     	;# 
  1064  000A                     	;# 
  1065  000B                     	;# 
  1066  000C                     	;# 
  1067  000D                     	;# 
  1068  0011                     	;# 
  1069  0012                     	;# 
  1070  0013                     	;# 
  1071  0014                     	;# 
  1072  0015                     	;# 
  1073  0016                     	;# 
  1074  0016                     	;# 
  1075  0017                     	;# 
  1076  0018                     	;# 
  1077  0019                     	;# 
  1078  001A                     	;# 
  1079  001B                     	;# 
  1080  001C                     	;# 
  1081  001E                     	;# 
  1082  001F                     	;# 
  1083  008C                     	;# 
  1084  008D                     	;# 
  1085  0091                     	;# 
  1086  0092                     	;# 
  1087  0093                     	;# 
  1088  0094                     	;# 
  1089  0095                     	;# 
  1090  0096                     	;# 
  1091  0097                     	;# 
  1092  0098                     	;# 
  1093  0099                     	;# 
  1094  009A                     	;# 
  1095  009B                     	;# 
  1096  009B                     	;# 
  1097  009C                     	;# 
  1098  009D                     	;# 
  1099  009E                     	;# 
  1100  010C                     	;# 
  1101  010D                     	;# 
  1102  0111                     	;# 
  1103  0112                     	;# 
  1104  0113                     	;# 
  1105  0114                     	;# 
  1106  0115                     	;# 
  1107  0116                     	;# 
  1108  0117                     	;# 
  1109  0118                     	;# 
  1110  0119                     	;# 
  1111  011A                     	;# 
  1112  011B                     	;# 
  1113  011D                     	;# 
  1114  011E                     	;# 
  1115  018C                     	;# 
  1116  018D                     	;# 
  1117  0191                     	;# 
  1118  0191                     	;# 
  1119  0192                     	;# 
  1120  0193                     	;# 
  1121  0193                     	;# 
  1122  0193                     	;# 
  1123  0194                     	;# 
  1124  0195                     	;# 
  1125  0196                     	;# 
  1126  0199                     	;# 
  1127  019A                     	;# 
  1128  019B                     	;# 
  1129  019B                     	;# 
  1130  019B                     	;# 
  1131  019B                     	;# 
  1132  019C                     	;# 
  1133  019C                     	;# 
  1134  019D                     	;# 
  1135  019E                     	;# 
  1136  019F                     	;# 
  1137  020C                     	;# 
  1138  020D                     	;# 
  1139  0211                     	;# 
  1140  0211                     	;# 
  1141  0212                     	;# 
  1142  0212                     	;# 
  1143  0213                     	;# 
  1144  0213                     	;# 
  1145  0214                     	;# 
  1146  0214                     	;# 
  1147  0215                     	;# 
  1148  0215                     	;# 
  1149  0215                     	;# 
  1150  0216                     	;# 
  1151  0216                     	;# 
  1152  0217                     	;# 
  1153  0217                     	;# 
  1154  0219                     	;# 
  1155  021A                     	;# 
  1156  021B                     	;# 
  1157  021C                     	;# 
  1158  021D                     	;# 
  1159  021E                     	;# 
  1160  021F                     	;# 
  1161  0291                     	;# 
  1162  0291                     	;# 
  1163  0292                     	;# 
  1164  0293                     	;# 
  1165  0294                     	;# 
  1166  0295                     	;# 
  1167  0295                     	;# 
  1168  0296                     	;# 
  1169  0298                     	;# 
  1170  0298                     	;# 
  1171  0299                     	;# 
  1172  029A                     	;# 
  1173  029B                     	;# 
  1174  029C                     	;# 
  1175  029C                     	;# 
  1176  029D                     	;# 
  1177  029E                     	;# 
  1178  029E                     	;# 
  1179  0311                     	;# 
  1180  0311                     	;# 
  1181  0312                     	;# 
  1182  0313                     	;# 
  1183  0318                     	;# 
  1184  0318                     	;# 
  1185  0319                     	;# 
  1186  031A                     	;# 
  1187  0394                     	;# 
  1188  0395                     	;# 
  1189  0396                     	;# 
  1190  039A                     	;# 
  1191  039C                     	;# 
  1192  039D                     	;# 
  1193  039E                     	;# 
  1194  039F                     	;# 
  1195  0415                     	;# 
  1196  0416                     	;# 
  1197  0417                     	;# 
  1198  041C                     	;# 
  1199  041D                     	;# 
  1200  041E                     	;# 
  1201  0FE4                     	;# 
  1202  0FE5                     	;# 
  1203  0FE6                     	;# 
  1204  0FE7                     	;# 
  1205  0FE8                     	;# 
  1206  0FE9                     	;# 
  1207  0FEA                     	;# 
  1208  0FEB                     	;# 
  1209  0FED                     	;# 
  1210  0FEE                     	;# 
  1211  0FEF                     	;# 
  1212  0000                     	;# 
  1213  0001                     	;# 
  1214  0002                     	;# 
  1215  0003                     	;# 
  1216  0004                     	;# 
  1217  0005                     	;# 
  1218  0006                     	;# 
  1219  0007                     	;# 
  1220  0008                     	;# 
  1221  0009                     	;# 
  1222  000A                     	;# 
  1223  000B                     	;# 
  1224  000C                     	;# 
  1225  000D                     	;# 
  1226  0011                     	;# 
  1227  0012                     	;# 
  1228  0013                     	;# 
  1229  0014                     	;# 
  1230  0015                     	;# 
  1231  0016                     	;# 
  1232  0016                     	;# 
  1233  0017                     	;# 
  1234  0018                     	;# 
  1235  0019                     	;# 
  1236  001A                     	;# 
  1237  001B                     	;# 
  1238  001C                     	;# 
  1239  001E                     	;# 
  1240  001F                     	;# 
  1241  008C                     	;# 
  1242  008D                     	;# 
  1243  0091                     	;# 
  1244  0092                     	;# 
  1245  0093                     	;# 
  1246  0094                     	;# 
  1247  0095                     	;# 
  1248  0096                     	;# 
  1249  0097                     	;# 
  1250  0098                     	;# 
  1251  0099                     	;# 
  1252  009A                     	;# 
  1253  009B                     	;# 
  1254  009B                     	;# 
  1255  009C                     	;# 
  1256  009D                     	;# 
  1257  009E                     	;# 
  1258  010C                     	;# 
  1259  010D                     	;# 
  1260  0111                     	;# 
  1261  0112                     	;# 
  1262  0113                     	;# 
  1263  0114                     	;# 
  1264  0115                     	;# 
  1265  0116                     	;# 
  1266  0117                     	;# 
  1267  0118                     	;# 
  1268  0119                     	;# 
  1269  011A                     	;# 
  1270  011B                     	;# 
  1271  011D                     	;# 
  1272  011E                     	;# 
  1273  018C                     	;# 
  1274  018D                     	;# 
  1275  0191                     	;# 
  1276  0191                     	;# 
  1277  0192                     	;# 
  1278  0193                     	;# 
  1279  0193                     	;# 
  1280  0193                     	;# 
  1281  0194                     	;# 
  1282  0195                     	;# 
  1283  0196                     	;# 
  1284  0199                     	;# 
  1285  019A                     	;# 
  1286  019B                     	;# 
  1287  019B                     	;# 
  1288  019B                     	;# 
  1289  019B                     	;# 
  1290  019C                     	;# 
  1291  019C                     	;# 
  1292  019D                     	;# 
  1293  019E                     	;# 
  1294  019F                     	;# 
  1295  020C                     	;# 
  1296  020D                     	;# 
  1297  0211                     	;# 
  1298  0211                     	;# 
  1299  0212                     	;# 
  1300  0212                     	;# 
  1301  0213                     	;# 
  1302  0213                     	;# 
  1303  0214                     	;# 
  1304  0214                     	;# 
  1305  0215                     	;# 
  1306  0215                     	;# 
  1307  0215                     	;# 
  1308  0216                     	;# 
  1309  0216                     	;# 
  1310  0217                     	;# 
  1311  0217                     	;# 
  1312  0219                     	;# 
  1313  021A                     	;# 
  1314  021B                     	;# 
  1315  021C                     	;# 
  1316  021D                     	;# 
  1317  021E                     	;# 
  1318  021F                     	;# 
  1319  0291                     	;# 
  1320  0291                     	;# 
  1321  0292                     	;# 
  1322  0293                     	;# 
  1323  0294                     	;# 
  1324  0295                     	;# 
  1325  0295                     	;# 
  1326  0296                     	;# 
  1327  0298                     	;# 
  1328  0298                     	;# 
  1329  0299                     	;# 
  1330  029A                     	;# 
  1331  029B                     	;# 
  1332  029C                     	;# 
  1333  029C                     	;# 
  1334  029D                     	;# 
  1335  029E                     	;# 
  1336  029E                     	;# 
  1337  0311                     	;# 
  1338  0311                     	;# 
  1339  0312                     	;# 
  1340  0313                     	;# 
  1341  0318                     	;# 
  1342  0318                     	;# 
  1343  0319                     	;# 
  1344  031A                     	;# 
  1345  0394                     	;# 
  1346  0395                     	;# 
  1347  0396                     	;# 
  1348  039A                     	;# 
  1349  039C                     	;# 
  1350  039D                     	;# 
  1351  039E                     	;# 
  1352  039F                     	;# 
  1353  0415                     	;# 
  1354  0416                     	;# 
  1355  0417                     	;# 
  1356  041C                     	;# 
  1357  041D                     	;# 
  1358  041E                     	;# 
  1359  0FE4                     	;# 
  1360  0FE5                     	;# 
  1361  0FE6                     	;# 
  1362  0FE7                     	;# 
  1363  0FE8                     	;# 
  1364  0FE9                     	;# 
  1365  0FEA                     	;# 
  1366  0FEB                     	;# 
  1367  0FED                     	;# 
  1368  0FEE                     	;# 
  1369  0FEF                     	;# 
  1370  0000                     	;# 
  1371  0001                     	;# 
  1372  0002                     	;# 
  1373  0003                     	;# 
  1374  0004                     	;# 
  1375  0005                     	;# 
  1376  0006                     	;# 
  1377  0007                     	;# 
  1378  0008                     	;# 
  1379  0009                     	;# 
  1380  000A                     	;# 
  1381  000B                     	;# 
  1382  000C                     	;# 
  1383  000D                     	;# 
  1384  0011                     	;# 
  1385  0012                     	;# 
  1386  0013                     	;# 
  1387  0014                     	;# 
  1388  0015                     	;# 
  1389  0016                     	;# 
  1390  0016                     	;# 
  1391  0017                     	;# 
  1392  0018                     	;# 
  1393  0019                     	;# 
  1394  001A                     	;# 
  1395  001B                     	;# 
  1396  001C                     	;# 
  1397  001E                     	;# 
  1398  001F                     	;# 
  1399  008C                     	;# 
  1400  008D                     	;# 
  1401  0091                     	;# 
  1402  0092                     	;# 
  1403  0093                     	;# 
  1404  0094                     	;# 
  1405  0095                     	;# 
  1406  0096                     	;# 
  1407  0097                     	;# 
  1408  0098                     	;# 
  1409  0099                     	;# 
  1410  009A                     	;# 
  1411  009B                     	;# 
  1412  009B                     	;# 
  1413  009C                     	;# 
  1414  009D                     	;# 
  1415  009E                     	;# 
  1416  010C                     	;# 
  1417  010D                     	;# 
  1418  0111                     	;# 
  1419  0112                     	;# 
  1420  0113                     	;# 
  1421  0114                     	;# 
  1422  0115                     	;# 
  1423  0116                     	;# 
  1424  0117                     	;# 
  1425  0118                     	;# 
  1426  0119                     	;# 
  1427  011A                     	;# 
  1428  011B                     	;# 
  1429  011D                     	;# 
  1430  011E                     	;# 
  1431  018C                     	;# 
  1432  018D                     	;# 
  1433  0191                     	;# 
  1434  0191                     	;# 
  1435  0192                     	;# 
  1436  0193                     	;# 
  1437  0193                     	;# 
  1438  0193                     	;# 
  1439  0194                     	;# 
  1440  0195                     	;# 
  1441  0196                     	;# 
  1442  0199                     	;# 
  1443  019A                     	;# 
  1444  019B                     	;# 
  1445  019B                     	;# 
  1446  019B                     	;# 
  1447  019B                     	;# 
  1448  019C                     	;# 
  1449  019C                     	;# 
  1450  019D                     	;# 
  1451  019E                     	;# 
  1452  019F                     	;# 
  1453  020C                     	;# 
  1454  020D                     	;# 
  1455  0211                     	;# 
  1456  0211                     	;# 
  1457  0212                     	;# 
  1458  0212                     	;# 
  1459  0213                     	;# 
  1460  0213                     	;# 
  1461  0214                     	;# 
  1462  0214                     	;# 
  1463  0215                     	;# 
  1464  0215                     	;# 
  1465  0215                     	;# 
  1466  0216                     	;# 
  1467  0216                     	;# 
  1468  0217                     	;# 
  1469  0217                     	;# 
  1470  0219                     	;# 
  1471  021A                     	;# 
  1472  021B                     	;# 
  1473  021C                     	;# 
  1474  021D                     	;# 
  1475  021E                     	;# 
  1476  021F                     	;# 
  1477  0291                     	;# 
  1478  0291                     	;# 
  1479  0292                     	;# 
  1480  0293                     	;# 
  1481  0294                     	;# 
  1482  0295                     	;# 
  1483  0295                     	;# 
  1484  0296                     	;# 
  1485  0298                     	;# 
  1486  0298                     	;# 
  1487  0299                     	;# 
  1488  029A                     	;# 
  1489  029B                     	;# 
  1490  029C                     	;# 
  1491  029C                     	;# 
  1492  029D                     	;# 
  1493  029E                     	;# 
  1494  029E                     	;# 
  1495  0311                     	;# 
  1496  0311                     	;# 
  1497  0312                     	;# 
  1498  0313                     	;# 
  1499  0318                     	;# 
  1500  0318                     	;# 
  1501  0319                     	;# 
  1502  031A                     	;# 
  1503  0394                     	;# 
  1504  0395                     	;# 
  1505  0396                     	;# 
  1506  039A                     	;# 
  1507  039C                     	;# 
  1508  039D                     	;# 
  1509  039E                     	;# 
  1510  039F                     	;# 
  1511  0415                     	;# 
  1512  0416                     	;# 
  1513  0417                     	;# 
  1514  041C                     	;# 
  1515  041D                     	;# 
  1516  041E                     	;# 
  1517  0FE4                     	;# 
  1518  0FE5                     	;# 
  1519  0FE6                     	;# 
  1520  0FE7                     	;# 
  1521  0FE8                     	;# 
  1522  0FE9                     	;# 
  1523  0FEA                     	;# 
  1524  0FEB                     	;# 
  1525  0FED                     	;# 
  1526  0FEE                     	;# 
  1527  0FEF                     	;# 
  1528  0000                     	;# 
  1529  0001                     	;# 
  1530  0002                     	;# 
  1531  0003                     	;# 
  1532  0004                     	;# 
  1533  0005                     	;# 
  1534  0006                     	;# 
  1535  0007                     	;# 
  1536  0008                     	;# 
  1537  0009                     	;# 
  1538  000A                     	;# 
  1539  000B                     	;# 
  1540  000C                     	;# 
  1541  000D                     	;# 
  1542  0011                     	;# 
  1543  0012                     	;# 
  1544  0013                     	;# 
  1545  0014                     	;# 
  1546  0015                     	;# 
  1547  0016                     	;# 
  1548  0016                     	;# 
  1549  0017                     	;# 
  1550  0018                     	;# 
  1551  0019                     	;# 
  1552  001A                     	;# 
  1553  001B                     	;# 
  1554  001C                     	;# 
  1555  001E                     	;# 
  1556  001F                     	;# 
  1557  008C                     	;# 
  1558  008D                     	;# 
  1559  0091                     	;# 
  1560  0092                     	;# 
  1561  0093                     	;# 
  1562  0094                     	;# 
  1563  0095                     	;# 
  1564  0096                     	;# 
  1565  0097                     	;# 
  1566  0098                     	;# 
  1567  0099                     	;# 
  1568  009A                     	;# 
  1569  009B                     	;# 
  1570  009B                     	;# 
  1571  009C                     	;# 
  1572  009D                     	;# 
  1573  009E                     	;# 
  1574  010C                     	;# 
  1575  010D                     	;# 
  1576  0111                     	;# 
  1577  0112                     	;# 
  1578  0113                     	;# 
  1579  0114                     	;# 
  1580  0115                     	;# 
  1581  0116                     	;# 
  1582  0117                     	;# 
  1583  0118                     	;# 
  1584  0119                     	;# 
  1585  011A                     	;# 
  1586  011B                     	;# 
  1587  011D                     	;# 
  1588  011E                     	;# 
  1589  018C                     	;# 
  1590  018D                     	;# 
  1591  0191                     	;# 
  1592  0191                     	;# 
  1593  0192                     	;# 
  1594  0193                     	;# 
  1595  0193                     	;# 
  1596  0193                     	;# 
  1597  0194                     	;# 
  1598  0195                     	;# 
  1599  0196                     	;# 
  1600  0199                     	;# 
  1601  019A                     	;# 
  1602  019B                     	;# 
  1603  019B                     	;# 
  1604  019B                     	;# 
  1605  019B                     	;# 
  1606  019C                     	;# 
  1607  019C                     	;# 
  1608  019D                     	;# 
  1609  019E                     	;# 
  1610  019F                     	;# 
  1611  020C                     	;# 
  1612  020D                     	;# 
  1613  0211                     	;# 
  1614  0211                     	;# 
  1615  0212                     	;# 
  1616  0212                     	;# 
  1617  0213                     	;# 
  1618  0213                     	;# 
  1619  0214                     	;# 
  1620  0214                     	;# 
  1621  0215                     	;# 
  1622  0215                     	;# 
  1623  0215                     	;# 
  1624  0216                     	;# 
  1625  0216                     	;# 
  1626  0217                     	;# 
  1627  0217                     	;# 
  1628  0219                     	;# 
  1629  021A                     	;# 
  1630  021B                     	;# 
  1631  021C                     	;# 
  1632  021D                     	;# 
  1633  021E                     	;# 
  1634  021F                     	;# 
  1635  0291                     	;# 
  1636  0291                     	;# 
  1637  0292                     	;# 
  1638  0293                     	;# 
  1639  0294                     	;# 
  1640  0295                     	;# 
  1641  0295                     	;# 
  1642  0296                     	;# 
  1643  0298                     	;# 
  1644  0298                     	;# 
  1645  0299                     	;# 
  1646  029A                     	;# 
  1647  029B                     	;# 
  1648  029C                     	;# 
  1649  029C                     	;# 
  1650  029D                     	;# 
  1651  029E                     	;# 
  1652  029E                     	;# 
  1653  0311                     	;# 
  1654  0311                     	;# 
  1655  0312                     	;# 
  1656  0313                     	;# 
  1657  0318                     	;# 
  1658  0318                     	;# 
  1659  0319                     	;# 
  1660  031A                     	;# 
  1661  0394                     	;# 
  1662  0395                     	;# 
  1663  0396                     	;# 
  1664  039A                     	;# 
  1665  039C                     	;# 
  1666  039D                     	;# 
  1667  039E                     	;# 
  1668  039F                     	;# 
  1669  0415                     	;# 
  1670  0416                     	;# 
  1671  0417                     	;# 
  1672  041C                     	;# 
  1673  041D                     	;# 
  1674  041E                     	;# 
  1675  0FE4                     	;# 
  1676  0FE5                     	;# 
  1677  0FE6                     	;# 
  1678  0FE7                     	;# 
  1679  0FE8                     	;# 
  1680  0FE9                     	;# 
  1681  0FEA                     	;# 
  1682  0FEB                     	;# 
  1683  0FED                     	;# 
  1684  0FEE                     	;# 
  1685  0FEF                     	;# 
  1686  0000                     	;# 
  1687  0001                     	;# 
  1688  0002                     	;# 
  1689  0003                     	;# 
  1690  0004                     	;# 
  1691  0005                     	;# 
  1692  0006                     	;# 
  1693  0007                     	;# 
  1694  0008                     	;# 
  1695  0009                     	;# 
  1696  000A                     	;# 
  1697  000B                     	;# 
  1698  000C                     	;# 
  1699  000D                     	;# 
  1700  0011                     	;# 
  1701  0012                     	;# 
  1702  0013                     	;# 
  1703  0014                     	;# 
  1704  0015                     	;# 
  1705  0016                     	;# 
  1706  0016                     	;# 
  1707  0017                     	;# 
  1708  0018                     	;# 
  1709  0019                     	;# 
  1710  001A                     	;# 
  1711  001B                     	;# 
  1712  001C                     	;# 
  1713  001E                     	;# 
  1714  001F                     	;# 
  1715  008C                     	;# 
  1716  008D                     	;# 
  1717  0091                     	;# 
  1718  0092                     	;# 
  1719  0093                     	;# 
  1720  0094                     	;# 
  1721  0095                     	;# 
  1722  0096                     	;# 
  1723  0097                     	;# 
  1724  0098                     	;# 
  1725  0099                     	;# 
  1726  009A                     	;# 
  1727  009B                     	;# 
  1728  009B                     	;# 
  1729  009C                     	;# 
  1730  009D                     	;# 
  1731  009E                     	;# 
  1732  010C                     	;# 
  1733  010D                     	;# 
  1734  0111                     	;# 
  1735  0112                     	;# 
  1736  0113                     	;# 
  1737  0114                     	;# 
  1738  0115                     	;# 
  1739  0116                     	;# 
  1740  0117                     	;# 
  1741  0118                     	;# 
  1742  0119                     	;# 
  1743  011A                     	;# 
  1744  011B                     	;# 
  1745  011D                     	;# 
  1746  011E                     	;# 
  1747  018C                     	;# 
  1748  018D                     	;# 
  1749  0191                     	;# 
  1750  0191                     	;# 
  1751  0192                     	;# 
  1752  0193                     	;# 
  1753  0193                     	;# 
  1754  0193                     	;# 
  1755  0194                     	;# 
  1756  0195                     	;# 
  1757  0196                     	;# 
  1758  0199                     	;# 
  1759  019A                     	;# 
  1760  019B                     	;# 
  1761  019B                     	;# 
  1762  019B                     	;# 
  1763  019B                     	;# 
  1764  019C                     	;# 
  1765  019C                     	;# 
  1766  019D                     	;# 
  1767  019E                     	;# 
  1768  019F                     	;# 
  1769  020C                     	;# 
  1770  020D                     	;# 
  1771  0211                     	;# 
  1772  0211                     	;# 
  1773  0212                     	;# 
  1774  0212                     	;# 
  1775  0213                     	;# 
  1776  0213                     	;# 
  1777  0214                     	;# 
  1778  0214                     	;# 
  1779  0215                     	;# 
  1780  0215                     	;# 
  1781  0215                     	;# 
  1782  0216                     	;# 
  1783  0216                     	;# 
  1784  0217                     	;# 
  1785  0217                     	;# 
  1786  0219                     	;# 
  1787  021A                     	;# 
  1788  021B                     	;# 
  1789  021C                     	;# 
  1790  021D                     	;# 
  1791  021E                     	;# 
  1792  021F                     	;# 
  1793  0291                     	;# 
  1794  0291                     	;# 
  1795  0292                     	;# 
  1796  0293                     	;# 
  1797  0294                     	;# 
  1798  0295                     	;# 
  1799  0295                     	;# 
  1800  0296                     	;# 
  1801  0298                     	;# 
  1802  0298                     	;# 
  1803  0299                     	;# 
  1804  029A                     	;# 
  1805  029B                     	;# 
  1806  029C                     	;# 
  1807  029C                     	;# 
  1808  029D                     	;# 
  1809  029E                     	;# 
  1810  029E                     	;# 
  1811  0311                     	;# 
  1812  0311                     	;# 
  1813  0312                     	;# 
  1814  0313                     	;# 
  1815  0318                     	;# 
  1816  0318                     	;# 
  1817  0319                     	;# 
  1818  031A                     	;# 
  1819  0394                     	;# 
  1820  0395                     	;# 
  1821  0396                     	;# 
  1822  039A                     	;# 
  1823  039C                     	;# 
  1824  039D                     	;# 
  1825  039E                     	;# 
  1826  039F                     	;# 
  1827  0415                     	;# 
  1828  0416                     	;# 
  1829  0417                     	;# 
  1830  041C                     	;# 
  1831  041D                     	;# 
  1832  041E                     	;# 
  1833  0FE4                     	;# 
  1834  0FE5                     	;# 
  1835  0FE6                     	;# 
  1836  0FE7                     	;# 
  1837  0FE8                     	;# 
  1838  0FE9                     	;# 
  1839  0FEA                     	;# 
  1840  0FEB                     	;# 
  1841  0FED                     	;# 
  1842  0FEE                     	;# 
  1843  0FEF                     	;# 
  1844  0000                     	;# 
  1845  0001                     	;# 
  1846  0002                     	;# 
  1847  0003                     	;# 
  1848  0004                     	;# 
  1849  0005                     	;# 
  1850  0006                     	;# 
  1851  0007                     	;# 
  1852  0008                     	;# 
  1853  0009                     	;# 
  1854  000A                     	;# 
  1855  000B                     	;# 
  1856  000C                     	;# 
  1857  000D                     	;# 
  1858  0011                     	;# 
  1859  0012                     	;# 
  1860  0013                     	;# 
  1861  0014                     	;# 
  1862  0015                     	;# 
  1863  0016                     	;# 
  1864  0016                     	;# 
  1865  0017                     	;# 
  1866  0018                     	;# 
  1867  0019                     	;# 
  1868  001A                     	;# 
  1869  001B                     	;# 
  1870  001C                     	;# 
  1871  001E                     	;# 
  1872  001F                     	;# 
  1873  008C                     	;# 
  1874  008D                     	;# 
  1875  0091                     	;# 
  1876  0092                     	;# 
  1877  0093                     	;# 
  1878  0094                     	;# 
  1879  0095                     	;# 
  1880  0096                     	;# 
  1881  0097                     	;# 
  1882  0098                     	;# 
  1883  0099                     	;# 
  1884  009A                     	;# 
  1885  009B                     	;# 
  1886  009B                     	;# 
  1887  009C                     	;# 
  1888  009D                     	;# 
  1889  009E                     	;# 
  1890  010C                     	;# 
  1891  010D                     	;# 
  1892  0111                     	;# 
  1893  0112                     	;# 
  1894  0113                     	;# 
  1895  0114                     	;# 
  1896  0115                     	;# 
  1897  0116                     	;# 
  1898  0117                     	;# 
  1899  0118                     	;# 
  1900  0119                     	;# 
  1901  011A                     	;# 
  1902  011B                     	;# 
  1903  011D                     	;# 
  1904  011E                     	;# 
  1905  018C                     	;# 
  1906  018D                     	;# 
  1907  0191                     	;# 
  1908  0191                     	;# 
  1909  0192                     	;# 
  1910  0193                     	;# 
  1911  0193                     	;# 
  1912  0193                     	;# 
  1913  0194                     	;# 
  1914  0195                     	;# 
  1915  0196                     	;# 
  1916  0199                     	;# 
  1917  019A                     	;# 
  1918  019B                     	;# 
  1919  019B                     	;# 
  1920  019B                     	;# 
  1921  019B                     	;# 
  1922  019C                     	;# 
  1923  019C                     	;# 
  1924  019D                     	;# 
  1925  019E                     	;# 
  1926  019F                     	;# 
  1927  020C                     	;# 
  1928  020D                     	;# 
  1929  0211                     	;# 
  1930  0211                     	;# 
  1931  0212                     	;# 
  1932  0212                     	;# 
  1933  0213                     	;# 
  1934  0213                     	;# 
  1935  0214                     	;# 
  1936  0214                     	;# 
  1937  0215                     	;# 
  1938  0215                     	;# 
  1939  0215                     	;# 
  1940  0216                     	;# 
  1941  0216                     	;# 
  1942  0217                     	;# 
  1943  0217                     	;# 
  1944  0219                     	;# 
  1945  021A                     	;# 
  1946  021B                     	;# 
  1947  021C                     	;# 
  1948  021D                     	;# 
  1949  021E                     	;# 
  1950  021F                     	;# 
  1951  0291                     	;# 
  1952  0291                     	;# 
  1953  0292                     	;# 
  1954  0293                     	;# 
  1955  0294                     	;# 
  1956  0295                     	;# 
  1957  0295                     	;# 
  1958  0296                     	;# 
  1959  0298                     	;# 
  1960  0298                     	;# 
  1961  0299                     	;# 
  1962  029A                     	;# 
  1963  029B                     	;# 
  1964  029C                     	;# 
  1965  029C                     	;# 
  1966  029D                     	;# 
  1967  029E                     	;# 
  1968  029E                     	;# 
  1969  0311                     	;# 
  1970  0311                     	;# 
  1971  0312                     	;# 
  1972  0313                     	;# 
  1973  0318                     	;# 
  1974  0318                     	;# 
  1975  0319                     	;# 
  1976  031A                     	;# 
  1977  0394                     	;# 
  1978  0395                     	;# 
  1979  0396                     	;# 
  1980  039A                     	;# 
  1981  039C                     	;# 
  1982  039D                     	;# 
  1983  039E                     	;# 
  1984  039F                     	;# 
  1985  0415                     	;# 
  1986  0416                     	;# 
  1987  0417                     	;# 
  1988  041C                     	;# 
  1989  041D                     	;# 
  1990  041E                     	;# 
  1991  0FE4                     	;# 
  1992  0FE5                     	;# 
  1993  0FE6                     	;# 
  1994  0FE7                     	;# 
  1995  0FE8                     	;# 
  1996  0FE9                     	;# 
  1997  0FEA                     	;# 
  1998  0FEB                     	;# 
  1999  0FED                     	;# 
  2000  0FEE                     	;# 
  2001  0FEF                     	;# 
  2002  0000                     	;# 
  2003  0001                     	;# 
  2004  0002                     	;# 
  2005  0003                     	;# 
  2006  0004                     	;# 
  2007  0005                     	;# 
  2008  0006                     	;# 
  2009  0007                     	;# 
  2010  0008                     	;# 
  2011  0009                     	;# 
  2012  000A                     	;# 
  2013  000B                     	;# 
  2014  000C                     	;# 
  2015  000D                     	;# 
  2016  0011                     	;# 
  2017  0012                     	;# 
  2018  0013                     	;# 
  2019  0014                     	;# 
  2020  0015                     	;# 
  2021  0016                     	;# 
  2022  0016                     	;# 
  2023  0017                     	;# 
  2024  0018                     	;# 
  2025  0019                     	;# 
  2026  001A                     	;# 
  2027  001B                     	;# 
  2028  001C                     	;# 
  2029  001E                     	;# 
  2030  001F                     	;# 
  2031  008C                     	;# 
  2032  008D                     	;# 
  2033  0091                     	;# 
  2034  0092                     	;# 
  2035  0093                     	;# 
  2036  0094                     	;# 
  2037  0095                     	;# 
  2038  0096                     	;# 
  2039  0097                     	;# 
  2040  0098                     	;# 
  2041  0099                     	;# 
  2042  009A                     	;# 
  2043  009B                     	;# 
  2044  009B                     	;# 
  2045  009C                     	;# 
  2046  009D                     	;# 
  2047  009E                     	;# 
  2048  010C                     	;# 
  2049  010D                     	;# 
  2050  0111                     	;# 
  2051  0112                     	;# 
  2052  0113                     	;# 
  2053  0114                     	;# 
  2054  0115                     	;# 
  2055  0116                     	;# 
  2056  0117                     	;# 
  2057  0118                     	;# 
  2058  0119                     	;# 
  2059  011A                     	;# 
  2060  011B                     	;# 
  2061  011D                     	;# 
  2062  011E                     	;# 
  2063  018C                     	;# 
  2064  018D                     	;# 
  2065  0191                     	;# 
  2066  0191                     	;# 
  2067  0192                     	;# 
  2068  0193                     	;# 
  2069  0193                     	;# 
  2070  0193                     	;# 
  2071  0194                     	;# 
  2072  0195                     	;# 
  2073  0196                     	;# 
  2074  0199                     	;# 
  2075  019A                     	;# 
  2076  019B                     	;# 
  2077  019B                     	;# 
  2078  019B                     	;# 
  2079  019B                     	;# 
  2080  019C                     	;# 
  2081  019C                     	;# 
  2082  019D                     	;# 
  2083  019E                     	;# 
  2084  019F                     	;# 
  2085  020C                     	;# 
  2086  020D                     	;# 
  2087  0211                     	;# 
  2088  0211                     	;# 
  2089  0212                     	;# 
  2090  0212                     	;# 
  2091  0213                     	;# 
  2092  0213                     	;# 
  2093  0214                     	;# 
  2094  0214                     	;# 
  2095  0215                     	;# 
  2096  0215                     	;# 
  2097  0215                     	;# 
  2098  0216                     	;# 
  2099  0216                     	;# 
  2100  0217                     	;# 
  2101  0217                     	;# 
  2102  0219                     	;# 
  2103  021A                     	;# 
  2104  021B                     	;# 
  2105  021C                     	;# 
  2106  021D                     	;# 
  2107  021E                     	;# 
  2108  021F                     	;# 
  2109  0291                     	;# 
  2110  0291                     	;# 
  2111  0292                     	;# 
  2112  0293                     	;# 
  2113  0294                     	;# 
  2114  0295                     	;# 
  2115  0295                     	;# 
  2116  0296                     	;# 
  2117  0298                     	;# 
  2118  0298                     	;# 
  2119  0299                     	;# 
  2120  029A                     	;# 
  2121  029B                     	;# 
  2122  029C                     	;# 
  2123  029C                     	;# 
  2124  029D                     	;# 
  2125  029E                     	;# 
  2126  029E                     	;# 
  2127  0311                     	;# 
  2128  0311                     	;# 
  2129  0312                     	;# 
  2130  0313                     	;# 
  2131  0318                     	;# 
  2132  0318                     	;# 
  2133  0319                     	;# 
  2134  031A                     	;# 
  2135  0394                     	;# 
  2136  0395                     	;# 
  2137  0396                     	;# 
  2138  039A                     	;# 
  2139  039C                     	;# 
  2140  039D                     	;# 
  2141  039E                     	;# 
  2142  039F                     	;# 
  2143  0415                     	;# 
  2144  0416                     	;# 
  2145  0417                     	;# 
  2146  041C                     	;# 
  2147  041D                     	;# 
  2148  041E                     	;# 
  2149  0FE4                     	;# 
  2150  0FE5                     	;# 
  2151  0FE6                     	;# 
  2152  0FE7                     	;# 
  2153  0FE8                     	;# 
  2154  0FE9                     	;# 
  2155  0FEA                     	;# 
  2156  0FEB                     	;# 
  2157  0FED                     	;# 
  2158  0FEE                     	;# 
  2159  0FEF                     	;# 
  2160  0000                     	;# 
  2161  0001                     	;# 
  2162  0002                     	;# 
  2163  0003                     	;# 
  2164  0004                     	;# 
  2165  0005                     	;# 
  2166  0006                     	;# 
  2167  0007                     	;# 
  2168  0008                     	;# 
  2169  0009                     	;# 
  2170  000A                     	;# 
  2171  000B                     	;# 
  2172  000C                     	;# 
  2173  000D                     	;# 
  2174  0011                     	;# 
  2175  0012                     	;# 
  2176  0013                     	;# 
  2177  0014                     	;# 
  2178  0015                     	;# 
  2179  0016                     	;# 
  2180  0016                     	;# 
  2181  0017                     	;# 
  2182  0018                     	;# 
  2183  0019                     	;# 
  2184  001A                     	;# 
  2185  001B                     	;# 
  2186  001C                     	;# 
  2187  001E                     	;# 
  2188  001F                     	;# 
  2189  008C                     	;# 
  2190  008D                     	;# 
  2191  0091                     	;# 
  2192  0092                     	;# 
  2193  0093                     	;# 
  2194  0094                     	;# 
  2195  0095                     	;# 
  2196  0096                     	;# 
  2197  0097                     	;# 
  2198  0098                     	;# 
  2199  0099                     	;# 
  2200  009A                     	;# 
  2201  009B                     	;# 
  2202  009B                     	;# 
  2203  009C                     	;# 
  2204  009D                     	;# 
  2205  009E                     	;# 
  2206  010C                     	;# 
  2207  010D                     	;# 
  2208  0111                     	;# 
  2209  0112                     	;# 
  2210  0113                     	;# 
  2211  0114                     	;# 
  2212  0115                     	;# 
  2213  0116                     	;# 
  2214  0117                     	;# 
  2215  0118                     	;# 
  2216  0119                     	;# 
  2217  011A                     	;# 
  2218  011B                     	;# 
  2219  011D                     	;# 
  2220  011E                     	;# 
  2221  018C                     	;# 
  2222  018D                     	;# 
  2223  0191                     	;# 
  2224  0191                     	;# 
  2225  0192                     	;# 
  2226  0193                     	;# 
  2227  0193                     	;# 
  2228  0193                     	;# 
  2229  0194                     	;# 
  2230  0195                     	;# 
  2231  0196                     	;# 
  2232  0199                     	;# 
  2233  019A                     	;# 
  2234  019B                     	;# 
  2235  019B                     	;# 
  2236  019B                     	;# 
  2237  019B                     	;# 
  2238  019C                     	;# 
  2239  019C                     	;# 
  2240  019D                     	;# 
  2241  019E                     	;# 
  2242  019F                     	;# 
  2243  020C                     	;# 
  2244  020D                     	;# 
  2245  0211                     	;# 
  2246  0211                     	;# 
  2247  0212                     	;# 
  2248  0212                     	;# 
  2249  0213                     	;# 
  2250  0213                     	;# 
  2251  0214                     	;# 
  2252  0214                     	;# 
  2253  0215                     	;# 
  2254  0215                     	;# 
  2255  0215                     	;# 
  2256  0216                     	;# 
  2257  0216                     	;# 
  2258  0217                     	;# 
  2259  0217                     	;# 
  2260  0219                     	;# 
  2261  021A                     	;# 
  2262  021B                     	;# 
  2263  021C                     	;# 
  2264  021D                     	;# 
  2265  021E                     	;# 
  2266  021F                     	;# 
  2267  0291                     	;# 
  2268  0291                     	;# 
  2269  0292                     	;# 
  2270  0293                     	;# 
  2271  0294                     	;# 
  2272  0295                     	;# 
  2273  0295                     	;# 
  2274  0296                     	;# 
  2275  0298                     	;# 
  2276  0298                     	;# 
  2277  0299                     	;# 
  2278  029A                     	;# 
  2279  029B                     	;# 
  2280  029C                     	;# 
  2281  029C                     	;# 
  2282  029D                     	;# 
  2283  029E                     	;# 
  2284  029E                     	;# 
  2285  0311                     	;# 
  2286  0311                     	;# 
  2287  0312                     	;# 
  2288  0313                     	;# 
  2289  0318                     	;# 
  2290  0318                     	;# 
  2291  0319                     	;# 
  2292  031A                     	;# 
  2293  0394                     	;# 
  2294  0395                     	;# 
  2295  0396                     	;# 
  2296  039A                     	;# 
  2297  039C                     	;# 
  2298  039D                     	;# 
  2299  039E                     	;# 
  2300  039F                     	;# 
  2301  0415                     	;# 
  2302  0416                     	;# 
  2303  0417                     	;# 
  2304  041C                     	;# 
  2305  041D                     	;# 
  2306  041E                     	;# 
  2307  0FE4                     	;# 
  2308  0FE5                     	;# 
  2309  0FE6                     	;# 
  2310  0FE7                     	;# 
  2311  0FE8                     	;# 
  2312  0FE9                     	;# 
  2313  0FEA                     	;# 
  2314  0FEB                     	;# 
  2315  0FED                     	;# 
  2316  0FEE                     	;# 
  2317  0FEF                     	;# 
  2318  0000                     	;# 
  2319  0001                     	;# 
  2320  0002                     	;# 
  2321  0003                     	;# 
  2322  0004                     	;# 
  2323  0005                     	;# 
  2324  0006                     	;# 
  2325  0007                     	;# 
  2326  0008                     	;# 
  2327  0009                     	;# 
  2328  000A                     	;# 
  2329  000B                     	;# 
  2330  000C                     	;# 
  2331  000D                     	;# 
  2332  0011                     	;# 
  2333  0012                     	;# 
  2334  0013                     	;# 
  2335  0014                     	;# 
  2336  0015                     	;# 
  2337  0016                     	;# 
  2338  0016                     	;# 
  2339  0017                     	;# 
  2340  0018                     	;# 
  2341  0019                     	;# 
  2342  001A                     	;# 
  2343  001B                     	;# 
  2344  001C                     	;# 
  2345  001E                     	;# 
  2346  001F                     	;# 
  2347  008C                     	;# 
  2348  008D                     	;# 
  2349  0091                     	;# 
  2350  0092                     	;# 
  2351  0093                     	;# 
  2352  0094                     	;# 
  2353  0095                     	;# 
  2354  0096                     	;# 
  2355  0097                     	;# 
  2356  0098                     	;# 
  2357  0099                     	;# 
  2358  009A                     	;# 
  2359  009B                     	;# 
  2360  009B                     	;# 
  2361  009C                     	;# 
  2362  009D                     	;# 
  2363  009E                     	;# 
  2364  010C                     	;# 
  2365  010D                     	;# 
  2366  0111                     	;# 
  2367  0112                     	;# 
  2368  0113                     	;# 
  2369  0114                     	;# 
  2370  0115                     	;# 
  2371  0116                     	;# 
  2372  0117                     	;# 
  2373  0118                     	;# 
  2374  0119                     	;# 
  2375  011A                     	;# 
  2376  011B                     	;# 
  2377  011D                     	;# 
  2378  011E                     	;# 
  2379  018C                     	;# 
  2380  018D                     	;# 
  2381  0191                     	;# 
  2382  0191                     	;# 
  2383  0192                     	;# 
  2384  0193                     	;# 
  2385  0193                     	;# 
  2386  0193                     	;# 
  2387  0194                     	;# 
  2388  0195                     	;# 
  2389  0196                     	;# 
  2390  0199                     	;# 
  2391  019A                     	;# 
  2392  019B                     	;# 
  2393  019B                     	;# 
  2394  019B                     	;# 
  2395  019B                     	;# 
  2396  019C                     	;# 
  2397  019C                     	;# 
  2398  019D                     	;# 
  2399  019E                     	;# 
  2400  019F                     	;# 
  2401  020C                     	;# 
  2402  020D                     	;# 
  2403  0211                     	;# 
  2404  0211                     	;# 
  2405  0212                     	;# 
  2406  0212                     	;# 
  2407  0213                     	;# 
  2408  0213                     	;# 
  2409  0214                     	;# 
  2410  0214                     	;# 
  2411  0215                     	;# 
  2412  0215                     	;# 
  2413  0215                     	;# 
  2414  0216                     	;# 
  2415  0216                     	;# 
  2416  0217                     	;# 
  2417  0217                     	;# 
  2418  0219                     	;# 
  2419  021A                     	;# 
  2420  021B                     	;# 
  2421  021C                     	;# 
  2422  021D                     	;# 
  2423  021E                     	;# 
  2424  021F                     	;# 
  2425  0291                     	;# 
  2426  0291                     	;# 
  2427  0292                     	;# 
  2428  0293                     	;# 
  2429  0294                     	;# 
  2430  0295                     	;# 
  2431  0295                     	;# 
  2432  0296                     	;# 
  2433  0298                     	;# 
  2434  0298                     	;# 
  2435  0299                     	;# 
  2436  029A                     	;# 
  2437  029B                     	;# 
  2438  029C                     	;# 
  2439  029C                     	;# 
  2440  029D                     	;# 
  2441  029E                     	;# 
  2442  029E                     	;# 
  2443  0311                     	;# 
  2444  0311                     	;# 
  2445  0312                     	;# 
  2446  0313                     	;# 
  2447  0318                     	;# 
  2448  0318                     	;# 
  2449  0319                     	;# 
  2450  031A                     	;# 
  2451  0394                     	;# 
  2452  0395                     	;# 
  2453  0396                     	;# 
  2454  039A                     	;# 
  2455  039C                     	;# 
  2456  039D                     	;# 
  2457  039E                     	;# 
  2458  039F                     	;# 
  2459  0415                     	;# 
  2460  0416                     	;# 
  2461  0417                     	;# 
  2462  041C                     	;# 
  2463  041D                     	;# 
  2464  041E                     	;# 
  2465  0FE4                     	;# 
  2466  0FE5                     	;# 
  2467  0FE6                     	;# 
  2468  0FE7                     	;# 
  2469  0FE8                     	;# 
  2470  0FE9                     	;# 
  2471  0FEA                     	;# 
  2472  0FEB                     	;# 
  2473  0FED                     	;# 
  2474  0FEE                     	;# 
  2475  0FEF                     	;# 
  2476                           
  2477 ;; Function _EUSART_DefaultFramingErrorHandler is unused but had its address taken
  2478  0000                     
  2479 ;; Function _EUSART_DefaultOverrunErrorHandler is unused but had its address taken
  2480  0000                     
  2481 ;; Function _EUSART_DefaultErrorHandler is unused but had its address taken
  2482  0000                     
  2483                           	psect	idataBANK0
  2484  057A                     __pidataBANK0:
  2485                           
  2486                           ;initializer for _subindo
  2487  057A  3401               	retlw	1
  2488                           
  2489                           	psect	stringtext1
  2490  04D6                     __pstringtext1:
  2491  04D6                     _matrix_conf:
  2492  04D6  3409               	retlw	9
  2493  04D7  3400               	retlw	0
  2494  04D8  340A               	retlw	10
  2495  04D9  3400               	retlw	0
  2496  04DA  340B               	retlw	11
  2497  04DB  3407               	retlw	7
  2498  04DC  340C               	retlw	12
  2499  04DD  3401               	retlw	1
  2500  04DE  340F               	retlw	15
  2501  04DF  3401               	retlw	1
  2502  04E0  340F               	retlw	15
  2503  04E1  3400               	retlw	0
  2504  04E2                     __end_of_matrix_conf:
  2505                           
  2506                           	psect	stringtext2
  2507  056B                     __pstringtext2:
  2508  056B                     _spi1_configuration:
  2509  056B  3400               	retlw	0
  2510  056C  3440               	retlw	64
  2511  056D  3401               	retlw	1
  2512  056E  3400               	retlw	0
  2513  056F                     __end_of_spi1_configuration:
  2514                           
  2515                           	psect	nvBANK0
  2516  0020                     __pnvBANK0:
  2517  0020                     _TMR0_InterruptHandler:
  2518  0020                     	ds	2
  2519  0022                     _TMR1_InterruptHandler:
  2520  0022                     	ds	2
  2521  0024                     _timer1ReloadVal:
  2522  0024                     	ds	2
  2523  0026                     _EUSART_ErrorHandler:
  2524  0026                     	ds	2
  2525  0028                     _EUSART_OverrunErrorHandler:
  2526  0028                     	ds	2
  2527  002A                     _EUSART_FramingErrorHandler:
  2528  002A                     	ds	2
  2529  002C                     _IOCBF3_InterruptHandler:
  2530  002C                     	ds	2
  2531  002E                     _IOCBF0_InterruptHandler:
  2532  002E                     	ds	2
  2533  0030                     _timer0ReloadVal:
  2534  0030                     	ds	1
  2535  0015                     _TMR0	set	21
  2536  001C                     _T2CONbits	set	28
  2537  001C                     _T2CON	set	28
  2538  001A                     _TMR2	set	26
  2539  001B                     _PR2	set	27
  2540  0019                     _T1GCONbits	set	25
  2541  0018                     _T1CONbits	set	24
  2542  0018                     _T1CON	set	24
  2543  0016                     _TMR1L	set	22
  2544  0017                     _TMR1H	set	23
  2545  0019                     _T1GCON	set	25
  2546  0011                     _PIR1bits	set	17
  2547  000B                     _INTCONbits	set	11
  2548  0012                     _PIR2bits	set	18
  2549  0095                     _OPTION_REG	set	149
  2550  0091                     _PIE1bits	set	145
  2551  008D                     _TRISBbits	set	141
  2552  009D                     _ADCON0bits	set	157
  2553  009D                     _ADCON0	set	157
  2554  009C                     _ADRESH	set	156
  2555  009B                     _ADRESL	set	155
  2556  009E                     _ADCON1	set	158
  2557  0097                     _WDTCON	set	151
  2558  0098                     _OSCTUNE	set	152
  2559  0099                     _OSCCON	set	153
  2560  0095                     _OPTION_REGbits	set	149
  2561  008D                     _TRISB	set	141
  2562  008C                     _TRISA	set	140
  2563  0092                     _PIE2bits	set	146
  2564  010D                     _LATBbits	set	269
  2565  0117                     _FVRCONbits	set	279
  2566  0117                     _FVRCON	set	279
  2567  0116                     _BORCON	set	278
  2568  011E                     _APFCON1	set	286
  2569  011D                     _APFCON0	set	285
  2570  010D                     _LATB	set	269
  2571  010C                     _LATA	set	268
  2572  0112                     _CM1CON1	set	274
  2573  0111                     _CM1CON0	set	273
  2574  0115                     _CMOUTbits	set	277
  2575  0114                     _CM2CON1	set	276
  2576  0113                     _CM2CON0	set	275
  2577  019A                     _TXREG	set	410
  2578  0199                     _RCREG	set	409
  2579  019D                     _RCSTAbits	set	413
  2580  019E                     _TXSTAbits	set	414
  2581  019C                     _SPBRGH	set	412
  2582  019B                     _SPBRGL	set	411
  2583  019E                     _TXSTA	set	414
  2584  019D                     _RCSTA	set	413
  2585  019F                     _BAUDCON	set	415
  2586  018C                     _ANSELA	set	396
  2587  018D                     _ANSELB	set	397
  2588  0211                     _SSP1BUF	set	529
  2589  0216                     _SSP1CON2	set	534
  2590  0215                     _SSP1CON1bits	set	533
  2591  0212                     _SSP1ADD	set	530
  2592  0215                     _SSP1CON1	set	533
  2593  0214                     _SSP1STAT	set	532
  2594  020C                     _WPUA	set	524
  2595  020D                     _WPUB	set	525
  2596  029E                     _CCPTMRS0bits	set	670
  2597  0312                     _CCPR3H	set	786
  2598  0311                     _CCPR3L	set	785
  2599  0313                     _CCP3CON	set	787
  2600  0394                     _IOCBPbits	set	916
  2601  0395                     _IOCBNbits	set	917
  2602  0396                     _IOCBFbits	set	918
  2603                           
  2604                           	psect	cinit
  2605  004B                     start_initialization:	
  2606                           ; #config settings
  2607                           
  2608  004B                     __initialization:
  2609                           
  2610                           ; Initialize objects allocated to BANK0
  2611  004B  3185  257A  3180   	fcall	__pidataBANK0	;fetch initializer
  2612  004E  00D2               	movwf	__pdataBANK0& (0+127)
  2613                           
  2614                           ; Clear objects allocated to COMMON
  2615  004F  01FD               	clrf	__pbssCOMMON& (0+127)
  2616                           
  2617                           ; Clear objects allocated to BANK0
  2618  0050  3042               	movlw	low __pbssBANK0
  2619  0051  0084               	movwf	4
  2620  0052  3000               	movlw	high __pbssBANK0
  2621  0053  0085               	movwf	5
  2622  0054  3010               	movlw	16
  2623  0055  3185  252F  3180   	fcall	clear_ram0
  2624  0058                     end_of_initialization:	
  2625                           ;End of C runtime variable initialization code
  2626                           
  2627  0058                     __end_of__initialization:
  2628  0058  107E               	bcf	int$flags,0	;clear compiler interrupt flag (level 1)
  2629  0059  0020               	movlb	0
  2630  005A  3183  2B5D         	ljmp	_main	;jump to C main() function
  2631                           
  2632                           	psect	bssCOMMON
  2633  007D                     __pbssCOMMON:
  2634  007D                     _destinoDesc:
  2635  007D                     	ds	1
  2636                           
  2637                           	psect	bssBANK0
  2638  0042                     __pbssBANK0:
  2639  0042                     _MatrixLed:
  2640  0042                     	ds	8
  2641  004A                     TMR0_ISR@CountCallBack:
  2642  004A                     	ds	2
  2643  004C                     _ADC_InterruptHandler:
  2644  004C                     	ds	2
  2645  004E                     controleMovimento@cont:
  2646  004E                     	ds	1
  2647  004F                     _eusartRxLastError:
  2648  004F                     	ds	1
  2649  0050                     _mov:
  2650  0050                     	ds	1
  2651  0051                     _destinoSub:
  2652  0051                     	ds	1
  2653                           
  2654                           	psect	dataBANK0
  2655  0052                     __pdataBANK0:
  2656  0052                     _subindo:
  2657  0052                     	ds	1
  2658                           
  2659                           	psect	clrtext
  2660  052F                     clear_ram0:	
  2661                           ;	Called with FSR0 containing the base address, and
  2662                           ;	WREG with the size to clear
  2663                           
  2664  052F  0064               	clrwdt	;clear the watchdog before getting into this loop
  2665  0530                     clrloop0:
  2666  0530  0180               	clrf	0	;clear RAM location pointed to by FSR
  2667  0531  3101               	addfsr 0,1
  2668  0532  0B89               	decfsz	9,f	;Have we reached the end of clearing yet?
  2669  0533  2D30               	goto	clrloop0	;have we reached the end yet?
  2670  0534  3400               	retlw	0	;all done for this memory range, return
  2671                           
  2672                           	psect	cstackCOMMON
  2673  0070                     __pcstackCOMMON:
  2674  0070                     ?_chegadaS4:
  2675  0070                     ?_chegadaS3:	
  2676                           ; 1 bytes @ 0x0
  2677                           
  2678  0070                     ?_IOCBF0_DefaultInterruptHandler:	
  2679                           ; 1 bytes @ 0x0
  2680                           
  2681  0070                     ??_IOCBF0_DefaultInterruptHandler:	
  2682                           ; 1 bytes @ 0x0
  2683                           
  2684  0070                     ?_IOCBF3_DefaultInterruptHandler:	
  2685                           ; 1 bytes @ 0x0
  2686                           
  2687  0070                     ??_IOCBF3_DefaultInterruptHandler:	
  2688                           ; 1 bytes @ 0x0
  2689                           
  2690  0070                     ?_IOCBF0_ISR:	
  2691                           ; 1 bytes @ 0x0
  2692                           
  2693  0070                     ??_IOCBF0_ISR:	
  2694                           ; 1 bytes @ 0x0
  2695                           
  2696  0070                     ?_IOCBF3_ISR:	
  2697                           ; 1 bytes @ 0x0
  2698                           
  2699  0070                     ?_SPI1_Initialize:	
  2700                           ; 1 bytes @ 0x0
  2701                           
  2702  0070                     ?_OSCILLATOR_Initialize:	
  2703                           ; 1 bytes @ 0x0
  2704                           
  2705  0070                     ?_WDT_Initialize:	
  2706                           ; 1 bytes @ 0x0
  2707                           
  2708  0070                     ?_FVR_Initialize:	
  2709                           ; 1 bytes @ 0x0
  2710                           
  2711  0070                     ?_TMR2_Initialize:	
  2712                           ; 1 bytes @ 0x0
  2713                           
  2714  0070                     ?_TMR0_Initialize:	
  2715                           ; 1 bytes @ 0x0
  2716                           
  2717  0070                     ?_ADC_Initialize:	
  2718                           ; 1 bytes @ 0x0
  2719                           
  2720  0070                     ?_TMR1_Initialize:	
  2721                           ; 1 bytes @ 0x0
  2722                           
  2723  0070                     ?_EUSART_Initialize:	
  2724                           ; 1 bytes @ 0x0
  2725                           
  2726  0070                     ?_TMR0_ISR:	
  2727                           ; 1 bytes @ 0x0
  2728                           
  2729  0070                     ??_TMR0_ISR:	
  2730                           ; 1 bytes @ 0x0
  2731                           
  2732  0070                     ?_TMR1_ISR:	
  2733                           ; 1 bytes @ 0x0
  2734                           
  2735  0070                     ?_TMR1_DefaultInterruptHandler:	
  2736                           ; 1 bytes @ 0x0
  2737                           
  2738  0070                     ??_TMR1_DefaultInterruptHandler:	
  2739                           ; 1 bytes @ 0x0
  2740                           
  2741  0070                     ?_TMR1_CallBack:	
  2742                           ; 1 bytes @ 0x0
  2743                           
  2744  0070                     ?_TMR0_DefaultInterruptHandler:	
  2745                           ; 1 bytes @ 0x0
  2746                           
  2747  0070                     ??_TMR0_DefaultInterruptHandler:	
  2748                           ; 1 bytes @ 0x0
  2749                           
  2750  0070                     ?_TMR0_CallBack:	
  2751                           ; 1 bytes @ 0x0
  2752                           
  2753  0070                     ??_TMR0_CallBack:	
  2754                           ; 1 bytes @ 0x0
  2755                           
  2756  0070                     ?_PWM3_Initialize:	
  2757                           ; 1 bytes @ 0x0
  2758                           
  2759  0070                     ?_PWM3_LoadDutyValue:	
  2760                           ; 1 bytes @ 0x0
  2761                           
  2762  0070                     ?_CMP2_Initialize:	
  2763                           ; 1 bytes @ 0x0
  2764                           
  2765  0070                     ?_CMP2_ISR:	
  2766                           ; 1 bytes @ 0x0
  2767                           
  2768  0070                     ?_CMP1_Initialize:	
  2769                           ; 1 bytes @ 0x0
  2770                           
  2771  0070                     ?_CMP1_ISR:	
  2772                           ; 1 bytes @ 0x0
  2773                           
  2774  0070                     ?_PIN_MANAGER_Initialize:	
  2775                           ; 1 bytes @ 0x0
  2776                           
  2777  0070                     ?_PIN_MANAGER_IOC:	
  2778                           ; 1 bytes @ 0x0
  2779                           
  2780  0070                     ?_SYSTEM_Initialize:	
  2781                           ; 1 bytes @ 0x0
  2782                           
  2783  0070                     ?_SPI1_Open:	
  2784                           ; 1 bytes @ 0x0
  2785                           
  2786  0070                     ?_INTERRUPT_InterruptManager:	
  2787                           ; 1 bytes @ 0x0
  2788                           
  2789  0070                     ?_TMR1_StartTimer:	
  2790                           ; 1 bytes @ 0x0
  2791                           
  2792  0070                     ??_TMR1_StartTimer:	
  2793                           ; 1 bytes @ 0x0
  2794                           
  2795  0070                     ??_TMR1_ReadTimer:	
  2796                           ; 1 bytes @ 0x0
  2797                           
  2798  0070                     ?_TMR1_WriteTimer:	
  2799                           ; 1 bytes @ 0x0
  2800                           
  2801  0070                     ?_matrixUpdate:	
  2802                           ; 1 bytes @ 0x0
  2803                           
  2804  0070                     ?_initMatrix:	
  2805                           ; 1 bytes @ 0x0
  2806                           
  2807  0070                     ?_controleMovimento:	
  2808                           ; 1 bytes @ 0x0
  2809                           
  2810  0070                     ?_chegadaS1:	
  2811                           ; 1 bytes @ 0x0
  2812                           
  2813  0070                     ?_chegadaS2:	
  2814                           ; 1 bytes @ 0x0
  2815                           
  2816  0070                     ?_main:	
  2817                           ; 1 bytes @ 0x0
  2818                           
  2819  0070                     ?i1_SPI1_ExchangeBlock:	
  2820                           ; 1 bytes @ 0x0
  2821                           
  2822  0070                     ?_TMR1_ReadTimer:	
  2823                           ; 1 bytes @ 0x0
  2824                           
  2825  0070                     PWM3_LoadDutyValue@dutyValue:	
  2826                           ; 2 bytes @ 0x0
  2827                           
  2828  0070                     TMR1_WriteTimer@timerVal:	
  2829                           ; 2 bytes @ 0x0
  2830                           
  2831  0070                     i1SPI1_ExchangeBlock@blockSize:	
  2832                           ; 2 bytes @ 0x0
  2833                           
  2834                           
  2835                           ; 2 bytes @ 0x0
  2836  0070                     	ds	1
  2837  0071                     TMR1_ReadTimer@readValHigh:
  2838                           
  2839                           ; 1 bytes @ 0x1
  2840  0071                     	ds	1
  2841  0072                     ??_PWM3_LoadDutyValue:
  2842  0072                     ??_TMR1_WriteTimer:	
  2843                           ; 1 bytes @ 0x2
  2844                           
  2845  0072                     ??i1_SPI1_ExchangeBlock:	
  2846                           ; 1 bytes @ 0x2
  2847                           
  2848  0072                     TMR1_ReadTimer@readValLow:	
  2849                           ; 1 bytes @ 0x2
  2850                           
  2851                           
  2852                           ; 1 bytes @ 0x2
  2853  0072                     	ds	1
  2854  0073                     i1SPI1_ExchangeBlock@block:
  2855                           
  2856                           ; 1 bytes @ 0x3
  2857  0073                     	ds	1
  2858  0074                     ??_controleMovimento:
  2859  0074                     i1SPI1_ExchangeBlock@data:	
  2860                           ; 1 bytes @ 0x4
  2861                           
  2862                           
  2863                           ; 1 bytes @ 0x4
  2864  0074                     	ds	1
  2865  0075                     ?i1_txSpi:
  2866  0075                     i1txSpi@dataSize:	
  2867                           ; 1 bytes @ 0x5
  2868                           
  2869                           
  2870                           ; 2 bytes @ 0x5
  2871  0075                     	ds	1
  2872  0076                     ??_TMR1_ISR:
  2873  0076                     ??_TMR1_CallBack:	
  2874                           ; 1 bytes @ 0x6
  2875                           
  2876                           
  2877                           ; 1 bytes @ 0x6
  2878  0076                     	ds	1
  2879  0077                     ??i1_txSpi:
  2880  0077                     i1txSpi@data:	
  2881                           ; 1 bytes @ 0x7
  2882                           
  2883                           
  2884                           ; 1 bytes @ 0x7
  2885  0077                     	ds	1
  2886  0078                     ??_matrixUpdate:
  2887                           
  2888                           ; 1 bytes @ 0x8
  2889  0078                     	ds	1
  2890  0079                     matrixUpdate@data:
  2891                           
  2892                           ; 2 bytes @ 0x9
  2893  0079                     	ds	2
  2894  007B                     matrixUpdate@i:
  2895                           
  2896                           ; 1 bytes @ 0xB
  2897  007B                     	ds	1
  2898  007C                     ??_chegadaS4:
  2899  007C                     ??_chegadaS3:	
  2900                           ; 1 bytes @ 0xC
  2901                           
  2902  007C                     ??_chegadaS1:	
  2903                           ; 1 bytes @ 0xC
  2904                           
  2905  007C                     ??_chegadaS2:	
  2906                           ; 1 bytes @ 0xC
  2907                           
  2908                           
  2909                           ; 1 bytes @ 0xC
  2910  007C                     	ds	1
  2911  007D                     ??_IOCBF3_ISR:
  2912  007D                     ??_CMP2_ISR:	
  2913                           ; 1 bytes @ 0xD
  2914                           
  2915  007D                     ??_CMP1_ISR:	
  2916                           ; 1 bytes @ 0xD
  2917                           
  2918  007D                     ??_PIN_MANAGER_IOC:	
  2919                           ; 1 bytes @ 0xD
  2920                           
  2921  007D                     ??_INTERRUPT_InterruptManager:	
  2922                           ; 1 bytes @ 0xD
  2923                           
  2924                           
  2925                           	psect	cstackBANK0
  2926  0031                     __pcstackBANK0:	
  2927                           ; 1 bytes @ 0xD
  2928                           
  2929  0031                     ?_IOCBF0_SetInterruptHandler:
  2930  0031                     ?_IOCBF3_SetInterruptHandler:	
  2931                           ; 1 bytes @ 0x0
  2932                           
  2933  0031                     ??_SPI1_Initialize:	
  2934                           ; 1 bytes @ 0x0
  2935                           
  2936  0031                     ??_OSCILLATOR_Initialize:	
  2937                           ; 1 bytes @ 0x0
  2938                           
  2939  0031                     ??_WDT_Initialize:	
  2940                           ; 1 bytes @ 0x0
  2941                           
  2942  0031                     ??_FVR_Initialize:	
  2943                           ; 1 bytes @ 0x0
  2944                           
  2945  0031                     ??_TMR2_Initialize:	
  2946                           ; 1 bytes @ 0x0
  2947                           
  2948  0031                     ??_ADC_Initialize:	
  2949                           ; 1 bytes @ 0x0
  2950                           
  2951  0031                     ?_EUSART_SetFramingErrorHandler:	
  2952                           ; 1 bytes @ 0x0
  2953                           
  2954  0031                     ?_EUSART_SetOverrunErrorHandler:	
  2955                           ; 1 bytes @ 0x0
  2956                           
  2957  0031                     ?_EUSART_SetErrorHandler:	
  2958                           ; 1 bytes @ 0x0
  2959                           
  2960  0031                     ?_TMR1_SetInterruptHandler:	
  2961                           ; 1 bytes @ 0x0
  2962                           
  2963  0031                     ?_TMR0_SetInterruptHandler:	
  2964                           ; 1 bytes @ 0x0
  2965                           
  2966  0031                     ??_PWM3_Initialize:	
  2967                           ; 1 bytes @ 0x0
  2968                           
  2969  0031                     ??_CMP2_Initialize:	
  2970                           ; 1 bytes @ 0x0
  2971                           
  2972  0031                     ??_CMP1_Initialize:	
  2973                           ; 1 bytes @ 0x0
  2974                           
  2975  0031                     ??_SPI1_Open:	
  2976                           ; 1 bytes @ 0x0
  2977                           
  2978  0031                     ?_SPI1_ExchangeBlock:	
  2979                           ; 1 bytes @ 0x0
  2980                           
  2981  0031                     IOCBF0_SetInterruptHandler@InterruptHandler:	
  2982                           ; 1 bytes @ 0x0
  2983                           
  2984  0031                     IOCBF3_SetInterruptHandler@InterruptHandler:	
  2985                           ; 2 bytes @ 0x0
  2986                           
  2987  0031                     EUSART_SetFramingErrorHandler@interruptHandler:	
  2988                           ; 2 bytes @ 0x0
  2989                           
  2990  0031                     EUSART_SetOverrunErrorHandler@interruptHandler:	
  2991                           ; 2 bytes @ 0x0
  2992                           
  2993  0031                     EUSART_SetErrorHandler@interruptHandler:	
  2994                           ; 2 bytes @ 0x0
  2995                           
  2996  0031                     SPI1_ExchangeBlock@blockSize:	
  2997                           ; 2 bytes @ 0x0
  2998                           
  2999  0031                     TMR1_SetInterruptHandler@InterruptHandler:	
  3000                           ; 2 bytes @ 0x0
  3001                           
  3002  0031                     TMR0_SetInterruptHandler@InterruptHandler:	
  3003                           ; 2 bytes @ 0x0
  3004                           
  3005                           
  3006                           ; 2 bytes @ 0x0
  3007  0031                     	ds	2
  3008  0033                     ??_IOCBF0_SetInterruptHandler:
  3009  0033                     ??_IOCBF3_SetInterruptHandler:	
  3010                           ; 1 bytes @ 0x2
  3011                           
  3012  0033                     ??_TMR0_Initialize:	
  3013                           ; 1 bytes @ 0x2
  3014                           
  3015  0033                     ??_TMR1_Initialize:	
  3016                           ; 1 bytes @ 0x2
  3017                           
  3018  0033                     ??_EUSART_Initialize:	
  3019                           ; 1 bytes @ 0x2
  3020                           
  3021  0033                     ??_EUSART_SetFramingErrorHandler:	
  3022                           ; 1 bytes @ 0x2
  3023                           
  3024  0033                     ??_EUSART_SetOverrunErrorHandler:	
  3025                           ; 1 bytes @ 0x2
  3026                           
  3027  0033                     ??_EUSART_SetErrorHandler:	
  3028                           ; 1 bytes @ 0x2
  3029                           
  3030  0033                     ??_TMR1_SetInterruptHandler:	
  3031                           ; 1 bytes @ 0x2
  3032                           
  3033  0033                     ??_TMR0_SetInterruptHandler:	
  3034                           ; 1 bytes @ 0x2
  3035                           
  3036  0033                     ??_PIN_MANAGER_Initialize:	
  3037                           ; 1 bytes @ 0x2
  3038                           
  3039  0033                     ??_SPI1_ExchangeBlock:	
  3040                           ; 1 bytes @ 0x2
  3041                           
  3042                           
  3043                           ; 1 bytes @ 0x2
  3044  0033                     	ds	1
  3045  0034                     ??_SYSTEM_Initialize:
  3046  0034                     SPI1_Open@spi1UniqueConfiguration:	
  3047                           ; 1 bytes @ 0x3
  3048                           
  3049  0034                     SPI1_ExchangeBlock@block:	
  3050                           ; 1 bytes @ 0x3
  3051                           
  3052                           
  3053                           ; 1 bytes @ 0x3
  3054  0034                     	ds	1
  3055  0035                     SPI1_ExchangeBlock@data:
  3056                           
  3057                           ; 1 bytes @ 0x4
  3058  0035                     	ds	1
  3059  0036                     ?_txSpi:
  3060  0036                     txSpi@dataSize:	
  3061                           ; 1 bytes @ 0x5
  3062                           
  3063                           
  3064                           ; 2 bytes @ 0x5
  3065  0036                     	ds	2
  3066  0038                     ??_txSpi:
  3067  0038                     txSpi@data:	
  3068                           ; 1 bytes @ 0x7
  3069                           
  3070                           
  3071                           ; 1 bytes @ 0x7
  3072  0038                     	ds	1
  3073  0039                     ??_initMatrix:
  3074                           
  3075                           ; 1 bytes @ 0x8
  3076  0039                     	ds	1
  3077  003A                     initMatrix@data:
  3078                           
  3079                           ; 4 bytes @ 0x9
  3080  003A                     	ds	4
  3081  003E                     initMatrix@k:
  3082                           
  3083                           ; 1 bytes @ 0xD
  3084  003E                     	ds	1
  3085  003F                     initMatrix@i:
  3086                           
  3087                           ; 1 bytes @ 0xE
  3088  003F                     	ds	1
  3089  0040                     initMatrix@i_1325:
  3090                           
  3091                           ; 1 bytes @ 0xF
  3092  0040                     	ds	1
  3093  0041                     initMatrix@j:
  3094                           
  3095                           ; 1 bytes @ 0x10
  3096  0041                     	ds	1
  3097  0042                     ??_main:
  3098                           
  3099                           	psect	maintext
  3100  035D                     __pmaintext:	
  3101                           ; 1 bytes @ 0x11
  3102 ;;
  3103 ;;Main: autosize = 0, tempsize = 0, incstack = 0, save=0
  3104 ;;
  3105 ;; *************** function _main *****************
  3106 ;; Defined at:
  3107 ;;		line 281 in file "main.c"
  3108 ;; Parameters:    Size  Location     Type
  3109 ;;		None
  3110 ;; Auto vars:     Size  Location     Type
  3111 ;;		None
  3112 ;; Return value:  Size  Location     Type
  3113 ;;                  1    wreg      void 
  3114 ;; Registers used:
  3115 ;;		wreg, fsr0l, fsr0h, fsr1l, fsr1h, status,2, status,0, pclath, cstack
  3116 ;; Tracked objects:
  3117 ;;		On entry : B1F/0
  3118 ;;		On exit  : 0/0
  3119 ;;		Unchanged: 0/0
  3120 ;; Data sizes:     COMMON   BANK0   BANK1   BANK2   BANK3   BANK4
  3121 ;;      Params:         0       0       0       0       0       0
  3122 ;;      Locals:         0       0       0       0       0       0
  3123 ;;      Temps:          0       0       0       0       0       0
  3124 ;;      Totals:         0       0       0       0       0       0
  3125 ;;Total ram usage:        0 bytes
  3126 ;; Hardware stack levels required when called: 10
  3127 ;; This function calls:
  3128 ;;		_IOCBF3_SetInterruptHandler
  3129 ;;		_SPI1_Open
  3130 ;;		_SYSTEM_Initialize
  3131 ;;		_TMR1_SetInterruptHandler
  3132 ;;		_initMatrix
  3133 ;; This function is called by:
  3134 ;;		Startup code after reset
  3135 ;; This function uses a non-reentrant model
  3136 ;;
  3137                           
  3138  035D                     _main:	
  3139                           ;psect for function _main
  3140                           
  3141  035D                     l2547:	
  3142                           ;incstack = 0
  3143                           ; Regs used in _main: [wreg-fsr1h+status,2+status,0+pclath+cstack]
  3144                           
  3145                           
  3146                           ;main.c: 284:     SYSTEM_Initialize();
  3147  035D  3183  2386  3183   	fcall	_SYSTEM_Initialize
  3148                           
  3149                           ;main.c: 292:     IOCBF3_SetInterruptHandler(chegadaS1);
  3150  0360  3094               	movlw	low _chegadaS1
  3151  0361  0020               	movlb	0	; select bank0
  3152  0362  00B1               	movwf	IOCBF3_SetInterruptHandler@InterruptHandler
  3153  0363  3002               	movlw	high _chegadaS1
  3154  0364  00B2               	movwf	IOCBF3_SetInterruptHandler@InterruptHandler+1
  3155  0365  3185  2541  3183   	fcall	_IOCBF3_SetInterruptHandler
  3156                           
  3157                           ;main.c: 293:     IOCBF3_SetInterruptHandler(chegadaS2);
  3158  0368  3034               	movlw	low _chegadaS2
  3159  0369  0020               	movlb	0	; select bank0
  3160  036A  00B1               	movwf	IOCBF3_SetInterruptHandler@InterruptHandler
  3161  036B  3001               	movlw	high _chegadaS2
  3162  036C  00B2               	movwf	IOCBF3_SetInterruptHandler@InterruptHandler+1
  3163  036D  3185  2541  3183   	fcall	_IOCBF3_SetInterruptHandler
  3164                           
  3165                           ;main.c: 294:     TMR1_SetInterruptHandler(controleMovimento);
  3166  0370  3047               	movlw	low _controleMovimento
  3167  0371  0020               	movlb	0	; select bank0
  3168  0372  00B1               	movwf	TMR1_SetInterruptHandler@InterruptHandler
  3169  0373  3002               	movlw	high _controleMovimento
  3170  0374  00B2               	movwf	TMR1_SetInterruptHandler@InterruptHandler+1
  3171  0375  3185  2535  3183   	fcall	_TMR1_SetInterruptHandler
  3172  0378                     l2549:
  3173  0378  0022               	movlb	2	; select bank2
  3174  0379  148D               	bsf	13,1	;volatile
  3175  037A                     l2551:
  3176                           
  3177                           ;main.c: 298:     SPI1_Open(SPI1_DEFAULT);
  3178  037A  3000               	movlw	0
  3179  037B  3181  21F0  3183   	fcall	_SPI1_Open
  3180  037E                     l2553:
  3181                           
  3182                           ;main.c: 299:     initMatrix();
  3183  037E  3181  2199  3183   	fcall	_initMatrix
  3184  0381                     l2555:
  3185                           
  3186                           ;main.c: 302:     (INTCONbits.GIE = 1);
  3187  0381  178B               	bsf	11,7	;volatile
  3188  0382                     l2557:
  3189                           
  3190                           ;main.c: 305:     (INTCONbits.PEIE = 1);
  3191  0382  170B               	bsf	11,6	;volatile
  3192  0383                     l678:	
  3193                           ;main.c: 313:     while (1)
  3194                           
  3195  0383                     l679:	
  3196                           ;main.c: 314:     {;main.c: 316:     }
  3197                           
  3198  0383  2B83               	goto	l678
  3199  0384  3180  2849         	ljmp	start
  3200  0386                     __end_of_main:
  3201                           
  3202                           	psect	text1
  3203  0199                     __ptext1:	
  3204 ;; *************** function _initMatrix *****************
  3205 ;; Defined at:
  3206 ;;		line 82 in file "main.c"
  3207 ;; Parameters:    Size  Location     Type
  3208 ;;		None
  3209 ;; Auto vars:     Size  Location     Type
  3210 ;;  j               1   16[BANK0 ] unsigned char 
  3211 ;;  i               1   15[BANK0 ] unsigned char 
  3212 ;;  i               1   14[BANK0 ] unsigned char 
  3213 ;;  data            4    9[BANK0 ] unsigned char [4]
  3214 ;;  k               1   13[BANK0 ] unsigned char 
  3215 ;; Return value:  Size  Location     Type
  3216 ;;                  1    wreg      void 
  3217 ;; Registers used:
  3218 ;;		wreg, fsr0l, fsr0h, fsr1l, fsr1h, status,2, status,0, pclath, cstack
  3219 ;; Tracked objects:
  3220 ;;		On entry : 0/0
  3221 ;;		On exit  : 0/0
  3222 ;;		Unchanged: 0/0
  3223 ;; Data sizes:     COMMON   BANK0   BANK1   BANK2   BANK3   BANK4
  3224 ;;      Params:         0       0       0       0       0       0
  3225 ;;      Locals:         0       8       0       0       0       0
  3226 ;;      Temps:          0       1       0       0       0       0
  3227 ;;      Totals:         0       9       0       0       0       0
  3228 ;;Total ram usage:        9 bytes
  3229 ;; Hardware stack levels used: 1
  3230 ;; Hardware stack levels required when called: 9
  3231 ;; This function calls:
  3232 ;;		_txSpi
  3233 ;; This function is called by:
  3234 ;;		_main
  3235 ;; This function uses a non-reentrant model
  3236 ;;
  3237                           
  3238  0199                     _initMatrix:	
  3239                           ;psect for function _initMatrix
  3240                           
  3241  0199                     l2459:	
  3242                           ;incstack = 0
  3243                           ; Regs used in _initMatrix: [wreg-fsr1h+status,2+status,0+pclath+cstack]
  3244                           
  3245                           
  3246                           ;main.c: 83:     uint8_t data[4];;main.c: 84:     uint8_t k=0;
  3247  0199  0020               	movlb	0	; select bank0
  3248  019A  01BE               	clrf	initMatrix@k
  3249                           
  3250                           ;main.c: 85:    for(uint8_t i =0; i<8; i++){
  3251  019B  01BF               	clrf	initMatrix@i
  3252  019C                     l2465:
  3253                           
  3254                           ;main.c: 86:             MatrixLed[i] = 0;
  3255  019C  083F               	movf	initMatrix@i,w
  3256  019D  3E42               	addlw	(low (_MatrixLed| 0))& (0+255)
  3257  019E  0086               	movwf	6
  3258  019F  0187               	clrf	7
  3259  01A0  0181               	clrf	1
  3260  01A1                     l2467:
  3261                           
  3262                           ;main.c: 87:         }
  3263  01A1  3001               	movlw	1
  3264  01A2  00B9               	movwf	??_initMatrix
  3265  01A3  0839               	movf	??_initMatrix,w
  3266  01A4  07BF               	addwf	initMatrix@i,f
  3267  01A5                     l2469:
  3268  01A5  3008               	movlw	8
  3269  01A6  023F               	subwf	initMatrix@i,w
  3270  01A7  1C03               	skipc
  3271  01A8  29AA               	goto	u911
  3272  01A9  29AB               	goto	u910
  3273  01AA                     u911:
  3274  01AA  299C               	goto	l2465
  3275  01AB                     u910:
  3276  01AB                     l2471:
  3277                           
  3278                           ;main.c: 88:     for(uint8_t i=0;i<6;i++){
  3279  01AB  01C0               	clrf	initMatrix@i_1325
  3280  01AC                     l2477:
  3281                           
  3282                           ;main.c: 89:         for(uint8_t j=0;j<4;j=j+2){
  3283  01AC  01C1               	clrf	initMatrix@j
  3284  01AD                     l2483:
  3285                           
  3286                           ;main.c: 90:             data[j]= matrix_conf[k];
  3287  01AD  083E               	movf	initMatrix@k,w
  3288  01AE  3ED6               	addlw	low (_matrix_conf| (0+32768))
  3289  01AF  0084               	movwf	4
  3290  01B0  3084               	movlw	high (_matrix_conf| (0+32768))
  3291  01B1  1803               	skipnc
  3292  01B2  3E01               	addlw	1
  3293  01B3  0085               	movwf	5
  3294  01B4  0800               	movf	0,w	;code access
  3295  01B5  00B9               	movwf	??_initMatrix
  3296  01B6  0841               	movf	initMatrix@j,w
  3297  01B7  3E3A               	addlw	(low (initMatrix@data| 0))& (0+255)
  3298  01B8  0086               	movwf	6
  3299  01B9  0187               	clrf	7
  3300  01BA  0839               	movf	??_initMatrix,w
  3301  01BB  0081               	movwf	1
  3302                           
  3303                           ;main.c: 91:             data[j+1]= matrix_conf[k+1];
  3304  01BC  083E               	movf	initMatrix@k,w
  3305  01BD  3ED7               	addlw	low ((_matrix_conf+1)| (0+32768))
  3306  01BE  0084               	movwf	4
  3307  01BF  3084               	movlw	high ((_matrix_conf+1)| (0+32768))
  3308  01C0  1803               	skipnc
  3309  01C1  3E01               	addlw	1
  3310  01C2  0085               	movwf	5
  3311  01C3  0800               	movf	0,w	;code access
  3312  01C4  00B9               	movwf	??_initMatrix
  3313  01C5  0841               	movf	initMatrix@j,w
  3314  01C6  3E01               	addlw	1
  3315  01C7  3E3A               	addlw	(low (initMatrix@data| 0))& (0+255)
  3316  01C8  0086               	movwf	6
  3317  01C9  0187               	clrf	7
  3318  01CA  0839               	movf	??_initMatrix,w
  3319  01CB  0081               	movwf	1
  3320  01CC                     l2485:
  3321                           
  3322                           ;main.c: 92:         }
  3323  01CC  0841               	movf	initMatrix@j,w
  3324  01CD  3E02               	addlw	2
  3325  01CE  00B9               	movwf	??_initMatrix
  3326  01CF  0839               	movf	??_initMatrix,w
  3327  01D0  00C1               	movwf	initMatrix@j
  3328  01D1                     l2487:
  3329  01D1  3004               	movlw	4
  3330  01D2  0241               	subwf	initMatrix@j,w
  3331  01D3  1C03               	skipc
  3332  01D4  29D6               	goto	u921
  3333  01D5  29D7               	goto	u920
  3334  01D6                     u921:
  3335  01D6  29AD               	goto	l2483
  3336  01D7                     u920:
  3337  01D7                     l2489:
  3338                           
  3339                           ;main.c: 93:         k=k+2;
  3340  01D7  083E               	movf	initMatrix@k,w
  3341  01D8  3E02               	addlw	2
  3342  01D9  00B9               	movwf	??_initMatrix
  3343  01DA  0839               	movf	??_initMatrix,w
  3344  01DB  00BE               	movwf	initMatrix@k
  3345  01DC                     l2491:
  3346                           
  3347                           ;main.c: 94:         txSpi( data, 4);
  3348  01DC  3004               	movlw	4
  3349  01DD  00B6               	movwf	txSpi@dataSize
  3350  01DE  3000               	movlw	0
  3351  01DF  00B7               	movwf	txSpi@dataSize+1
  3352  01E0  303A               	movlw	(low (initMatrix@data| 0))& (0+255)
  3353  01E1  3184  2473  3181   	fcall	_txSpi
  3354  01E4                     l2495:
  3355                           
  3356                           ;main.c: 98:     }
  3357  01E4  3001               	movlw	1
  3358  01E5  0020               	movlb	0	; select bank0
  3359  01E6  00B9               	movwf	??_initMatrix
  3360  01E7  0839               	movf	??_initMatrix,w
  3361  01E8  07C0               	addwf	initMatrix@i_1325,f
  3362  01E9                     l2497:
  3363  01E9  3006               	movlw	6
  3364  01EA  0240               	subwf	initMatrix@i_1325,w
  3365  01EB  1C03               	skipc
  3366  01EC  29EE               	goto	u931
  3367  01ED  29EF               	goto	u930
  3368  01EE                     u931:
  3369  01EE  29AC               	goto	l2477
  3370  01EF                     u930:
  3371  01EF                     l624:
  3372  01EF  0008               	return
  3373  01F0                     __end_of_initMatrix:
  3374                           
  3375                           	psect	text2
  3376  0473                     __ptext2:	
  3377 ;; *************** function _txSpi *****************
  3378 ;; Defined at:
  3379 ;;		line 54 in file "main.c"
  3380 ;; Parameters:    Size  Location     Type
  3381 ;;  data            1    wreg     PTR unsigned char 
  3382 ;;		 -> initMatrix@data(4), matrixUpdate@data(2), 
  3383 ;;  dataSize        2    5[BANK0 ] unsigned int 
  3384 ;; Auto vars:     Size  Location     Type
  3385 ;;  data            1    7[BANK0 ] PTR unsigned char 
  3386 ;;		 -> initMatrix@data(4), matrixUpdate@data(2), 
  3387 ;; Return value:  Size  Location     Type
  3388 ;;                  1    wreg      void 
  3389 ;; Registers used:
  3390 ;;		wreg, fsr1l, fsr1h, status,2, status,0, pclath, cstack
  3391 ;; Tracked objects:
  3392 ;;		On entry : 0/0
  3393 ;;		On exit  : 0/0
  3394 ;;		Unchanged: 0/0
  3395 ;; Data sizes:     COMMON   BANK0   BANK1   BANK2   BANK3   BANK4
  3396 ;;      Params:         0       2       0       0       0       0
  3397 ;;      Locals:         0       1       0       0       0       0
  3398 ;;      Temps:          0       0       0       0       0       0
  3399 ;;      Totals:         0       3       0       0       0       0
  3400 ;;Total ram usage:        3 bytes
  3401 ;; Hardware stack levels used: 1
  3402 ;; Hardware stack levels required when called: 8
  3403 ;; This function calls:
  3404 ;;		_SPI1_ExchangeBlock
  3405 ;; This function is called by:
  3406 ;;		_initMatrix
  3407 ;; This function uses a non-reentrant model
  3408 ;;
  3409                           
  3410  0473                     _txSpi:	
  3411                           ;psect for function _txSpi
  3412                           
  3413                           
  3414                           ;incstack = 0
  3415                           ; Regs used in _txSpi: [wreg+fsr1l+fsr1h+status,2+status,0+pclath+cstack]
  3416                           ;txSpi@data stored from wreg
  3417  0473  0020               	movlb	0	; select bank0
  3418  0474  00B8               	movwf	txSpi@data
  3419  0475                     l601:	
  3420                           ;main.c: 55:     do { LATBbits.LATB1 = 0; } while(0);
  3421                           
  3422  0475  0022               	movlb	2	; select bank2
  3423  0476  108D               	bcf	13,1	;volatile
  3424  0477                     l2409:
  3425                           
  3426                           ;main.c: 56:     SPI1_ExchangeBlock(data,dataSize);
  3427  0477  0020               	movlb	0	; select bank0
  3428  0478  0837               	movf	txSpi@dataSize+1,w
  3429  0479  00B2               	movwf	SPI1_ExchangeBlock@blockSize+1
  3430  047A  0836               	movf	txSpi@dataSize,w
  3431  047B  00B1               	movwf	SPI1_ExchangeBlock@blockSize
  3432  047C  0838               	movf	txSpi@data,w
  3433  047D  3183  2305  3184   	fcall	_SPI1_ExchangeBlock
  3434  0480                     l2411:
  3435  0480  0022               	movlb	2	; select bank2
  3436  0481  148D               	bsf	13,1	;volatile
  3437  0482                     l605:
  3438  0482  0008               	return
  3439  0483                     __end_of_txSpi:
  3440                           
  3441                           	psect	text3
  3442  0305                     __ptext3:	
  3443 ;; *************** function _SPI1_ExchangeBlock *****************
  3444 ;; Defined at:
  3445 ;;		line 100 in file "mcc_generated_files/spi1.c"
  3446 ;; Parameters:    Size  Location     Type
  3447 ;;  block           1    wreg     PTR void 
  3448 ;;		 -> initMatrix@data(4), matrixUpdate@data(2), 
  3449 ;;  blockSize       2    0[BANK0 ] unsigned int 
  3450 ;; Auto vars:     Size  Location     Type
  3451 ;;  block           1    3[BANK0 ] PTR void 
  3452 ;;		 -> initMatrix@data(4), matrixUpdate@data(2), 
  3453 ;;  data            1    4[BANK0 ] PTR unsigned char 
  3454 ;;		 -> initMatrix@data(4), matrixUpdate@data(2), 
  3455 ;; Return value:  Size  Location     Type
  3456 ;;                  1    wreg      void 
  3457 ;; Registers used:
  3458 ;;		wreg, fsr1l, fsr1h, status,2, status,0
  3459 ;; Tracked objects:
  3460 ;;		On entry : 0/0
  3461 ;;		On exit  : 0/0
  3462 ;;		Unchanged: 0/0
  3463 ;; Data sizes:     COMMON   BANK0   BANK1   BANK2   BANK3   BANK4
  3464 ;;      Params:         0       2       0       0       0       0
  3465 ;;      Locals:         0       2       0       0       0       0
  3466 ;;      Temps:          0       1       0       0       0       0
  3467 ;;      Totals:         0       5       0       0       0       0
  3468 ;;Total ram usage:        5 bytes
  3469 ;; Hardware stack levels used: 1
  3470 ;; Hardware stack levels required when called: 7
  3471 ;; This function calls:
  3472 ;;		Nothing
  3473 ;; This function is called by:
  3474 ;;		_txSpi
  3475 ;; This function uses a non-reentrant model
  3476 ;;
  3477                           
  3478  0305                     _SPI1_ExchangeBlock:	
  3479                           ;psect for function _SPI1_ExchangeBlock
  3480                           
  3481                           
  3482                           ;incstack = 0
  3483                           ; Regs used in _SPI1_ExchangeBlock: [wreg+fsr1l+fsr1h+status,2+status,0]
  3484                           ;SPI1_ExchangeBlock@block stored from wreg
  3485  0305  0020               	movlb	0	; select bank0
  3486  0306  00B4               	movwf	SPI1_ExchangeBlock@block
  3487  0307                     l2063:
  3488                           
  3489                           ;mcc_generated_files/spi1.c: 100: void SPI1_ExchangeBlock(void *block, size_t blockSize)
      +                          ;mcc_generated_files/spi1.c: 101: {;mcc_generated_files/spi1.c: 102:     uint8_t *data =
      +                           block;
  3490  0307  0834               	movf	SPI1_ExchangeBlock@block,w
  3491  0308  00B3               	movwf	??_SPI1_ExchangeBlock
  3492  0309  0833               	movf	??_SPI1_ExchangeBlock,w
  3493  030A  00B5               	movwf	SPI1_ExchangeBlock@data
  3494                           
  3495                           ;mcc_generated_files/spi1.c: 103:     while(blockSize--)
  3496  030B  2B25               	goto	l2071
  3497  030C                     l2065:
  3498                           
  3499                           ;mcc_generated_files/spi1.c: 104:     {;mcc_generated_files/spi1.c: 105:         SSP1BUF
      +                           = *data;
  3500  030C  0835               	movf	SPI1_ExchangeBlock@data,w
  3501  030D  0086               	movwf	6
  3502  030E  0187               	clrf	7
  3503  030F  0801               	movf	1,w
  3504  0310  0024               	movlb	4	; select bank4
  3505  0311  0091               	movwf	17	;volatile
  3506  0312                     l372:	
  3507                           ;mcc_generated_files/spi1.c: 106:         while(!PIR1bits.SSP1IF);
  3508                           
  3509  0312  0020               	movlb	0	; select bank0
  3510  0313  1D91               	btfss	17,3	;volatile
  3511  0314  2B16               	goto	u621
  3512  0315  2B17               	goto	u620
  3513  0316                     u621:
  3514  0316  2B12               	goto	l372
  3515  0317                     u620:
  3516  0317                     l374:
  3517                           
  3518                           ;mcc_generated_files/spi1.c: 107:         PIR1bits.SSP1IF = 0;
  3519  0317  1191               	bcf	17,3	;volatile
  3520  0318                     l2067:
  3521                           
  3522                           ;mcc_generated_files/spi1.c: 108:         *data++ = SSP1BUF;
  3523  0318  0024               	movlb	4	; select bank4
  3524  0319  0811               	movf	17,w	;volatile
  3525  031A  0020               	movlb	0	; select bank0
  3526  031B  00B3               	movwf	??_SPI1_ExchangeBlock
  3527  031C  0835               	movf	SPI1_ExchangeBlock@data,w
  3528  031D  0086               	movwf	6
  3529  031E  0187               	clrf	7
  3530  031F  0833               	movf	??_SPI1_ExchangeBlock,w
  3531  0320  0081               	movwf	1
  3532  0321                     l2069:
  3533  0321  3001               	movlw	1
  3534  0322  00B3               	movwf	??_SPI1_ExchangeBlock
  3535  0323  0833               	movf	??_SPI1_ExchangeBlock,w
  3536  0324  07B5               	addwf	SPI1_ExchangeBlock@data,f
  3537  0325                     l2071:
  3538                           
  3539                           ;mcc_generated_files/spi1.c: 103:     while(blockSize--)
  3540  0325  3001               	movlw	1
  3541  0326  02B1               	subwf	SPI1_ExchangeBlock@blockSize,f
  3542  0327  3000               	movlw	0
  3543  0328  3BB2               	subwfb	SPI1_ExchangeBlock@blockSize+1,f
  3544  0329  0A31               	incf	SPI1_ExchangeBlock@blockSize,w
  3545  032A  1D03               	skipz
  3546  032B  2B30               	goto	u631
  3547  032C  0A32               	incf	SPI1_ExchangeBlock@blockSize+1,w
  3548  032D  1D03               	btfss	3,2
  3549  032E  2B30               	goto	u631
  3550  032F  2B31               	goto	u630
  3551  0330                     u631:
  3552  0330  2B0C               	goto	l2065
  3553  0331                     u630:
  3554  0331                     l376:
  3555  0331  0008               	return
  3556  0332                     __end_of_SPI1_ExchangeBlock:
  3557                           
  3558                           	psect	text4
  3559  0386                     __ptext4:	
  3560 ;; *************** function _SYSTEM_Initialize *****************
  3561 ;; Defined at:
  3562 ;;		line 50 in file "mcc_generated_files/mcc.c"
  3563 ;; Parameters:    Size  Location     Type
  3564 ;;		None
  3565 ;; Auto vars:     Size  Location     Type
  3566 ;;		None
  3567 ;; Return value:  Size  Location     Type
  3568 ;;                  1    wreg      void 
  3569 ;; Registers used:
  3570 ;;		wreg, status,2, status,0, pclath, cstack
  3571 ;; Tracked objects:
  3572 ;;		On entry : 0/0
  3573 ;;		On exit  : 0/0
  3574 ;;		Unchanged: 0/0
  3575 ;; Data sizes:     COMMON   BANK0   BANK1   BANK2   BANK3   BANK4
  3576 ;;      Params:         0       0       0       0       0       0
  3577 ;;      Locals:         0       0       0       0       0       0
  3578 ;;      Temps:          0       0       0       0       0       0
  3579 ;;      Totals:         0       0       0       0       0       0
  3580 ;;Total ram usage:        0 bytes
  3581 ;; Hardware stack levels used: 1
  3582 ;; Hardware stack levels required when called: 9
  3583 ;; This function calls:
  3584 ;;		_ADC_Initialize
  3585 ;;		_CMP1_Initialize
  3586 ;;		_CMP2_Initialize
  3587 ;;		_EUSART_Initialize
  3588 ;;		_FVR_Initialize
  3589 ;;		_OSCILLATOR_Initialize
  3590 ;;		_PIN_MANAGER_Initialize
  3591 ;;		_PWM3_Initialize
  3592 ;;		_SPI1_Initialize
  3593 ;;		_TMR0_Initialize
  3594 ;;		_TMR1_Initialize
  3595 ;;		_TMR2_Initialize
  3596 ;;		_WDT_Initialize
  3597 ;; This function is called by:
  3598 ;;		_main
  3599 ;; This function uses a non-reentrant model
  3600 ;;
  3601                           
  3602  0386                     _SYSTEM_Initialize:	
  3603                           ;psect for function _SYSTEM_Initialize
  3604                           
  3605  0386                     l2429:	
  3606                           ;incstack = 0
  3607                           ; Regs used in _SYSTEM_Initialize: [wreg+status,2+status,0+pclath+cstack]
  3608                           
  3609                           
  3610                           ;mcc_generated_files/mcc.c: 53:     SPI1_Initialize();
  3611  0386  3184  24FA  3183   	fcall	_SPI1_Initialize
  3612                           
  3613                           ;mcc_generated_files/mcc.c: 54:     PIN_MANAGER_Initialize();
  3614  0389  3182  22D4  3183   	fcall	_PIN_MANAGER_Initialize
  3615                           
  3616                           ;mcc_generated_files/mcc.c: 55:     OSCILLATOR_Initialize();
  3617  038C  3185  2528  3183   	fcall	_OSCILLATOR_Initialize
  3618                           
  3619                           ;mcc_generated_files/mcc.c: 56:     WDT_Initialize();
  3620  038F  3185  256F  3183   	fcall	_WDT_Initialize
  3621                           
  3622                           ;mcc_generated_files/mcc.c: 57:     CMP2_Initialize();
  3623  0392  3184  24E2  3183   	fcall	_CMP2_Initialize
  3624                           
  3625                           ;mcc_generated_files/mcc.c: 58:     FVR_Initialize();
  3626  0395  3185  2573  3183   	fcall	_FVR_Initialize
  3627                           
  3628                           ;mcc_generated_files/mcc.c: 59:     TMR2_Initialize();
  3629  0398  3185  2518  3183   	fcall	_TMR2_Initialize
  3630                           
  3631                           ;mcc_generated_files/mcc.c: 60:     TMR0_Initialize();
  3632  039B  3184  243B  3183   	fcall	_TMR0_Initialize
  3633                           
  3634                           ;mcc_generated_files/mcc.c: 61:     CMP1_Initialize();
  3635  039E  3184  24EE  3183   	fcall	_CMP1_Initialize
  3636                           
  3637                           ;mcc_generated_files/mcc.c: 62:     ADC_Initialize();
  3638  03A1  3185  2520  3183   	fcall	_ADC_Initialize
  3639                           
  3640                           ;mcc_generated_files/mcc.c: 63:     PWM3_Initialize();
  3641  03A4  3185  250F  3183   	fcall	_PWM3_Initialize
  3642                           
  3643                           ;mcc_generated_files/mcc.c: 64:     TMR1_Initialize();
  3644  03A7  3183  23F3  3183   	fcall	_TMR1_Initialize
  3645                           
  3646                           ;mcc_generated_files/mcc.c: 65:     EUSART_Initialize();
  3647  03AA  3183  23AE  3183   	fcall	_EUSART_Initialize
  3648  03AD                     l191:
  3649  03AD  0008               	return
  3650  03AE                     __end_of_SYSTEM_Initialize:
  3651                           
  3652                           	psect	text5
  3653  056F                     __ptext5:	
  3654 ;; *************** function _WDT_Initialize *****************
  3655 ;; Defined at:
  3656 ;;		line 78 in file "mcc_generated_files/mcc.c"
  3657 ;; Parameters:    Size  Location     Type
  3658 ;;		None
  3659 ;; Auto vars:     Size  Location     Type
  3660 ;;		None
  3661 ;; Return value:  Size  Location     Type
  3662 ;;                  1    wreg      void 
  3663 ;; Registers used:
  3664 ;;		wreg
  3665 ;; Tracked objects:
  3666 ;;		On entry : 0/0
  3667 ;;		On exit  : 0/0
  3668 ;;		Unchanged: 0/0
  3669 ;; Data sizes:     COMMON   BANK0   BANK1   BANK2   BANK3   BANK4
  3670 ;;      Params:         0       0       0       0       0       0
  3671 ;;      Locals:         0       0       0       0       0       0
  3672 ;;      Temps:          0       0       0       0       0       0
  3673 ;;      Totals:         0       0       0       0       0       0
  3674 ;;Total ram usage:        0 bytes
  3675 ;; Hardware stack levels used: 1
  3676 ;; Hardware stack levels required when called: 7
  3677 ;; This function calls:
  3678 ;;		Nothing
  3679 ;; This function is called by:
  3680 ;;		_SYSTEM_Initialize
  3681 ;; This function uses a non-reentrant model
  3682 ;;
  3683                           
  3684  056F                     _WDT_Initialize:	
  3685                           ;psect for function _WDT_Initialize
  3686                           
  3687  056F                     l2329:	
  3688                           ;incstack = 0
  3689                           ; Regs used in _WDT_Initialize: [wreg]
  3690                           
  3691                           
  3692                           ;mcc_generated_files/mcc.c: 81:     WDTCON = 0x16;
  3693  056F  3016               	movlw	22
  3694  0570  0021               	movlb	1	; select bank1
  3695  0571  0097               	movwf	23	;volatile
  3696  0572                     l197:
  3697  0572  0008               	return
  3698  0573                     __end_of_WDT_Initialize:
  3699                           
  3700                           	psect	text6
  3701  0518                     __ptext6:	
  3702 ;; *************** function _TMR2_Initialize *****************
  3703 ;; Defined at:
  3704 ;;		line 62 in file "mcc_generated_files/tmr2.c"
  3705 ;; Parameters:    Size  Location     Type
  3706 ;;		None
  3707 ;; Auto vars:     Size  Location     Type
  3708 ;;		None
  3709 ;; Return value:  Size  Location     Type
  3710 ;;                  1    wreg      void 
  3711 ;; Registers used:
  3712 ;;		wreg, status,2
  3713 ;; Tracked objects:
  3714 ;;		On entry : 0/0
  3715 ;;		On exit  : 0/0
  3716 ;;		Unchanged: 0/0
  3717 ;; Data sizes:     COMMON   BANK0   BANK1   BANK2   BANK3   BANK4
  3718 ;;      Params:         0       0       0       0       0       0
  3719 ;;      Locals:         0       0       0       0       0       0
  3720 ;;      Temps:          0       0       0       0       0       0
  3721 ;;      Totals:         0       0       0       0       0       0
  3722 ;;Total ram usage:        0 bytes
  3723 ;; Hardware stack levels used: 1
  3724 ;; Hardware stack levels required when called: 7
  3725 ;; This function calls:
  3726 ;;		Nothing
  3727 ;; This function is called by:
  3728 ;;		_SYSTEM_Initialize
  3729 ;; This function uses a non-reentrant model
  3730 ;;
  3731                           
  3732  0518                     _TMR2_Initialize:	
  3733                           ;psect for function _TMR2_Initialize
  3734                           
  3735  0518                     l2333:	
  3736                           ;incstack = 0
  3737                           ; Regs used in _TMR2_Initialize: [wreg+status,2]
  3738                           
  3739                           
  3740                           ;mcc_generated_files/tmr2.c: 67:     PR2 = 0xFF;
  3741  0518  30FF               	movlw	255
  3742  0519  0020               	movlb	0	; select bank0
  3743  051A  009B               	movwf	27	;volatile
  3744  051B                     l2335:
  3745                           
  3746                           ;mcc_generated_files/tmr2.c: 70:     TMR2 = 0x00;
  3747  051B  019A               	clrf	26	;volatile
  3748  051C                     l2337:
  3749                           
  3750                           ;mcc_generated_files/tmr2.c: 73:     PIR1bits.TMR2IF = 0;
  3751  051C  1091               	bcf	17,1	;volatile
  3752  051D                     l2339:
  3753                           
  3754                           ;mcc_generated_files/tmr2.c: 76:     T2CON = 0x04;
  3755  051D  3004               	movlw	4
  3756  051E  009C               	movwf	28	;volatile
  3757  051F                     l503:
  3758  051F  0008               	return
  3759  0520                     __end_of_TMR2_Initialize:
  3760                           
  3761                           	psect	text7
  3762  03F3                     __ptext7:	
  3763 ;; *************** function _TMR1_Initialize *****************
  3764 ;; Defined at:
  3765 ;;		line 64 in file "mcc_generated_files/tmr1.c"
  3766 ;; Parameters:    Size  Location     Type
  3767 ;;		None
  3768 ;; Auto vars:     Size  Location     Type
  3769 ;;		None
  3770 ;; Return value:  Size  Location     Type
  3771 ;;                  1    wreg      void 
  3772 ;; Registers used:
  3773 ;;		wreg, status,2, status,0, pclath, cstack
  3774 ;; Tracked objects:
  3775 ;;		On entry : 0/0
  3776 ;;		On exit  : 0/0
  3777 ;;		Unchanged: 0/0
  3778 ;; Data sizes:     COMMON   BANK0   BANK1   BANK2   BANK3   BANK4
  3779 ;;      Params:         0       0       0       0       0       0
  3780 ;;      Locals:         0       0       0       0       0       0
  3781 ;;      Temps:          0       0       0       0       0       0
  3782 ;;      Totals:         0       0       0       0       0       0
  3783 ;;Total ram usage:        0 bytes
  3784 ;; Hardware stack levels used: 1
  3785 ;; Hardware stack levels required when called: 8
  3786 ;; This function calls:
  3787 ;;		_TMR1_SetInterruptHandler
  3788 ;; This function is called by:
  3789 ;;		_SYSTEM_Initialize
  3790 ;; This function uses a non-reentrant model
  3791 ;;
  3792                           
  3793  03F3                     _TMR1_Initialize:	
  3794                           ;psect for function _TMR1_Initialize
  3795                           
  3796  03F3                     l2359:	
  3797                           ;incstack = 0
  3798                           ; Regs used in _TMR1_Initialize: [wreg+status,2+status,0+pclath+cstack]
  3799                           
  3800                           
  3801                           ;mcc_generated_files/tmr1.c: 69:     T1GCON = 0x00;
  3802  03F3  0020               	movlb	0	; select bank0
  3803  03F4  0199               	clrf	25	;volatile
  3804  03F5                     l2361:
  3805                           
  3806                           ;mcc_generated_files/tmr1.c: 72:     TMR1H = 0x0B;
  3807  03F5  300B               	movlw	11
  3808  03F6  0097               	movwf	23	;volatile
  3809  03F7                     l2363:
  3810                           
  3811                           ;mcc_generated_files/tmr1.c: 75:     TMR1L = 0xDC;
  3812  03F7  30DC               	movlw	220
  3813  03F8  0096               	movwf	22	;volatile
  3814  03F9                     l2365:
  3815                           
  3816                           ;mcc_generated_files/tmr1.c: 78:     PIR1bits.TMR1IF = 0;
  3817  03F9  1011               	bcf	17,0	;volatile
  3818  03FA                     l2367:
  3819                           
  3820                           ;mcc_generated_files/tmr1.c: 81:     timer1ReloadVal=(uint16_t)((TMR1H << 8) | TMR1L);
  3821  03FA  0817               	movf	23,w	;volatile
  3822  03FB  00A5               	movwf	_timer1ReloadVal+1	;volatile
  3823  03FC  0816               	movf	22,w	;volatile
  3824  03FD  00A4               	movwf	_timer1ReloadVal	;volatile
  3825  03FE                     l2369:
  3826                           
  3827                           ;mcc_generated_files/tmr1.c: 84:     PIE1bits.TMR1IE = 1;
  3828  03FE  0021               	movlb	1	; select bank1
  3829  03FF  1411               	bsf	17,0	;volatile
  3830  0400                     l2371:
  3831                           
  3832                           ;mcc_generated_files/tmr1.c: 87:     TMR1_SetInterruptHandler(TMR1_DefaultInterruptHandl
      +                          er);
  3833  0400  307B               	movlw	low _TMR1_DefaultInterruptHandler
  3834  0401  0020               	movlb	0	; select bank0
  3835  0402  00B1               	movwf	TMR1_SetInterruptHandler@InterruptHandler
  3836  0403  3005               	movlw	high _TMR1_DefaultInterruptHandler
  3837  0404  00B2               	movwf	TMR1_SetInterruptHandler@InterruptHandler+1
  3838  0405  3185  2535  3183   	fcall	_TMR1_SetInterruptHandler
  3839  0408                     l2373:
  3840                           
  3841                           ;mcc_generated_files/tmr1.c: 90:     T1CON = 0x31;
  3842  0408  3031               	movlw	49
  3843  0409  0020               	movlb	0	; select bank0
  3844  040A  0098               	movwf	24	;volatile
  3845  040B                     l454:
  3846  040B  0008               	return
  3847  040C                     __end_of_TMR1_Initialize:
  3848                           
  3849                           	psect	text8
  3850  0535                     __ptext8:	
  3851 ;; *************** function _TMR1_SetInterruptHandler *****************
  3852 ;; Defined at:
  3853 ;;		line 178 in file "mcc_generated_files/tmr1.c"
  3854 ;; Parameters:    Size  Location     Type
  3855 ;;  InterruptHan    2    0[BANK0 ] PTR FTN()void 
  3856 ;;		 -> controleMovimento(1), TMR1_DefaultInterruptHandler(1), 
  3857 ;; Auto vars:     Size  Location     Type
  3858 ;;		None
  3859 ;; Return value:  Size  Location     Type
  3860 ;;                  1    wreg      void 
  3861 ;; Registers used:
  3862 ;;		wreg
  3863 ;; Tracked objects:
  3864 ;;		On entry : 0/0
  3865 ;;		On exit  : 0/0
  3866 ;;		Unchanged: 0/0
  3867 ;; Data sizes:     COMMON   BANK0   BANK1   BANK2   BANK3   BANK4
  3868 ;;      Params:         0       2       0       0       0       0
  3869 ;;      Locals:         0       0       0       0       0       0
  3870 ;;      Temps:          0       0       0       0       0       0
  3871 ;;      Totals:         0       2       0       0       0       0
  3872 ;;Total ram usage:        2 bytes
  3873 ;; Hardware stack levels used: 1
  3874 ;; Hardware stack levels required when called: 7
  3875 ;; This function calls:
  3876 ;;		Nothing
  3877 ;; This function is called by:
  3878 ;;		_TMR1_Initialize
  3879 ;;		_main
  3880 ;; This function uses a non-reentrant model
  3881 ;;
  3882                           
  3883  0535                     _TMR1_SetInterruptHandler:	
  3884                           ;psect for function _TMR1_SetInterruptHandler
  3885                           
  3886  0535                     l2073:	
  3887                           ;incstack = 0
  3888                           ; Regs used in _TMR1_SetInterruptHandler: [wreg]
  3889                           
  3890                           
  3891                           ;mcc_generated_files/tmr1.c: 179:     TMR1_InterruptHandler = InterruptHandler;
  3892  0535  0020               	movlb	0	; select bank0
  3893  0536  0832               	movf	TMR1_SetInterruptHandler@InterruptHandler+1,w
  3894  0537  00A3               	movwf	_TMR1_InterruptHandler+1
  3895  0538  0831               	movf	TMR1_SetInterruptHandler@InterruptHandler,w
  3896  0539  00A2               	movwf	_TMR1_InterruptHandler
  3897  053A                     l487:
  3898  053A  0008               	return
  3899  053B                     __end_of_TMR1_SetInterruptHandler:
  3900                           
  3901                           	psect	text9
  3902  043B                     __ptext9:	
  3903 ;; *************** function _TMR0_Initialize *****************
  3904 ;; Defined at:
  3905 ;;		line 64 in file "mcc_generated_files/tmr0.c"
  3906 ;; Parameters:    Size  Location     Type
  3907 ;;		None
  3908 ;; Auto vars:     Size  Location     Type
  3909 ;;		None
  3910 ;; Return value:  Size  Location     Type
  3911 ;;                  1    wreg      void 
  3912 ;; Registers used:
  3913 ;;		wreg, status,2, status,0, pclath, cstack
  3914 ;; Tracked objects:
  3915 ;;		On entry : 0/0
  3916 ;;		On exit  : 0/0
  3917 ;;		Unchanged: 0/0
  3918 ;; Data sizes:     COMMON   BANK0   BANK1   BANK2   BANK3   BANK4
  3919 ;;      Params:         0       0       0       0       0       0
  3920 ;;      Locals:         0       0       0       0       0       0
  3921 ;;      Temps:          0       1       0       0       0       0
  3922 ;;      Totals:         0       1       0       0       0       0
  3923 ;;Total ram usage:        1 bytes
  3924 ;; Hardware stack levels used: 1
  3925 ;; Hardware stack levels required when called: 8
  3926 ;; This function calls:
  3927 ;;		_TMR0_SetInterruptHandler
  3928 ;; This function is called by:
  3929 ;;		_SYSTEM_Initialize
  3930 ;; This function uses a non-reentrant model
  3931 ;;
  3932                           
  3933  043B                     _TMR0_Initialize:	
  3934                           ;psect for function _TMR0_Initialize
  3935                           
  3936  043B                     l2341:	
  3937                           ;incstack = 0
  3938                           ; Regs used in _TMR0_Initialize: [wreg+status,2+status,0+pclath+cstack]
  3939                           
  3940                           
  3941                           ;mcc_generated_files/tmr0.c: 69:     OPTION_REG = (uint8_t)((OPTION_REG & 0xC0) | (0xD7 
      +                          & 0x3F));
  3942  043B  0021               	movlb	1	; select bank1
  3943  043C  0815               	movf	21,w	;volatile
  3944  043D  39C0               	andlw	192
  3945  043E  3817               	iorlw	23
  3946  043F  0095               	movwf	21	;volatile
  3947  0440                     l2343:
  3948                           
  3949                           ;mcc_generated_files/tmr0.c: 72:     TMR0 = 0x16;
  3950  0440  3016               	movlw	22
  3951  0441  0020               	movlb	0	; select bank0
  3952  0442  0095               	movwf	21	;volatile
  3953  0443                     l2345:
  3954                           
  3955                           ;mcc_generated_files/tmr0.c: 75:     timer0ReloadVal= 22;
  3956  0443  3016               	movlw	22
  3957  0444  00B3               	movwf	??_TMR0_Initialize
  3958  0445  0833               	movf	??_TMR0_Initialize,w
  3959  0446  00B0               	movwf	_timer0ReloadVal	;volatile
  3960  0447                     l2347:
  3961                           
  3962                           ;mcc_generated_files/tmr0.c: 78:     INTCONbits.TMR0IF = 0;
  3963  0447  110B               	bcf	11,2	;volatile
  3964  0448                     l2349:
  3965                           
  3966                           ;mcc_generated_files/tmr0.c: 81:     INTCONbits.TMR0IE = 1;
  3967  0448  168B               	bsf	11,5	;volatile
  3968  0449                     l2351:
  3969                           
  3970                           ;mcc_generated_files/tmr0.c: 84:     TMR0_SetInterruptHandler(TMR0_DefaultInterruptHandl
      +                          er);
  3971  0449  307C               	movlw	low _TMR0_DefaultInterruptHandler
  3972  044A  00B1               	movwf	TMR0_SetInterruptHandler@InterruptHandler
  3973  044B  3005               	movlw	high _TMR0_DefaultInterruptHandler
  3974  044C  00B2               	movwf	TMR0_SetInterruptHandler@InterruptHandler+1
  3975  044D  3185  253B  3184   	fcall	_TMR0_SetInterruptHandler
  3976  0450                     l541:
  3977  0450  0008               	return
  3978  0451                     __end_of_TMR0_Initialize:
  3979                           
  3980                           	psect	text10
  3981  053B                     __ptext10:	
  3982 ;; *************** function _TMR0_SetInterruptHandler *****************
  3983 ;; Defined at:
  3984 ;;		line 140 in file "mcc_generated_files/tmr0.c"
  3985 ;; Parameters:    Size  Location     Type
  3986 ;;  InterruptHan    2    0[BANK0 ] PTR FTN()void 
  3987 ;;		 -> TMR0_DefaultInterruptHandler(1), 
  3988 ;; Auto vars:     Size  Location     Type
  3989 ;;		None
  3990 ;; Return value:  Size  Location     Type
  3991 ;;                  1    wreg      void 
  3992 ;; Registers used:
  3993 ;;		wreg
  3994 ;; Tracked objects:
  3995 ;;		On entry : 0/0
  3996 ;;		On exit  : 0/0
  3997 ;;		Unchanged: 0/0
  3998 ;; Data sizes:     COMMON   BANK0   BANK1   BANK2   BANK3   BANK4
  3999 ;;      Params:         0       2       0       0       0       0
  4000 ;;      Locals:         0       0       0       0       0       0
  4001 ;;      Temps:          0       0       0       0       0       0
  4002 ;;      Totals:         0       2       0       0       0       0
  4003 ;;Total ram usage:        2 bytes
  4004 ;; Hardware stack levels used: 1
  4005 ;; Hardware stack levels required when called: 7
  4006 ;; This function calls:
  4007 ;;		Nothing
  4008 ;; This function is called by:
  4009 ;;		_TMR0_Initialize
  4010 ;; This function uses a non-reentrant model
  4011 ;;
  4012                           
  4013  053B                     _TMR0_SetInterruptHandler:	
  4014                           ;psect for function _TMR0_SetInterruptHandler
  4015                           
  4016  053B                     l2075:	
  4017                           ;incstack = 0
  4018                           ; Regs used in _TMR0_SetInterruptHandler: [wreg]
  4019                           
  4020                           
  4021                           ;mcc_generated_files/tmr0.c: 141:     TMR0_InterruptHandler = InterruptHandler;
  4022  053B  0020               	movlb	0	; select bank0
  4023  053C  0832               	movf	TMR0_SetInterruptHandler@InterruptHandler+1,w
  4024  053D  00A1               	movwf	_TMR0_InterruptHandler+1
  4025  053E  0831               	movf	TMR0_SetInterruptHandler@InterruptHandler,w
  4026  053F  00A0               	movwf	_TMR0_InterruptHandler
  4027  0540                     l563:
  4028  0540  0008               	return
  4029  0541                     __end_of_TMR0_SetInterruptHandler:
  4030                           
  4031                           	psect	text11
  4032  04FA                     __ptext11:	
  4033 ;; *************** function _SPI1_Initialize *****************
  4034 ;; Defined at:
  4035 ;;		line 62 in file "mcc_generated_files/spi1.c"
  4036 ;; Parameters:    Size  Location     Type
  4037 ;;		None
  4038 ;; Auto vars:     Size  Location     Type
  4039 ;;		None
  4040 ;; Return value:  Size  Location     Type
  4041 ;;                  1    wreg      void 
  4042 ;; Registers used:
  4043 ;;		wreg, status,2
  4044 ;; Tracked objects:
  4045 ;;		On entry : 0/0
  4046 ;;		On exit  : 0/0
  4047 ;;		Unchanged: 0/0
  4048 ;; Data sizes:     COMMON   BANK0   BANK1   BANK2   BANK3   BANK4
  4049 ;;      Params:         0       0       0       0       0       0
  4050 ;;      Locals:         0       0       0       0       0       0
  4051 ;;      Temps:          0       0       0       0       0       0
  4052 ;;      Totals:         0       0       0       0       0       0
  4053 ;;Total ram usage:        0 bytes
  4054 ;; Hardware stack levels used: 1
  4055 ;; Hardware stack levels required when called: 7
  4056 ;; This function calls:
  4057 ;;		Nothing
  4058 ;; This function is called by:
  4059 ;;		_SYSTEM_Initialize
  4060 ;; This function uses a non-reentrant model
  4061 ;;
  4062                           
  4063  04FA                     _SPI1_Initialize:	
  4064                           ;psect for function _SPI1_Initialize
  4065                           
  4066  04FA                     l2313:	
  4067                           ;incstack = 0
  4068                           ; Regs used in _SPI1_Initialize: [wreg+status,2]
  4069                           
  4070                           
  4071                           ;mcc_generated_files/spi1.c: 65:     SSP1STAT = 0x40;
  4072  04FA  3040               	movlw	64
  4073  04FB  0024               	movlb	4	; select bank4
  4074  04FC  0094               	movwf	20	;volatile
  4075  04FD                     l2315:
  4076                           
  4077                           ;mcc_generated_files/spi1.c: 66:     SSP1CON1 = 0x00;
  4078  04FD  0195               	clrf	21	;volatile
  4079  04FE                     l2317:
  4080                           
  4081                           ;mcc_generated_files/spi1.c: 67:     SSP1ADD = 0x01;
  4082  04FE  3001               	movlw	1
  4083  04FF  0092               	movwf	18	;volatile
  4084  0500                     l2319:
  4085                           
  4086                           ;mcc_generated_files/spi1.c: 68:     TRISBbits.TRISB4 = 0;
  4087  0500  0021               	movlb	1	; select bank1
  4088  0501  120D               	bcf	13,4	;volatile
  4089  0502                     l2321:
  4090                           
  4091                           ;mcc_generated_files/spi1.c: 69:     SSP1CON1bits.SSPEN = 0;
  4092  0502  0024               	movlb	4	; select bank4
  4093  0503  1295               	bcf	21,5	;volatile
  4094  0504                     l354:
  4095  0504  0008               	return
  4096  0505                     __end_of_SPI1_Initialize:
  4097                           
  4098                           	psect	text12
  4099  050F                     __ptext12:	
  4100 ;; *************** function _PWM3_Initialize *****************
  4101 ;; Defined at:
  4102 ;;		line 64 in file "mcc_generated_files/pwm3.c"
  4103 ;; Parameters:    Size  Location     Type
  4104 ;;		None
  4105 ;; Auto vars:     Size  Location     Type
  4106 ;;		None
  4107 ;; Return value:  Size  Location     Type
  4108 ;;                  1    wreg      void 
  4109 ;; Registers used:
  4110 ;;		wreg, status,2, status,0
  4111 ;; Tracked objects:
  4112 ;;		On entry : 0/0
  4113 ;;		On exit  : 0/0
  4114 ;;		Unchanged: 0/0
  4115 ;; Data sizes:     COMMON   BANK0   BANK1   BANK2   BANK3   BANK4
  4116 ;;      Params:         0       0       0       0       0       0
  4117 ;;      Locals:         0       0       0       0       0       0
  4118 ;;      Temps:          0       0       0       0       0       0
  4119 ;;      Totals:         0       0       0       0       0       0
  4120 ;;Total ram usage:        0 bytes
  4121 ;; Hardware stack levels used: 1
  4122 ;; Hardware stack levels required when called: 7
  4123 ;; This function calls:
  4124 ;;		Nothing
  4125 ;; This function is called by:
  4126 ;;		_SYSTEM_Initialize
  4127 ;; This function uses a non-reentrant model
  4128 ;;
  4129                           
  4130  050F                     _PWM3_Initialize:	
  4131                           ;psect for function _PWM3_Initialize
  4132                           
  4133  050F                     l2175:	
  4134                           ;incstack = 0
  4135                           ; Regs used in _PWM3_Initialize: [wreg+status,2+status,0]
  4136                           
  4137                           
  4138                           ;mcc_generated_files/pwm3.c: 69:  CCP3CON = 0x0C;
  4139  050F  300C               	movlw	12
  4140  0510  0026               	movlb	6	; select bank6
  4141  0511  0093               	movwf	19	;volatile
  4142  0512                     l2177:
  4143                           
  4144                           ;mcc_generated_files/pwm3.c: 72:  CCPR3L = 0x00;
  4145  0512  0191               	clrf	17	;volatile
  4146  0513                     l2179:
  4147                           
  4148                           ;mcc_generated_files/pwm3.c: 75:  CCPR3H = 0x00;
  4149  0513  0192               	clrf	18	;volatile
  4150  0514                     l2181:
  4151                           
  4152                           ;mcc_generated_files/pwm3.c: 78:  CCPTMRS0bits.C3TSEL = 0x0;
  4153  0514  30CF               	movlw	-49
  4154  0515  0025               	movlb	5	; select bank5
  4155  0516  059E               	andwf	30,f	;volatile
  4156  0517                     l11:
  4157  0517  0008               	return
  4158  0518                     __end_of_PWM3_Initialize:
  4159                           
  4160                           	psect	text13
  4161  02D4                     __ptext13:	
  4162 ;; *************** function _PIN_MANAGER_Initialize *****************
  4163 ;; Defined at:
  4164 ;;		line 58 in file "mcc_generated_files/pin_manager.c"
  4165 ;; Parameters:    Size  Location     Type
  4166 ;;		None
  4167 ;; Auto vars:     Size  Location     Type
  4168 ;;		None
  4169 ;; Return value:  Size  Location     Type
  4170 ;;                  1    wreg      void 
  4171 ;; Registers used:
  4172 ;;		wreg, status,2, status,0, pclath, cstack
  4173 ;; Tracked objects:
  4174 ;;		On entry : 0/0
  4175 ;;		On exit  : 0/0
  4176 ;;		Unchanged: 0/0
  4177 ;; Data sizes:     COMMON   BANK0   BANK1   BANK2   BANK3   BANK4
  4178 ;;      Params:         0       0       0       0       0       0
  4179 ;;      Locals:         0       0       0       0       0       0
  4180 ;;      Temps:          0       0       0       0       0       0
  4181 ;;      Totals:         0       0       0       0       0       0
  4182 ;;Total ram usage:        0 bytes
  4183 ;; Hardware stack levels used: 1
  4184 ;; Hardware stack levels required when called: 8
  4185 ;; This function calls:
  4186 ;;		_IOCBF0_SetInterruptHandler
  4187 ;;		_IOCBF3_SetInterruptHandler
  4188 ;; This function is called by:
  4189 ;;		_SYSTEM_Initialize
  4190 ;; This function uses a non-reentrant model
  4191 ;;
  4192                           
  4193  02D4                     _PIN_MANAGER_Initialize:	
  4194                           ;psect for function _PIN_MANAGER_Initialize
  4195                           
  4196  02D4                     l2267:	
  4197                           ;incstack = 0
  4198                           ; Regs used in _PIN_MANAGER_Initialize: [wreg+status,2+status,0+pclath+cstack]
  4199                           
  4200                           
  4201                           ;mcc_generated_files/pin_manager.c: 63:     LATA = 0x00;
  4202  02D4  0022               	movlb	2	; select bank2
  4203  02D5  018C               	clrf	12	;volatile
  4204                           
  4205                           ;mcc_generated_files/pin_manager.c: 64:     LATB = 0x00;
  4206  02D6  018D               	clrf	13	;volatile
  4207  02D7                     l2269:
  4208                           
  4209                           ;mcc_generated_files/pin_manager.c: 69:     TRISA = 0x37;
  4210  02D7  3037               	movlw	55
  4211  02D8  0021               	movlb	1	; select bank1
  4212  02D9  008C               	movwf	12	;volatile
  4213  02DA                     l2271:
  4214                           
  4215                           ;mcc_generated_files/pin_manager.c: 70:     TRISB = 0xED;
  4216  02DA  30ED               	movlw	237
  4217  02DB  008D               	movwf	13	;volatile
  4218  02DC                     l2273:
  4219                           
  4220                           ;mcc_generated_files/pin_manager.c: 75:     ANSELB = 0xC0;
  4221  02DC  30C0               	movlw	192
  4222  02DD  0023               	movlb	3	; select bank3
  4223  02DE  008D               	movwf	13	;volatile
  4224  02DF                     l2275:
  4225                           
  4226                           ;mcc_generated_files/pin_manager.c: 76:     ANSELA = 0x0F;
  4227  02DF  300F               	movlw	15
  4228  02E0  008C               	movwf	12	;volatile
  4229  02E1                     l2277:
  4230                           
  4231                           ;mcc_generated_files/pin_manager.c: 81:     WPUB = 0x09;
  4232  02E1  3009               	movlw	9
  4233  02E2  0024               	movlb	4	; select bank4
  4234  02E3  008D               	movwf	13	;volatile
  4235  02E4                     l2279:
  4236                           
  4237                           ;mcc_generated_files/pin_manager.c: 82:     WPUA = 0x00;
  4238  02E4  018C               	clrf	12	;volatile
  4239  02E5                     l2281:
  4240                           
  4241                           ;mcc_generated_files/pin_manager.c: 83:     OPTION_REGbits.nWPUEN = 0;
  4242  02E5  0021               	movlb	1	; select bank1
  4243  02E6  1395               	bcf	21,7	;volatile
  4244                           
  4245                           ;mcc_generated_files/pin_manager.c: 89:     APFCON0 = 0xC0;
  4246  02E7  30C0               	movlw	192
  4247  02E8  0022               	movlb	2	; select bank2
  4248  02E9  009D               	movwf	29	;volatile
  4249                           
  4250                           ;mcc_generated_files/pin_manager.c: 90:     APFCON1 = 0x01;
  4251  02EA  3001               	movlw	1
  4252  02EB  009E               	movwf	30	;volatile
  4253  02EC                     l2283:
  4254                           
  4255                           ;mcc_generated_files/pin_manager.c: 96:     IOCBFbits.IOCBF0 = 0;
  4256  02EC  0027               	movlb	7	; select bank7
  4257  02ED  1016               	bcf	22,0	;volatile
  4258  02EE                     l2285:
  4259                           
  4260                           ;mcc_generated_files/pin_manager.c: 98:     IOCBFbits.IOCBF3 = 0;
  4261  02EE  1196               	bcf	22,3	;volatile
  4262  02EF                     l2287:
  4263                           
  4264                           ;mcc_generated_files/pin_manager.c: 100:     IOCBNbits.IOCBN0 = 1;
  4265  02EF  1415               	bsf	21,0	;volatile
  4266  02F0                     l2289:
  4267                           
  4268                           ;mcc_generated_files/pin_manager.c: 102:     IOCBNbits.IOCBN3 = 1;
  4269  02F0  1595               	bsf	21,3	;volatile
  4270  02F1                     l2291:
  4271                           
  4272                           ;mcc_generated_files/pin_manager.c: 104:     IOCBPbits.IOCBP0 = 0;
  4273  02F1  1014               	bcf	20,0	;volatile
  4274  02F2                     l2293:
  4275                           
  4276                           ;mcc_generated_files/pin_manager.c: 106:     IOCBPbits.IOCBP3 = 0;
  4277  02F2  1194               	bcf	20,3	;volatile
  4278  02F3                     l2295:
  4279                           
  4280                           ;mcc_generated_files/pin_manager.c: 111:     IOCBF0_SetInterruptHandler(IOCBF0_DefaultIn
      +                          terruptHandler);
  4281  02F3  307E               	movlw	low _IOCBF0_DefaultInterruptHandler
  4282  02F4  0020               	movlb	0	; select bank0
  4283  02F5  00B1               	movwf	IOCBF0_SetInterruptHandler@InterruptHandler
  4284  02F6  3005               	movlw	high _IOCBF0_DefaultInterruptHandler
  4285  02F7  00B2               	movwf	IOCBF0_SetInterruptHandler@InterruptHandler+1
  4286  02F8  3185  2547  3182   	fcall	_IOCBF0_SetInterruptHandler
  4287  02FB                     l2297:
  4288                           
  4289                           ;mcc_generated_files/pin_manager.c: 112:     IOCBF3_SetInterruptHandler(IOCBF3_DefaultIn
      +                          terruptHandler);
  4290  02FB  307D               	movlw	low _IOCBF3_DefaultInterruptHandler
  4291  02FC  0020               	movlb	0	; select bank0
  4292  02FD  00B1               	movwf	IOCBF3_SetInterruptHandler@InterruptHandler
  4293  02FE  3005               	movlw	high _IOCBF3_DefaultInterruptHandler
  4294  02FF  00B2               	movwf	IOCBF3_SetInterruptHandler@InterruptHandler+1
  4295  0300  3185  2541  3182   	fcall	_IOCBF3_SetInterruptHandler
  4296  0303                     l2299:
  4297                           
  4298                           ;mcc_generated_files/pin_manager.c: 115:     INTCONbits.IOCIE = 1;
  4299  0303  158B               	bsf	11,3	;volatile
  4300  0304                     l129:
  4301  0304  0008               	return
  4302  0305                     __end_of_PIN_MANAGER_Initialize:
  4303                           
  4304                           	psect	text14
  4305  0541                     __ptext14:	
  4306 ;; *************** function _IOCBF3_SetInterruptHandler *****************
  4307 ;; Defined at:
  4308 ;;		line 181 in file "mcc_generated_files/pin_manager.c"
  4309 ;; Parameters:    Size  Location     Type
  4310 ;;  InterruptHan    2    0[BANK0 ] PTR FTN()void 
  4311 ;;		 -> chegadaS2(1), chegadaS1(1), IOCBF3_DefaultInterruptHandler(1), 
  4312 ;; Auto vars:     Size  Location     Type
  4313 ;;		None
  4314 ;; Return value:  Size  Location     Type
  4315 ;;                  1    wreg      void 
  4316 ;; Registers used:
  4317 ;;		wreg
  4318 ;; Tracked objects:
  4319 ;;		On entry : 0/0
  4320 ;;		On exit  : 0/0
  4321 ;;		Unchanged: 0/0
  4322 ;; Data sizes:     COMMON   BANK0   BANK1   BANK2   BANK3   BANK4
  4323 ;;      Params:         0       2       0       0       0       0
  4324 ;;      Locals:         0       0       0       0       0       0
  4325 ;;      Temps:          0       0       0       0       0       0
  4326 ;;      Totals:         0       2       0       0       0       0
  4327 ;;Total ram usage:        2 bytes
  4328 ;; Hardware stack levels used: 1
  4329 ;; Hardware stack levels required when called: 7
  4330 ;; This function calls:
  4331 ;;		Nothing
  4332 ;; This function is called by:
  4333 ;;		_PIN_MANAGER_Initialize
  4334 ;;		_main
  4335 ;; This function uses a non-reentrant model
  4336 ;;
  4337                           
  4338  0541                     _IOCBF3_SetInterruptHandler:	
  4339                           ;psect for function _IOCBF3_SetInterruptHandler
  4340                           
  4341  0541                     l2055:	
  4342                           ;incstack = 0
  4343                           ; Regs used in _IOCBF3_SetInterruptHandler: [wreg]
  4344                           
  4345                           
  4346                           ;mcc_generated_files/pin_manager.c: 182:     IOCBF3_InterruptHandler = InterruptHandler;
  4347  0541  0020               	movlb	0	; select bank0
  4348  0542  0832               	movf	IOCBF3_SetInterruptHandler@InterruptHandler+1,w
  4349  0543  00AD               	movwf	_IOCBF3_InterruptHandler+1
  4350  0544  0831               	movf	IOCBF3_SetInterruptHandler@InterruptHandler,w
  4351  0545  00AC               	movwf	_IOCBF3_InterruptHandler
  4352  0546                     l151:
  4353  0546  0008               	return
  4354  0547                     __end_of_IOCBF3_SetInterruptHandler:
  4355                           
  4356                           	psect	text15
  4357  0547                     __ptext15:	
  4358 ;; *************** function _IOCBF0_SetInterruptHandler *****************
  4359 ;; Defined at:
  4360 ;;		line 151 in file "mcc_generated_files/pin_manager.c"
  4361 ;; Parameters:    Size  Location     Type
  4362 ;;  InterruptHan    2    0[BANK0 ] PTR FTN()void 
  4363 ;;		 -> IOCBF0_DefaultInterruptHandler(1), 
  4364 ;; Auto vars:     Size  Location     Type
  4365 ;;		None
  4366 ;; Return value:  Size  Location     Type
  4367 ;;                  1    wreg      void 
  4368 ;; Registers used:
  4369 ;;		wreg
  4370 ;; Tracked objects:
  4371 ;;		On entry : 0/0
  4372 ;;		On exit  : 0/0
  4373 ;;		Unchanged: 0/0
  4374 ;; Data sizes:     COMMON   BANK0   BANK1   BANK2   BANK3   BANK4
  4375 ;;      Params:         0       2       0       0       0       0
  4376 ;;      Locals:         0       0       0       0       0       0
  4377 ;;      Temps:          0       0       0       0       0       0
  4378 ;;      Totals:         0       2       0       0       0       0
  4379 ;;Total ram usage:        2 bytes
  4380 ;; Hardware stack levels used: 1
  4381 ;; Hardware stack levels required when called: 7
  4382 ;; This function calls:
  4383 ;;		Nothing
  4384 ;; This function is called by:
  4385 ;;		_PIN_MANAGER_Initialize
  4386 ;; This function uses a non-reentrant model
  4387 ;;
  4388                           
  4389  0547                     _IOCBF0_SetInterruptHandler:	
  4390                           ;psect for function _IOCBF0_SetInterruptHandler
  4391                           
  4392  0547                     l2053:	
  4393                           ;incstack = 0
  4394                           ; Regs used in _IOCBF0_SetInterruptHandler: [wreg]
  4395                           
  4396                           
  4397                           ;mcc_generated_files/pin_manager.c: 152:     IOCBF0_InterruptHandler = InterruptHandler;
  4398  0547  0020               	movlb	0	; select bank0
  4399  0548  0832               	movf	IOCBF0_SetInterruptHandler@InterruptHandler+1,w
  4400  0549  00AF               	movwf	_IOCBF0_InterruptHandler+1
  4401  054A  0831               	movf	IOCBF0_SetInterruptHandler@InterruptHandler,w
  4402  054B  00AE               	movwf	_IOCBF0_InterruptHandler
  4403  054C                     l141:
  4404  054C  0008               	return
  4405  054D                     __end_of_IOCBF0_SetInterruptHandler:
  4406                           
  4407                           	psect	text16
  4408  0528                     __ptext16:	
  4409 ;; *************** function _OSCILLATOR_Initialize *****************
  4410 ;; Defined at:
  4411 ;;		line 68 in file "mcc_generated_files/mcc.c"
  4412 ;; Parameters:    Size  Location     Type
  4413 ;;		None
  4414 ;; Auto vars:     Size  Location     Type
  4415 ;;		None
  4416 ;; Return value:  Size  Location     Type
  4417 ;;                  1    wreg      void 
  4418 ;; Registers used:
  4419 ;;		wreg, status,2
  4420 ;; Tracked objects:
  4421 ;;		On entry : 0/0
  4422 ;;		On exit  : 0/0
  4423 ;;		Unchanged: 0/0
  4424 ;; Data sizes:     COMMON   BANK0   BANK1   BANK2   BANK3   BANK4
  4425 ;;      Params:         0       0       0       0       0       0
  4426 ;;      Locals:         0       0       0       0       0       0
  4427 ;;      Temps:          0       0       0       0       0       0
  4428 ;;      Totals:         0       0       0       0       0       0
  4429 ;;Total ram usage:        0 bytes
  4430 ;; Hardware stack levels used: 1
  4431 ;; Hardware stack levels required when called: 7
  4432 ;; This function calls:
  4433 ;;		Nothing
  4434 ;; This function is called by:
  4435 ;;		_SYSTEM_Initialize
  4436 ;; This function uses a non-reentrant model
  4437 ;;
  4438                           
  4439  0528                     _OSCILLATOR_Initialize:	
  4440                           ;psect for function _OSCILLATOR_Initialize
  4441                           
  4442  0528                     l2323:	
  4443                           ;incstack = 0
  4444                           ; Regs used in _OSCILLATOR_Initialize: [wreg+status,2]
  4445                           
  4446                           
  4447                           ;mcc_generated_files/mcc.c: 71:     OSCCON = 0x68;
  4448  0528  3068               	movlw	104
  4449  0529  0021               	movlb	1	; select bank1
  4450  052A  0099               	movwf	25	;volatile
  4451  052B                     l2325:
  4452                           
  4453                           ;mcc_generated_files/mcc.c: 73:     OSCTUNE = 0x00;
  4454  052B  0198               	clrf	24	;volatile
  4455  052C                     l2327:
  4456                           
  4457                           ;mcc_generated_files/mcc.c: 75:     BORCON = 0x00;
  4458  052C  0022               	movlb	2	; select bank2
  4459  052D  0196               	clrf	22	;volatile
  4460  052E                     l194:
  4461  052E  0008               	return
  4462  052F                     __end_of_OSCILLATOR_Initialize:
  4463                           
  4464                           	psect	text17
  4465  0573                     __ptext17:	
  4466 ;; *************** function _FVR_Initialize *****************
  4467 ;; Defined at:
  4468 ;;		line 58 in file "mcc_generated_files/fvr.c"
  4469 ;; Parameters:    Size  Location     Type
  4470 ;;		None
  4471 ;; Auto vars:     Size  Location     Type
  4472 ;;		None
  4473 ;; Return value:  Size  Location     Type
  4474 ;;                  1    wreg      void 
  4475 ;; Registers used:
  4476 ;;		wreg
  4477 ;; Tracked objects:
  4478 ;;		On entry : 0/0
  4479 ;;		On exit  : 0/0
  4480 ;;		Unchanged: 0/0
  4481 ;; Data sizes:     COMMON   BANK0   BANK1   BANK2   BANK3   BANK4
  4482 ;;      Params:         0       0       0       0       0       0
  4483 ;;      Locals:         0       0       0       0       0       0
  4484 ;;      Temps:          0       0       0       0       0       0
  4485 ;;      Totals:         0       0       0       0       0       0
  4486 ;;Total ram usage:        0 bytes
  4487 ;; Hardware stack levels used: 1
  4488 ;; Hardware stack levels required when called: 7
  4489 ;; This function calls:
  4490 ;;		Nothing
  4491 ;; This function is called by:
  4492 ;;		_SYSTEM_Initialize
  4493 ;; This function uses a non-reentrant model
  4494 ;;
  4495                           
  4496  0573                     _FVR_Initialize:	
  4497                           ;psect for function _FVR_Initialize
  4498                           
  4499  0573                     l2331:	
  4500                           ;incstack = 0
  4501                           ; Regs used in _FVR_Initialize: [wreg]
  4502                           
  4503                           
  4504                           ;mcc_generated_files/fvr.c: 61:     FVRCON = 0x89;
  4505  0573  3089               	movlw	137
  4506  0574  0022               	movlb	2	; select bank2
  4507  0575  0097               	movwf	23	;volatile
  4508  0576                     l242:
  4509  0576  0008               	return
  4510  0577                     __end_of_FVR_Initialize:
  4511                           
  4512                           	psect	text18
  4513  03AE                     __ptext18:	
  4514 ;; *************** function _EUSART_Initialize *****************
  4515 ;; Defined at:
  4516 ;;		line 66 in file "mcc_generated_files/eusart.c"
  4517 ;; Parameters:    Size  Location     Type
  4518 ;;		None
  4519 ;; Auto vars:     Size  Location     Type
  4520 ;;		None
  4521 ;; Return value:  Size  Location     Type
  4522 ;;                  1    wreg      void 
  4523 ;; Registers used:
  4524 ;;		wreg, status,2, status,0, pclath, cstack
  4525 ;; Tracked objects:
  4526 ;;		On entry : 0/0
  4527 ;;		On exit  : 0/0
  4528 ;;		Unchanged: 0/0
  4529 ;; Data sizes:     COMMON   BANK0   BANK1   BANK2   BANK3   BANK4
  4530 ;;      Params:         0       0       0       0       0       0
  4531 ;;      Locals:         0       0       0       0       0       0
  4532 ;;      Temps:          0       0       0       0       0       0
  4533 ;;      Totals:         0       0       0       0       0       0
  4534 ;;Total ram usage:        0 bytes
  4535 ;; Hardware stack levels used: 1
  4536 ;; Hardware stack levels required when called: 8
  4537 ;; This function calls:
  4538 ;;		_EUSART_SetErrorHandler
  4539 ;;		_EUSART_SetFramingErrorHandler
  4540 ;;		_EUSART_SetOverrunErrorHandler
  4541 ;; This function is called by:
  4542 ;;		_SYSTEM_Initialize
  4543 ;; This function uses a non-reentrant model
  4544 ;;
  4545                           
  4546  03AE                     _EUSART_Initialize:	
  4547                           ;psect for function _EUSART_Initialize
  4548                           
  4549  03AE                     l2375:	
  4550                           ;incstack = 0
  4551                           ; Regs used in _EUSART_Initialize: [wreg+status,2+status,0+pclath+cstack]
  4552                           
  4553                           
  4554                           ;mcc_generated_files/eusart.c: 71:     BAUDCON = 0x08;
  4555  03AE  3008               	movlw	8
  4556  03AF  0023               	movlb	3	; select bank3
  4557  03B0  009F               	movwf	31	;volatile
  4558                           
  4559                           ;mcc_generated_files/eusart.c: 74:     RCSTA = 0x90;
  4560  03B1  3090               	movlw	144
  4561  03B2  009D               	movwf	29	;volatile
  4562                           
  4563                           ;mcc_generated_files/eusart.c: 77:     TXSTA = 0x24;
  4564  03B3  3024               	movlw	36
  4565  03B4  009E               	movwf	30	;volatile
  4566                           
  4567                           ;mcc_generated_files/eusart.c: 80:     SPBRGL = 0x33;
  4568  03B5  3033               	movlw	51
  4569  03B6  009B               	movwf	27	;volatile
  4570  03B7                     l2377:
  4571                           
  4572                           ;mcc_generated_files/eusart.c: 83:     SPBRGH = 0x00;
  4573  03B7  019C               	clrf	28	;volatile
  4574  03B8                     l2379:
  4575                           
  4576                           ;mcc_generated_files/eusart.c: 86:     EUSART_SetFramingErrorHandler(EUSART_DefaultFrami
      +                          ngErrorHandler);
  4577  03B8  3000               	movlw	0
  4578  03B9  0020               	movlb	0	; select bank0
  4579  03BA  00B1               	movwf	EUSART_SetFramingErrorHandler@interruptHandler
  4580  03BB  3000               	movlw	0
  4581  03BC  00B2               	movwf	EUSART_SetFramingErrorHandler@interruptHandler+1
  4582  03BD  3185  2553  3183   	fcall	_EUSART_SetFramingErrorHandler
  4583  03C0                     l2381:
  4584                           
  4585                           ;mcc_generated_files/eusart.c: 87:     EUSART_SetOverrunErrorHandler(EUSART_DefaultOverr
      +                          unErrorHandler);
  4586  03C0  3000               	movlw	0
  4587  03C1  0020               	movlb	0	; select bank0
  4588  03C2  00B1               	movwf	EUSART_SetOverrunErrorHandler@interruptHandler
  4589  03C3  3000               	movlw	0
  4590  03C4  00B2               	movwf	EUSART_SetOverrunErrorHandler@interruptHandler+1
  4591  03C5  3185  254D  3183   	fcall	_EUSART_SetOverrunErrorHandler
  4592  03C8                     l2383:
  4593                           
  4594                           ;mcc_generated_files/eusart.c: 88:     EUSART_SetErrorHandler(EUSART_DefaultErrorHandler
      +                          );
  4595  03C8  3000               	movlw	0
  4596  03C9  0020               	movlb	0	; select bank0
  4597  03CA  00B1               	movwf	EUSART_SetErrorHandler@interruptHandler
  4598  03CB  3000               	movlw	0
  4599  03CC  00B2               	movwf	EUSART_SetErrorHandler@interruptHandler+1
  4600  03CD  3185  2559  3183   	fcall	_EUSART_SetErrorHandler
  4601  03D0                     l2385:
  4602                           
  4603                           ;mcc_generated_files/eusart.c: 90:     eusartRxLastError.status = 0;
  4604  03D0  0020               	movlb	0	; select bank0
  4605  03D1  01CF               	clrf	_eusartRxLastError	;volatile
  4606  03D2                     l288:
  4607  03D2  0008               	return
  4608  03D3                     __end_of_EUSART_Initialize:
  4609                           
  4610                           	psect	text19
  4611  054D                     __ptext19:	
  4612 ;; *************** function _EUSART_SetOverrunErrorHandler *****************
  4613 ;; Defined at:
  4614 ;;		line 161 in file "mcc_generated_files/eusart.c"
  4615 ;; Parameters:    Size  Location     Type
  4616 ;;  interruptHan    2    0[BANK0 ] PTR FTN()void 
  4617 ;;		 -> EUSART_DefaultOverrunErrorHandler(1), 
  4618 ;; Auto vars:     Size  Location     Type
  4619 ;;		None
  4620 ;; Return value:  Size  Location     Type
  4621 ;;                  1    wreg      void 
  4622 ;; Registers used:
  4623 ;;		wreg
  4624 ;; Tracked objects:
  4625 ;;		On entry : 0/0
  4626 ;;		On exit  : 0/0
  4627 ;;		Unchanged: 0/0
  4628 ;; Data sizes:     COMMON   BANK0   BANK1   BANK2   BANK3   BANK4
  4629 ;;      Params:         0       2       0       0       0       0
  4630 ;;      Locals:         0       0       0       0       0       0
  4631 ;;      Temps:          0       0       0       0       0       0
  4632 ;;      Totals:         0       2       0       0       0       0
  4633 ;;Total ram usage:        2 bytes
  4634 ;; Hardware stack levels used: 1
  4635 ;; Hardware stack levels required when called: 7
  4636 ;; This function calls:
  4637 ;;		Nothing
  4638 ;; This function is called by:
  4639 ;;		_EUSART_Initialize
  4640 ;; This function uses a non-reentrant model
  4641 ;;
  4642                           
  4643  054D                     _EUSART_SetOverrunErrorHandler:	
  4644                           ;psect for function _EUSART_SetOverrunErrorHandler
  4645                           
  4646  054D                     l2059:	
  4647                           ;incstack = 0
  4648                           ; Regs used in _EUSART_SetOverrunErrorHandler: [wreg]
  4649                           
  4650                           
  4651                           ;mcc_generated_files/eusart.c: 162:     EUSART_OverrunErrorHandler = interruptHandler;
  4652  054D  0020               	movlb	0	; select bank0
  4653  054E  0832               	movf	EUSART_SetOverrunErrorHandler@interruptHandler+1,w
  4654  054F  00A9               	movwf	_EUSART_OverrunErrorHandler+1
  4655  0550  0831               	movf	EUSART_SetOverrunErrorHandler@interruptHandler,w
  4656  0551  00A8               	movwf	_EUSART_OverrunErrorHandler
  4657  0552                     l330:
  4658  0552  0008               	return
  4659  0553                     __end_of_EUSART_SetOverrunErrorHandler:
  4660                           
  4661                           	psect	text20
  4662  0553                     __ptext20:	
  4663 ;; *************** function _EUSART_SetFramingErrorHandler *****************
  4664 ;; Defined at:
  4665 ;;		line 157 in file "mcc_generated_files/eusart.c"
  4666 ;; Parameters:    Size  Location     Type
  4667 ;;  interruptHan    2    0[BANK0 ] PTR FTN()void 
  4668 ;;		 -> EUSART_DefaultFramingErrorHandler(1), 
  4669 ;; Auto vars:     Size  Location     Type
  4670 ;;		None
  4671 ;; Return value:  Size  Location     Type
  4672 ;;                  1    wreg      void 
  4673 ;; Registers used:
  4674 ;;		wreg
  4675 ;; Tracked objects:
  4676 ;;		On entry : 0/0
  4677 ;;		On exit  : 0/0
  4678 ;;		Unchanged: 0/0
  4679 ;; Data sizes:     COMMON   BANK0   BANK1   BANK2   BANK3   BANK4
  4680 ;;      Params:         0       2       0       0       0       0
  4681 ;;      Locals:         0       0       0       0       0       0
  4682 ;;      Temps:          0       0       0       0       0       0
  4683 ;;      Totals:         0       2       0       0       0       0
  4684 ;;Total ram usage:        2 bytes
  4685 ;; Hardware stack levels used: 1
  4686 ;; Hardware stack levels required when called: 7
  4687 ;; This function calls:
  4688 ;;		Nothing
  4689 ;; This function is called by:
  4690 ;;		_EUSART_Initialize
  4691 ;; This function uses a non-reentrant model
  4692 ;;
  4693                           
  4694  0553                     _EUSART_SetFramingErrorHandler:	
  4695                           ;psect for function _EUSART_SetFramingErrorHandler
  4696                           
  4697  0553                     l2057:	
  4698                           ;incstack = 0
  4699                           ; Regs used in _EUSART_SetFramingErrorHandler: [wreg]
  4700                           
  4701                           
  4702                           ;mcc_generated_files/eusart.c: 158:     EUSART_FramingErrorHandler = interruptHandler;
  4703  0553  0020               	movlb	0	; select bank0
  4704  0554  0832               	movf	EUSART_SetFramingErrorHandler@interruptHandler+1,w
  4705  0555  00AB               	movwf	_EUSART_FramingErrorHandler+1
  4706  0556  0831               	movf	EUSART_SetFramingErrorHandler@interruptHandler,w
  4707  0557  00AA               	movwf	_EUSART_FramingErrorHandler
  4708  0558                     l327:
  4709  0558  0008               	return
  4710  0559                     __end_of_EUSART_SetFramingErrorHandler:
  4711                           
  4712                           	psect	text21
  4713  0559                     __ptext21:	
  4714 ;; *************** function _EUSART_SetErrorHandler *****************
  4715 ;; Defined at:
  4716 ;;		line 165 in file "mcc_generated_files/eusart.c"
  4717 ;; Parameters:    Size  Location     Type
  4718 ;;  interruptHan    2    0[BANK0 ] PTR FTN()void 
  4719 ;;		 -> EUSART_DefaultErrorHandler(1), 
  4720 ;; Auto vars:     Size  Location     Type
  4721 ;;		None
  4722 ;; Return value:  Size  Location     Type
  4723 ;;                  1    wreg      void 
  4724 ;; Registers used:
  4725 ;;		wreg
  4726 ;; Tracked objects:
  4727 ;;		On entry : 0/0
  4728 ;;		On exit  : 0/0
  4729 ;;		Unchanged: 0/0
  4730 ;; Data sizes:     COMMON   BANK0   BANK1   BANK2   BANK3   BANK4
  4731 ;;      Params:         0       2       0       0       0       0
  4732 ;;      Locals:         0       0       0       0       0       0
  4733 ;;      Temps:          0       0       0       0       0       0
  4734 ;;      Totals:         0       2       0       0       0       0
  4735 ;;Total ram usage:        2 bytes
  4736 ;; Hardware stack levels used: 1
  4737 ;; Hardware stack levels required when called: 7
  4738 ;; This function calls:
  4739 ;;		Nothing
  4740 ;; This function is called by:
  4741 ;;		_EUSART_Initialize
  4742 ;; This function uses a non-reentrant model
  4743 ;;
  4744                           
  4745  0559                     _EUSART_SetErrorHandler:	
  4746                           ;psect for function _EUSART_SetErrorHandler
  4747                           
  4748  0559                     l2061:	
  4749                           ;incstack = 0
  4750                           ; Regs used in _EUSART_SetErrorHandler: [wreg]
  4751                           
  4752                           
  4753                           ;mcc_generated_files/eusart.c: 166:     EUSART_ErrorHandler = interruptHandler;
  4754  0559  0020               	movlb	0	; select bank0
  4755  055A  0832               	movf	EUSART_SetErrorHandler@interruptHandler+1,w
  4756  055B  00A7               	movwf	_EUSART_ErrorHandler+1
  4757  055C  0831               	movf	EUSART_SetErrorHandler@interruptHandler,w
  4758  055D  00A6               	movwf	_EUSART_ErrorHandler
  4759  055E                     l333:
  4760  055E  0008               	return
  4761  055F                     __end_of_EUSART_SetErrorHandler:
  4762                           
  4763                           	psect	text22
  4764  04E2                     __ptext22:	
  4765 ;; *************** function _CMP2_Initialize *****************
  4766 ;; Defined at:
  4767 ;;		line 59 in file "mcc_generated_files/cmp2.c"
  4768 ;; Parameters:    Size  Location     Type
  4769 ;;		None
  4770 ;; Auto vars:     Size  Location     Type
  4771 ;;		None
  4772 ;; Return value:  Size  Location     Type
  4773 ;;                  1    wreg      void 
  4774 ;; Registers used:
  4775 ;;		wreg
  4776 ;; Tracked objects:
  4777 ;;		On entry : 0/0
  4778 ;;		On exit  : 0/0
  4779 ;;		Unchanged: 0/0
  4780 ;; Data sizes:     COMMON   BANK0   BANK1   BANK2   BANK3   BANK4
  4781 ;;      Params:         0       0       0       0       0       0
  4782 ;;      Locals:         0       0       0       0       0       0
  4783 ;;      Temps:          0       0       0       0       0       0
  4784 ;;      Totals:         0       0       0       0       0       0
  4785 ;;Total ram usage:        0 bytes
  4786 ;; Hardware stack levels used: 1
  4787 ;; Hardware stack levels required when called: 7
  4788 ;; This function calls:
  4789 ;;		Nothing
  4790 ;; This function is called by:
  4791 ;;		_SYSTEM_Initialize
  4792 ;; This function uses a non-reentrant model
  4793 ;;
  4794                           
  4795  04E2                     _CMP2_Initialize:	
  4796                           ;psect for function _CMP2_Initialize
  4797                           
  4798  04E2                     l2183:	
  4799                           ;incstack = 0
  4800                           ; Regs used in _CMP2_Initialize: [wreg]
  4801                           
  4802                           
  4803                           ;mcc_generated_files/cmp2.c: 66:     PIE2bits.C2IE = 0;
  4804  04E2  0021               	movlb	1	; select bank1
  4805  04E3  1312               	bcf	18,6	;volatile
  4806  04E4                     l2185:
  4807                           
  4808                           ;mcc_generated_files/cmp2.c: 69:     CM2CON0 = 0x84;
  4809  04E4  3084               	movlw	132
  4810  04E5  0022               	movlb	2	; select bank2
  4811  04E6  0093               	movwf	19	;volatile
  4812                           
  4813                           ;mcc_generated_files/cmp2.c: 72:     CM2CON1 = 0xA1;
  4814  04E7  30A1               	movlw	161
  4815  04E8  0094               	movwf	20	;volatile
  4816  04E9                     l2187:
  4817                           
  4818                           ;mcc_generated_files/cmp2.c: 75:     PIR2bits.C2IF = 0;
  4819  04E9  0020               	movlb	0	; select bank0
  4820  04EA  1312               	bcf	18,6	;volatile
  4821  04EB                     l2189:
  4822                           
  4823                           ;mcc_generated_files/cmp2.c: 78:     PIE2bits.C2IE = 1;
  4824  04EB  0021               	movlb	1	; select bank1
  4825  04EC  1712               	bsf	18,6	;volatile
  4826  04ED                     l41:
  4827  04ED  0008               	return
  4828  04EE                     __end_of_CMP2_Initialize:
  4829                           
  4830                           	psect	text23
  4831  04EE                     __ptext23:	
  4832 ;; *************** function _CMP1_Initialize *****************
  4833 ;; Defined at:
  4834 ;;		line 59 in file "mcc_generated_files/cmp1.c"
  4835 ;; Parameters:    Size  Location     Type
  4836 ;;		None
  4837 ;; Auto vars:     Size  Location     Type
  4838 ;;		None
  4839 ;; Return value:  Size  Location     Type
  4840 ;;                  1    wreg      void 
  4841 ;; Registers used:
  4842 ;;		wreg
  4843 ;; Tracked objects:
  4844 ;;		On entry : 0/0
  4845 ;;		On exit  : 0/0
  4846 ;;		Unchanged: 0/0
  4847 ;; Data sizes:     COMMON   BANK0   BANK1   BANK2   BANK3   BANK4
  4848 ;;      Params:         0       0       0       0       0       0
  4849 ;;      Locals:         0       0       0       0       0       0
  4850 ;;      Temps:          0       0       0       0       0       0
  4851 ;;      Totals:         0       0       0       0       0       0
  4852 ;;Total ram usage:        0 bytes
  4853 ;; Hardware stack levels used: 1
  4854 ;; Hardware stack levels required when called: 7
  4855 ;; This function calls:
  4856 ;;		Nothing
  4857 ;; This function is called by:
  4858 ;;		_SYSTEM_Initialize
  4859 ;; This function uses a non-reentrant model
  4860 ;;
  4861                           
  4862  04EE                     _CMP1_Initialize:	
  4863                           ;psect for function _CMP1_Initialize
  4864                           
  4865  04EE                     l2225:	
  4866                           ;incstack = 0
  4867                           ; Regs used in _CMP1_Initialize: [wreg]
  4868                           
  4869                           
  4870                           ;mcc_generated_files/cmp1.c: 66:     PIE2bits.C1IE = 0;
  4871  04EE  0021               	movlb	1	; select bank1
  4872  04EF  1292               	bcf	18,5	;volatile
  4873  04F0                     l2227:
  4874                           
  4875                           ;mcc_generated_files/cmp1.c: 69:     CM1CON0 = 0x84;
  4876  04F0  3084               	movlw	132
  4877  04F1  0022               	movlb	2	; select bank2
  4878  04F2  0091               	movwf	17	;volatile
  4879                           
  4880                           ;mcc_generated_files/cmp1.c: 72:     CM1CON1 = 0xA0;
  4881  04F3  30A0               	movlw	160
  4882  04F4  0092               	movwf	18	;volatile
  4883  04F5                     l2229:
  4884                           
  4885                           ;mcc_generated_files/cmp1.c: 75:     PIR2bits.C1IF = 0;
  4886  04F5  0020               	movlb	0	; select bank0
  4887  04F6  1292               	bcf	18,5	;volatile
  4888  04F7                     l2231:
  4889                           
  4890                           ;mcc_generated_files/cmp1.c: 78:     PIE2bits.C1IE = 1;
  4891  04F7  0021               	movlb	1	; select bank1
  4892  04F8  1692               	bsf	18,5	;volatile
  4893  04F9                     l74:
  4894  04F9  0008               	return
  4895  04FA                     __end_of_CMP1_Initialize:
  4896                           
  4897                           	psect	text24
  4898  0520                     __ptext24:	
  4899 ;; *************** function _ADC_Initialize *****************
  4900 ;; Defined at:
  4901 ;;		line 67 in file "mcc_generated_files/adc.c"
  4902 ;; Parameters:    Size  Location     Type
  4903 ;;		None
  4904 ;; Auto vars:     Size  Location     Type
  4905 ;;		None
  4906 ;; Return value:  Size  Location     Type
  4907 ;;                  1    wreg      void 
  4908 ;; Registers used:
  4909 ;;		wreg, status,2
  4910 ;; Tracked objects:
  4911 ;;		On entry : 0/0
  4912 ;;		On exit  : 0/0
  4913 ;;		Unchanged: 0/0
  4914 ;; Data sizes:     COMMON   BANK0   BANK1   BANK2   BANK3   BANK4
  4915 ;;      Params:         0       0       0       0       0       0
  4916 ;;      Locals:         0       0       0       0       0       0
  4917 ;;      Temps:          0       0       0       0       0       0
  4918 ;;      Totals:         0       0       0       0       0       0
  4919 ;;Total ram usage:        0 bytes
  4920 ;; Hardware stack levels used: 1
  4921 ;; Hardware stack levels required when called: 7
  4922 ;; This function calls:
  4923 ;;		Nothing
  4924 ;; This function is called by:
  4925 ;;		_SYSTEM_Initialize
  4926 ;; This function uses a non-reentrant model
  4927 ;;
  4928                           
  4929  0520                     _ADC_Initialize:	
  4930                           ;psect for function _ADC_Initialize
  4931                           
  4932  0520                     l2353:	
  4933                           ;incstack = 0
  4934                           ; Regs used in _ADC_Initialize: [wreg+status,2]
  4935                           
  4936                           
  4937                           ;mcc_generated_files/adc.c: 72:     ADCON1 = 0xC3;
  4938  0520  30C3               	movlw	195
  4939  0521  0021               	movlb	1	; select bank1
  4940  0522  009E               	movwf	30	;volatile
  4941  0523                     l2355:
  4942                           
  4943                           ;mcc_generated_files/adc.c: 75:     ADRESL = 0x00;
  4944  0523  019B               	clrf	27	;volatile
  4945  0524                     l2357:
  4946                           
  4947                           ;mcc_generated_files/adc.c: 78:     ADRESH = 0x00;
  4948  0524  019C               	clrf	28	;volatile
  4949                           
  4950                           ;mcc_generated_files/adc.c: 81:     ADCON0 = 0x01;
  4951  0525  3001               	movlw	1
  4952  0526  009D               	movwf	29	;volatile
  4953  0527                     l214:
  4954  0527  0008               	return
  4955  0528                     __end_of_ADC_Initialize:
  4956                           
  4957                           	psect	text25
  4958  01F0                     __ptext25:	
  4959 ;; *************** function _SPI1_Open *****************
  4960 ;; Defined at:
  4961 ;;		line 72 in file "mcc_generated_files/spi1.c"
  4962 ;; Parameters:    Size  Location     Type
  4963 ;;  spi1UniqueCo    1    wreg     enum E355
  4964 ;; Auto vars:     Size  Location     Type
  4965 ;;  spi1UniqueCo    1    3[BANK0 ] enum E355
  4966 ;; Return value:  Size  Location     Type
  4967 ;;                  1    wreg      _Bool 
  4968 ;; Registers used:
  4969 ;;		wreg, fsr0l, fsr0h, status,2, status,0, pclath
  4970 ;; Tracked objects:
  4971 ;;		On entry : 0/0
  4972 ;;		On exit  : 0/0
  4973 ;;		Unchanged: 0/0
  4974 ;; Data sizes:     COMMON   BANK0   BANK1   BANK2   BANK3   BANK4
  4975 ;;      Params:         0       0       0       0       0       0
  4976 ;;      Locals:         0       1       0       0       0       0
  4977 ;;      Temps:          0       3       0       0       0       0
  4978 ;;      Totals:         0       4       0       0       0       0
  4979 ;;Total ram usage:        4 bytes
  4980 ;; Hardware stack levels used: 1
  4981 ;; Hardware stack levels required when called: 7
  4982 ;; This function calls:
  4983 ;;		Nothing
  4984 ;; This function is called by:
  4985 ;;		_main
  4986 ;; This function uses a non-reentrant model
  4987 ;;
  4988                           
  4989  01F0                     _SPI1_Open:	
  4990                           ;psect for function _SPI1_Open
  4991                           
  4992                           
  4993                           ;incstack = 0
  4994                           ; Regs used in _SPI1_Open: [wreg-fsr0h+status,2+status,0+pclath]
  4995                           ;SPI1_Open@spi1UniqueConfiguration stored from wreg
  4996  01F0  0020               	movlb	0	; select bank0
  4997  01F1  00B4               	movwf	SPI1_Open@spi1UniqueConfiguration
  4998  01F2                     l2431:
  4999                           
  5000                           ;mcc_generated_files/spi1.c: 72: _Bool SPI1_Open(spi1_modes_t spi1UniqueConfiguration);m
      +                          cc_generated_files/spi1.c: 73: {;mcc_generated_files/spi1.c: 74:     if(!SSP1CON1bits.SS
      +                          PEN)
  5001  01F2  0024               	movlb	4	; select bank4
  5002  01F3  1A95               	btfsc	21,5	;volatile
  5003  01F4  29F6               	goto	u891
  5004  01F5  29F7               	goto	u890
  5005  01F6                     u891:
  5006  01F6  2A46               	goto	l358
  5007  01F7                     u890:
  5008  01F7                     l2433:
  5009                           
  5010                           ;mcc_generated_files/spi1.c: 75:     {;mcc_generated_files/spi1.c: 76:         SSP1STAT 
      +                          = spi1_configuration[spi1UniqueConfiguration].stat;
  5011  01F7  0020               	movlb	0	; select bank0
  5012  01F8  0834               	movf	SPI1_Open@spi1UniqueConfiguration,w
  5013  01F9  00B1               	movwf	??_SPI1_Open
  5014  01FA  01B2               	clrf	??_SPI1_Open+1
  5015  01FB  35B1               	lslf	??_SPI1_Open,f
  5016  01FC  0DB2               	rlf	??_SPI1_Open+1,f
  5017  01FD  35B1               	lslf	??_SPI1_Open,f
  5018  01FE  0DB2               	rlf	??_SPI1_Open+1,f
  5019  01FF  306C               	movlw	low ((_spi1_configuration+1)| (0+32768))
  5020  0200  0731               	addwf	??_SPI1_Open,w
  5021  0201  0084               	movwf	4
  5022  0202  3085               	movlw	high ((_spi1_configuration+1)| (0+32768))
  5023  0203  3D32               	addwfc	??_SPI1_Open+1,w
  5024  0204  0085               	movwf	5
  5025  0205  0800               	movf	0,w	;code access
  5026  0206  0024               	movlb	4	; select bank4
  5027  0207  0094               	movwf	20	;volatile
  5028                           
  5029                           ;mcc_generated_files/spi1.c: 77:         SSP1CON1 = spi1_configuration[spi1UniqueConfigu
      +                          ration].con1;
  5030  0208  0020               	movlb	0	; select bank0
  5031  0209  0834               	movf	SPI1_Open@spi1UniqueConfiguration,w
  5032  020A  00B1               	movwf	??_SPI1_Open
  5033  020B  01B2               	clrf	??_SPI1_Open+1
  5034  020C  35B1               	lslf	??_SPI1_Open,f
  5035  020D  0DB2               	rlf	??_SPI1_Open+1,f
  5036  020E  35B1               	lslf	??_SPI1_Open,f
  5037  020F  0DB2               	rlf	??_SPI1_Open+1,f
  5038  0210  306B               	movlw	low (_spi1_configuration| (0+32768))
  5039  0211  0731               	addwf	??_SPI1_Open,w
  5040  0212  0084               	movwf	4
  5041  0213  3085               	movlw	high (_spi1_configuration| (0+32768))
  5042  0214  3D32               	addwfc	??_SPI1_Open+1,w
  5043  0215  0085               	movwf	5
  5044  0216  0800               	movf	0,w	;code access
  5045  0217  0024               	movlb	4	; select bank4
  5046  0218  0095               	movwf	21	;volatile
  5047  0219                     l2435:
  5048                           
  5049                           ;mcc_generated_files/spi1.c: 78:         SSP1CON2 = 0x00;
  5050  0219  0196               	clrf	22	;volatile
  5051  021A                     l2437:
  5052                           
  5053                           ;mcc_generated_files/spi1.c: 79:         SSP1ADD = spi1_configuration[spi1UniqueConfigur
      +                          ation].add;
  5054  021A  0020               	movlb	0	; select bank0
  5055  021B  0834               	movf	SPI1_Open@spi1UniqueConfiguration,w
  5056  021C  00B1               	movwf	??_SPI1_Open
  5057  021D  01B2               	clrf	??_SPI1_Open+1
  5058  021E  35B1               	lslf	??_SPI1_Open,f
  5059  021F  0DB2               	rlf	??_SPI1_Open+1,f
  5060  0220  35B1               	lslf	??_SPI1_Open,f
  5061  0221  0DB2               	rlf	??_SPI1_Open+1,f
  5062  0222  306D               	movlw	low ((_spi1_configuration+2)| (0+32768))
  5063  0223  0731               	addwf	??_SPI1_Open,w
  5064  0224  0084               	movwf	4
  5065  0225  3085               	movlw	high ((_spi1_configuration+2)| (0+32768))
  5066  0226  3D32               	addwfc	??_SPI1_Open+1,w
  5067  0227  0085               	movwf	5
  5068  0228  0800               	movf	0,w	;code access
  5069  0229  0024               	movlb	4	; select bank4
  5070  022A  0092               	movwf	18	;volatile
  5071  022B                     l2439:
  5072                           
  5073                           ;mcc_generated_files/spi1.c: 80:         TRISBbits.TRISB4 = spi1_configuration[spi1Uniqu
      +                          eConfiguration].operation;
  5074  022B  0020               	movlb	0	; select bank0
  5075  022C  0834               	movf	SPI1_Open@spi1UniqueConfiguration,w
  5076  022D  00B1               	movwf	??_SPI1_Open
  5077  022E  01B2               	clrf	??_SPI1_Open+1
  5078  022F  35B1               	lslf	??_SPI1_Open,f
  5079  0230  0DB2               	rlf	??_SPI1_Open+1,f
  5080  0231  35B1               	lslf	??_SPI1_Open,f
  5081  0232  0DB2               	rlf	??_SPI1_Open+1,f
  5082  0233  306E               	movlw	low ((_spi1_configuration+3)| (0+32768))
  5083  0234  0731               	addwf	??_SPI1_Open,w
  5084  0235  0084               	movwf	4
  5085  0236  3085               	movlw	high ((_spi1_configuration+3)| (0+32768))
  5086  0237  3D32               	addwfc	??_SPI1_Open+1,w
  5087  0238  0085               	movwf	5
  5088  0239  0800               	movf	0,w	;code access
  5089  023A  00B3               	movwf	??_SPI1_Open+2
  5090  023B  0EB3               	swapf	??_SPI1_Open+2,f
  5091  023C  0021               	movlb	1	; select bank1
  5092  023D  080D               	movf	13,w	;volatile
  5093  023E  0020               	movlb	0	; select bank0
  5094  023F  0633               	xorwf	??_SPI1_Open+2,w
  5095  0240  39EF               	andlw	-17
  5096  0241  0633               	xorwf	??_SPI1_Open+2,w
  5097  0242  0021               	movlb	1	; select bank1
  5098  0243  008D               	movwf	13	;volatile
  5099  0244                     l2441:
  5100                           
  5101                           ;mcc_generated_files/spi1.c: 81:         SSP1CON1bits.SSPEN = 1;
  5102  0244  0024               	movlb	4	; select bank4
  5103  0245  1695               	bsf	21,5	;volatile
  5104  0246                     l358:
  5105  0246  0008               	return
  5106  0247                     __end_of_SPI1_Open:
  5107                           
  5108                           	psect	intentry
  5109  0004                     __pintentry:	
  5110 ;; *************** function _INTERRUPT_InterruptManager *****************
  5111 ;; Defined at:
  5112 ;;		line 52 in file "mcc_generated_files/interrupt_manager.c"
  5113 ;; Parameters:    Size  Location     Type
  5114 ;;		None
  5115 ;; Auto vars:     Size  Location     Type
  5116 ;;		None
  5117 ;; Return value:  Size  Location     Type
  5118 ;;                  1    wreg      void 
  5119 ;; Registers used:
  5120 ;;		wreg, fsr0l, fsr0h, fsr1l, fsr1h, status,2, status,0, pclath, cstack
  5121 ;; Tracked objects:
  5122 ;;		On entry : 0/0
  5123 ;;		On exit  : 0/0
  5124 ;;		Unchanged: 0/0
  5125 ;; Data sizes:     COMMON   BANK0   BANK1   BANK2   BANK3   BANK4
  5126 ;;      Params:         0       0       0       0       0       0
  5127 ;;      Locals:         0       0       0       0       0       0
  5128 ;;      Temps:          0       0       0       0       0       0
  5129 ;;      Totals:         0       0       0       0       0       0
  5130 ;;Total ram usage:        0 bytes
  5131 ;; Hardware stack levels used: 1
  5132 ;; Hardware stack levels required when called: 6
  5133 ;; This function calls:
  5134 ;;		_CMP1_ISR
  5135 ;;		_CMP2_ISR
  5136 ;;		_PIN_MANAGER_IOC
  5137 ;;		_TMR0_ISR
  5138 ;;		_TMR1_ISR
  5139 ;; This function is called by:
  5140 ;;		Interrupt level 1
  5141 ;; This function uses a non-reentrant model
  5142 ;;
  5143                           
  5144  0004                     _INTERRUPT_InterruptManager:
  5145                           
  5146                           ;incstack = 0
  5147  0004  147E               	bsf	int$flags,0	;set compiler interrupt flag (level 1)
  5148                           
  5149                           ; Regs used in _INTERRUPT_InterruptManager: [wreg-fsr1h+status,2+status,0+pclath+cstack]
  5150  0005  3180               	pagesel	$
  5151  0006                     i1l2511:
  5152                           
  5153                           ;mcc_generated_files/interrupt_manager.c: 55:     if(INTCONbits.TMR0IE == 1 && INTCONbit
      +                          s.TMR0IF == 1)
  5154  0006  1E8B               	btfss	11,5	;volatile
  5155  0007  2809               	goto	u96_21
  5156  0008  280A               	goto	u96_20
  5157  0009                     u96_21:
  5158  0009  2811               	goto	i1l2517
  5159  000A                     u96_20:
  5160  000A                     i1l2513:
  5161  000A  1D0B               	btfss	11,2	;volatile
  5162  000B  280D               	goto	u97_21
  5163  000C  280E               	goto	u97_20
  5164  000D                     u97_21:
  5165  000D  2811               	goto	i1l2517
  5166  000E                     u97_20:
  5167  000E                     i1l2515:
  5168                           
  5169                           ;mcc_generated_files/interrupt_manager.c: 56:     {;mcc_generated_files/interrupt_manage
      +                          r.c: 57:         TMR0_ISR();
  5170  000E  3184  240C  3180   	fcall	_TMR0_ISR
  5171  0011                     i1l2517:
  5172                           
  5173                           ;mcc_generated_files/interrupt_manager.c: 59:     if(INTCONbits.IOCIE == 1 && INTCONbits
      +                          .IOCIF == 1)
  5174  0011  1D8B               	btfss	11,3	;volatile
  5175  0012  2814               	goto	u98_21
  5176  0013  2815               	goto	u98_20
  5177  0014                     u98_21:
  5178  0014  281C               	goto	i1l2523
  5179  0015                     u98_20:
  5180  0015                     i1l2519:
  5181  0015  1C0B               	btfss	11,0	;volatile
  5182  0016  2818               	goto	u99_21
  5183  0017  2819               	goto	u99_20
  5184  0018                     u99_21:
  5185  0018  281C               	goto	i1l2523
  5186  0019                     u99_20:
  5187  0019                     i1l2521:
  5188                           
  5189                           ;mcc_generated_files/interrupt_manager.c: 60:     {;mcc_generated_files/interrupt_manage
      +                          r.c: 61:         PIN_MANAGER_IOC();
  5190  0019  3184  2462  3180   	fcall	_PIN_MANAGER_IOC
  5191  001C                     i1l2523:
  5192                           
  5193                           ;mcc_generated_files/interrupt_manager.c: 63:     if(INTCONbits.PEIE == 1)
  5194  001C  1F0B               	btfss	11,6	;volatile
  5195  001D  281F               	goto	u100_21
  5196  001E  2820               	goto	u100_20
  5197  001F                     u100_21:
  5198  001F  2847               	goto	i1l425
  5199  0020                     u100_20:
  5200  0020                     i1l2525:
  5201                           
  5202                           ;mcc_generated_files/interrupt_manager.c: 64:     {;mcc_generated_files/interrupt_manage
      +                          r.c: 65:         if(PIE2bits.C1IE == 1 && PIR2bits.C1IF == 1)
  5203  0020  0021               	movlb	1	; select bank1
  5204  0021  1E92               	btfss	18,5	;volatile
  5205  0022  2824               	goto	u101_21
  5206  0023  2825               	goto	u101_20
  5207  0024                     u101_21:
  5208  0024  282D               	goto	i1l2531
  5209  0025                     u101_20:
  5210  0025                     i1l2527:
  5211  0025  0020               	movlb	0	; select bank0
  5212  0026  1E92               	btfss	18,5	;volatile
  5213  0027  2829               	goto	u102_21
  5214  0028  282A               	goto	u102_20
  5215  0029                     u102_21:
  5216  0029  282D               	goto	i1l2531
  5217  002A                     u102_20:
  5218  002A                     i1l2529:
  5219                           
  5220                           ;mcc_generated_files/interrupt_manager.c: 66:         {;mcc_generated_files/interrupt_ma
      +                          nager.c: 67:             CMP1_ISR();
  5221  002A  3185  2565  3180   	fcall	_CMP1_ISR
  5222  002D                     i1l2531:
  5223                           
  5224                           ;mcc_generated_files/interrupt_manager.c: 69:         if(PIE2bits.C2IE == 1 && PIR2bits.
      +                          C2IF == 1)
  5225  002D  0021               	movlb	1	; select bank1
  5226  002E  1F12               	btfss	18,6	;volatile
  5227  002F  2831               	goto	u103_21
  5228  0030  2832               	goto	u103_20
  5229  0031                     u103_21:
  5230  0031  283A               	goto	i1l2537
  5231  0032                     u103_20:
  5232  0032                     i1l2533:
  5233  0032  0020               	movlb	0	; select bank0
  5234  0033  1F12               	btfss	18,6	;volatile
  5235  0034  2836               	goto	u104_21
  5236  0035  2837               	goto	u104_20
  5237  0036                     u104_21:
  5238  0036  283A               	goto	i1l2537
  5239  0037                     u104_20:
  5240  0037                     i1l2535:
  5241                           
  5242                           ;mcc_generated_files/interrupt_manager.c: 70:         {;mcc_generated_files/interrupt_ma
      +                          nager.c: 71:             CMP2_ISR();
  5243  0037  3185  255F  3180   	fcall	_CMP2_ISR
  5244  003A                     i1l2537:
  5245                           
  5246                           ;mcc_generated_files/interrupt_manager.c: 73:         if(PIE1bits.TMR1IE == 1 && PIR1bit
      +                          s.TMR1IF == 1)
  5247  003A  0021               	movlb	1	; select bank1
  5248  003B  1C11               	btfss	17,0	;volatile
  5249  003C  283E               	goto	u105_21
  5250  003D  283F               	goto	u105_20
  5251  003E                     u105_21:
  5252  003E  2847               	goto	i1l425
  5253  003F                     u105_20:
  5254  003F                     i1l2539:
  5255  003F  0020               	movlb	0	; select bank0
  5256  0040  1C11               	btfss	17,0	;volatile
  5257  0041  2843               	goto	u106_21
  5258  0042  2844               	goto	u106_20
  5259  0043                     u106_21:
  5260  0043  2847               	goto	i1l425
  5261  0044                     u106_20:
  5262  0044                     i1l2541:
  5263                           
  5264                           ;mcc_generated_files/interrupt_manager.c: 74:         {;mcc_generated_files/interrupt_ma
      +                          nager.c: 75:             TMR1_ISR();
  5265  0044  3184  24AF  3180   	fcall	_TMR1_ISR
  5266  0047                     i1l425:
  5267  0047  107E               	bcf	int$flags,0	;clear compiler interrupt flag (level 1)
  5268  0048  0009               	retfie
  5269  0049                     __end_of_INTERRUPT_InterruptManager:
  5270                           
  5271                           	psect	text27
  5272  04AF                     __ptext27:	
  5273 ;; *************** function _TMR1_ISR *****************
  5274 ;; Defined at:
  5275 ;;		line 157 in file "mcc_generated_files/tmr1.c"
  5276 ;; Parameters:    Size  Location     Type
  5277 ;;		None
  5278 ;; Auto vars:     Size  Location     Type
  5279 ;;		None
  5280 ;; Return value:  Size  Location     Type
  5281 ;;                  1    wreg      void 
  5282 ;; Registers used:
  5283 ;;		wreg, fsr0l, fsr0h, status,2, status,0, pclath, cstack
  5284 ;; Tracked objects:
  5285 ;;		On entry : 0/0
  5286 ;;		On exit  : 0/0
  5287 ;;		Unchanged: 0/0
  5288 ;; Data sizes:     COMMON   BANK0   BANK1   BANK2   BANK3   BANK4
  5289 ;;      Params:         0       0       0       0       0       0
  5290 ;;      Locals:         0       0       0       0       0       0
  5291 ;;      Temps:          0       0       0       0       0       0
  5292 ;;      Totals:         0       0       0       0       0       0
  5293 ;;Total ram usage:        0 bytes
  5294 ;; Hardware stack levels used: 1
  5295 ;; Hardware stack levels required when called: 3
  5296 ;; This function calls:
  5297 ;;		_TMR1_CallBack
  5298 ;;		_TMR1_WriteTimer
  5299 ;; This function is called by:
  5300 ;;		_INTERRUPT_InterruptManager
  5301 ;; This function uses a non-reentrant model
  5302 ;;
  5303                           
  5304  04AF                     _TMR1_ISR:	
  5305                           ;psect for function _TMR1_ISR
  5306                           
  5307  04AF                     i1l2453:	
  5308                           ;incstack = 0
  5309                           ; Regs used in _TMR1_ISR: [wreg-fsr0h+status,2+status,0+pclath+cstack]
  5310                           
  5311                           
  5312                           ;mcc_generated_files/tmr1.c: 161:     PIR1bits.TMR1IF = 0;
  5313  04AF  0020               	movlb	0	; select bank0
  5314  04B0  1011               	bcf	17,0	;volatile
  5315  04B1                     i1l2455:
  5316                           
  5317                           ;mcc_generated_files/tmr1.c: 162:     TMR1_WriteTimer(timer1ReloadVal);
  5318  04B1  0825               	movf	_timer1ReloadVal+1,w	;volatile
  5319  04B2  00F1               	movwf	TMR1_WriteTimer@timerVal+1
  5320  04B3  0824               	movf	_timer1ReloadVal,w	;volatile
  5321  04B4  00F0               	movwf	TMR1_WriteTimer@timerVal
  5322  04B5  3184  2451  3184   	fcall	_TMR1_WriteTimer
  5323  04B8                     i1l2457:
  5324                           
  5325                           ;mcc_generated_files/tmr1.c: 166:     TMR1_CallBack();
  5326  04B8  3184  24BC  3184   	fcall	_TMR1_CallBack
  5327  04BB                     i1l480:
  5328  04BB  0008               	return
  5329  04BC                     __end_of_TMR1_ISR:
  5330                           
  5331                           	psect	text28
  5332  0451                     __ptext28:	
  5333 ;; *************** function _TMR1_WriteTimer *****************
  5334 ;; Defined at:
  5335 ;;		line 120 in file "mcc_generated_files/tmr1.c"
  5336 ;; Parameters:    Size  Location     Type
  5337 ;;  timerVal        2    0[COMMON] unsigned short 
  5338 ;; Auto vars:     Size  Location     Type
  5339 ;;		None
  5340 ;; Return value:  Size  Location     Type
  5341 ;;                  1    wreg      void 
  5342 ;; Registers used:
  5343 ;;		wreg, status,2
  5344 ;; Tracked objects:
  5345 ;;		On entry : 0/0
  5346 ;;		On exit  : 0/0
  5347 ;;		Unchanged: 0/0
  5348 ;; Data sizes:     COMMON   BANK0   BANK1   BANK2   BANK3   BANK4
  5349 ;;      Params:         2       0       0       0       0       0
  5350 ;;      Locals:         0       0       0       0       0       0
  5351 ;;      Temps:          0       0       0       0       0       0
  5352 ;;      Totals:         2       0       0       0       0       0
  5353 ;;Total ram usage:        2 bytes
  5354 ;; Hardware stack levels used: 1
  5355 ;; This function calls:
  5356 ;;		Nothing
  5357 ;; This function is called by:
  5358 ;;		_TMR1_ISR
  5359 ;;		_TMR1_Reload
  5360 ;; This function uses a non-reentrant model
  5361 ;;
  5362                           
  5363  0451                     _TMR1_WriteTimer:	
  5364                           ;psect for function _TMR1_WriteTimer
  5365                           
  5366  0451                     i1l2387:	
  5367                           ;incstack = 0
  5368                           ; Regs used in _TMR1_WriteTimer: [wreg+status,2]
  5369                           
  5370                           
  5371                           ;mcc_generated_files/tmr1.c: 120: void TMR1_WriteTimer(uint16_t timerVal);mcc_generated_
      +                          files/tmr1.c: 121: {;mcc_generated_files/tmr1.c: 122:     if (T1CONbits.nT1SYNC == 1)
  5372  0451  0020               	movlb	0	; select bank0
  5373  0452  1D18               	btfss	24,2	;volatile
  5374  0453  2C55               	goto	u84_21
  5375  0454  2C56               	goto	u84_20
  5376  0455                     u84_21:
  5377  0455  2C5D               	goto	i1l2397
  5378  0456                     u84_20:
  5379  0456                     i1l2389:
  5380                           
  5381                           ;mcc_generated_files/tmr1.c: 123:     {;mcc_generated_files/tmr1.c: 125:         T1CONbi
      +                          ts.TMR1ON = 0;
  5382  0456  1018               	bcf	24,0	;volatile
  5383  0457                     i1l2391:
  5384                           
  5385                           ;mcc_generated_files/tmr1.c: 128:         TMR1H = (uint8_t)(timerVal >> 8);
  5386  0457  0871               	movf	TMR1_WriteTimer@timerVal+1,w
  5387  0458  0097               	movwf	23	;volatile
  5388  0459                     i1l2393:
  5389                           
  5390                           ;mcc_generated_files/tmr1.c: 129:         TMR1L = (uint8_t)timerVal;
  5391  0459  0870               	movf	TMR1_WriteTimer@timerVal,w
  5392  045A  0096               	movwf	22	;volatile
  5393  045B                     i1l2395:
  5394                           
  5395                           ;mcc_generated_files/tmr1.c: 132:         T1CONbits.TMR1ON =1;
  5396  045B  1418               	bsf	24,0	;volatile
  5397                           
  5398                           ;mcc_generated_files/tmr1.c: 133:     }
  5399  045C  2C61               	goto	i1l468
  5400  045D                     i1l2397:
  5401                           
  5402                           ;mcc_generated_files/tmr1.c: 135:     {;mcc_generated_files/tmr1.c: 137:         TMR1H =
      +                           (uint8_t)(timerVal >> 8);
  5403  045D  0871               	movf	TMR1_WriteTimer@timerVal+1,w
  5404  045E  0097               	movwf	23	;volatile
  5405  045F                     i1l2399:
  5406                           
  5407                           ;mcc_generated_files/tmr1.c: 138:         TMR1L = (uint8_t)timerVal;
  5408  045F  0870               	movf	TMR1_WriteTimer@timerVal,w
  5409  0460  0096               	movwf	22	;volatile
  5410  0461                     i1l468:
  5411  0461  0008               	return
  5412  0462                     __end_of_TMR1_WriteTimer:
  5413                           
  5414                           	psect	text29
  5415  04BC                     __ptext29:	
  5416 ;; *************** function _TMR1_CallBack *****************
  5417 ;; Defined at:
  5418 ;;		line 169 in file "mcc_generated_files/tmr1.c"
  5419 ;; Parameters:    Size  Location     Type
  5420 ;;		None
  5421 ;; Auto vars:     Size  Location     Type
  5422 ;;		None
  5423 ;; Return value:  Size  Location     Type
  5424 ;;                  1    wreg      void 
  5425 ;; Registers used:
  5426 ;;		wreg, fsr0l, fsr0h, status,2, status,0, pclath, cstack
  5427 ;; Tracked objects:
  5428 ;;		On entry : 0/0
  5429 ;;		On exit  : 0/0
  5430 ;;		Unchanged: 0/0
  5431 ;; Data sizes:     COMMON   BANK0   BANK1   BANK2   BANK3   BANK4
  5432 ;;      Params:         0       0       0       0       0       0
  5433 ;;      Locals:         0       0       0       0       0       0
  5434 ;;      Temps:          0       0       0       0       0       0
  5435 ;;      Totals:         0       0       0       0       0       0
  5436 ;;Total ram usage:        0 bytes
  5437 ;; Hardware stack levels used: 1
  5438 ;; Hardware stack levels required when called: 2
  5439 ;; This function calls:
  5440 ;;		Absolute function
  5441 ;;		_TMR1_DefaultInterruptHandler
  5442 ;;		_controleMovimento
  5443 ;; This function is called by:
  5444 ;;		_TMR1_ISR
  5445 ;; This function uses a non-reentrant model
  5446 ;;
  5447                           
  5448  04BC                     _TMR1_CallBack:	
  5449                           ;psect for function _TMR1_CallBack
  5450                           
  5451  04BC                     i1l2401:	
  5452                           ;incstack = 0
  5453                           ; Regs used in _TMR1_CallBack: [wreg-fsr0h+status,2+status,0+pclath+cstack]
  5454                           
  5455                           
  5456                           ;mcc_generated_files/tmr1.c: 172:     if(TMR1_InterruptHandler)
  5457  04BC  0020               	movlb	0	; select bank0
  5458  04BD  0822               	movf	_TMR1_InterruptHandler,w
  5459  04BE  0423               	iorwf	_TMR1_InterruptHandler+1,w
  5460  04BF  1903               	btfsc	3,2
  5461  04C0  2CC2               	goto	u85_21
  5462  04C1  2CC3               	goto	u85_20
  5463  04C2                     u85_21:
  5464  04C2  2CC8               	goto	i1l484
  5465  04C3                     u85_20:
  5466  04C3                     i1l2403:
  5467                           
  5468                           ;mcc_generated_files/tmr1.c: 173:     {;mcc_generated_files/tmr1.c: 174:         TMR1_In
      +                          terruptHandler();
  5469  04C3  0823               	movf	_TMR1_InterruptHandler+1,w
  5470  04C4  008A               	movwf	10
  5471  04C5  0822               	movf	_TMR1_InterruptHandler,w
  5472  04C6  000A               	callw
  5473  04C7  3184               	pagesel	$
  5474  04C8                     i1l484:
  5475  04C8  0008               	return
  5476  04C9                     __end_of_TMR1_CallBack:
  5477                           
  5478                           	psect	text30
  5479  057B                     __ptext30:	
  5480 ;; *************** function _TMR1_DefaultInterruptHandler *****************
  5481 ;; Defined at:
  5482 ;;		line 182 in file "mcc_generated_files/tmr1.c"
  5483 ;; Parameters:    Size  Location     Type
  5484 ;;		None
  5485 ;; Auto vars:     Size  Location     Type
  5486 ;;		None
  5487 ;; Return value:  Size  Location     Type
  5488 ;;                  1    wreg      void 
  5489 ;; Registers used:
  5490 ;;		None
  5491 ;; Tracked objects:
  5492 ;;		On entry : 0/0
  5493 ;;		On exit  : 0/0
  5494 ;;		Unchanged: 0/0
  5495 ;; Data sizes:     COMMON   BANK0   BANK1   BANK2   BANK3   BANK4
  5496 ;;      Params:         0       0       0       0       0       0
  5497 ;;      Locals:         0       0       0       0       0       0
  5498 ;;      Temps:          0       0       0       0       0       0
  5499 ;;      Totals:         0       0       0       0       0       0
  5500 ;;Total ram usage:        0 bytes
  5501 ;; Hardware stack levels used: 1
  5502 ;; This function calls:
  5503 ;;		Nothing
  5504 ;; This function is called by:
  5505 ;;		_TMR1_Initialize
  5506 ;;		_TMR1_CallBack
  5507 ;; This function uses a non-reentrant model
  5508 ;;
  5509                           
  5510  057B                     _TMR1_DefaultInterruptHandler:	
  5511                           ;psect for function _TMR1_DefaultInterruptHandler
  5512                           
  5513  057B                     i1l490:	
  5514                           ;incstack = 0
  5515                           ; Regs used in _TMR1_DefaultInterruptHandler: []
  5516                           
  5517  057B  0008               	return
  5518  057C                     __end_of_TMR1_DefaultInterruptHandler:
  5519                           
  5520                           	psect	text31
  5521  0247                     __ptext31:	
  5522 ;; *************** function _controleMovimento *****************
  5523 ;; Defined at:
  5524 ;;		line 102 in file "main.c"
  5525 ;; Parameters:    Size  Location     Type
  5526 ;;		None
  5527 ;; Auto vars:     Size  Location     Type
  5528 ;;		None
  5529 ;; Return value:  Size  Location     Type
  5530 ;;                  1    wreg      void 
  5531 ;; Registers used:
  5532 ;;		wreg, fsr0l, fsr0h, status,2, status,0, pclath, cstack
  5533 ;; Tracked objects:
  5534 ;;		On entry : 0/0
  5535 ;;		On exit  : 0/0
  5536 ;;		Unchanged: 0/0
  5537 ;; Data sizes:     COMMON   BANK0   BANK1   BANK2   BANK3   BANK4
  5538 ;;      Params:         0       0       0       0       0       0
  5539 ;;      Locals:         0       0       0       0       0       0
  5540 ;;      Temps:          2       0       0       0       0       0
  5541 ;;      Totals:         2       0       0       0       0       0
  5542 ;;Total ram usage:        2 bytes
  5543 ;; Hardware stack levels used: 1
  5544 ;; Hardware stack levels required when called: 1
  5545 ;; This function calls:
  5546 ;;		_PWM3_LoadDutyValue
  5547 ;; This function is called by:
  5548 ;;		_main
  5549 ;;		_TMR1_CallBack
  5550 ;; This function uses a non-reentrant model
  5551 ;;
  5552                           
  5553  0247                     _controleMovimento:	
  5554                           ;psect for function _controleMovimento
  5555                           
  5556  0247                     i1l2077:	
  5557                           ;incstack = 0
  5558                           ; Regs used in _controleMovimento: [wreg-fsr0h+status,2+status,0+pclath+cstack]
  5559                           
  5560                           
  5561                           ;main.c: 103:     static uint8_t cont = 0;;main.c: 104:     switch(mov){
  5562  0247  2A6C               	goto	i1l2095
  5563  0248                     i1l2079:
  5564                           
  5565                           ;main.c: 106:             PWM3_LoadDutyValue(0);
  5566  0248  3000               	movlw	0
  5567  0249  00F0               	movwf	PWM3_LoadDutyValue@dutyValue
  5568  024A  00F1               	movwf	PWM3_LoadDutyValue@dutyValue+1
  5569  024B  3184  2424  3182   	fcall	_PWM3_LoadDutyValue
  5570                           
  5571                           ;main.c: 107:             break;
  5572  024E  2A83               	goto	i1l2097
  5573  024F                     i1l2081:
  5574                           
  5575                           ;main.c: 109:             PWM3_LoadDutyValue(511);
  5576  024F  30FF               	movlw	255
  5577  0250  00F0               	movwf	PWM3_LoadDutyValue@dutyValue
  5578  0251  3001               	movlw	1
  5579  0252  00F1               	movwf	PWM3_LoadDutyValue@dutyValue+1
  5580  0253  3184  2424  3182   	fcall	_PWM3_LoadDutyValue
  5581                           
  5582                           ;main.c: 110:             break;
  5583  0256  2A83               	goto	i1l2097
  5584  0257                     i1l2085:
  5585                           
  5586                           ;main.c: 115:             if (cont >=4){
  5587  0257  3004               	movlw	4
  5588  0258  024E               	subwf	controleMovimento@cont,w
  5589  0259  1C03               	skipc
  5590  025A  2A5C               	goto	u64_21
  5591  025B  2A5D               	goto	u64_20
  5592  025C                     u64_21:
  5593  025C  2A67               	goto	i1l2091
  5594  025D                     u64_20:
  5595  025D                     i1l2087:
  5596                           
  5597                           ;main.c: 116:                 PWM3_LoadDutyValue(511);
  5598  025D  30FF               	movlw	255
  5599  025E  00F0               	movwf	PWM3_LoadDutyValue@dutyValue
  5600  025F  3001               	movlw	1
  5601  0260  00F1               	movwf	PWM3_LoadDutyValue@dutyValue+1
  5602  0261  3184  2424  3182   	fcall	_PWM3_LoadDutyValue
  5603  0264                     i1l2089:
  5604                           
  5605                           ;main.c: 117:                 cont = 0;
  5606  0264  0020               	movlb	0	; select bank0
  5607  0265  01CE               	clrf	controleMovimento@cont
  5608                           
  5609                           ;main.c: 118:             }else{
  5610  0266  2A83               	goto	i1l2097
  5611  0267                     i1l2091:
  5612                           
  5613                           ;main.c: 119:                 cont++;
  5614  0267  3001               	movlw	1
  5615  0268  00F4               	movwf	??_controleMovimento
  5616  0269  0874               	movf	??_controleMovimento,w
  5617  026A  07CE               	addwf	controleMovimento@cont,f
  5618  026B  2A83               	goto	i1l2097
  5619  026C                     i1l2095:
  5620  026C  0020               	movlb	0	; select bank0
  5621  026D  0850               	movf	_mov,w
  5622  026E  00F4               	movwf	??_controleMovimento
  5623  026F  01F5               	clrf	??_controleMovimento+1
  5624                           
  5625                           ; Switch on 2 bytes has been partitioned into a top level switch of size 1, and 1 sub-sw
      +                          itches
  5626                           ; Switch size 1, requested type "simple"
  5627                           ; Number of cases is 1, Range of values is 0 to 0
  5628                           ; switch strategies available:
  5629                           ; Name         Instructions Cycles
  5630                           ; simple_byte            4     3 (average)
  5631                           ; direct_byte            8     6 (fixed)
  5632                           ; jumptable            260     6 (fixed)
  5633                           ;	Chosen strategy is simple_byte
  5634  0270  0875               	movf	??_controleMovimento+1,w
  5635  0271  3A00               	xorlw	0	; case 0
  5636  0272  1903               	skipnz
  5637  0273  2A75               	goto	i1l2579
  5638  0274  2A83               	goto	i1l2097
  5639  0275                     i1l2579:
  5640                           
  5641                           ; Switch size 1, requested type "simple"
  5642                           ; Number of cases is 4, Range of values is 0 to 3
  5643                           ; switch strategies available:
  5644                           ; Name         Instructions Cycles
  5645                           ; simple_byte           13     7 (average)
  5646                           ; direct_byte           14     6 (fixed)
  5647                           ; jumptable            260     6 (fixed)
  5648                           ;	Chosen strategy is simple_byte
  5649  0275  0874               	movf	??_controleMovimento,w
  5650  0276  3A00               	xorlw	0	; case 0
  5651  0277  1903               	skipnz
  5652  0278  2A48               	goto	i1l2079
  5653  0279  3A01               	xorlw	1	; case 1
  5654  027A  1903               	skipnz
  5655  027B  2A4F               	goto	i1l2081
  5656  027C  3A03               	xorlw	3	; case 2
  5657  027D  1903               	skipnz
  5658  027E  2A4F               	goto	i1l2081
  5659  027F  3A01               	xorlw	1	; case 3
  5660  0280  1903               	skipnz
  5661  0281  2A57               	goto	i1l2085
  5662  0282  2A83               	goto	i1l2097
  5663  0283                     i1l2097:
  5664                           
  5665                           ;main.c: 124:     if(destinoSub != 0 && mov != RetornaS0 ){
  5666  0283  0020               	movlb	0	; select bank0
  5667  0284  0851               	movf	_destinoSub,w
  5668  0285  1903               	btfsc	3,2
  5669  0286  2A88               	goto	u65_21
  5670  0287  2A89               	goto	u65_20
  5671  0288                     u65_21:
  5672  0288  2A92               	goto	i1l2103
  5673  0289                     u65_20:
  5674  0289                     i1l2099:
  5675  0289  3003               	movlw	3
  5676  028A  0650               	xorwf	_mov,w
  5677  028B  1903               	btfsc	3,2
  5678  028C  2A8E               	goto	u66_21
  5679  028D  2A8F               	goto	u66_20
  5680  028E                     u66_21:
  5681  028E  2A92               	goto	i1l2103
  5682  028F                     u66_20:
  5683  028F                     i1l2101:
  5684                           
  5685                           ;main.c: 126:         subindo = 1;
  5686  028F  01D2               	clrf	_subindo
  5687  0290  0AD2               	incf	_subindo,f
  5688                           
  5689                           ;main.c: 127:     }else{
  5690  0291  2A93               	goto	i1l639
  5691  0292                     i1l2103:
  5692                           
  5693                           ;main.c: 129:         subindo = 0;
  5694  0292  01D2               	clrf	_subindo
  5695  0293                     i1l639:
  5696  0293  0008               	return
  5697  0294                     __end_of_controleMovimento:
  5698                           
  5699                           	psect	text32
  5700  040C                     __ptext32:	
  5701 ;; *************** function _TMR0_ISR *****************
  5702 ;; Defined at:
  5703 ;;		line 108 in file "mcc_generated_files/tmr0.c"
  5704 ;; Parameters:    Size  Location     Type
  5705 ;;		None
  5706 ;; Auto vars:     Size  Location     Type
  5707 ;;		None
  5708 ;; Return value:  Size  Location     Type
  5709 ;;                  1    wreg      void 
  5710 ;; Registers used:
  5711 ;;		wreg, status,2, status,0, pclath, cstack
  5712 ;; Tracked objects:
  5713 ;;		On entry : 0/0
  5714 ;;		On exit  : 0/0
  5715 ;;		Unchanged: 0/0
  5716 ;; Data sizes:     COMMON   BANK0   BANK1   BANK2   BANK3   BANK4
  5717 ;;      Params:         0       0       0       0       0       0
  5718 ;;      Locals:         0       0       0       0       0       0
  5719 ;;      Temps:          0       0       0       0       0       0
  5720 ;;      Totals:         0       0       0       0       0       0
  5721 ;;Total ram usage:        0 bytes
  5722 ;; Hardware stack levels used: 1
  5723 ;; Hardware stack levels required when called: 2
  5724 ;; This function calls:
  5725 ;;		_TMR0_CallBack
  5726 ;; This function is called by:
  5727 ;;		_INTERRUPT_InterruptManager
  5728 ;; This function uses a non-reentrant model
  5729 ;;
  5730                           
  5731  040C                     _TMR0_ISR:	
  5732                           ;psect for function _TMR0_ISR
  5733                           
  5734  040C                     i1l2445:	
  5735                           ;incstack = 0
  5736                           ; Regs used in _TMR0_ISR: [wreg+status,2+status,0+pclath+cstack]
  5737                           
  5738                           
  5739                           ;mcc_generated_files/tmr0.c: 110:     static volatile uint16_t CountCallBack = 0;;mcc_ge
      +                          nerated_files/tmr0.c: 113:     INTCONbits.TMR0IF = 0;
  5740  040C  110B               	bcf	11,2	;volatile
  5741  040D                     i1l2447:
  5742                           
  5743                           ;mcc_generated_files/tmr0.c: 115:     TMR0 = timer0ReloadVal;
  5744  040D  0020               	movlb	0	; select bank0
  5745  040E  0830               	movf	_timer0ReloadVal,w	;volatile
  5746  040F  0095               	movwf	21	;volatile
  5747                           
  5748                           ;mcc_generated_files/tmr0.c: 118:     if (++CountCallBack >= 5)
  5749  0410  3001               	movlw	1
  5750  0411  07CA               	addwf	TMR0_ISR@CountCallBack,f	;volatile
  5751  0412  3000               	movlw	0
  5752  0413  3DCB               	addwfc	TMR0_ISR@CountCallBack+1,f	;volatile
  5753  0414  3000               	movlw	0
  5754  0415  024B               	subwf	TMR0_ISR@CountCallBack+1,w	;volatile
  5755  0416  3005               	movlw	5
  5756  0417  1903               	skipnz
  5757  0418  024A               	subwf	TMR0_ISR@CountCallBack,w	;volatile
  5758  0419  1C03               	skipc
  5759  041A  2C1C               	goto	u90_21
  5760  041B  2C1D               	goto	u90_20
  5761  041C                     u90_21:
  5762  041C  2C23               	goto	i1l556
  5763  041D                     u90_20:
  5764  041D                     i1l2449:
  5765                           
  5766                           ;mcc_generated_files/tmr0.c: 119:     {;mcc_generated_files/tmr0.c: 121:         TMR0_Ca
      +                          llBack();
  5767  041D  3184  24C9  3184   	fcall	_TMR0_CallBack
  5768  0420                     i1l2451:
  5769                           
  5770                           ;mcc_generated_files/tmr0.c: 124:         CountCallBack = 0;
  5771  0420  0020               	movlb	0	; select bank0
  5772  0421  01CA               	clrf	TMR0_ISR@CountCallBack	;volatile
  5773  0422  01CB               	clrf	TMR0_ISR@CountCallBack+1	;volatile
  5774  0423                     i1l556:
  5775  0423  0008               	return
  5776  0424                     __end_of_TMR0_ISR:
  5777                           
  5778                           	psect	text33
  5779  04C9                     __ptext33:	
  5780 ;; *************** function _TMR0_CallBack *****************
  5781 ;; Defined at:
  5782 ;;		line 130 in file "mcc_generated_files/tmr0.c"
  5783 ;; Parameters:    Size  Location     Type
  5784 ;;		None
  5785 ;; Auto vars:     Size  Location     Type
  5786 ;;		None
  5787 ;; Return value:  Size  Location     Type
  5788 ;;                  1    wreg      void 
  5789 ;; Registers used:
  5790 ;;		wreg, status,2, status,0, pclath, cstack
  5791 ;; Tracked objects:
  5792 ;;		On entry : 0/0
  5793 ;;		On exit  : 0/0
  5794 ;;		Unchanged: 0/0
  5795 ;; Data sizes:     COMMON   BANK0   BANK1   BANK2   BANK3   BANK4
  5796 ;;      Params:         0       0       0       0       0       0
  5797 ;;      Locals:         0       0       0       0       0       0
  5798 ;;      Temps:          0       0       0       0       0       0
  5799 ;;      Totals:         0       0       0       0       0       0
  5800 ;;Total ram usage:        0 bytes
  5801 ;; Hardware stack levels used: 1
  5802 ;; Hardware stack levels required when called: 1
  5803 ;; This function calls:
  5804 ;;		Absolute function
  5805 ;;		_TMR0_DefaultInterruptHandler
  5806 ;; This function is called by:
  5807 ;;		_TMR0_ISR
  5808 ;; This function uses a non-reentrant model
  5809 ;;
  5810                           
  5811  04C9                     _TMR0_CallBack:	
  5812                           ;psect for function _TMR0_CallBack
  5813                           
  5814  04C9                     i1l2405:	
  5815                           ;incstack = 0
  5816                           ; Regs used in _TMR0_CallBack: [wreg+status,2+status,0+pclath+cstack]
  5817                           
  5818                           
  5819                           ;mcc_generated_files/tmr0.c: 134:     if(TMR0_InterruptHandler)
  5820  04C9  0020               	movlb	0	; select bank0
  5821  04CA  0820               	movf	_TMR0_InterruptHandler,w
  5822  04CB  0421               	iorwf	_TMR0_InterruptHandler+1,w
  5823  04CC  1903               	btfsc	3,2
  5824  04CD  2CCF               	goto	u86_21
  5825  04CE  2CD0               	goto	u86_20
  5826  04CF                     u86_21:
  5827  04CF  2CD5               	goto	i1l560
  5828  04D0                     u86_20:
  5829  04D0                     i1l2407:
  5830                           
  5831                           ;mcc_generated_files/tmr0.c: 135:     {;mcc_generated_files/tmr0.c: 136:         TMR0_In
      +                          terruptHandler();
  5832  04D0  0821               	movf	_TMR0_InterruptHandler+1,w
  5833  04D1  008A               	movwf	10
  5834  04D2  0820               	movf	_TMR0_InterruptHandler,w
  5835  04D3  000A               	callw
  5836  04D4  3184               	pagesel	$
  5837  04D5                     i1l560:
  5838  04D5  0008               	return
  5839  04D6                     __end_of_TMR0_CallBack:
  5840                           
  5841                           	psect	text34
  5842  057C                     __ptext34:	
  5843 ;; *************** function _TMR0_DefaultInterruptHandler *****************
  5844 ;; Defined at:
  5845 ;;		line 144 in file "mcc_generated_files/tmr0.c"
  5846 ;; Parameters:    Size  Location     Type
  5847 ;;		None
  5848 ;; Auto vars:     Size  Location     Type
  5849 ;;		None
  5850 ;; Return value:  Size  Location     Type
  5851 ;;                  1    wreg      void 
  5852 ;; Registers used:
  5853 ;;		None
  5854 ;; Tracked objects:
  5855 ;;		On entry : 0/0
  5856 ;;		On exit  : 0/0
  5857 ;;		Unchanged: 0/0
  5858 ;; Data sizes:     COMMON   BANK0   BANK1   BANK2   BANK3   BANK4
  5859 ;;      Params:         0       0       0       0       0       0
  5860 ;;      Locals:         0       0       0       0       0       0
  5861 ;;      Temps:          0       0       0       0       0       0
  5862 ;;      Totals:         0       0       0       0       0       0
  5863 ;;Total ram usage:        0 bytes
  5864 ;; Hardware stack levels used: 1
  5865 ;; This function calls:
  5866 ;;		Nothing
  5867 ;; This function is called by:
  5868 ;;		_TMR0_Initialize
  5869 ;;		_TMR0_CallBack
  5870 ;; This function uses a non-reentrant model
  5871 ;;
  5872                           
  5873  057C                     _TMR0_DefaultInterruptHandler:	
  5874                           ;psect for function _TMR0_DefaultInterruptHandler
  5875                           
  5876  057C                     i1l566:	
  5877                           ;incstack = 0
  5878                           ; Regs used in _TMR0_DefaultInterruptHandler: []
  5879                           
  5880  057C  0008               	return
  5881  057D                     __end_of_TMR0_DefaultInterruptHandler:
  5882                           
  5883                           	psect	text35
  5884  0462                     __ptext35:	
  5885 ;; *************** function _PIN_MANAGER_IOC *****************
  5886 ;; Defined at:
  5887 ;;		line 119 in file "mcc_generated_files/pin_manager.c"
  5888 ;; Parameters:    Size  Location     Type
  5889 ;;		None
  5890 ;; Auto vars:     Size  Location     Type
  5891 ;;		None
  5892 ;; Return value:  Size  Location     Type
  5893 ;;                  1    wreg      void 
  5894 ;; Registers used:
  5895 ;;		wreg, fsr1l, fsr1h, status,2, status,0, pclath, cstack
  5896 ;; Tracked objects:
  5897 ;;		On entry : 0/0
  5898 ;;		On exit  : 0/0
  5899 ;;		Unchanged: 0/0
  5900 ;; Data sizes:     COMMON   BANK0   BANK1   BANK2   BANK3   BANK4
  5901 ;;      Params:         0       0       0       0       0       0
  5902 ;;      Locals:         0       0       0       0       0       0
  5903 ;;      Temps:          0       0       0       0       0       0
  5904 ;;      Totals:         0       0       0       0       0       0
  5905 ;;Total ram usage:        0 bytes
  5906 ;; Hardware stack levels used: 1
  5907 ;; Hardware stack levels required when called: 5
  5908 ;; This function calls:
  5909 ;;		_IOCBF0_ISR
  5910 ;;		_IOCBF3_ISR
  5911 ;; This function is called by:
  5912 ;;		_INTERRUPT_InterruptManager
  5913 ;; This function uses a non-reentrant model
  5914 ;;
  5915                           
  5916  0462                     _PIN_MANAGER_IOC:	
  5917                           ;psect for function _PIN_MANAGER_IOC
  5918                           
  5919  0462                     i1l2421:	
  5920                           ;incstack = 0
  5921                           ; Regs used in _PIN_MANAGER_IOC: [wreg+fsr1l+fsr1h+status,2+status,0+pclath+cstack]
  5922                           
  5923                           
  5924                           ;mcc_generated_files/pin_manager.c: 122:     if(IOCBFbits.IOCBF0 == 1)
  5925  0462  0027               	movlb	7	; select bank7
  5926  0463  1C16               	btfss	22,0	;volatile
  5927  0464  2C66               	goto	u87_21
  5928  0465  2C67               	goto	u87_20
  5929  0466                     u87_21:
  5930  0466  2C6A               	goto	i1l2425
  5931  0467                     u87_20:
  5932  0467                     i1l2423:
  5933                           
  5934                           ;mcc_generated_files/pin_manager.c: 123:     {;mcc_generated_files/pin_manager.c: 124:  
      +                                 IOCBF0_ISR();
  5935  0467  3184  2492  3184   	fcall	_IOCBF0_ISR
  5936  046A                     i1l2425:
  5937                           
  5938                           ;mcc_generated_files/pin_manager.c: 127:     if(IOCBFbits.IOCBF3 == 1)
  5939  046A  0027               	movlb	7	; select bank7
  5940  046B  1D96               	btfss	22,3	;volatile
  5941  046C  2C6E               	goto	u88_21
  5942  046D  2C6F               	goto	u88_20
  5943  046E                     u88_21:
  5944  046E  2C72               	goto	i1l134
  5945  046F                     u88_20:
  5946  046F                     i1l2427:
  5947                           
  5948                           ;mcc_generated_files/pin_manager.c: 128:     {;mcc_generated_files/pin_manager.c: 129:  
      +                                 IOCBF3_ISR();
  5949  046F  3184  2483  3184   	fcall	_IOCBF3_ISR
  5950  0472                     i1l134:
  5951  0472  0008               	return
  5952  0473                     __end_of_PIN_MANAGER_IOC:
  5953                           
  5954                           	psect	text36
  5955  0483                     __ptext36:	
  5956 ;; *************** function _IOCBF3_ISR *****************
  5957 ;; Defined at:
  5958 ;;		line 166 in file "mcc_generated_files/pin_manager.c"
  5959 ;; Parameters:    Size  Location     Type
  5960 ;;		None
  5961 ;; Auto vars:     Size  Location     Type
  5962 ;;		None
  5963 ;; Return value:  Size  Location     Type
  5964 ;;                  1    wreg      void 
  5965 ;; Registers used:
  5966 ;;		wreg, fsr1l, fsr1h, status,2, status,0, pclath, cstack
  5967 ;; Tracked objects:
  5968 ;;		On entry : 0/0
  5969 ;;		On exit  : 0/0
  5970 ;;		Unchanged: 0/0
  5971 ;; Data sizes:     COMMON   BANK0   BANK1   BANK2   BANK3   BANK4
  5972 ;;      Params:         0       0       0       0       0       0
  5973 ;;      Locals:         0       0       0       0       0       0
  5974 ;;      Temps:          0       0       0       0       0       0
  5975 ;;      Totals:         0       0       0       0       0       0
  5976 ;;Total ram usage:        0 bytes
  5977 ;; Hardware stack levels used: 1
  5978 ;; Hardware stack levels required when called: 4
  5979 ;; This function calls:
  5980 ;;		Absolute function
  5981 ;;		_IOCBF3_DefaultInterruptHandler
  5982 ;;		_chegadaS1
  5983 ;;		_chegadaS2
  5984 ;; This function is called by:
  5985 ;;		_PIN_MANAGER_IOC
  5986 ;; This function uses a non-reentrant model
  5987 ;;
  5988                           
  5989  0483                     _IOCBF3_ISR:	
  5990                           ;psect for function _IOCBF3_ISR
  5991                           
  5992  0483                     i1l2307:	
  5993                           ;incstack = 0
  5994                           ; Regs used in _IOCBF3_ISR: [wreg+fsr1l+fsr1h+status,2+status,0+pclath+cstack]
  5995                           
  5996                           
  5997                           ;mcc_generated_files/pin_manager.c: 171:     if(IOCBF3_InterruptHandler)
  5998  0483  0020               	movlb	0	; select bank0
  5999  0484  082C               	movf	_IOCBF3_InterruptHandler,w
  6000  0485  042D               	iorwf	_IOCBF3_InterruptHandler+1,w
  6001  0486  1903               	btfsc	3,2
  6002  0487  2C89               	goto	u83_21
  6003  0488  2C8A               	goto	u83_20
  6004  0489                     u83_21:
  6005  0489  2C8F               	goto	i1l2311
  6006  048A                     u83_20:
  6007  048A                     i1l2309:
  6008                           
  6009                           ;mcc_generated_files/pin_manager.c: 172:     {;mcc_generated_files/pin_manager.c: 173:  
      +                                 IOCBF3_InterruptHandler();
  6010  048A  082D               	movf	_IOCBF3_InterruptHandler+1,w
  6011  048B  008A               	movwf	10
  6012  048C  082C               	movf	_IOCBF3_InterruptHandler,w
  6013  048D  000A               	callw
  6014  048E  3184               	pagesel	$
  6015  048F                     i1l2311:
  6016                           
  6017                           ;mcc_generated_files/pin_manager.c: 175:     IOCBFbits.IOCBF3 = 0;
  6018  048F  0027               	movlb	7	; select bank7
  6019  0490  1196               	bcf	22,3	;volatile
  6020  0491                     i1l148:
  6021  0491  0008               	return
  6022  0492                     __end_of_IOCBF3_ISR:
  6023                           
  6024                           	psect	text37
  6025  0294                     __ptext37:	
  6026 ;; *************** function _chegadaS1 *****************
  6027 ;; Defined at:
  6028 ;;		line 134 in file "main.c"
  6029 ;; Parameters:    Size  Location     Type
  6030 ;;		None
  6031 ;; Auto vars:     Size  Location     Type
  6032 ;;		None
  6033 ;; Return value:  Size  Location     Type
  6034 ;;                  1    wreg      void 
  6035 ;; Registers used:
  6036 ;;		wreg, fsr1l, fsr1h, status,2, status,0, pclath, cstack
  6037 ;; Tracked objects:
  6038 ;;		On entry : 0/0
  6039 ;;		On exit  : 0/0
  6040 ;;		Unchanged: 0/0
  6041 ;; Data sizes:     COMMON   BANK0   BANK1   BANK2   BANK3   BANK4
  6042 ;;      Params:         0       0       0       0       0       0
  6043 ;;      Locals:         0       0       0       0       0       0
  6044 ;;      Temps:          1       0       0       0       0       0
  6045 ;;      Totals:         1       0       0       0       0       0
  6046 ;;Total ram usage:        1 bytes
  6047 ;; Hardware stack levels used: 1
  6048 ;; Hardware stack levels required when called: 3
  6049 ;; This function calls:
  6050 ;;		_PWM3_LoadDutyValue
  6051 ;;		_matrixUpdate
  6052 ;; This function is called by:
  6053 ;;		_main
  6054 ;;		_IOCBF3_ISR
  6055 ;; This function uses a non-reentrant model
  6056 ;;
  6057                           
  6058  0294                     _chegadaS1:	
  6059                           ;psect for function _chegadaS1
  6060                           
  6061  0294                     i1l2109:	
  6062                           ;incstack = 0
  6063                           ; Regs used in _chegadaS1: [wreg+fsr1l+fsr1h+status,2+status,0+pclath+cstack]
  6064                           
  6065                           
  6066                           ;main.c: 135:     PWM3_LoadDutyValue(0);
  6067  0294  3000               	movlw	0
  6068  0295  00F0               	movwf	PWM3_LoadDutyValue@dutyValue
  6069  0296  00F1               	movwf	PWM3_LoadDutyValue@dutyValue+1
  6070  0297  3184  2424  3182   	fcall	_PWM3_LoadDutyValue
  6071  029A                     i1l2111:
  6072                           
  6073                           ;main.c: 138:     mov = Repouso;
  6074  029A  0020               	movlb	0	; select bank0
  6075  029B  01D0               	clrf	_mov
  6076  029C                     i1l2113:
  6077                           
  6078                           ;main.c: 140:     MatrixLed[0] = 0b01111110;
  6079  029C  307E               	movlw	126
  6080  029D  00FC               	movwf	??_chegadaS1
  6081  029E  087C               	movf	??_chegadaS1,w
  6082  029F  00C2               	movwf	_MatrixLed
  6083  02A0                     i1l2115:
  6084                           
  6085                           ;main.c: 141:     MatrixLed[1] = 0b10000001;
  6086  02A0  3081               	movlw	129
  6087  02A1  00FC               	movwf	??_chegadaS1
  6088  02A2  087C               	movf	??_chegadaS1,w
  6089  02A3  00C3               	movwf	_MatrixLed+1
  6090  02A4                     i1l2117:
  6091                           
  6092                           ;main.c: 142:     MatrixLed[2] = 0b10000001;
  6093  02A4  3081               	movlw	129
  6094  02A5  00FC               	movwf	??_chegadaS1
  6095  02A6  087C               	movf	??_chegadaS1,w
  6096  02A7  00C4               	movwf	_MatrixLed+2
  6097  02A8                     i1l2119:
  6098                           
  6099                           ;main.c: 143:     MatrixLed[3] = 0b01111110;
  6100  02A8  307E               	movlw	126
  6101  02A9  00FC               	movwf	??_chegadaS1
  6102  02AA  087C               	movf	??_chegadaS1,w
  6103  02AB  00C5               	movwf	_MatrixLed+3
  6104  02AC                     i1l2121:
  6105                           
  6106                           ;main.c: 144:     MatrixLed[4] = 0;
  6107  02AC  01C6               	clrf	_MatrixLed+4
  6108  02AD                     i1l2123:
  6109                           
  6110                           ;main.c: 145:     if(subindo){
  6111  02AD  0852               	movf	_subindo,w
  6112  02AE  1903               	btfsc	3,2
  6113  02AF  2AB1               	goto	u67_21
  6114  02B0  2AB2               	goto	u67_20
  6115  02B1                     u67_21:
  6116  02B1  2ABF               	goto	i1l2127
  6117  02B2                     u67_20:
  6118  02B2                     i1l2125:
  6119                           
  6120                           ;main.c: 146:         MatrixLed[5] = 0b01100000;
  6121  02B2  3060               	movlw	96
  6122  02B3  00FC               	movwf	??_chegadaS1
  6123  02B4  087C               	movf	??_chegadaS1,w
  6124  02B5  00C7               	movwf	_MatrixLed+5
  6125                           
  6126                           ;main.c: 147:         MatrixLed[6] = 0b11000000;
  6127  02B6  30C0               	movlw	192
  6128  02B7  00FC               	movwf	??_chegadaS1
  6129  02B8  087C               	movf	??_chegadaS1,w
  6130  02B9  00C8               	movwf	_MatrixLed+6
  6131                           
  6132                           ;main.c: 148:         MatrixLed[7] = 0b01100000;
  6133  02BA  3060               	movlw	96
  6134  02BB  00FC               	movwf	??_chegadaS1
  6135  02BC  087C               	movf	??_chegadaS1,w
  6136  02BD  00C9               	movwf	_MatrixLed+7
  6137                           
  6138                           ;main.c: 149:     }else{
  6139  02BE  2AD0               	goto	i1l2131
  6140  02BF                     i1l2127:
  6141                           
  6142                           ;main.c: 150:         MatrixLed[5] = 0b11000000;
  6143  02BF  30C0               	movlw	192
  6144  02C0  00FC               	movwf	??_chegadaS1
  6145  02C1  087C               	movf	??_chegadaS1,w
  6146  02C2  00C7               	movwf	_MatrixLed+5
  6147                           
  6148                           ;main.c: 151:         MatrixLed[6] = 0b01100000;
  6149  02C3  3060               	movlw	96
  6150  02C4  00FC               	movwf	??_chegadaS1
  6151  02C5  087C               	movf	??_chegadaS1,w
  6152  02C6  00C8               	movwf	_MatrixLed+6
  6153                           
  6154                           ;main.c: 152:         MatrixLed[7] = 0b11000000;
  6155  02C7  30C0               	movlw	192
  6156  02C8  00FC               	movwf	??_chegadaS1
  6157  02C9  087C               	movf	??_chegadaS1,w
  6158  02CA  00C9               	movwf	_MatrixLed+7
  6159  02CB                     i1l2129:
  6160                           
  6161                           ;main.c: 153:         destinoDesc = destinoDesc & 0b11111110;
  6162  02CB  087D               	movf	_destinoDesc,w
  6163  02CC  39FE               	andlw	254
  6164  02CD  00FC               	movwf	??_chegadaS1
  6165  02CE  087C               	movf	??_chegadaS1,w
  6166  02CF  00FD               	movwf	_destinoDesc
  6167  02D0                     i1l2131:
  6168                           
  6169                           ;main.c: 155:     matrixUpdate();
  6170  02D0  3183  23D3  3182   	fcall	_matrixUpdate
  6171  02D3                     i1l644:
  6172  02D3  0008               	return
  6173  02D4                     __end_of_chegadaS1:
  6174                           
  6175                           	psect	text38
  6176  057D                     __ptext38:	
  6177 ;; *************** function _IOCBF3_DefaultInterruptHandler *****************
  6178 ;; Defined at:
  6179 ;;		line 188 in file "mcc_generated_files/pin_manager.c"
  6180 ;; Parameters:    Size  Location     Type
  6181 ;;		None
  6182 ;; Auto vars:     Size  Location     Type
  6183 ;;		None
  6184 ;; Return value:  Size  Location     Type
  6185 ;;                  1    wreg      void 
  6186 ;; Registers used:
  6187 ;;		None
  6188 ;; Tracked objects:
  6189 ;;		On entry : 0/0
  6190 ;;		On exit  : 0/0
  6191 ;;		Unchanged: 0/0
  6192 ;; Data sizes:     COMMON   BANK0   BANK1   BANK2   BANK3   BANK4
  6193 ;;      Params:         0       0       0       0       0       0
  6194 ;;      Locals:         0       0       0       0       0       0
  6195 ;;      Temps:          0       0       0       0       0       0
  6196 ;;      Totals:         0       0       0       0       0       0
  6197 ;;Total ram usage:        0 bytes
  6198 ;; Hardware stack levels used: 1
  6199 ;; This function calls:
  6200 ;;		Nothing
  6201 ;; This function is called by:
  6202 ;;		_PIN_MANAGER_Initialize
  6203 ;;		_IOCBF3_ISR
  6204 ;; This function uses a non-reentrant model
  6205 ;;
  6206                           
  6207  057D                     _IOCBF3_DefaultInterruptHandler:	
  6208                           ;psect for function _IOCBF3_DefaultInterruptHandler
  6209                           
  6210  057D                     i1l154:	
  6211                           ;incstack = 0
  6212                           ; Regs used in _IOCBF3_DefaultInterruptHandler: []
  6213                           
  6214  057D  0008               	return
  6215  057E                     __end_of_IOCBF3_DefaultInterruptHandler:
  6216                           
  6217                           	psect	text39
  6218  0134                     __ptext39:	
  6219 ;; *************** function _chegadaS2 *****************
  6220 ;; Defined at:
  6221 ;;		line 162 in file "main.c"
  6222 ;; Parameters:    Size  Location     Type
  6223 ;;		None
  6224 ;; Auto vars:     Size  Location     Type
  6225 ;;		None
  6226 ;; Return value:  Size  Location     Type
  6227 ;;                  1    wreg      void 
  6228 ;; Registers used:
  6229 ;;		wreg, fsr1l, fsr1h, status,2, status,0, pclath, cstack
  6230 ;; Tracked objects:
  6231 ;;		On entry : 0/0
  6232 ;;		On exit  : 0/0
  6233 ;;		Unchanged: 0/0
  6234 ;; Data sizes:     COMMON   BANK0   BANK1   BANK2   BANK3   BANK4
  6235 ;;      Params:         0       0       0       0       0       0
  6236 ;;      Locals:         0       0       0       0       0       0
  6237 ;;      Temps:          1       0       0       0       0       0
  6238 ;;      Totals:         1       0       0       0       0       0
  6239 ;;Total ram usage:        1 bytes
  6240 ;; Hardware stack levels used: 1
  6241 ;; Hardware stack levels required when called: 3
  6242 ;; This function calls:
  6243 ;;		_PWM3_LoadDutyValue
  6244 ;;		_TMR1_ReadTimer
  6245 ;;		_TMR1_StartTimer
  6246 ;;		_matrixUpdate
  6247 ;; This function is called by:
  6248 ;;		_main
  6249 ;;		_IOCBF3_ISR
  6250 ;; This function uses a non-reentrant model
  6251 ;;
  6252                           
  6253  0134                     _chegadaS2:	
  6254                           ;psect for function _chegadaS2
  6255                           
  6256  0134                     i1l2133:	
  6257                           ;incstack = 0
  6258                           ; Regs used in _chegadaS2: [wreg+fsr1l+fsr1h+status,2+status,0+pclath+cstack]
  6259                           
  6260                           
  6261                           ;main.c: 163:     PWM3_LoadDutyValue(0);
  6262  0134  3000               	movlw	0
  6263  0135  00F0               	movwf	PWM3_LoadDutyValue@dutyValue
  6264  0136  00F1               	movwf	PWM3_LoadDutyValue@dutyValue+1
  6265  0137  3184  2424  3181   	fcall	_PWM3_LoadDutyValue
  6266  013A                     i1l2135:
  6267                           
  6268                           ;main.c: 166:     if(((destinoSub & 0b00000010) == 2 )||((destinoDesc & 0b00000010) == 2
      +                           ) ){
  6269  013A  0020               	movlb	0	; select bank0
  6270  013B  18D1               	btfsc	_destinoSub,1
  6271  013C  293E               	goto	u68_21
  6272  013D  293F               	goto	u68_20
  6273  013E                     u68_21:
  6274  013E  2943               	goto	i1l2139
  6275  013F                     u68_20:
  6276  013F                     i1l2137:
  6277  013F  1CFD               	btfss	_destinoDesc,1
  6278  0140  2942               	goto	u69_21
  6279  0141  2943               	goto	u69_20
  6280  0142                     u69_21:
  6281  0142  2949               	goto	i1l2143
  6282  0143                     u69_20:
  6283  0143                     i1l2139:
  6284                           
  6285                           ;main.c: 167:         TMR1_ReadTimer();
  6286  0143  3185  2505  3181   	fcall	_TMR1_ReadTimer
  6287  0146                     i1l2141:
  6288                           
  6289                           ;main.c: 168:         TMR1_StartTimer();
  6290  0146  3185  2577  3181   	fcall	_TMR1_StartTimer
  6291  0149                     i1l2143:
  6292                           
  6293                           ;main.c: 173:     MatrixLed[0] = 0b00000000;
  6294  0149  0020               	movlb	0	; select bank0
  6295  014A  01C2               	clrf	_MatrixLed
  6296  014B                     i1l2145:
  6297                           
  6298                           ;main.c: 174:     MatrixLed[1] = 0b01000001;
  6299  014B  3041               	movlw	65
  6300  014C  00FC               	movwf	??_chegadaS2
  6301  014D  087C               	movf	??_chegadaS2,w
  6302  014E  00C3               	movwf	_MatrixLed+1
  6303  014F                     i1l2147:
  6304                           
  6305                           ;main.c: 175:     MatrixLed[2] = 0b11111111;
  6306  014F  30FF               	movlw	255
  6307  0150  00FC               	movwf	??_chegadaS2
  6308  0151  087C               	movf	??_chegadaS2,w
  6309  0152  00C4               	movwf	_MatrixLed+2
  6310  0153                     i1l2149:
  6311                           
  6312                           ;main.c: 176:     MatrixLed[3] = 0b00000001;
  6313  0153  01C5               	clrf	_MatrixLed+3
  6314  0154  0AC5               	incf	_MatrixLed+3,f
  6315  0155                     i1l2151:
  6316                           
  6317                           ;main.c: 177:     MatrixLed[4] = 0;
  6318  0155  01C6               	clrf	_MatrixLed+4
  6319  0156                     i1l2153:
  6320                           
  6321                           ;main.c: 178:     if(subindo){
  6322  0156  0852               	movf	_subindo,w
  6323  0157  1903               	btfsc	3,2
  6324  0158  295A               	goto	u70_21
  6325  0159  295B               	goto	u70_20
  6326  015A                     u70_21:
  6327  015A  2971               	goto	i1l2161
  6328  015B                     u70_20:
  6329  015B                     i1l2155:
  6330                           
  6331                           ;main.c: 179:         MatrixLed[5] = 0b01100000;
  6332  015B  3060               	movlw	96
  6333  015C  00FC               	movwf	??_chegadaS2
  6334  015D  087C               	movf	??_chegadaS2,w
  6335  015E  00C7               	movwf	_MatrixLed+5
  6336                           
  6337                           ;main.c: 180:         MatrixLed[6] = 0b11000000;
  6338  015F  30C0               	movlw	192
  6339  0160  00FC               	movwf	??_chegadaS2
  6340  0161  087C               	movf	??_chegadaS2,w
  6341  0162  00C8               	movwf	_MatrixLed+6
  6342                           
  6343                           ;main.c: 181:         MatrixLed[7] = 0b01100000;
  6344  0163  3060               	movlw	96
  6345  0164  00FC               	movwf	??_chegadaS2
  6346  0165  087C               	movf	??_chegadaS2,w
  6347  0166  00C9               	movwf	_MatrixLed+7
  6348  0167                     i1l2157:
  6349                           
  6350                           ;main.c: 182:         destinoSub = destinoSub & 0b11111101;
  6351  0167  0851               	movf	_destinoSub,w
  6352  0168  39FD               	andlw	253
  6353  0169  00FC               	movwf	??_chegadaS2
  6354  016A  087C               	movf	??_chegadaS2,w
  6355  016B  00D1               	movwf	_destinoSub
  6356  016C                     i1l2159:
  6357                           
  6358                           ;main.c: 184:         mov = EmTrajeto;
  6359  016C  3002               	movlw	2
  6360  016D  00FC               	movwf	??_chegadaS2
  6361  016E  087C               	movf	??_chegadaS2,w
  6362  016F  00D0               	movwf	_mov
  6363                           
  6364                           ;main.c: 185:     }else{
  6365  0170  298B               	goto	i1l2169
  6366  0171                     i1l2161:
  6367                           
  6368                           ;main.c: 186:         MatrixLed[5] = 0b11000000;
  6369  0171  30C0               	movlw	192
  6370  0172  00FC               	movwf	??_chegadaS2
  6371  0173  087C               	movf	??_chegadaS2,w
  6372  0174  00C7               	movwf	_MatrixLed+5
  6373                           
  6374                           ;main.c: 187:         MatrixLed[6] = 0b01100000;
  6375  0175  3060               	movlw	96
  6376  0176  00FC               	movwf	??_chegadaS2
  6377  0177  087C               	movf	??_chegadaS2,w
  6378  0178  00C8               	movwf	_MatrixLed+6
  6379                           
  6380                           ;main.c: 188:         MatrixLed[7] = 0b11000000;
  6381  0179  30C0               	movlw	192
  6382  017A  00FC               	movwf	??_chegadaS2
  6383  017B  087C               	movf	??_chegadaS2,w
  6384  017C  00C9               	movwf	_MatrixLed+7
  6385  017D                     i1l2163:
  6386                           
  6387                           ;main.c: 189:         destinoDesc = destinoDesc & 0b11111101;
  6388  017D  087D               	movf	_destinoDesc,w
  6389  017E  39FD               	andlw	253
  6390  017F  00FC               	movwf	??_chegadaS2
  6391  0180  087C               	movf	??_chegadaS2,w
  6392  0181  00FD               	movwf	_destinoDesc
  6393  0182                     i1l2165:
  6394                           
  6395                           ;main.c: 192:         if(destinoDesc == 0){
  6396  0182  087D               	movf	_destinoDesc,w
  6397  0183  1D03               	btfss	3,2
  6398  0184  2986               	goto	u71_21
  6399  0185  2987               	goto	u71_20
  6400  0186                     u71_21:
  6401  0186  298B               	goto	i1l2169
  6402  0187                     u71_20:
  6403  0187                     i1l2167:
  6404                           
  6405                           ;main.c: 193:             mov = RetornaS0;
  6406  0187  3003               	movlw	3
  6407  0188  00FC               	movwf	??_chegadaS2
  6408  0189  087C               	movf	??_chegadaS2,w
  6409  018A  00D0               	movwf	_mov
  6410  018B                     i1l2169:
  6411                           
  6412                           ;main.c: 196:     MatrixLed[7] = MatrixLed[7] | destinoSub;
  6413  018B  0849               	movf	_MatrixLed+7,w
  6414  018C  0451               	iorwf	_destinoSub,w
  6415  018D  00FC               	movwf	??_chegadaS2
  6416  018E  087C               	movf	??_chegadaS2,w
  6417  018F  00C9               	movwf	_MatrixLed+7
  6418  0190                     i1l2171:
  6419                           
  6420                           ;main.c: 197:     MatrixLed[6] = MatrixLed[6] | destinoDesc;
  6421  0190  0848               	movf	_MatrixLed+6,w
  6422  0191  047D               	iorwf	_destinoDesc,w
  6423  0192  00FC               	movwf	??_chegadaS2
  6424  0193  087C               	movf	??_chegadaS2,w
  6425  0194  00C8               	movwf	_MatrixLed+6
  6426  0195                     i1l2173:
  6427                           
  6428                           ;main.c: 198:     matrixUpdate();
  6429  0195  3183  23D3  3181   	fcall	_matrixUpdate
  6430  0198                     i1l653:
  6431  0198  0008               	return
  6432  0199                     __end_of_chegadaS2:
  6433                           
  6434                           	psect	text40
  6435  0492                     __ptext40:	
  6436 ;; *************** function _IOCBF0_ISR *****************
  6437 ;; Defined at:
  6438 ;;		line 136 in file "mcc_generated_files/pin_manager.c"
  6439 ;; Parameters:    Size  Location     Type
  6440 ;;		None
  6441 ;; Auto vars:     Size  Location     Type
  6442 ;;		None
  6443 ;; Return value:  Size  Location     Type
  6444 ;;                  1    wreg      void 
  6445 ;; Registers used:
  6446 ;;		wreg, status,2, status,0, pclath, cstack
  6447 ;; Tracked objects:
  6448 ;;		On entry : 0/0
  6449 ;;		On exit  : 0/0
  6450 ;;		Unchanged: 0/0
  6451 ;; Data sizes:     COMMON   BANK0   BANK1   BANK2   BANK3   BANK4
  6452 ;;      Params:         0       0       0       0       0       0
  6453 ;;      Locals:         0       0       0       0       0       0
  6454 ;;      Temps:          0       0       0       0       0       0
  6455 ;;      Totals:         0       0       0       0       0       0
  6456 ;;Total ram usage:        0 bytes
  6457 ;; Hardware stack levels used: 1
  6458 ;; Hardware stack levels required when called: 1
  6459 ;; This function calls:
  6460 ;;		Absolute function
  6461 ;;		_IOCBF0_DefaultInterruptHandler
  6462 ;; This function is called by:
  6463 ;;		_PIN_MANAGER_IOC
  6464 ;; This function uses a non-reentrant model
  6465 ;;
  6466                           
  6467  0492                     _IOCBF0_ISR:	
  6468                           ;psect for function _IOCBF0_ISR
  6469                           
  6470  0492                     i1l2301:	
  6471                           ;incstack = 0
  6472                           ; Regs used in _IOCBF0_ISR: [wreg+status,2+status,0+pclath+cstack]
  6473                           
  6474                           
  6475                           ;mcc_generated_files/pin_manager.c: 141:     if(IOCBF0_InterruptHandler)
  6476  0492  0020               	movlb	0	; select bank0
  6477  0493  082E               	movf	_IOCBF0_InterruptHandler,w
  6478  0494  042F               	iorwf	_IOCBF0_InterruptHandler+1,w
  6479  0495  1903               	btfsc	3,2
  6480  0496  2C98               	goto	u82_21
  6481  0497  2C99               	goto	u82_20
  6482  0498                     u82_21:
  6483  0498  2C9E               	goto	i1l2305
  6484  0499                     u82_20:
  6485  0499                     i1l2303:
  6486                           
  6487                           ;mcc_generated_files/pin_manager.c: 142:     {;mcc_generated_files/pin_manager.c: 143:  
      +                                 IOCBF0_InterruptHandler();
  6488  0499  082F               	movf	_IOCBF0_InterruptHandler+1,w
  6489  049A  008A               	movwf	10
  6490  049B  082E               	movf	_IOCBF0_InterruptHandler,w
  6491  049C  000A               	callw
  6492  049D  3184               	pagesel	$
  6493  049E                     i1l2305:
  6494                           
  6495                           ;mcc_generated_files/pin_manager.c: 145:     IOCBFbits.IOCBF0 = 0;
  6496  049E  0027               	movlb	7	; select bank7
  6497  049F  1016               	bcf	22,0	;volatile
  6498  04A0                     i1l138:
  6499  04A0  0008               	return
  6500  04A1                     __end_of_IOCBF0_ISR:
  6501                           
  6502                           	psect	text41
  6503  057E                     __ptext41:	
  6504 ;; *************** function _IOCBF0_DefaultInterruptHandler *****************
  6505 ;; Defined at:
  6506 ;;		line 158 in file "mcc_generated_files/pin_manager.c"
  6507 ;; Parameters:    Size  Location     Type
  6508 ;;		None
  6509 ;; Auto vars:     Size  Location     Type
  6510 ;;		None
  6511 ;; Return value:  Size  Location     Type
  6512 ;;                  1    wreg      void 
  6513 ;; Registers used:
  6514 ;;		None
  6515 ;; Tracked objects:
  6516 ;;		On entry : 0/0
  6517 ;;		On exit  : 0/0
  6518 ;;		Unchanged: 0/0
  6519 ;; Data sizes:     COMMON   BANK0   BANK1   BANK2   BANK3   BANK4
  6520 ;;      Params:         0       0       0       0       0       0
  6521 ;;      Locals:         0       0       0       0       0       0
  6522 ;;      Temps:          0       0       0       0       0       0
  6523 ;;      Totals:         0       0       0       0       0       0
  6524 ;;Total ram usage:        0 bytes
  6525 ;; Hardware stack levels used: 1
  6526 ;; This function calls:
  6527 ;;		Nothing
  6528 ;; This function is called by:
  6529 ;;		_PIN_MANAGER_Initialize
  6530 ;;		_IOCBF0_ISR
  6531 ;; This function uses a non-reentrant model
  6532 ;;
  6533                           
  6534  057E                     _IOCBF0_DefaultInterruptHandler:	
  6535                           ;psect for function _IOCBF0_DefaultInterruptHandler
  6536                           
  6537  057E                     i1l144:	
  6538                           ;incstack = 0
  6539                           ; Regs used in _IOCBF0_DefaultInterruptHandler: []
  6540                           
  6541  057E  0008               	return
  6542  057F                     __end_of_IOCBF0_DefaultInterruptHandler:
  6543                           
  6544                           	psect	text42
  6545  055F                     __ptext42:	
  6546 ;; *************** function _CMP2_ISR *****************
  6547 ;; Defined at:
  6548 ;;		line 86 in file "mcc_generated_files/cmp2.c"
  6549 ;; Parameters:    Size  Location     Type
  6550 ;;		None
  6551 ;; Auto vars:     Size  Location     Type
  6552 ;;		None
  6553 ;; Return value:  Size  Location     Type
  6554 ;;                  1    wreg      void 
  6555 ;; Registers used:
  6556 ;;		wreg, fsr1l, fsr1h, status,2, status,0, pclath, cstack
  6557 ;; Tracked objects:
  6558 ;;		On entry : 0/0
  6559 ;;		On exit  : 0/0
  6560 ;;		Unchanged: 0/0
  6561 ;; Data sizes:     COMMON   BANK0   BANK1   BANK2   BANK3   BANK4
  6562 ;;      Params:         0       0       0       0       0       0
  6563 ;;      Locals:         0       0       0       0       0       0
  6564 ;;      Temps:          0       0       0       0       0       0
  6565 ;;      Totals:         0       0       0       0       0       0
  6566 ;;Total ram usage:        0 bytes
  6567 ;; Hardware stack levels used: 1
  6568 ;; Hardware stack levels required when called: 4
  6569 ;; This function calls:
  6570 ;;		_chegadaS4
  6571 ;; This function is called by:
  6572 ;;		_INTERRUPT_InterruptManager
  6573 ;; This function uses a non-reentrant model
  6574 ;;
  6575                           
  6576  055F                     _CMP2_ISR:	
  6577                           ;psect for function _CMP2_ISR
  6578                           
  6579  055F                     i1l2413:	
  6580                           ;incstack = 0
  6581                           ; Regs used in _CMP2_ISR: [wreg+fsr1l+fsr1h+status,2+status,0+pclath+cstack]
  6582                           
  6583                           
  6584                           ;mcc_generated_files/cmp2.c: 89:     PIR2bits.C2IF = 0;
  6585  055F  0020               	movlb	0	; select bank0
  6586  0560  1312               	bcf	18,6	;volatile
  6587  0561                     i1l2415:
  6588                           
  6589                           ;mcc_generated_files/cmp2.c: 90:     chegadaS4();
  6590  0561  3180  205C  3185   	fcall	_chegadaS4
  6591  0564                     i1l47:
  6592  0564  0008               	return
  6593  0565                     __end_of_CMP2_ISR:
  6594                           
  6595                           	psect	text43
  6596  005C                     __ptext43:	
  6597 ;; *************** function _chegadaS4 *****************
  6598 ;; Defined at:
  6599 ;;		line 241 in file "main.c"
  6600 ;; Parameters:    Size  Location     Type
  6601 ;;		None
  6602 ;; Auto vars:     Size  Location     Type
  6603 ;;		None
  6604 ;; Return value:  Size  Location     Type
  6605 ;;                  1    wreg      void 
  6606 ;; Registers used:
  6607 ;;		wreg, fsr1l, fsr1h, status,2, status,0, pclath, cstack
  6608 ;; Tracked objects:
  6609 ;;		On entry : 0/0
  6610 ;;		On exit  : 0/0
  6611 ;;		Unchanged: 0/0
  6612 ;; Data sizes:     COMMON   BANK0   BANK1   BANK2   BANK3   BANK4
  6613 ;;      Params:         0       0       0       0       0       0
  6614 ;;      Locals:         0       0       0       0       0       0
  6615 ;;      Temps:          1       0       0       0       0       0
  6616 ;;      Totals:         1       0       0       0       0       0
  6617 ;;Total ram usage:        1 bytes
  6618 ;; Hardware stack levels used: 1
  6619 ;; Hardware stack levels required when called: 3
  6620 ;; This function calls:
  6621 ;;		_PWM3_LoadDutyValue
  6622 ;;		_TMR1_ReadTimer
  6623 ;;		_TMR1_StartTimer
  6624 ;;		_matrixUpdate
  6625 ;; This function is called by:
  6626 ;;		_CMP2_ISR
  6627 ;; This function uses a non-reentrant model
  6628 ;;
  6629                           
  6630  005C                     _chegadaS4:	
  6631                           ;psect for function _chegadaS4
  6632                           
  6633  005C                     i1l2191:	
  6634                           ;incstack = 0
  6635                           ; Regs used in _chegadaS4: [wreg+fsr1l+fsr1h+status,2+status,0+pclath+cstack]
  6636                           
  6637                           
  6638                           ;main.c: 242:     PWM3_LoadDutyValue(0);
  6639  005C  3000               	movlw	0
  6640  005D  00F0               	movwf	PWM3_LoadDutyValue@dutyValue
  6641  005E  00F1               	movwf	PWM3_LoadDutyValue@dutyValue+1
  6642  005F  3184  2424  3180   	fcall	_PWM3_LoadDutyValue
  6643  0062                     i1l2193:
  6644                           
  6645                           ;main.c: 245:     if(((destinoSub & 0b00001000) == 8 )||((destinoDesc & 0b00001000) == 8
      +                           ) ){
  6646  0062  0020               	movlb	0	; select bank0
  6647  0063  19D1               	btfsc	_destinoSub,3
  6648  0064  2866               	goto	u72_21
  6649  0065  2867               	goto	u72_20
  6650  0066                     u72_21:
  6651  0066  286B               	goto	i1l2197
  6652  0067                     u72_20:
  6653  0067                     i1l2195:
  6654  0067  1DFD               	btfss	_destinoDesc,3
  6655  0068  286A               	goto	u73_21
  6656  0069  286B               	goto	u73_20
  6657  006A                     u73_21:
  6658  006A  2871               	goto	i1l665
  6659  006B                     u73_20:
  6660  006B                     i1l2197:
  6661                           
  6662                           ;main.c: 246:         TMR1_ReadTimer();
  6663  006B  3185  2505  3180   	fcall	_TMR1_ReadTimer
  6664  006E                     i1l2199:
  6665                           
  6666                           ;main.c: 247:         TMR1_StartTimer();
  6667  006E  3185  2577  3180   	fcall	_TMR1_StartTimer
  6668  0071                     i1l665:	
  6669                           ;main.c: 248:     }
  6670                           
  6671                           
  6672                           ;main.c: 251:     MatrixLed[0] = 0b10000001;
  6673  0071  3081               	movlw	129
  6674  0072  00FC               	movwf	??_chegadaS4
  6675  0073  087C               	movf	??_chegadaS4,w
  6676  0074  0020               	movlb	0	; select bank0
  6677  0075  00C2               	movwf	_MatrixLed
  6678                           
  6679                           ;main.c: 252:     MatrixLed[1] = 0b10010001;
  6680  0076  3091               	movlw	145
  6681  0077  00FC               	movwf	??_chegadaS4
  6682  0078  087C               	movf	??_chegadaS4,w
  6683  0079  00C3               	movwf	_MatrixLed+1
  6684                           
  6685                           ;main.c: 253:     MatrixLed[2] = 0b10010001;
  6686  007A  3091               	movlw	145
  6687  007B  00FC               	movwf	??_chegadaS4
  6688  007C  087C               	movf	??_chegadaS4,w
  6689  007D  00C4               	movwf	_MatrixLed+2
  6690                           
  6691                           ;main.c: 254:     MatrixLed[3] = 0b01101110;
  6692  007E  306E               	movlw	110
  6693  007F  00FC               	movwf	??_chegadaS4
  6694  0080  087C               	movf	??_chegadaS4,w
  6695  0081  00C5               	movwf	_MatrixLed+3
  6696  0082                     i1l2201:
  6697                           
  6698                           ;main.c: 255:     MatrixLed[4] = 0;
  6699  0082  01C6               	clrf	_MatrixLed+4
  6700  0083                     i1l2203:
  6701                           
  6702                           ;main.c: 256:     if(subindo){
  6703  0083  0852               	movf	_subindo,w
  6704  0084  1903               	btfsc	3,2
  6705  0085  2887               	goto	u74_21
  6706  0086  2888               	goto	u74_20
  6707  0087                     u74_21:
  6708  0087  289A               	goto	i1l2209
  6709  0088                     u74_20:
  6710  0088                     i1l2205:
  6711                           
  6712                           ;main.c: 257:         MatrixLed[5] = 0b01100000;
  6713  0088  3060               	movlw	96
  6714  0089  00FC               	movwf	??_chegadaS4
  6715  008A  087C               	movf	??_chegadaS4,w
  6716  008B  00C7               	movwf	_MatrixLed+5
  6717                           
  6718                           ;main.c: 258:         MatrixLed[6] = 0b11000000;
  6719  008C  30C0               	movlw	192
  6720  008D  00FC               	movwf	??_chegadaS4
  6721  008E  087C               	movf	??_chegadaS4,w
  6722  008F  00C8               	movwf	_MatrixLed+6
  6723                           
  6724                           ;main.c: 259:         MatrixLed[7] = 0b01100000;
  6725  0090  3060               	movlw	96
  6726  0091  00FC               	movwf	??_chegadaS4
  6727  0092  087C               	movf	??_chegadaS4,w
  6728  0093  00C9               	movwf	_MatrixLed+7
  6729  0094                     i1l2207:
  6730                           
  6731                           ;main.c: 260:         destinoSub = destinoSub & 0b11110111;
  6732  0094  0851               	movf	_destinoSub,w
  6733  0095  39F7               	andlw	247
  6734  0096  00FC               	movwf	??_chegadaS4
  6735  0097  087C               	movf	??_chegadaS4,w
  6736  0098  00D1               	movwf	_destinoSub
  6737                           
  6738                           ;main.c: 261:     }else{
  6739  0099  28AB               	goto	i1l2213
  6740  009A                     i1l2209:
  6741                           
  6742                           ;main.c: 262:         MatrixLed[5] = 0b11000000;
  6743  009A  30C0               	movlw	192
  6744  009B  00FC               	movwf	??_chegadaS4
  6745  009C  087C               	movf	??_chegadaS4,w
  6746  009D  00C7               	movwf	_MatrixLed+5
  6747                           
  6748                           ;main.c: 263:         MatrixLed[6] = 0b01100000;
  6749  009E  3060               	movlw	96
  6750  009F  00FC               	movwf	??_chegadaS4
  6751  00A0  087C               	movf	??_chegadaS4,w
  6752  00A1  00C8               	movwf	_MatrixLed+6
  6753                           
  6754                           ;main.c: 264:         MatrixLed[7] = 0b11000000;
  6755  00A2  30C0               	movlw	192
  6756  00A3  00FC               	movwf	??_chegadaS4
  6757  00A4  087C               	movf	??_chegadaS4,w
  6758  00A5  00C9               	movwf	_MatrixLed+7
  6759  00A6                     i1l2211:
  6760                           
  6761                           ;main.c: 265:         destinoDesc = destinoDesc & 0b11110111;
  6762  00A6  087D               	movf	_destinoDesc,w
  6763  00A7  39F7               	andlw	247
  6764  00A8  00FC               	movwf	??_chegadaS4
  6765  00A9  087C               	movf	??_chegadaS4,w
  6766  00AA  00FD               	movwf	_destinoDesc
  6767  00AB                     i1l2213:
  6768                           
  6769                           ;main.c: 267:     MatrixLed[7] = MatrixLed[7] | destinoSub;
  6770  00AB  0849               	movf	_MatrixLed+7,w
  6771  00AC  0451               	iorwf	_destinoSub,w
  6772  00AD  00FC               	movwf	??_chegadaS4
  6773  00AE  087C               	movf	??_chegadaS4,w
  6774  00AF  00C9               	movwf	_MatrixLed+7
  6775  00B0                     i1l2215:
  6776                           
  6777                           ;main.c: 268:     MatrixLed[6] = MatrixLed[6] | destinoDesc;
  6778  00B0  0848               	movf	_MatrixLed+6,w
  6779  00B1  047D               	iorwf	_destinoDesc,w
  6780  00B2  00FC               	movwf	??_chegadaS4
  6781  00B3  087C               	movf	??_chegadaS4,w
  6782  00B4  00C8               	movwf	_MatrixLed+6
  6783  00B5                     i1l2217:
  6784                           
  6785                           ;main.c: 269:     matrixUpdate();
  6786  00B5  3183  23D3  3180   	fcall	_matrixUpdate
  6787  00B8                     i1l2219:
  6788                           
  6789                           ;main.c: 272:     if(destinoDesc ==0 && destinoSub == 0){
  6790  00B8  087D               	movf	_destinoDesc,w
  6791  00B9  1D03               	btfss	3,2
  6792  00BA  28BC               	goto	u75_21
  6793  00BB  28BD               	goto	u75_20
  6794  00BC                     u75_21:
  6795  00BC  28C7               	goto	i1l671
  6796  00BD                     u75_20:
  6797  00BD                     i1l2221:
  6798  00BD  0020               	movlb	0	; select bank0
  6799  00BE  0851               	movf	_destinoSub,w
  6800  00BF  1D03               	btfss	3,2
  6801  00C0  28C2               	goto	u76_21
  6802  00C1  28C3               	goto	u76_20
  6803  00C2                     u76_21:
  6804  00C2  28C7               	goto	i1l671
  6805  00C3                     u76_20:
  6806  00C3                     i1l2223:
  6807                           
  6808                           ;main.c: 273:         mov = RetornaS0;
  6809  00C3  3003               	movlw	3
  6810  00C4  00FC               	movwf	??_chegadaS4
  6811  00C5  087C               	movf	??_chegadaS4,w
  6812  00C6  00D0               	movwf	_mov
  6813  00C7                     i1l671:
  6814  00C7  0008               	return
  6815  00C8                     __end_of_chegadaS4:
  6816                           
  6817                           	psect	text44
  6818  0565                     __ptext44:	
  6819 ;; *************** function _CMP1_ISR *****************
  6820 ;; Defined at:
  6821 ;;		line 86 in file "mcc_generated_files/cmp1.c"
  6822 ;; Parameters:    Size  Location     Type
  6823 ;;		None
  6824 ;; Auto vars:     Size  Location     Type
  6825 ;;		None
  6826 ;; Return value:  Size  Location     Type
  6827 ;;                  1    wreg      void 
  6828 ;; Registers used:
  6829 ;;		wreg, fsr1l, fsr1h, status,2, status,0, pclath, cstack
  6830 ;; Tracked objects:
  6831 ;;		On entry : 0/0
  6832 ;;		On exit  : 0/0
  6833 ;;		Unchanged: 0/0
  6834 ;; Data sizes:     COMMON   BANK0   BANK1   BANK2   BANK3   BANK4
  6835 ;;      Params:         0       0       0       0       0       0
  6836 ;;      Locals:         0       0       0       0       0       0
  6837 ;;      Temps:          0       0       0       0       0       0
  6838 ;;      Totals:         0       0       0       0       0       0
  6839 ;;Total ram usage:        0 bytes
  6840 ;; Hardware stack levels used: 1
  6841 ;; Hardware stack levels required when called: 4
  6842 ;; This function calls:
  6843 ;;		_chegadaS3
  6844 ;; This function is called by:
  6845 ;;		_INTERRUPT_InterruptManager
  6846 ;; This function uses a non-reentrant model
  6847 ;;
  6848                           
  6849  0565                     _CMP1_ISR:	
  6850                           ;psect for function _CMP1_ISR
  6851                           
  6852  0565                     i1l2417:	
  6853                           ;incstack = 0
  6854                           ; Regs used in _CMP1_ISR: [wreg+fsr1l+fsr1h+status,2+status,0+pclath+cstack]
  6855                           
  6856                           
  6857                           ;mcc_generated_files/cmp1.c: 89:     PIR2bits.C1IF = 0;
  6858  0565  0020               	movlb	0	; select bank0
  6859  0566  1292               	bcf	18,5	;volatile
  6860  0567                     i1l2419:
  6861                           
  6862                           ;mcc_generated_files/cmp1.c: 90:     chegadaS3();
  6863  0567  3180  20C8  3185   	fcall	_chegadaS3
  6864  056A                     i1l80:
  6865  056A  0008               	return
  6866  056B                     __end_of_CMP1_ISR:
  6867                           
  6868                           	psect	text45
  6869  00C8                     __ptext45:	
  6870 ;; *************** function _chegadaS3 *****************
  6871 ;; Defined at:
  6872 ;;		line 203 in file "main.c"
  6873 ;; Parameters:    Size  Location     Type
  6874 ;;		None
  6875 ;; Auto vars:     Size  Location     Type
  6876 ;;		None
  6877 ;; Return value:  Size  Location     Type
  6878 ;;                  1    wreg      void 
  6879 ;; Registers used:
  6880 ;;		wreg, fsr1l, fsr1h, status,2, status,0, pclath, cstack
  6881 ;; Tracked objects:
  6882 ;;		On entry : 0/0
  6883 ;;		On exit  : 0/0
  6884 ;;		Unchanged: 0/0
  6885 ;; Data sizes:     COMMON   BANK0   BANK1   BANK2   BANK3   BANK4
  6886 ;;      Params:         0       0       0       0       0       0
  6887 ;;      Locals:         0       0       0       0       0       0
  6888 ;;      Temps:          1       0       0       0       0       0
  6889 ;;      Totals:         1       0       0       0       0       0
  6890 ;;Total ram usage:        1 bytes
  6891 ;; Hardware stack levels used: 1
  6892 ;; Hardware stack levels required when called: 3
  6893 ;; This function calls:
  6894 ;;		_PWM3_LoadDutyValue
  6895 ;;		_TMR1_ReadTimer
  6896 ;;		_TMR1_StartTimer
  6897 ;;		_matrixUpdate
  6898 ;; This function is called by:
  6899 ;;		_CMP1_ISR
  6900 ;; This function uses a non-reentrant model
  6901 ;;
  6902                           
  6903  00C8                     _chegadaS3:	
  6904                           ;psect for function _chegadaS3
  6905                           
  6906  00C8                     i1l2233:	
  6907                           ;incstack = 0
  6908                           ; Regs used in _chegadaS3: [wreg+fsr1l+fsr1h+status,2+status,0+pclath+cstack]
  6909                           
  6910                           
  6911                           ;main.c: 204:     PWM3_LoadDutyValue(0);
  6912  00C8  3000               	movlw	0
  6913  00C9  00F0               	movwf	PWM3_LoadDutyValue@dutyValue
  6914  00CA  00F1               	movwf	PWM3_LoadDutyValue@dutyValue+1
  6915  00CB  3184  2424  3180   	fcall	_PWM3_LoadDutyValue
  6916  00CE                     i1l2235:
  6917                           
  6918                           ;main.c: 207:     if(((destinoSub & 0b00000100) == 4 )||((destinoDesc & 0b00000100) == 4
      +                           ) ){
  6919  00CE  0020               	movlb	0	; select bank0
  6920  00CF  1951               	btfsc	_destinoSub,2
  6921  00D0  28D2               	goto	u77_21
  6922  00D1  28D3               	goto	u77_20
  6923  00D2                     u77_21:
  6924  00D2  28D7               	goto	i1l2239
  6925  00D3                     u77_20:
  6926  00D3                     i1l2237:
  6927  00D3  1D7D               	btfss	_destinoDesc,2
  6928  00D4  28D6               	goto	u78_21
  6929  00D5  28D7               	goto	u78_20
  6930  00D6                     u78_21:
  6931  00D6  28DD               	goto	i1l656
  6932  00D7                     u78_20:
  6933  00D7                     i1l2239:
  6934                           
  6935                           ;main.c: 208:         TMR1_ReadTimer();
  6936  00D7  3185  2505  3180   	fcall	_TMR1_ReadTimer
  6937  00DA                     i1l2241:
  6938                           
  6939                           ;main.c: 209:         TMR1_StartTimer();
  6940  00DA  3185  2577  3180   	fcall	_TMR1_StartTimer
  6941  00DD                     i1l656:	
  6942                           ;main.c: 210:     }
  6943                           
  6944                           
  6945                           ;main.c: 213:     MatrixLed[0] = 0b01000011;
  6946  00DD  3043               	movlw	67
  6947  00DE  00FC               	movwf	??_chegadaS3
  6948  00DF  087C               	movf	??_chegadaS3,w
  6949  00E0  0020               	movlb	0	; select bank0
  6950  00E1  00C2               	movwf	_MatrixLed
  6951                           
  6952                           ;main.c: 214:     MatrixLed[1] = 0b10000101;
  6953  00E2  3085               	movlw	133
  6954  00E3  00FC               	movwf	??_chegadaS3
  6955  00E4  087C               	movf	??_chegadaS3,w
  6956  00E5  00C3               	movwf	_MatrixLed+1
  6957                           
  6958                           ;main.c: 215:     MatrixLed[2] = 0b10001001;
  6959  00E6  3089               	movlw	137
  6960  00E7  00FC               	movwf	??_chegadaS3
  6961  00E8  087C               	movf	??_chegadaS3,w
  6962  00E9  00C4               	movwf	_MatrixLed+2
  6963                           
  6964                           ;main.c: 216:     MatrixLed[3] = 0b01110001;
  6965  00EA  3071               	movlw	113
  6966  00EB  00FC               	movwf	??_chegadaS3
  6967  00EC  087C               	movf	??_chegadaS3,w
  6968  00ED  00C5               	movwf	_MatrixLed+3
  6969  00EE                     i1l2243:
  6970                           
  6971                           ;main.c: 217:     MatrixLed[4] = 0;
  6972  00EE  01C6               	clrf	_MatrixLed+4
  6973  00EF                     i1l2245:
  6974                           
  6975                           ;main.c: 218:     if(subindo){
  6976  00EF  0852               	movf	_subindo,w
  6977  00F0  1903               	btfsc	3,2
  6978  00F1  28F3               	goto	u79_21
  6979  00F2  28F4               	goto	u79_20
  6980  00F3                     u79_21:
  6981  00F3  2906               	goto	i1l2251
  6982  00F4                     u79_20:
  6983  00F4                     i1l2247:
  6984                           
  6985                           ;main.c: 219:         MatrixLed[5] = 0b01100000;
  6986  00F4  3060               	movlw	96
  6987  00F5  00FC               	movwf	??_chegadaS3
  6988  00F6  087C               	movf	??_chegadaS3,w
  6989  00F7  00C7               	movwf	_MatrixLed+5
  6990                           
  6991                           ;main.c: 220:         MatrixLed[6] = 0b11000000;
  6992  00F8  30C0               	movlw	192
  6993  00F9  00FC               	movwf	??_chegadaS3
  6994  00FA  087C               	movf	??_chegadaS3,w
  6995  00FB  00C8               	movwf	_MatrixLed+6
  6996                           
  6997                           ;main.c: 221:         MatrixLed[7] = 0b01100000;
  6998  00FC  3060               	movlw	96
  6999  00FD  00FC               	movwf	??_chegadaS3
  7000  00FE  087C               	movf	??_chegadaS3,w
  7001  00FF  00C9               	movwf	_MatrixLed+7
  7002  0100                     i1l2249:
  7003                           
  7004                           ;main.c: 222:         destinoSub = destinoSub & 0b11111011;
  7005  0100  0851               	movf	_destinoSub,w
  7006  0101  39FB               	andlw	251
  7007  0102  00FC               	movwf	??_chegadaS3
  7008  0103  087C               	movf	??_chegadaS3,w
  7009  0104  00D1               	movwf	_destinoSub
  7010                           
  7011                           ;main.c: 223:     }else{
  7012  0105  2917               	goto	i1l2255
  7013  0106                     i1l2251:
  7014                           
  7015                           ;main.c: 224:         MatrixLed[5] = 0b11000000;
  7016  0106  30C0               	movlw	192
  7017  0107  00FC               	movwf	??_chegadaS3
  7018  0108  087C               	movf	??_chegadaS3,w
  7019  0109  00C7               	movwf	_MatrixLed+5
  7020                           
  7021                           ;main.c: 225:         MatrixLed[6] = 0b01100000;
  7022  010A  3060               	movlw	96
  7023  010B  00FC               	movwf	??_chegadaS3
  7024  010C  087C               	movf	??_chegadaS3,w
  7025  010D  00C8               	movwf	_MatrixLed+6
  7026                           
  7027                           ;main.c: 226:         MatrixLed[7] = 0b11000000;
  7028  010E  30C0               	movlw	192
  7029  010F  00FC               	movwf	??_chegadaS3
  7030  0110  087C               	movf	??_chegadaS3,w
  7031  0111  00C9               	movwf	_MatrixLed+7
  7032  0112                     i1l2253:
  7033                           
  7034                           ;main.c: 227:         destinoDesc = destinoDesc & 0b11111011;
  7035  0112  087D               	movf	_destinoDesc,w
  7036  0113  39FB               	andlw	251
  7037  0114  00FC               	movwf	??_chegadaS3
  7038  0115  087C               	movf	??_chegadaS3,w
  7039  0116  00FD               	movwf	_destinoDesc
  7040  0117                     i1l2255:
  7041                           
  7042                           ;main.c: 229:     MatrixLed[7] = MatrixLed[7] | destinoSub;
  7043  0117  0849               	movf	_MatrixLed+7,w
  7044  0118  0451               	iorwf	_destinoSub,w
  7045  0119  00FC               	movwf	??_chegadaS3
  7046  011A  087C               	movf	??_chegadaS3,w
  7047  011B  00C9               	movwf	_MatrixLed+7
  7048  011C                     i1l2257:
  7049                           
  7050                           ;main.c: 230:     MatrixLed[6] = MatrixLed[6] | destinoDesc;
  7051  011C  0848               	movf	_MatrixLed+6,w
  7052  011D  047D               	iorwf	_destinoDesc,w
  7053  011E  00FC               	movwf	??_chegadaS3
  7054  011F  087C               	movf	??_chegadaS3,w
  7055  0120  00C8               	movwf	_MatrixLed+6
  7056  0121                     i1l2259:
  7057                           
  7058                           ;main.c: 231:     matrixUpdate();
  7059  0121  3183  23D3  3180   	fcall	_matrixUpdate
  7060  0124                     i1l2261:
  7061                           
  7062                           ;main.c: 234:     if(destinoDesc ==0 && destinoSub == 0){
  7063  0124  087D               	movf	_destinoDesc,w
  7064  0125  1D03               	btfss	3,2
  7065  0126  2928               	goto	u80_21
  7066  0127  2929               	goto	u80_20
  7067  0128                     u80_21:
  7068  0128  2933               	goto	i1l662
  7069  0129                     u80_20:
  7070  0129                     i1l2263:
  7071  0129  0020               	movlb	0	; select bank0
  7072  012A  0851               	movf	_destinoSub,w
  7073  012B  1D03               	btfss	3,2
  7074  012C  292E               	goto	u81_21
  7075  012D  292F               	goto	u81_20
  7076  012E                     u81_21:
  7077  012E  2933               	goto	i1l662
  7078  012F                     u81_20:
  7079  012F                     i1l2265:
  7080                           
  7081                           ;main.c: 235:         mov = RetornaS0;
  7082  012F  3003               	movlw	3
  7083  0130  00FC               	movwf	??_chegadaS3
  7084  0131  087C               	movf	??_chegadaS3,w
  7085  0132  00D0               	movwf	_mov
  7086  0133                     i1l662:
  7087  0133  0008               	return
  7088  0134                     __end_of_chegadaS3:
  7089                           
  7090                           	psect	text46
  7091  03D3                     __ptext46:	
  7092 ;; *************** function _matrixUpdate *****************
  7093 ;; Defined at:
  7094 ;;		line 62 in file "main.c"
  7095 ;; Parameters:    Size  Location     Type
  7096 ;;		None
  7097 ;; Auto vars:     Size  Location     Type
  7098 ;;  i               1    0        unsigned char 
  7099 ;;  i               1   11[COMMON] unsigned char 
  7100 ;;  index           1    0        unsigned char 
  7101 ;;  data            2    9[COMMON] unsigned char [2]
  7102 ;; Return value:  Size  Location     Type
  7103 ;;                  1    wreg      void 
  7104 ;; Registers used:
  7105 ;;		wreg, fsr1l, fsr1h, status,2, status,0, pclath, cstack
  7106 ;; Tracked objects:
  7107 ;;		On entry : 0/0
  7108 ;;		On exit  : 0/0
  7109 ;;		Unchanged: 0/0
  7110 ;; Data sizes:     COMMON   BANK0   BANK1   BANK2   BANK3   BANK4
  7111 ;;      Params:         0       0       0       0       0       0
  7112 ;;      Locals:         3       0       0       0       0       0
  7113 ;;      Temps:          1       0       0       0       0       0
  7114 ;;      Totals:         4       0       0       0       0       0
  7115 ;;Total ram usage:        4 bytes
  7116 ;; Hardware stack levels used: 1
  7117 ;; Hardware stack levels required when called: 2
  7118 ;; This function calls:
  7119 ;;		i1_txSpi
  7120 ;; This function is called by:
  7121 ;;		_chegadaS1
  7122 ;;		_chegadaS2
  7123 ;;		_chegadaS3
  7124 ;;		_chegadaS4
  7125 ;; This function uses a non-reentrant model
  7126 ;;
  7127                           
  7128  03D3                     _matrixUpdate:	
  7129                           ;psect for function _matrixUpdate
  7130                           
  7131  03D3                     i1l2019:	
  7132                           ;incstack = 0
  7133                           ; Regs used in _matrixUpdate: [wreg+fsr1l+fsr1h+status,2+status,0+pclath+cstack]
  7134                           
  7135                           
  7136                           ;main.c: 65:         for(uint8_t i=8;i>0;i--){
  7137  03D3  3008               	movlw	8
  7138  03D4  00F8               	movwf	??_matrixUpdate
  7139  03D5  0878               	movf	??_matrixUpdate,w
  7140  03D6  00FB               	movwf	matrixUpdate@i
  7141  03D7                     i1l2025:
  7142                           
  7143                           ;main.c: 66:             data[0] = i;
  7144  03D7  087B               	movf	matrixUpdate@i,w
  7145  03D8  00F8               	movwf	??_matrixUpdate
  7146  03D9  0878               	movf	??_matrixUpdate,w
  7147  03DA  00F9               	movwf	matrixUpdate@data
  7148  03DB                     i1l2027:
  7149                           
  7150                           ;main.c: 67:             data[1] = MatrixLed[i-1];
  7151  03DB  087B               	movf	matrixUpdate@i,w
  7152  03DC  3E41               	addlw	(low ((_MatrixLed| 0+255)))& (0+255)
  7153  03DD  0086               	movwf	6
  7154  03DE  0187               	clrf	7
  7155  03DF  0801               	movf	1,w
  7156  03E0  00F8               	movwf	??_matrixUpdate
  7157  03E1  0878               	movf	??_matrixUpdate,w
  7158  03E2  00FA               	movwf	matrixUpdate@data+1
  7159  03E3                     i1l2029:
  7160                           
  7161                           ;main.c: 68:             txSpi(data, 2);
  7162  03E3  3002               	movlw	2
  7163  03E4  00F5               	movwf	i1txSpi@dataSize
  7164  03E5  3000               	movlw	0
  7165  03E6  00F6               	movwf	i1txSpi@dataSize+1
  7166  03E7  3079               	movlw	(low (matrixUpdate@data| 0))& (0+255)
  7167  03E8  3184  24A1  3183   	fcall	i1_txSpi
  7168  03EB                     i1l2031:
  7169                           
  7170                           ;main.c: 69:         }
  7171  03EB  3001               	movlw	1
  7172  03EC  02FB               	subwf	matrixUpdate@i,f
  7173  03ED                     i1l2033:
  7174  03ED  087B               	movf	matrixUpdate@i,w
  7175  03EE  1D03               	btfss	3,2
  7176  03EF  2BF1               	goto	u61_21
  7177  03F0  2BF2               	goto	u61_20
  7178  03F1                     u61_21:
  7179  03F1  2BD7               	goto	i1l2025
  7180  03F2                     u61_20:
  7181  03F2                     i1l614:
  7182  03F2  0008               	return
  7183  03F3                     __end_of_matrixUpdate:
  7184                           
  7185                           	psect	text47
  7186  04A1                     __ptext47:	
  7187 ;; *************** function i1_txSpi *****************
  7188 ;; Defined at:
  7189 ;;		line 54 in file "main.c"
  7190 ;; Parameters:    Size  Location     Type
  7191 ;;  data            1    wreg     PTR unsigned char 
  7192 ;;		 -> initMatrix@data(4), matrixUpdate@data(2), 
  7193 ;;  dataSize        2    5[COMMON] unsigned int 
  7194 ;; Auto vars:     Size  Location     Type
  7195 ;;  data            1    7[COMMON] PTR unsigned char 
  7196 ;;		 -> initMatrix@data(4), matrixUpdate@data(2), 
  7197 ;; Return value:  Size  Location     Type
  7198 ;;                  1    wreg      void 
  7199 ;; Registers used:
  7200 ;;		wreg, fsr1l, fsr1h, status,2, status,0, pclath, cstack
  7201 ;; Tracked objects:
  7202 ;;		On entry : 0/0
  7203 ;;		On exit  : 0/0
  7204 ;;		Unchanged: 0/0
  7205 ;; Data sizes:     COMMON   BANK0   BANK1   BANK2   BANK3   BANK4
  7206 ;;      Params:         2       0       0       0       0       0
  7207 ;;      Locals:         1       0       0       0       0       0
  7208 ;;      Temps:          0       0       0       0       0       0
  7209 ;;      Totals:         3       0       0       0       0       0
  7210 ;;Total ram usage:        3 bytes
  7211 ;; Hardware stack levels used: 1
  7212 ;; Hardware stack levels required when called: 1
  7213 ;; This function calls:
  7214 ;;		i1_SPI1_ExchangeBlock
  7215 ;; This function is called by:
  7216 ;;		_matrixUpdate
  7217 ;; This function uses a non-reentrant model
  7218 ;;
  7219                           
  7220  04A1                     i1_txSpi:	
  7221                           ;psect for function i1_txSpi
  7222                           
  7223                           
  7224                           ;incstack = 0
  7225                           ; Regs used in i1_txSpi: [wreg+fsr1l+fsr1h+status,2+status,0+pclath+cstack]
  7226                           ;i1txSpi@data stored from wreg
  7227  04A1  00F7               	movwf	i1txSpi@data
  7228  04A2                     i1l601:	
  7229                           ;main.c: 55:     do { LATBbits.LATB1 = 0; } while(0);
  7230                           
  7231  04A2  0022               	movlb	2	; select bank2
  7232  04A3  108D               	bcf	13,1	;volatile
  7233  04A4                     i1l2007:
  7234                           
  7235                           ;main.c: 56:     SPI1_ExchangeBlock(data,dataSize);
  7236  04A4  0876               	movf	i1txSpi@dataSize+1,w
  7237  04A5  00F1               	movwf	i1SPI1_ExchangeBlock@blockSize+1
  7238  04A6  0875               	movf	i1txSpi@dataSize,w
  7239  04A7  00F0               	movwf	i1SPI1_ExchangeBlock@blockSize
  7240  04A8  0877               	movf	i1txSpi@data,w
  7241  04A9  3183  2332  3184   	fcall	i1_SPI1_ExchangeBlock
  7242  04AC                     i1l2009:
  7243  04AC  0022               	movlb	2	; select bank2
  7244  04AD  148D               	bsf	13,1	;volatile
  7245  04AE                     i1l605:
  7246  04AE  0008               	return
  7247  04AF                     __end_ofi1_txSpi:
  7248                           
  7249                           	psect	text48
  7250  0332                     __ptext48:	
  7251 ;; *************** function i1_SPI1_ExchangeBlock *****************
  7252 ;; Defined at:
  7253 ;;		line 100 in file "mcc_generated_files/spi1.c"
  7254 ;; Parameters:    Size  Location     Type
  7255 ;;  block           1    wreg     PTR void 
  7256 ;;		 -> initMatrix@data(4), matrixUpdate@data(2), 
  7257 ;;  blockSize       2    0[COMMON] unsigned int 
  7258 ;; Auto vars:     Size  Location     Type
  7259 ;;  block           1    3[COMMON] PTR void 
  7260 ;;		 -> initMatrix@data(4), matrixUpdate@data(2), 
  7261 ;;  data            1    4[COMMON] PTR unsigned char 
  7262 ;;		 -> initMatrix@data(4), matrixUpdate@data(2), 
  7263 ;; Return value:  Size  Location     Type
  7264 ;;                  1    wreg      void 
  7265 ;; Registers used:
  7266 ;;		wreg, fsr1l, fsr1h, status,2, status,0
  7267 ;; Tracked objects:
  7268 ;;		On entry : 0/0
  7269 ;;		On exit  : 0/0
  7270 ;;		Unchanged: 0/0
  7271 ;; Data sizes:     COMMON   BANK0   BANK1   BANK2   BANK3   BANK4
  7272 ;;      Params:         2       0       0       0       0       0
  7273 ;;      Locals:         2       0       0       0       0       0
  7274 ;;      Temps:          1       0       0       0       0       0
  7275 ;;      Totals:         5       0       0       0       0       0
  7276 ;;Total ram usage:        5 bytes
  7277 ;; Hardware stack levels used: 1
  7278 ;; This function calls:
  7279 ;;		Nothing
  7280 ;; This function is called by:
  7281 ;;		i1_txSpi
  7282 ;; This function uses a non-reentrant model
  7283 ;;
  7284                           
  7285  0332                     i1_SPI1_ExchangeBlock:	
  7286                           ;psect for function i1_SPI1_ExchangeBlock
  7287                           
  7288                           
  7289                           ;incstack = 0
  7290                           ; Regs used in i1_SPI1_ExchangeBlock: [wreg+fsr1l+fsr1h+status,2+status,0]
  7291                           ;i1SPI1_ExchangeBlock@block stored from wreg
  7292  0332  00F3               	movwf	i1SPI1_ExchangeBlock@block
  7293  0333                     i1l1997:
  7294                           
  7295                           ;mcc_generated_files/spi1.c: 100: void SPI1_ExchangeBlock(void *block, size_t blockSize)
      +                          ;mcc_generated_files/spi1.c: 101: {;mcc_generated_files/spi1.c: 102:     uint8_t *data =
      +                           block;
  7296  0333  0873               	movf	i1SPI1_ExchangeBlock@block,w
  7297  0334  00F2               	movwf	??i1_SPI1_ExchangeBlock
  7298  0335  0872               	movf	??i1_SPI1_ExchangeBlock,w
  7299  0336  00F4               	movwf	i1SPI1_ExchangeBlock@data
  7300                           
  7301                           ;mcc_generated_files/spi1.c: 103:     while(blockSize--)
  7302  0337  2B50               	goto	i1l2005
  7303  0338                     i1l1999:
  7304                           
  7305                           ;mcc_generated_files/spi1.c: 104:     {;mcc_generated_files/spi1.c: 105:         SSP1BUF
      +                           = *data;
  7306  0338  0874               	movf	i1SPI1_ExchangeBlock@data,w
  7307  0339  0086               	movwf	6
  7308  033A  0187               	clrf	7
  7309  033B  0801               	movf	1,w
  7310  033C  0024               	movlb	4	; select bank4
  7311  033D  0091               	movwf	17	;volatile
  7312  033E                     i1l372:	
  7313                           ;mcc_generated_files/spi1.c: 106:         while(!PIR1bits.SSP1IF);
  7314                           
  7315  033E  0020               	movlb	0	; select bank0
  7316  033F  1D91               	btfss	17,3	;volatile
  7317  0340  2B42               	goto	u58_21
  7318  0341  2B43               	goto	u58_20
  7319  0342                     u58_21:
  7320  0342  2B3E               	goto	i1l372
  7321  0343                     u58_20:
  7322  0343                     i1l374:
  7323                           
  7324                           ;mcc_generated_files/spi1.c: 107:         PIR1bits.SSP1IF = 0;
  7325  0343  1191               	bcf	17,3	;volatile
  7326  0344                     i1l2001:
  7327                           
  7328                           ;mcc_generated_files/spi1.c: 108:         *data++ = SSP1BUF;
  7329  0344  0024               	movlb	4	; select bank4
  7330  0345  0811               	movf	17,w	;volatile
  7331  0346  00F2               	movwf	??i1_SPI1_ExchangeBlock
  7332  0347  0874               	movf	i1SPI1_ExchangeBlock@data,w
  7333  0348  0086               	movwf	6
  7334  0349  0187               	clrf	7
  7335  034A  0872               	movf	??i1_SPI1_ExchangeBlock,w
  7336  034B  0081               	movwf	1
  7337  034C                     i1l2003:
  7338  034C  3001               	movlw	1
  7339  034D  00F2               	movwf	??i1_SPI1_ExchangeBlock
  7340  034E  0872               	movf	??i1_SPI1_ExchangeBlock,w
  7341  034F  07F4               	addwf	i1SPI1_ExchangeBlock@data,f
  7342  0350                     i1l2005:
  7343                           
  7344                           ;mcc_generated_files/spi1.c: 103:     while(blockSize--)
  7345  0350  3001               	movlw	1
  7346  0351  02F0               	subwf	i1SPI1_ExchangeBlock@blockSize,f
  7347  0352  3000               	movlw	0
  7348  0353  3BF1               	subwfb	i1SPI1_ExchangeBlock@blockSize+1,f
  7349  0354  0A70               	incf	i1SPI1_ExchangeBlock@blockSize,w
  7350  0355  1D03               	skipz
  7351  0356  2B5B               	goto	u59_21
  7352  0357  0A71               	incf	i1SPI1_ExchangeBlock@blockSize+1,w
  7353  0358  1D03               	btfss	3,2
  7354  0359  2B5B               	goto	u59_21
  7355  035A  2B5C               	goto	u59_20
  7356  035B                     u59_21:
  7357  035B  2B38               	goto	i1l1999
  7358  035C                     u59_20:
  7359  035C                     i1l376:
  7360  035C  0008               	return
  7361  035D                     __end_ofi1_SPI1_ExchangeBlock:
  7362                           
  7363                           	psect	text49
  7364  0577                     __ptext49:	
  7365 ;; *************** function _TMR1_StartTimer *****************
  7366 ;; Defined at:
  7367 ;;		line 93 in file "mcc_generated_files/tmr1.c"
  7368 ;; Parameters:    Size  Location     Type
  7369 ;;		None
  7370 ;; Auto vars:     Size  Location     Type
  7371 ;;		None
  7372 ;; Return value:  Size  Location     Type
  7373 ;;                  1    wreg      void 
  7374 ;; Registers used:
  7375 ;;		None
  7376 ;; Tracked objects:
  7377 ;;		On entry : 0/0
  7378 ;;		On exit  : 0/0
  7379 ;;		Unchanged: 0/0
  7380 ;; Data sizes:     COMMON   BANK0   BANK1   BANK2   BANK3   BANK4
  7381 ;;      Params:         0       0       0       0       0       0
  7382 ;;      Locals:         0       0       0       0       0       0
  7383 ;;      Temps:          0       0       0       0       0       0
  7384 ;;      Totals:         0       0       0       0       0       0
  7385 ;;Total ram usage:        0 bytes
  7386 ;; Hardware stack levels used: 1
  7387 ;; This function calls:
  7388 ;;		Nothing
  7389 ;; This function is called by:
  7390 ;;		_chegadaS2
  7391 ;;		_chegadaS3
  7392 ;;		_chegadaS4
  7393 ;; This function uses a non-reentrant model
  7394 ;;
  7395                           
  7396  0577                     _TMR1_StartTimer:	
  7397                           ;psect for function _TMR1_StartTimer
  7398                           
  7399  0577                     i1l2013:	
  7400                           ;incstack = 0
  7401                           ; Regs used in _TMR1_StartTimer: []
  7402                           
  7403                           
  7404                           ;mcc_generated_files/tmr1.c: 96:     T1CONbits.TMR1ON = 1;
  7405  0577  0020               	movlb	0	; select bank0
  7406  0578  1418               	bsf	24,0	;volatile
  7407  0579                     i1l457:
  7408  0579  0008               	return
  7409  057A                     __end_of_TMR1_StartTimer:
  7410                           
  7411                           	psect	text50
  7412  0505                     __ptext50:	
  7413 ;; *************** function _TMR1_ReadTimer *****************
  7414 ;; Defined at:
  7415 ;;		line 105 in file "mcc_generated_files/tmr1.c"
  7416 ;; Parameters:    Size  Location     Type
  7417 ;;		None
  7418 ;; Auto vars:     Size  Location     Type
  7419 ;;  readVal         2    0        unsigned short 
  7420 ;;  readValLow      1    2[COMMON] unsigned char 
  7421 ;;  readValHigh     1    1[COMMON] unsigned char 
  7422 ;; Return value:  Size  Location     Type
  7423 ;;                  2  462[None  ] unsigned short 
  7424 ;; Registers used:
  7425 ;;		wreg
  7426 ;; Tracked objects:
  7427 ;;		On entry : 0/0
  7428 ;;		On exit  : 0/0
  7429 ;;		Unchanged: 0/0
  7430 ;; Data sizes:     COMMON   BANK0   BANK1   BANK2   BANK3   BANK4
  7431 ;;      Params:         0       0       0       0       0       0
  7432 ;;      Locals:         2       0       0       0       0       0
  7433 ;;      Temps:          1       0       0       0       0       0
  7434 ;;      Totals:         3       0       0       0       0       0
  7435 ;;Total ram usage:        3 bytes
  7436 ;; Hardware stack levels used: 1
  7437 ;; This function calls:
  7438 ;;		Nothing
  7439 ;; This function is called by:
  7440 ;;		_chegadaS2
  7441 ;;		_chegadaS3
  7442 ;;		_chegadaS4
  7443 ;; This function uses a non-reentrant model
  7444 ;;
  7445                           
  7446  0505                     _TMR1_ReadTimer:	
  7447                           ;psect for function _TMR1_ReadTimer
  7448                           
  7449  0505                     i1l2015:	
  7450                           ;incstack = 0
  7451                           ; Regs used in _TMR1_ReadTimer: [wreg]
  7452                           
  7453                           
  7454                           ;mcc_generated_files/tmr1.c: 107:     uint16_t readVal;;mcc_generated_files/tmr1.c: 108:
      +                               uint8_t readValHigh;;mcc_generated_files/tmr1.c: 109:     uint8_t readValLow;;mcc_g
      +                          enerated_files/tmr1.c: 112:     readValLow = TMR1L;
  7455  0505  0020               	movlb	0	; select bank0
  7456  0506  0816               	movf	22,w	;volatile
  7457  0507  00F0               	movwf	??_TMR1_ReadTimer
  7458  0508  0870               	movf	??_TMR1_ReadTimer,w
  7459  0509  00F2               	movwf	TMR1_ReadTimer@readValLow
  7460                           
  7461                           ;mcc_generated_files/tmr1.c: 113:     readValHigh = TMR1H;
  7462  050A  0817               	movf	23,w	;volatile
  7463  050B  00F0               	movwf	??_TMR1_ReadTimer
  7464  050C  0870               	movf	??_TMR1_ReadTimer,w
  7465  050D  00F1               	movwf	TMR1_ReadTimer@readValHigh
  7466  050E                     i1l463:
  7467  050E  0008               	return
  7468  050F                     __end_of_TMR1_ReadTimer:
  7469                           
  7470                           	psect	text51
  7471  0424                     __ptext51:	
  7472 ;; *************** function _PWM3_LoadDutyValue *****************
  7473 ;; Defined at:
  7474 ;;		line 82 in file "mcc_generated_files/pwm3.c"
  7475 ;; Parameters:    Size  Location     Type
  7476 ;;  dutyValue       2    0[COMMON] unsigned short 
  7477 ;; Auto vars:     Size  Location     Type
  7478 ;;		None
  7479 ;; Return value:  Size  Location     Type
  7480 ;;                  1    wreg      void 
  7481 ;; Registers used:
  7482 ;;		wreg, status,2, status,0
  7483 ;; Tracked objects:
  7484 ;;		On entry : 0/0
  7485 ;;		On exit  : 0/0
  7486 ;;		Unchanged: 0/0
  7487 ;; Data sizes:     COMMON   BANK0   BANK1   BANK2   BANK3   BANK4
  7488 ;;      Params:         2       0       0       0       0       0
  7489 ;;      Locals:         0       0       0       0       0       0
  7490 ;;      Temps:          2       0       0       0       0       0
  7491 ;;      Totals:         4       0       0       0       0       0
  7492 ;;Total ram usage:        4 bytes
  7493 ;; Hardware stack levels used: 1
  7494 ;; This function calls:
  7495 ;;		Nothing
  7496 ;; This function is called by:
  7497 ;;		_controleMovimento
  7498 ;;		_chegadaS1
  7499 ;;		_chegadaS2
  7500 ;;		_chegadaS3
  7501 ;;		_chegadaS4
  7502 ;; This function uses a non-reentrant model
  7503 ;;
  7504                           
  7505  0424                     _PWM3_LoadDutyValue:	
  7506                           ;psect for function _PWM3_LoadDutyValue
  7507                           
  7508  0424                     i1l2011:	
  7509                           ;incstack = 0
  7510                           ; Regs used in _PWM3_LoadDutyValue: [wreg+status,2+status,0]
  7511                           
  7512                           
  7513                           ;mcc_generated_files/pwm3.c: 82: void PWM3_LoadDutyValue(uint16_t dutyValue);mcc_generat
      +                          ed_files/pwm3.c: 83: {;mcc_generated_files/pwm3.c: 85:     CCPR3L = ((dutyValue & 0x03FC
      +                          )>>2);
  7514  0424  0871               	movf	PWM3_LoadDutyValue@dutyValue+1,w
  7515  0425  00F3               	movwf	??_PWM3_LoadDutyValue+1
  7516  0426  0870               	movf	PWM3_LoadDutyValue@dutyValue,w
  7517  0427  00F2               	movwf	??_PWM3_LoadDutyValue
  7518  0428  36F3               	lsrf	??_PWM3_LoadDutyValue+1,f
  7519  0429  0CF2               	rrf	??_PWM3_LoadDutyValue,f
  7520  042A  36F3               	lsrf	??_PWM3_LoadDutyValue+1,f
  7521  042B  0CF2               	rrf	??_PWM3_LoadDutyValue,f
  7522  042C  0872               	movf	??_PWM3_LoadDutyValue,w
  7523  042D  0026               	movlb	6	; select bank6
  7524  042E  0091               	movwf	17	;volatile
  7525                           
  7526                           ;mcc_generated_files/pwm3.c: 88:     CCP3CON = ((uint8_t)(CCP3CON & 0xCF) | ((dutyValue 
      +                          & 0x0003)<<4));
  7527  042F  0870               	movf	PWM3_LoadDutyValue@dutyValue,w
  7528  0430  3903               	andlw	3
  7529  0431  00F2               	movwf	??_PWM3_LoadDutyValue
  7530  0432  3004               	movlw	4
  7531  0433                     u60_25:
  7532  0433  35F2               	lslf	??_PWM3_LoadDutyValue,f
  7533  0434  0B89               	decfsz	9,f
  7534  0435  2C33               	goto	u60_25
  7535  0436  0813               	movf	19,w	;volatile
  7536  0437  39CF               	andlw	207
  7537  0438  0472               	iorwf	??_PWM3_LoadDutyValue,w
  7538  0439  0093               	movwf	19	;volatile
  7539  043A                     i1l14:
  7540  043A  0008               	return
  7541  043B                     __end_of_PWM3_LoadDutyValue:
  7542  007E                     btemp	set	126	;btemp
  7543  007E                     int$flags	set	126
  7544  007E                     wtemp0	set	126
  7545                           
  7546                           	psect	idloc
  7547                           
  7548                           ;Config register IDLOC0 @ 0x8000
  7549                           ;	unspecified, using default values
  7550  8000                     	org	32768
  7551  8000  3FFF               	dw	16383
  7552                           
  7553                           ;Config register IDLOC1 @ 0x8001
  7554                           ;	unspecified, using default values
  7555  8001                     	org	32769
  7556  8001  3FFF               	dw	16383
  7557                           
  7558                           ;Config register IDLOC2 @ 0x8002
  7559                           ;	unspecified, using default values
  7560  8002                     	org	32770
  7561  8002  3FFF               	dw	16383
  7562                           
  7563                           ;Config register IDLOC3 @ 0x8003
  7564                           ;	unspecified, using default values
  7565  8003                     	org	32771
  7566  8003  3FFF               	dw	16383
  7567                           
  7568                           	psect	config
  7569                           
  7570                           ;Config register CONFIG1 @ 0x8007
  7571                           ;	Oscillator Selection
  7572                           ;	FOSC = INTOSC, INTOSC oscillator: I/O function on CLKIN pin
  7573                           ;	Watchdog Timer Enable
  7574                           ;	WDTE = OFF, WDT disabled
  7575                           ;	Power-up Timer Enable
  7576                           ;	PWRTE = OFF, PWRT disabled
  7577                           ;	MCLR Pin Function Select
  7578                           ;	MCLRE = ON, MCLR/VPP pin function is MCLR
  7579                           ;	Flash Program Memory Code Protection
  7580                           ;	CP = OFF, Program memory code protection is disabled
  7581                           ;	Data Memory Code Protection
  7582                           ;	CPD = OFF, Data memory code protection is disabled
  7583                           ;	Brown-out Reset Enable
  7584                           ;	BOREN = ON, Brown-out Reset enabled
  7585                           ;	Clock Out Enable
  7586                           ;	CLKOUTEN = OFF, CLKOUT function is disabled. I/O or oscillator function on the CLKOUT 
      +                          pin
  7587                           ;	Internal/External Switchover
  7588                           ;	IESO = ON, Internal/External Switchover mode is enabled
  7589                           ;	Fail-Safe Clock Monitor Enable
  7590                           ;	FCMEN = ON, Fail-Safe Clock Monitor is enabled
  7591  8007                     	org	32775
  7592  8007  3FE4               	dw	16356
  7593                           
  7594                           ;Config register CONFIG2 @ 0x8008
  7595                           ;	Flash Memory Self-Write Protection
  7596                           ;	WRT = OFF, Write protection off
  7597                           ;	PLL Enable
  7598                           ;	PLLEN = OFF, 4x PLL disabled
  7599                           ;	Stack Overflow/Underflow Reset Enable
  7600                           ;	STVREN = ON, Stack Overflow or Underflow will cause a Reset
  7601                           ;	Brown-out Reset Voltage Selection
  7602                           ;	BORV = LO, Brown-out Reset Voltage (Vbor), low trip point selected.
  7603                           ;	Low-Voltage Programming Enable
  7604                           ;	LVP = ON, Low-voltage programming enabled
  7605  8008                     	org	32776
  7606  8008  3EFF               	dw	16127

Data Sizes:
    Strings     0
    Constant    16
    Data        1
    BSS         17
    Persistent  49
    Stack       0

Auto Spaces:
    Space          Size  Autos    Used
    COMMON           14     13      14
    BANK0            80     17      51
    BANK1            80      0       0
    BANK2            80      0       0
    BANK3            80      0       0
    BANK4            48      0       0

Pointer List with Targets:

    ADC_InterruptHandler	PTR FTN()void  size(2) Largest target is 1
		 -> Absolute function(), 

    txSpi@data	PTR unsigned char  size(1) Largest target is 4
		 -> initMatrix@data(BANK0[4]), matrixUpdate@data(COMMON[2]), 

    TMR0_SetInterruptHandler@InterruptHandler	PTR FTN()void  size(2) Largest target is 1
		 -> TMR0_DefaultInterruptHandler(), 

    TMR0_InterruptHandler	PTR FTN()void  size(2) Largest target is 1
		 -> TMR0_DefaultInterruptHandler(), Absolute function(), 

    TMR1_SetInterruptHandler@InterruptHandler	PTR FTN()void  size(2) Largest target is 1
		 -> controleMovimento(), TMR1_DefaultInterruptHandler(), 

    TMR1_InterruptHandler	PTR FTN()void  size(2) Largest target is 1
		 -> controleMovimento(), TMR1_DefaultInterruptHandler(), Absolute function(), 

    SPI1_ExchangeBlock@block	PTR void  size(1) Largest target is 4
		 -> initMatrix@data(BANK0[4]), matrixUpdate@data(COMMON[2]), 

    SPI1_ExchangeBlock@data	PTR unsigned char  size(1) Largest target is 4
		 -> initMatrix@data(BANK0[4]), matrixUpdate@data(COMMON[2]), 

    EUSART_SetErrorHandler@interruptHandler	PTR FTN()void  size(2) Largest target is 1
		 -> EUSART_DefaultErrorHandler(), 

    EUSART_ErrorHandler	PTR FTN()void  size(2) Largest target is 1
		 -> EUSART_DefaultErrorHandler(), Absolute function(), 

    EUSART_SetOverrunErrorHandler@interruptHandler	PTR FTN()void  size(2) Largest target is 1
		 -> EUSART_DefaultOverrunErrorHandler(), 

    EUSART_OverrunErrorHandler	PTR FTN()void  size(2) Largest target is 1
		 -> EUSART_DefaultOverrunErrorHandler(), Absolute function(), 

    EUSART_SetFramingErrorHandler@interruptHandler	PTR FTN()void  size(2) Largest target is 1
		 -> EUSART_DefaultFramingErrorHandler(), 

    EUSART_FramingErrorHandler	PTR FTN()void  size(2) Largest target is 1
		 -> EUSART_DefaultFramingErrorHandler(), Absolute function(), 

    IOCBF3_SetInterruptHandler@InterruptHandler	PTR FTN()void  size(2) Largest target is 1
		 -> chegadaS2(), chegadaS1(), IOCBF3_DefaultInterruptHandler(), 

    IOCBF3_InterruptHandler	PTR FTN()void  size(2) Largest target is 1
		 -> chegadaS2(), chegadaS1(), Absolute function(), IOCBF3_DefaultInterruptHandler(), 

    IOCBF0_SetInterruptHandler@InterruptHandler	PTR FTN()void  size(2) Largest target is 1
		 -> IOCBF0_DefaultInterruptHandler(), 

    IOCBF0_InterruptHandler	PTR FTN()void  size(2) Largest target is 1
		 -> Absolute function(), IOCBF0_DefaultInterruptHandler(), 


Critical Paths under _main in COMMON

    None.

Critical Paths under _INTERRUPT_InterruptManager in COMMON

    _TMR1_CallBack->_controleMovimento
    _controleMovimento->_PWM3_LoadDutyValue
    _IOCBF3_ISR->_chegadaS1
    _IOCBF3_ISR->_chegadaS2
    _chegadaS2->_matrixUpdate
    _chegadaS1->_matrixUpdate
    _CMP2_ISR->_chegadaS4
    _chegadaS4->_matrixUpdate
    _CMP1_ISR->_chegadaS3
    _chegadaS3->_matrixUpdate
    _matrixUpdate->i1_txSpi
    i1_txSpi->i1_SPI1_ExchangeBlock

Critical Paths under _main in BANK0

    _main->_initMatrix
    _initMatrix->_txSpi
    _txSpi->_SPI1_ExchangeBlock
    _SYSTEM_Initialize->_TMR0_Initialize
    _TMR1_Initialize->_TMR1_SetInterruptHandler
    _TMR0_Initialize->_TMR0_SetInterruptHandler
    _PIN_MANAGER_Initialize->_IOCBF0_SetInterruptHandler
    _PIN_MANAGER_Initialize->_IOCBF3_SetInterruptHandler
    _EUSART_Initialize->_EUSART_SetErrorHandler
    _EUSART_Initialize->_EUSART_SetFramingErrorHandler
    _EUSART_Initialize->_EUSART_SetOverrunErrorHandler

Critical Paths under _INTERRUPT_InterruptManager in BANK0

    None.

Critical Paths under _main in BANK1

    None.

Critical Paths under _INTERRUPT_InterruptManager in BANK1

    None.

Critical Paths under _main in BANK2

    None.

Critical Paths under _INTERRUPT_InterruptManager in BANK2

    None.

Critical Paths under _main in BANK3

    None.

Critical Paths under _INTERRUPT_InterruptManager in BANK3

    None.

Critical Paths under _main in BANK4

    None.

Critical Paths under _INTERRUPT_InterruptManager in BANK4

    None.

Call Graph Tables:

 ---------------------------------------------------------------------------------
 (Depth) Function   	        Calls       Base Space   Used Autos Params    Refs
 ---------------------------------------------------------------------------------
 (0) _main                                                 0     0      0    2336
         _IOCBF3_SetInterruptHandler
                          _SPI1_Open
                  _SYSTEM_Initialize
           _TMR1_SetInterruptHandler
                         _initMatrix
 ---------------------------------------------------------------------------------
 (1) _initMatrix                                           9     9      0     910
                                              8 BANK0      9     9      0
                              _txSpi
 ---------------------------------------------------------------------------------
 (2) _txSpi                                                3     1      2     518
                                              5 BANK0      3     1      2
                 _SPI1_ExchangeBlock
 ---------------------------------------------------------------------------------
 (3) _SPI1_ExchangeBlock                                   5     3      2     199
                                              0 BANK0      5     3      2
 ---------------------------------------------------------------------------------
 (1) _SYSTEM_Initialize                                    0     0      0     914
                     _ADC_Initialize
                    _CMP1_Initialize
                    _CMP2_Initialize
                  _EUSART_Initialize
                     _FVR_Initialize
              _OSCILLATOR_Initialize
             _PIN_MANAGER_Initialize
                    _PWM3_Initialize
                    _SPI1_Initialize
                    _TMR0_Initialize
                    _TMR1_Initialize
                    _TMR2_Initialize
                     _WDT_Initialize
 ---------------------------------------------------------------------------------
 (2) _WDT_Initialize                                       0     0      0       0
 ---------------------------------------------------------------------------------
 (2) _TMR2_Initialize                                      0     0      0       0
 ---------------------------------------------------------------------------------
 (2) _TMR1_Initialize                                      0     0      0     174
           _TMR1_SetInterruptHandler
 ---------------------------------------------------------------------------------
 (1) _TMR1_SetInterruptHandler                             2     0      2     174
                                              0 BANK0      2     0      2
 ---------------------------------------------------------------------------------
 (2) _TMR0_Initialize                                      1     1      0      98
                                              2 BANK0      1     1      0
           _TMR0_SetInterruptHandler
 ---------------------------------------------------------------------------------
 (3) _TMR0_SetInterruptHandler                             2     0      2      98
                                              0 BANK0      2     0      2
 ---------------------------------------------------------------------------------
 (2) _SPI1_Initialize                                      0     0      0       0
 ---------------------------------------------------------------------------------
 (2) _PWM3_Initialize                                      0     0      0       0
 ---------------------------------------------------------------------------------
 (2) _PIN_MANAGER_Initialize                               0     0      0     348
         _IOCBF0_SetInterruptHandler
         _IOCBF3_SetInterruptHandler
 ---------------------------------------------------------------------------------
 (3) _IOCBF3_SetInterruptHandler                           2     0      2     250
                                              0 BANK0      2     0      2
 ---------------------------------------------------------------------------------
 (3) _IOCBF0_SetInterruptHandler                           2     0      2      98
                                              0 BANK0      2     0      2
 ---------------------------------------------------------------------------------
 (2) _OSCILLATOR_Initialize                                0     0      0       0
 ---------------------------------------------------------------------------------
 (2) _FVR_Initialize                                       0     0      0       0
 ---------------------------------------------------------------------------------
 (2) _EUSART_Initialize                                    0     0      0     294
             _EUSART_SetErrorHandler
      _EUSART_SetFramingErrorHandler
      _EUSART_SetOverrunErrorHandler
 ---------------------------------------------------------------------------------
 (3) _EUSART_SetOverrunErrorHandler                        2     0      2      98
                                              0 BANK0      2     0      2
 ---------------------------------------------------------------------------------
 (3) _EUSART_SetFramingErrorHandler                        2     0      2      98
                                              0 BANK0      2     0      2
 ---------------------------------------------------------------------------------
 (3) _EUSART_SetErrorHandler                               2     0      2      98
                                              0 BANK0      2     0      2
 ---------------------------------------------------------------------------------
 (2) _CMP2_Initialize                                      0     0      0       0
 ---------------------------------------------------------------------------------
 (2) _CMP1_Initialize                                      0     0      0       0
 ---------------------------------------------------------------------------------
 (2) _ADC_Initialize                                       0     0      0       0
 ---------------------------------------------------------------------------------
 (1) _SPI1_Open                                            4     4      0      88
                                              0 BANK0      4     4      0
 ---------------------------------------------------------------------------------
 Estimated maximum stack depth 3
 ---------------------------------------------------------------------------------
 (Depth) Function   	        Calls       Base Space   Used Autos Params    Refs
 ---------------------------------------------------------------------------------
 (4) _INTERRUPT_InterruptManager                           0     0      0    5635
                           _CMP1_ISR
                           _CMP2_ISR
                    _PIN_MANAGER_IOC
                           _TMR0_ISR
                           _TMR1_ISR
 ---------------------------------------------------------------------------------
 (5) _TMR1_ISR                                             0     0      0     892
                      _TMR1_CallBack
                    _TMR1_WriteTimer
 ---------------------------------------------------------------------------------
 (6) _TMR1_WriteTimer                                      2     0      2     240
                                              0 COMMON     2     0      2
 ---------------------------------------------------------------------------------
 (6) _TMR1_CallBack                                        0     0      0     652
                   Absolute function *
       _TMR1_DefaultInterruptHandler *
                  _controleMovimento *
 ---------------------------------------------------------------------------------
 (7) _controleMovimento                                    2     2      0     652
                                              4 COMMON     2     2      0
                 _PWM3_LoadDutyValue
 ---------------------------------------------------------------------------------
 (7) _TMR1_DefaultInterruptHandler                         0     0      0       0
 ---------------------------------------------------------------------------------
 (5) _TMR0_ISR                                             0     0      0       0
                      _TMR0_CallBack
 ---------------------------------------------------------------------------------
 (6) _TMR0_CallBack                                        0     0      0       0
                   Absolute function *
       _TMR0_DefaultInterruptHandler *
 ---------------------------------------------------------------------------------
 (7) _TMR0_DefaultInterruptHandler                         0     0      0       0
 ---------------------------------------------------------------------------------
 (5) _PIN_MANAGER_IOC                                      0     0      0    2345
                         _IOCBF0_ISR
                         _IOCBF3_ISR
 ---------------------------------------------------------------------------------
 (6) _IOCBF3_ISR                                           0     0      0    2345
                   Absolute function *
     _IOCBF3_DefaultInterruptHandler *
                          _chegadaS1 *
                          _chegadaS2 *
 ---------------------------------------------------------------------------------
 (7) _chegadaS2                                            1     1      0    1199
                                             12 COMMON     1     1      0
                 _PWM3_LoadDutyValue
                     _TMR1_ReadTimer
                    _TMR1_StartTimer
                       _matrixUpdate
 ---------------------------------------------------------------------------------
 (7) _chegadaS1                                            1     1      0    1146
                                             12 COMMON     1     1      0
                 _PWM3_LoadDutyValue
                       _matrixUpdate
 ---------------------------------------------------------------------------------
 (7) _IOCBF3_DefaultInterruptHandler                       0     0      0       0
 ---------------------------------------------------------------------------------
 (6) _IOCBF0_ISR                                           0     0      0       0
                   Absolute function *
     _IOCBF0_DefaultInterruptHandler *
 ---------------------------------------------------------------------------------
 (7) _IOCBF0_DefaultInterruptHandler                       0     0      0       0
 ---------------------------------------------------------------------------------
 (7) Absolute function(Fake)                               0     0      0       0
 ---------------------------------------------------------------------------------
 (5) _CMP2_ISR                                             0     0      0    1199
                          _chegadaS4
 ---------------------------------------------------------------------------------
 (6) _chegadaS4                                            1     1      0    1199
                                             12 COMMON     1     1      0
                 _PWM3_LoadDutyValue
                     _TMR1_ReadTimer
                    _TMR1_StartTimer
                       _matrixUpdate
 ---------------------------------------------------------------------------------
 (5) _CMP1_ISR                                             0     0      0    1199
                          _chegadaS3
 ---------------------------------------------------------------------------------
 (6) _chegadaS3                                            1     1      0    1199
                                             12 COMMON     1     1      0
                 _PWM3_LoadDutyValue
                     _TMR1_ReadTimer
                    _TMR1_StartTimer
                       _matrixUpdate
 ---------------------------------------------------------------------------------
 (8) _matrixUpdate                                         6     6      0     494
                                              8 COMMON     4     4      0
                            i1_txSpi
 ---------------------------------------------------------------------------------
 (9) i1_txSpi                                              3     1      2     212
                                              5 COMMON     3     1      2
               i1_SPI1_ExchangeBlock
 ---------------------------------------------------------------------------------
 (10) i1_SPI1_ExchangeBlock                                5     3      2     116
                                              0 COMMON     5     3      2
 ---------------------------------------------------------------------------------
 (8) _TMR1_StartTimer                                      0     0      0       0
 ---------------------------------------------------------------------------------
 (8) _TMR1_ReadTimer                                       5     5      0      53
                                              0 COMMON     3     3      0
 ---------------------------------------------------------------------------------
 (8) _PWM3_LoadDutyValue                                   4     2      2     652
                                              0 COMMON     4     2      2
 ---------------------------------------------------------------------------------
 Estimated maximum stack depth 10
 ---------------------------------------------------------------------------------

 Call Graph Graphs:

 _main (ROOT)
   _IOCBF3_SetInterruptHandler
   _SPI1_Open
   _SYSTEM_Initialize
     _ADC_Initialize
     _CMP1_Initialize
     _CMP2_Initialize
     _EUSART_Initialize
       _EUSART_SetErrorHandler
       _EUSART_SetFramingErrorHandler
       _EUSART_SetOverrunErrorHandler
     _FVR_Initialize
     _OSCILLATOR_Initialize
     _PIN_MANAGER_Initialize
       _IOCBF0_SetInterruptHandler
       _IOCBF3_SetInterruptHandler
     _PWM3_Initialize
     _SPI1_Initialize
     _TMR0_Initialize
       _TMR0_SetInterruptHandler
     _TMR1_Initialize
       _TMR1_SetInterruptHandler
     _TMR2_Initialize
     _WDT_Initialize
   _TMR1_SetInterruptHandler
   _initMatrix
     _txSpi
       _SPI1_ExchangeBlock

 _INTERRUPT_InterruptManager (ROOT)
   _CMP1_ISR
     _chegadaS3
       _PWM3_LoadDutyValue
       _TMR1_ReadTimer
       _TMR1_StartTimer
       _matrixUpdate
         i1_txSpi
           i1_SPI1_ExchangeBlock
   _CMP2_ISR
     _chegadaS4
       _PWM3_LoadDutyValue
       _TMR1_ReadTimer
       _TMR1_StartTimer
       _matrixUpdate
   _PIN_MANAGER_IOC
     _IOCBF0_ISR
       Absolute function(Fake) *
       _IOCBF0_DefaultInterruptHandler *
     _IOCBF3_ISR
       Absolute function(Fake) *
       _IOCBF3_DefaultInterruptHandler *
       _chegadaS1 *
         _PWM3_LoadDutyValue
         _matrixUpdate
       _chegadaS2 *
         _PWM3_LoadDutyValue
         _TMR1_ReadTimer
         _TMR1_StartTimer
         _matrixUpdate
   _TMR0_ISR
     _TMR0_CallBack
       Absolute function(Fake) *
       _TMR0_DefaultInterruptHandler *
   _TMR1_ISR
     _TMR1_CallBack
       Absolute function(Fake) *
       _TMR1_DefaultInterruptHandler *
       _controleMovimento *
         _PWM3_LoadDutyValue
     _TMR1_WriteTimer

 Address spaces:
Name               Size   Autos  Total    Cost      Usage
BIGRAM             170      0       0       0        0.0%
EEDATA             100      0       0       0        0.0%
NULL                 0      0       0       0        0.0%
CODE                 0      0       0       0        0.0%
BITCOMMON            E      0       0       1        0.0%
BITSFR0              0      0       0       1        0.0%
SFR0                 0      0       0       1        0.0%
COMMON               E      D       E       2      100.0%
BITSFR1              0      0       0       2        0.0%
SFR1                 0      0       0       2        0.0%
BITSFR2              0      0       0       3        0.0%
SFR2                 0      0       0       3        0.0%
STACK                0      0       0       3        0.0%
BITSFR3              0      0       0       4        0.0%
SFR3                 0      0       0       4        0.0%
ABS                  0      0      41       4        0.0%
BITBANK0            50      0       0       5        0.0%
BITSFR4              0      0       0       5        0.0%
SFR4                 0      0       0       5        0.0%
BANK0               50     11      33       6       63.7%
BITSFR5              0      0       0       6        0.0%
SFR5                 0      0       0       6        0.0%
BITBANK1            50      0       0       7        0.0%
BITSFR6              0      0       0       7        0.0%
SFR6                 0      0       0       7        0.0%
BANK1               50      0       0       8        0.0%
BITSFR7              0      0       0       8        0.0%
SFR7                 0      0       0       8        0.0%
BITBANK2            50      0       0       9        0.0%
BITSFR8              0      0       0       9        0.0%
SFR8                 0      0       0       9        0.0%
BANK2               50      0       0      10        0.0%
BITSFR9              0      0       0      10        0.0%
SFR9                 0      0       0      10        0.0%
BITBANK3            50      0       0      11        0.0%
BITSFR10             0      0       0      11        0.0%
SFR10                0      0       0      11        0.0%
BANK3               50      0       0      12        0.0%
BITSFR11             0      0       0      12        0.0%
SFR11                0      0       0      12        0.0%
BITBANK4            30      0       0      13        0.0%
BITSFR12             0      0       0      13        0.0%
SFR12                0      0       0      13        0.0%
BANK4               30      0       0      14        0.0%
BITSFR13             0      0       0      14        0.0%
SFR13                0      0       0      14        0.0%
BITSFR14             0      0       0      15        0.0%
SFR14                0      0       0      15        0.0%
DATA                 0      0      41      15        0.0%
BITSFR15             0      0       0      16        0.0%
SFR15                0      0       0      16        0.0%
BITSFR16             0      0       0      17        0.0%
SFR16                0      0       0      17        0.0%
BITSFR17             0      0       0      18        0.0%
SFR17                0      0       0      18        0.0%
BITSFR18             0      0       0      19        0.0%
SFR18                0      0       0      19        0.0%
BITSFR19             0      0       0      20        0.0%
SFR19                0      0       0      20        0.0%
BITSFR20             0      0       0      21        0.0%
SFR20                0      0       0      21        0.0%
BITSFR21             0      0       0      22        0.0%
SFR21                0      0       0      22        0.0%
BITSFR22             0      0       0      23        0.0%
SFR22                0      0       0      23        0.0%
BITSFR23             0      0       0      24        0.0%
SFR23                0      0       0      24        0.0%
BITSFR24             0      0       0      25        0.0%
SFR24                0      0       0      25        0.0%
BITSFR25             0      0       0      26        0.0%
SFR25                0      0       0      26        0.0%
BITSFR26             0      0       0      27        0.0%
SFR26                0      0       0      27        0.0%
BITSFR27             0      0       0      28        0.0%
SFR27                0      0       0      28        0.0%
BITSFR28             0      0       0      29        0.0%
SFR28                0      0       0      29        0.0%
BITSFR29             0      0       0      30        0.0%
SFR29                0      0       0      30        0.0%
BITSFR30             0      0       0      31        0.0%
SFR30                0      0       0      31        0.0%
BITSFR31             0      0       0      32        0.0%
SFR31                0      0       0      32        0.0%


Microchip Technology PIC Macro Assembler V2.36 build 20220127204148 
Symbol Table                                                                                   Sun Jul 16 11:46:38 2023

             ??_IOCBF3_DefaultInterruptHandler 0070                ?_IOCBF3_DefaultInterruptHandler 0070  
                           _SPI1_ExchangeBlock 0305                                             l11 0517  
                                           l41 04ED                                             l74 04F9  
                            ??_CMP1_Initialize 0031                         __end_of_FVR_Initialize 0577  
                              _timer0ReloadVal 0030                                            l141 054C  
                                          l214 0527                                            l151 0546  
                                          l129 0304                                            l330 0552  
                                          l242 0576                                            l333 055E  
                                          l327 0558                                            l503 051F  
                                          l191 03AD                                            l601 0475  
                                          l194 052E                                            l354 0504  
                                          l372 0312                                            l541 0450  
                                          l197 0572                                            l605 0482  
                                          l358 0246                                            l454 040B  
                                          l374 0317                                            l288 03D2  
                                          l376 0331                                            l624 01EF  
                                          l563 0540                                            l487 053A  
                                          l678 0383                                            l679 0383  
                                          _PR2 001B                                            u620 0317  
                                          u621 0316                                            u630 0331  
                                          u631 0330                                            u910 01AB  
                                          u911 01AA                                            u920 01D7  
                                          u921 01D6                                            u930 01EF  
                                          u931 01EE                                            u890 01F7  
                                          u891 01F6                            ?_SPI1_ExchangeBlock 0031  
                              _timer1ReloadVal 0024                                            _mov 0050  
               ?_EUSART_SetFramingErrorHandler 0031                                _TMR2_Initialize 0518  
                                          wreg 0009                        SPI1_ExchangeBlock@block 0034  
                                         l2061 0559                                           l2053 0547  
                                         l2231 04F7                                           l2055 0541  
                                         l2071 0325                                           l2063 0307  
                                         l2225 04EE                                           l2057 0553  
                                         l2321 0502                                           l2313 04FA  
                                         l2073 0535                                           l2065 030C  
                                         l2227 04F0                                           l2059 054D  
                                         l2331 0573                                           l2323 0528  
                                         l2315 04FD                                           l2075 053B  
                                         l2067 0318                                           l2411 0480  
                                         l2229 04F5                                           l2325 052B  
                                         l2181 0514                                           l2317 04FE  
                                         l2341 043B                                           l2333 0518  
                                         l2069 0321                                           l2431 01F2  
                                         l2183 04E2                                           l2327 052C  
                                         l2271 02DA                                           l2175 050F  
                                         l2319 0500                                           l2351 0449  
                                         l2343 0440                                           l2335 051B  
                                         l2441 0244                                           l2433 01F7  
                                         l2353 0520                                           l2185 04E4  
                                         l2281 02E5                                           l2273 02DC  
                                         l2177 0512                                           l2345 0443  
                                         l2361 03F5                                           l2337 051C  
                                         l2329 056F                                           l2409 0477  
                                         l2435 0219                                           l2355 0523  
                                         l2187 04E9                                           l2291 02F1  
                                         l2283 02EC                                           l2275 02DF  
                                         l2267 02D4                                           l2179 0513  
                                         l2347 0447                                           l2371 0400  
                                         l2363 03F7                                           l2339 051D  
                                         l2437 021A                                           l2357 0524  
                                         l2189 04EB                                           l2381 03C0  
                                         l2293 02F2                                           l2285 02EE  
                                         l2277 02E1                                           l2269 02D7  
                                         l2349 0448                                           l2373 0408  
                                         l2365 03F9                                           l2429 0386  
                                         l2439 022B                                           l2383 03C8  
                                         l2375 03AE                                           l2295 02F3  
                                         l2287 02EF                                           l2279 02E4  
                                         l2367 03FA                                           l2359 03F3  
                                         l2471 01AB                                           l2551 037A  
                                         l2385 03D0                                           l2377 03B7  
                                         l2297 02FB                                           l2289 02F0  
                                         l2369 03FE                                           l2465 019C  
                                         l2553 037E                                           l2379 03B8  
                                         l2299 0303                                           l2491 01DC  
                                         l2483 01AD                                           l2467 01A1  
                                         l2459 0199                                           l2555 0381  
                                         l2547 035D                                           l2485 01CC  
                                         l2477 01AC                                           l2469 01A5  
                                         l2557 0382                                           l2549 0378  
                                         l2495 01E4                                           l2487 01D1  
                                         l2497 01E9                                           l2489 01D7  
                                         _LATA 010C                                           _LATB 010D  
                            ??_CMP2_Initialize 0031                                           i1l14 043A  
                                         i1l47 0564                                           i1l80 056A  
                                         _TMR0 0015                                           _TMR2 001A  
                                         _WPUA 020C                                           _WPUB 020D  
                                         _main 035D                                           fsr0h 0005  
                                         fsr1h 0007                                           indf0 0000  
                                         fsr0l 0004                                           indf1 0001  
                                         fsr1l 0006                                           btemp 007E  
                         ??_SPI1_ExchangeBlock 0033                      i1SPI1_ExchangeBlock@block 0073  
                                         start 0049                                __end_ofi1_txSpi 04AF  
                             __end_of_CMP1_ISR 056B                               __end_of_CMP2_ISR 0565  
                   ??_TMR1_SetInterruptHandler 0033                        __end_of_TMR0_Initialize 0451  
               ??_TMR0_DefaultInterruptHandler 0070                                ?_FVR_Initialize 0070  
                __end_of_OSCILLATOR_Initialize 052F                                          ?_main 0070  
             SPI1_Open@spi1UniqueConfiguration 0034                                _TMR1_StartTimer 0577  
                                        _T1CON 0018                                          _T2CON 001C  
                                        i1l134 0472                                          i1l144 057E  
                                        i1l138 04A0                                          i1l154 057D  
                                        i1l148 0491                                          i1l601 04A2  
                                        i1l425 0047                                          i1l372 033E  
                                        i1l605 04AE                                          i1l374 0343  
                                        i1l614 03F2                                          i1l463 050E  
                                        i1l376 035C                                          i1l560 04D5  
                                        i1l480 04BB                                          i1l457 0579  
                                        i1l490 057B                                          i1l644 02D3  
                                        i1l556 0423                                          i1l484 04C8  
                                        i1l468 0461                                          i1l653 0198  
                                        i1l662 0133                                          i1l566 057C  
                                        i1l671 00C7                                          i1l639 0293  
                                        i1l656 00DD                                          i1l665 0071  
                                        _RCREG 0199                                          _RCSTA 019D  
                                        _TMR1H 0017                                          _TMR1L 0016  
                                        u60_25 0433                                          u61_20 03F2  
                                        u61_21 03F1                                          u70_20 015B  
                                        u70_21 015A                                          u71_20 0187  
                                        u71_21 0186                                          u80_20 0129  
                                        u72_20 0067                                          u64_20 025D  
                                        u80_21 0128                                          u72_21 0066  
                                        u64_21 025C                                          u81_20 012F  
                                        u73_20 006B                                          u65_20 0289  
                                        u81_21 012E                                          u73_21 006A  
                                        u65_21 0288                                          _TRISA 008C  
                                        _TRISB 008D                                          u58_20 0343  
                                        u74_20 0088                                          u82_20 0499  
                                        u90_20 041D                                          u66_20 028F  
                                        u58_21 0342                                          u74_21 0087  
                                        u82_21 0498                                          u90_21 041C  
                                        u66_21 028E                                          u59_20 035C  
                                        u75_20 00BD                                          u67_20 02B2  
                                        u83_20 048A                                          u59_21 035B  
                                        u75_21 00BC                                          u67_21 02B1  
                                        u83_21 0489                                          u76_20 00C3  
                                        u68_20 013F                                          u84_20 0456  
                                        u76_21 00C2                                          u68_21 013E  
                                        u84_21 0455                                          u77_20 00D3  
                                        u69_20 0143                                          u85_20 04C3  
                                        u77_21 00D2                                          u69_21 0142  
                                        u85_21 04C2                                          u78_20 00D7  
                                        u86_20 04D0                                          u78_21 00D6  
                                        u86_21 04CF                                          u79_20 00F4  
                                        u87_20 0467                                          u79_21 00F3  
                                        u87_21 0466                                          u88_20 046F  
                                        u96_20 000A                                          u88_21 046E  
                                        u96_21 0009                                          u97_20 000E  
                                        u97_21 000D                                          _TXREG 019A  
                                        u98_20 0015                                          u98_21 0014  
                                        u99_20 0019                                          u99_21 0018  
                                        _TXSTA 019E                      ?_TMR0_SetInterruptHandler 0031  
                             __end_of_TMR0_ISR 0424                               __end_of_TMR1_ISR 04BC  
                      __end_of_PIN_MANAGER_IOC 0473                                 _WDT_Initialize 056F  
                                        _txSpi 0473                        __end_of_PWM3_Initialize 0518  
                      __end_of_TMR1_Initialize 040C                                          pclath 000A  
                                        status 0003                                          wtemp0 007E  
                              _TMR1_WriteTimer 0451                                  txSpi@dataSize 0036  
                              __initialization 004B                                   __end_of_main 0386  
                      __end_of_TMR2_Initialize 0520                    ?_INTERRUPT_InterruptManager 0070  
                                       ??_main 0042                        _IOCBF0_InterruptHandler 002E  
                       __end_of_WDT_Initialize 0573              _EUSART_DefaultFramingErrorHandler 0000  
                                       _ADCON0 009D                                         _ADCON1 009E  
                   _EUSART_OverrunErrorHandler 0028                                         _ADRESH 009C  
                                       _ADRESL 009B                                         _CCPR3H 0312  
                                       _CCPR3L 0311                                         ?_txSpi 0036  
                                       _ANSELA 018C                                         _ANSELB 018D  
                                       _BORCON 0116                                         _T1GCON 0019  
                                       u100_20 0020                                         u100_21 001F  
                                       u101_20 0025                                         u101_21 0024  
                                       u102_20 002A                                         i1l2001 0344  
                                       u102_21 0029                        TMR1_WriteTimer@timerVal 0070  
                                       i1l2011 0424                                         i1l2003 034C  
                                       i1l2013 0577                                         i1l2005 0350  
                                       i1l2101 028F                                         i1l2015 0505  
                                       i1l2007 04A4                                         i1l2031 03EB  
                                       i1l2111 029A                                         i1l2103 0292  
                                       u103_20 0032                                         i1l2009 04AC  
                                       i1l2033 03ED                                         i1l2025 03D7  
                                       i1l2201 0082                                         i1l2121 02AC  
                                       i1l2113 029C                                         u103_21 0031  
                                       i1l2027 03DB                                         i1l2019 03D3  
                                       i1l2211 00A6                                         i1l2203 0083  
                                       i1l2131 02D0                                         i1l2123 02AD  
                                       i1l2115 02A0                                         i1l2029 03E3  
                                       i1l2221 00BD                                         i1l2213 00AB  
                                       i1l2205 0088                                         i1l2301 0492  
                                       i1l2141 0146                                         i1l2133 0134  
                                       i1l2125 02B2                                         i1l2117 02A4  
                                       i1l2109 0294                                         i1l2223 00C3  
                                       i1l2215 00B0                                         i1l2207 0094  
                                       i1l2303 0499                                         i1l2151 0155  
                                       i1l2143 0149                                         i1l2135 013A  
                                       i1l2127 02BF                                         i1l2119 02A8  
                                       i1l2311 048F                                         u104_20 0037  
                                       i1l2241 00DA                                         i1l2233 00C8  
                                       i1l2217 00B5                                         i1l2209 009A  
                                       i1l2305 049E                                         i1l2161 0171  
                                       i1l2153 0156                                         i1l2145 014B  
                                       i1l2137 013F                                         i1l2129 02CB  
                                       i1l2081 024F                                         i1l2401 04BC  
                                       u104_21 0036                                         i1l2251 0106  
                                       i1l2243 00EE                                         i1l2235 00CE  
                                       i1l2219 00B8                                         i1l2171 0190  
                                       i1l2163 017D                                         i1l2155 015B  
                                       i1l2147 014F                                         i1l2139 0143  
                                       i1l2307 0483                                         i1l2091 0267  
                                       i1l2403 04C3                                         i1l2261 0124  
                                       i1l2253 0112                                         i1l2245 00EF  
                                       i1l2237 00D3                                         i1l2413 055F  
                                       i1l2173 0195                                         i1l2165 0182  
                                       i1l2157 0167                                         i1l2149 0153  
                                       i1l2309 048A                                         i1l2421 0462  
                                       i1l2405 04C9                                         i1l2085 0257  
                                       i1l2077 0247                                         i1l2263 0129  
                                       i1l2255 0117                                         i1l2247 00F4  
                                       i1l2239 00D7                                         i1l2191 005C  
                                       i1l2415 0561                                         i1l2167 0187  
                                       i1l2159 016C                                         i1l2423 0467  
                                       i1l2407 04D0                                         i1l2087 025D  
                                       i1l2079 0248                                         i1l2095 026C  
                                       i1l2511 0006                                         u105_20 003F  
                                       i1l2265 012F                                         i1l2257 011C  
                                       i1l2249 0100                                         i1l2417 0565  
                                       i1l2193 0062                                         i1l2169 018B  
                                       i1l2425 046A                                         i1l2089 0264  
                                       i1l2097 0283                                         u105_21 003E  
                                       i1l2521 0019                                         i1l2513 000A  
                                       i1l2259 0121                                         i1l2419 0567  
                                       i1l2195 0067                                         i1l2427 046F  
                                       i1l2451 0420                                         i1l2099 0289  
                                       i1l2531 002D                                         i1l2523 001C  
                                       i1l2515 000E                                         i1l2197 006B  
                                       i1l2445 040C                                         i1l2453 04AF  
                                       i1l2541 0044                                         i1l2533 0032  
                                       i1l2525 0020                                         i1l2517 0011  
                                       i1l2199 006E                                         i1l2447 040D  
                                       i1l2391 0457                                         i1l2455 04B1  
                                       i1l2535 0037                                         i1l2527 0025  
                                       i1l2519 0015                                         u106_20 0044  
                                       i1l2449 041D                                         i1l2393 0459  
                                       i1l2457 04B8                                         u106_21 0043  
                                       i1l2537 003A                                         i1l2529 002A  
                                       i1l2395 045B                                         i1l2387 0451  
                                       i1l2539 003F                                         i1l2389 0456  
                                       i1l2397 045D                                         i1l2399 045F  
                                       i1l2579 0275                                         i1l1997 0333  
                                       i1l1999 0338                                    initMatrix@i 003F  
                                  initMatrix@j 0041                                    initMatrix@k 003E  
                                       _FVRCON 0117                                         _OSCCON 0099  
                                    ??i1_txSpi 0077                                         _SPBRGH 019C  
                                       _SPBRGL 019B                                         _WDTCON 0097  
                            __end_of_SPI1_Open 0247           __end_of_TMR1_DefaultInterruptHandler 057C  
                 _TMR1_DefaultInterruptHandler 057B                                   _CCPTMRS0bits 029E  
                      __end_of_TMR1_StartTimer 057A                                  ?_matrixUpdate 0070  
                             ?_TMR0_Initialize 0070                                ?_WDT_Initialize 0070  
                     i1SPI1_ExchangeBlock@data 0074                                      ?_CMP1_ISR 0070  
                        __end_of_TMR0_CallBack 04D6                                      ?_CMP2_ISR 0070  
     TMR0_SetInterruptHandler@InterruptHandler 0031       TMR1_SetInterruptHandler@InterruptHandler 0031  
   IOCBF3_SetInterruptHandler@InterruptHandler 0031     IOCBF0_SetInterruptHandler@InterruptHandler 0031  
                             ?_PIN_MANAGER_IOC 0070                        __end_of_TMR1_WriteTimer 0462  
                                 ??_IOCBF0_ISR 0070                                   ??_IOCBF3_ISR 007D  
                        __end_of_TMR1_CallBack 04C9                               ?_PWM3_Initialize 0070  
                             ?_TMR1_Initialize 0070                              _SYSTEM_Initialize 0386  
                      __end_of__initialization 0058                                _CMP1_Initialize 04EE  
                           ?_SYSTEM_Initialize 0070                                    i1txSpi@data 0077  
                               __pcstackCOMMON 0070                                   __pidataBANK0 057A  
                          ??_SYSTEM_Initialize 0034                                      ?_TMR0_ISR 0070  
                              i1txSpi@dataSize 0075                                 ??_matrixUpdate 0078  
                                    ?_TMR1_ISR 0070                  ?_TMR1_DefaultInterruptHandler 0070  
                            ??_SPI1_Initialize 0031         __end_of_IOCBF0_DefaultInterruptHandler 057F  
               _IOCBF0_DefaultInterruptHandler 057E                                  __end_of_txSpi 0483  
                             ?_TMR2_Initialize 0070                             __end_of_IOCBF0_ISR 04A1  
                           __end_of_IOCBF3_ISR 0492                                _CMP2_Initialize 04E2  
                           _spi1_configuration 056B                                 _OPTION_REGbits 0095  
                        TMR0_ISR@CountCallBack 004A                ??_EUSART_SetOverrunErrorHandler 0033  
       __end_of_IOCBF3_DefaultInterruptHandler 057E                 _IOCBF3_DefaultInterruptHandler 057D  
                                   ??_CMP1_ISR 007D                                     ??_CMP2_ISR 007D  
                    __end_of_SYSTEM_Initialize 03AE                                        ??_txSpi 0038  
                                   __pbssBANK0 0042                               ??_FVR_Initialize 0031  
                                   __pmaintext 035D               __end_of_TMR0_SetInterruptHandler 0541  
                             ?_TMR1_StartTimer 0070                                     ??_TMR0_ISR 0070  
                                   ??_TMR1_ISR 0076                                     __pintentry 0004  
                                      _CM1CON0 0111                                        _CM1CON1 0112  
                                      _CM2CON0 0113                                        _CM2CON1 0114  
                                      _CCP3CON 0313                                        _BAUDCON 019F  
                                      _APFCON0 011D                                        _APFCON1 011E  
                                   _destinoSub 0051                                        _OSCTUNE 0098  
                                      _SSP1ADD 0212                                        _SSP1BUF 0211  
                      __end_of_CMP1_Initialize 04FA                       ??_EUSART_SetErrorHandler 0033  
                            __end_of_chegadaS1 02D4                              __end_of_chegadaS2 0199  
                            __end_of_chegadaS3 0134                              __end_of_chegadaS4 00C8  
                             ?_TMR1_WriteTimer 0070                                        i1_txSpi 04A1  
                         _ADC_InterruptHandler 004C                                     _initMatrix 0199  
                      __end_of_CMP2_Initialize 04EE                       TMR1_ReadTimer@readValLow 0072  
                                      __ptext1 0199                                        __ptext2 0473  
                                      __ptext3 0305                                        __ptext4 0386  
                                      __ptext5 056F                                        __ptext6 0518  
                                      __ptext7 03F3                                        __ptext8 0535  
                                      __ptext9 043B                 ??_TMR1_DefaultInterruptHandler 0070  
                    TMR1_ReadTimer@readValHigh 0071                                      _T1CONbits 0018  
                        _OSCILLATOR_Initialize 0528                                      _T2CONbits 001C  
                                    _CMOUTbits 0115                       ??_PIN_MANAGER_Initialize 0033  
                    ?_TMR1_SetInterruptHandler 0031                                      _IOCBFbits 0396  
                                    _IOCBNbits 0395                                      _IOCBPbits 0394  
                                      _subindo 0052                                        clrloop0 0530  
                         end_of_initialization 0058                           __end_of_matrixUpdate 03F3  
                               initMatrix@data 003A          __end_of_EUSART_SetOverrunErrorHandler 0553  
                _EUSART_SetOverrunErrorHandler 054D                              _EUSART_Initialize 03AE  
                           ?_EUSART_Initialize 0070                                      _RCSTAbits 019D  
                                    _SPI1_Open 01F0                            ??_EUSART_Initialize 0033  
                             ??_WDT_Initialize 0031                       _TMR0_SetInterruptHandler 053B  
                               _TMR1_ReadTimer 0505                                      _TRISBbits 008D  
                 ??_IOCBF0_SetInterruptHandler 0033                   ??_IOCBF3_SetInterruptHandler 0033  
                             ?_CMP1_Initialize 0070                         SPI1_ExchangeBlock@data 0035  
                    __end_of_EUSART_Initialize 03D3                                _SPI1_Initialize 04FA  
                                    _TXSTAbits 019E                     __end_of_PWM3_LoadDutyValue 043B  
                                  ?_initMatrix 0070                               ?_CMP2_Initialize 0070  
                                   ?_SPI1_Open 0070                     _EUSART_DefaultErrorHandler 0000  
                               _ADC_Initialize 0520                         ?_OSCILLATOR_Initialize 0070  
                       __end_of_TMR1_ReadTimer 050F                            start_initialization 004B  
                 __end_ofi1_SPI1_ExchangeBlock 035D                                      _MatrixLed 0042  
               ?_EUSART_SetOverrunErrorHandler 0031                     _EUSART_FramingErrorHandler 002A  
                       _EUSART_SetErrorHandler 0559                         __end_of_ADC_Initialize 0528  
                                  __pdataBANK0 0052                                ?_TMR1_ReadTimer 0070  
                                  __pbssCOMMON 007D                                      ___latbits 0001  
                                __pcstackBANK0 0031                        __end_of_SPI1_Initialize 0505  
                                     ?i1_txSpi 0075                                      _chegadaS1 0294  
                                    _chegadaS2 0134                                      _chegadaS3 00C8  
                                    _chegadaS4 005C                          _TMR0_InterruptHandler 0020  
                                    __pnvBANK0 0020                        _IOCBF3_InterruptHandler 002C  
                       _PIN_MANAGER_Initialize 02D4               __end_of_TMR1_SetInterruptHandler 053B  
                                  ??_SPI1_Open 0031                                ?_ADC_Initialize 0070  
                            _controleMovimento 0247                                   _matrixUpdate 03D3  
                 ??_INTERRUPT_InterruptManager 007D                             ?_controleMovimento 0070  
           __end_of_IOCBF0_SetInterruptHandler 054D                     _IOCBF0_SetInterruptHandler 0547  
           __end_of_IOCBF3_SetInterruptHandler 0547                     _IOCBF3_SetInterruptHandler 0541  
                          ??_controleMovimento 0074                                       _CMP1_ISR 0565  
                                     _CMP2_ISR 055F                                  _TMR0_CallBack 04C9  
                   __end_of_SPI1_ExchangeBlock 0332                                  _TMR1_CallBack 04BC  
                            ??_TMR0_Initialize 0033                                    _destinoDesc 007D  
       EUSART_SetErrorHandler@interruptHandler 0031                                       _LATBbits 010D  
                                   ?_chegadaS1 0070                                     ?_chegadaS2 0070  
                                   ?_chegadaS3 0070                                     ?_chegadaS4 0070  
                          __end_of_matrix_conf 04E2                                      clear_ram0 052F  
                                     _PIE1bits 0091                                       _PIE2bits 0092  
                            _eusartRxLastError 004F                     ??_TMR0_SetInterruptHandler 0033  
                                     _PIR1bits 0011                ??_EUSART_SetFramingErrorHandler 0033  
                                     _PIR2bits 0012                      __end_of_controleMovimento 0294  
                                     _SSP1CON1 0215                                       _SSP1CON2 0216  
                         i1_SPI1_ExchangeBlock 0332                                       _TMR0_ISR 040C  
            _EUSART_DefaultOverrunErrorHandler 0000                                       _TMR1_ISR 04AF  
                                     _SSP1STAT 0214                              ??_PIN_MANAGER_IOC 007D  
                            ??_TMR1_Initialize 0033                              ??_PWM3_Initialize 0031  
                                   _ADCON0bits 009D                                 ?_TMR0_CallBack 0070  
                             initMatrix@i_1325 0040                               ?_SPI1_Initialize 0070  
                               ?_TMR1_CallBack 0070                              ??_TMR2_Initialize 0031  
                                 ??_initMatrix 0039                          ?i1_SPI1_ExchangeBlock 0070  
                      ??_OSCILLATOR_Initialize 0031                            _EUSART_ErrorHandler 0026  
                     _TMR1_SetInterruptHandler 0535                             _PWM3_LoadDutyValue 0424  
                        _TMR1_InterruptHandler 0022                                       __ptext10 053B  
                                     __ptext11 04FA                                       __ptext20 0553  
                                     __ptext12 050F                                       __ptext21 0559  
                                     __ptext13 02D4                                     _T1GCONbits 0019  
                                     __ptext30 057B                                       __ptext22 04E2  
                                     __ptext14 0541                                       __ptext31 0247  
                                     __ptext23 04EE                                       __ptext15 0547  
                                     __ptext40 0492                                       __ptext32 040C  
                                     __ptext24 0520                                       __ptext16 0528  
                                     __ptext41 057E                                       __ptext33 04C9  
                                     __ptext25 01F0                                       __ptext17 0573  
                                     __ptext50 0505                                       __ptext42 055F  
                                     __ptext34 057C                                       __ptext18 03AE  
                                     __ptext51 0424                                       __ptext43 005C  
                                     __ptext35 0462                                       __ptext27 04AF  
                                     __ptext19 054D                                       __ptext44 0565  
                                     __ptext36 0483                                       __ptext28 0451  
                                     __ptext45 00C8                                       __ptext37 0294  
                                     __ptext29 04BC                                       __ptext46 03D3  
                                     __ptext38 057D                                       __ptext47 04A1  
                                     __ptext39 0134                                       __ptext48 0332  
                                     __ptext49 0577                            ?_PWM3_LoadDutyValue 0070  
                                 _SSP1CON1bits 0215                          controleMovimento@cont 004E  
                                  _matrix_conf 04D6                              ??_TMR1_StartTimer 0070  
                           __end_of_initMatrix 01F0                                     _IOCBF0_ISR 0492  
                                   _IOCBF3_ISR 0483                                    ??_chegadaS1 007C  
                                  ??_chegadaS2 007C                                    ??_chegadaS3 007C  
                                  ??_chegadaS4 007C           __end_of_TMR0_DefaultInterruptHandler 057D  
                 _TMR0_DefaultInterruptHandler 057C                        ?_EUSART_SetErrorHandler 0031  
                i1SPI1_ExchangeBlock@blockSize 0070  EUSART_SetOverrunErrorHandler@interruptHandler 0031  
                         ??_PWM3_LoadDutyValue 0072                               ??_TMR1_ReadTimer 0070  
                                     int$flags 007E             __end_of_INTERRUPT_InterruptManager 0049  
                   _INTERRUPT_InterruptManager 0004          __end_of_EUSART_SetFramingErrorHandler 0559  
                _EUSART_SetFramingErrorHandler 0553                              ??_TMR1_WriteTimer 0072  
                                    txSpi@data 0038                    SPI1_ExchangeBlock@blockSize 0031  
                             matrixUpdate@data 0079                                     _INTCONbits 000B  
                              ??_TMR0_CallBack 0070                                     _FVRCONbits 0117  
                              ??_TMR1_CallBack 0076                                       intlevel1 0000  
                      ?_PIN_MANAGER_Initialize 0070                 __end_of_EUSART_SetErrorHandler 055F  
                             ??_ADC_Initialize 0031                         ??i1_SPI1_ExchangeBlock 0072  
                ?_TMR0_DefaultInterruptHandler 0070  EUSART_SetFramingErrorHandler@interruptHandler 0031  
                  PWM3_LoadDutyValue@dutyValue 0070                                  __pstringtext1 04D6  
                                __pstringtext2 056B                                 _FVR_Initialize 0573  
                                   _OPTION_REG 0095                                _TMR0_Initialize 043B  
                  ?_IOCBF0_SetInterruptHandler 0031                    ?_IOCBF3_SetInterruptHandler 0031  
                                  ?_IOCBF0_ISR 0070                                    ?_IOCBF3_ISR 0070  
               __end_of_PIN_MANAGER_Initialize 0305               ??_IOCBF0_DefaultInterruptHandler 0070  
              ?_IOCBF0_DefaultInterruptHandler 0070                                  matrixUpdate@i 007B  
                              _PIN_MANAGER_IOC 0462                                _TMR1_Initialize 03F3  
                              _PWM3_Initialize 050F                     __end_of_spi1_configuration 056F  
